
main.elf:     file format elf32-avr


Disassembly of section .text:

00000000 <__vectors>:
__vectors():
../../../../crt1/gcrt1.S:52
   0:	0c 94 46 00 	jmp	0x8c	; 0x8c <__ctors_end>
../../../../crt1/gcrt1.S:53
   4:	0c 94 58 00 	jmp	0xb0	; 0xb0 <__bad_interrupt>
../../../../crt1/gcrt1.S:54
   8:	0c 94 58 00 	jmp	0xb0	; 0xb0 <__bad_interrupt>
../../../../crt1/gcrt1.S:55
   c:	0c 94 58 00 	jmp	0xb0	; 0xb0 <__bad_interrupt>
../../../../crt1/gcrt1.S:56
  10:	0c 94 58 00 	jmp	0xb0	; 0xb0 <__bad_interrupt>
../../../../crt1/gcrt1.S:57
  14:	0c 94 58 00 	jmp	0xb0	; 0xb0 <__bad_interrupt>
../../../../crt1/gcrt1.S:58
  18:	0c 94 58 00 	jmp	0xb0	; 0xb0 <__bad_interrupt>
../../../../crt1/gcrt1.S:59
  1c:	0c 94 58 00 	jmp	0xb0	; 0xb0 <__bad_interrupt>
../../../../crt1/gcrt1.S:60
  20:	0c 94 58 00 	jmp	0xb0	; 0xb0 <__bad_interrupt>
../../../../crt1/gcrt1.S:61
  24:	0c 94 58 00 	jmp	0xb0	; 0xb0 <__bad_interrupt>
../../../../crt1/gcrt1.S:62
  28:	0c 94 58 00 	jmp	0xb0	; 0xb0 <__bad_interrupt>
../../../../crt1/gcrt1.S:63
  2c:	0c 94 58 00 	jmp	0xb0	; 0xb0 <__bad_interrupt>
../../../../crt1/gcrt1.S:64
  30:	0c 94 58 00 	jmp	0xb0	; 0xb0 <__bad_interrupt>
../../../../crt1/gcrt1.S:65
  34:	0c 94 58 00 	jmp	0xb0	; 0xb0 <__bad_interrupt>
../../../../crt1/gcrt1.S:66
  38:	0c 94 58 00 	jmp	0xb0	; 0xb0 <__bad_interrupt>
../../../../crt1/gcrt1.S:67
  3c:	0c 94 58 00 	jmp	0xb0	; 0xb0 <__bad_interrupt>
../../../../crt1/gcrt1.S:68
  40:	0c 94 58 00 	jmp	0xb0	; 0xb0 <__bad_interrupt>
../../../../crt1/gcrt1.S:69
  44:	0c 94 58 00 	jmp	0xb0	; 0xb0 <__bad_interrupt>
../../../../crt1/gcrt1.S:70
  48:	0c 94 58 00 	jmp	0xb0	; 0xb0 <__bad_interrupt>
../../../../crt1/gcrt1.S:71
  4c:	0c 94 58 00 	jmp	0xb0	; 0xb0 <__bad_interrupt>
../../../../crt1/gcrt1.S:72
  50:	0c 94 58 00 	jmp	0xb0	; 0xb0 <__bad_interrupt>
../../../../crt1/gcrt1.S:73
  54:	0c 94 58 00 	jmp	0xb0	; 0xb0 <__bad_interrupt>
../../../../crt1/gcrt1.S:74
  58:	0c 94 58 00 	jmp	0xb0	; 0xb0 <__bad_interrupt>
../../../../crt1/gcrt1.S:75
  5c:	0c 94 58 00 	jmp	0xb0	; 0xb0 <__bad_interrupt>
../../../../crt1/gcrt1.S:76
  60:	0c 94 58 00 	jmp	0xb0	; 0xb0 <__bad_interrupt>
../../../../crt1/gcrt1.S:77
  64:	0c 94 58 00 	jmp	0xb0	; 0xb0 <__bad_interrupt>
../../../../crt1/gcrt1.S:78
  68:	0c 94 58 00 	jmp	0xb0	; 0xb0 <__bad_interrupt>
../../../../crt1/gcrt1.S:79
  6c:	0c 94 58 00 	jmp	0xb0	; 0xb0 <__bad_interrupt>
../../../../crt1/gcrt1.S:80
  70:	0c 94 58 00 	jmp	0xb0	; 0xb0 <__bad_interrupt>
../../../../crt1/gcrt1.S:81
  74:	0c 94 58 00 	jmp	0xb0	; 0xb0 <__bad_interrupt>
../../../../crt1/gcrt1.S:82
  78:	0c 94 58 00 	jmp	0xb0	; 0xb0 <__bad_interrupt>
../../../../crt1/gcrt1.S:83
  7c:	0c 94 58 00 	jmp	0xb0	; 0xb0 <__bad_interrupt>
../../../../crt1/gcrt1.S:84
  80:	0c 94 58 00 	jmp	0xb0	; 0xb0 <__bad_interrupt>
../../../../crt1/gcrt1.S:85
  84:	0c 94 58 00 	jmp	0xb0	; 0xb0 <__bad_interrupt>
../../../../crt1/gcrt1.S:86
  88:	0c 94 58 00 	jmp	0xb0	; 0xb0 <__bad_interrupt>

0000008c <__ctors_end>:
../../../../crt1/gcrt1.S:179
  8c:	11 24       	eor	r1, r1
  8e:	1f be       	out	0x3f, r1	; 63
  90:	cf ef       	ldi	r28, 0xFF	; 255
  92:	d0 e1       	ldi	r29, 0x10	; 16
  94:	de bf       	out	0x3e, r29	; 62
  96:	cd bf       	out	0x3d, r28	; 61

00000098 <__do_clear_bss>:
  98:	19 e2       	ldi	r17, 0x29	; 41
  9a:	a0 e0       	ldi	r26, 0x00	; 0
  9c:	b1 e0       	ldi	r27, 0x01	; 1
  9e:	01 c0       	rjmp	.+2      	; 0xa2 <.do_clear_bss_start>

000000a0 <.do_clear_bss_loop>:
  a0:	1d 92       	st	X+, r1

000000a2 <.do_clear_bss_start>:
  a2:	a0 3a       	cpi	r26, 0xA0	; 160
  a4:	b1 07       	cpc	r27, r17
  a6:	e1 f7       	brne	.-8      	; 0xa0 <.do_clear_bss_loop>
  a8:	0e 94 5a 00 	call	0xb4	; 0xb4 <main>
  ac:	0c 94 e5 05 	jmp	0xbca	; 0xbca <_exit>

000000b0 <__bad_interrupt>:
__bad_interrupt():
../../../../crt1/gcrt1.S:195
  b0:	0c 94 00 00 	jmp	0	; 0x0 <__vectors>

000000b4 <main>:
main():
/home/becker/async/autosafe/trunk/tum/wcet-cbmc/benchmarks/ud/ud.c:92
  b4:	cf 93       	push	r28
  b6:	df 93       	push	r29
  b8:	cd b7       	in	r28, 0x3d	; 61
  ba:	de b7       	in	r29, 0x3e	; 62
  bc:	2e 97       	sbiw	r28, 0x0e	; 14
  be:	0f b6       	in	r0, 0x3f	; 63
  c0:	f8 94       	cli
  c2:	de bf       	out	0x3e, r29	; 62
  c4:	0f be       	out	0x3f, r0	; 63
  c6:	cd bf       	out	0x3d, r28	; 61
/home/becker/async/autosafe/trunk/tum/wcet-cbmc/benchmarks/ud/ud.c:93
  c8:	82 e3       	ldi	r24, 0x32	; 50
  ca:	90 e0       	ldi	r25, 0x00	; 0
  cc:	9a 87       	std	Y+10, r25	; 0x0a
  ce:	89 87       	std	Y+9, r24	; 0x09
  d0:	85 e0       	ldi	r24, 0x05	; 5
  d2:	90 e0       	ldi	r25, 0x00	; 0
  d4:	9c 87       	std	Y+12, r25	; 0x0c
  d6:	8b 87       	std	Y+11, r24	; 0x0b
/home/becker/async/autosafe/trunk/tum/wcet-cbmc/benchmarks/ud/ud.c:99
  d8:	1a 82       	std	Y+2, r1	; 0x02
  da:	19 82       	std	Y+1, r1	; 0x01
  dc:	bd c0       	rjmp	.+378    	; 0x258 <main+0x1a4>
/home/becker/async/autosafe/trunk/tum/wcet-cbmc/benchmarks/ud/ud.c:101
  de:	1d 82       	std	Y+5, r1	; 0x05
  e0:	1e 82       	std	Y+6, r1	; 0x06
  e2:	1f 82       	std	Y+7, r1	; 0x07
  e4:	18 86       	std	Y+8, r1	; 0x08
/home/becker/async/autosafe/trunk/tum/wcet-cbmc/benchmarks/ud/ud.c:102
  e6:	1c 82       	std	Y+4, r1	; 0x04
  e8:	1b 82       	std	Y+3, r1	; 0x03
  ea:	97 c0       	rjmp	.+302    	; 0x21a <main+0x166>
/home/becker/async/autosafe/trunk/tum/wcet-cbmc/benchmarks/ud/ud.c:104
  ec:	89 81       	ldd	r24, Y+1	; 0x01
  ee:	9a 81       	ldd	r25, Y+2	; 0x02
  f0:	9c 01       	movw	r18, r24
  f2:	2f 5f       	subi	r18, 0xFF	; 255
  f4:	3f 4f       	sbci	r19, 0xFF	; 255
  f6:	8b 81       	ldd	r24, Y+3	; 0x03
  f8:	9c 81       	ldd	r25, Y+4	; 0x04
  fa:	01 96       	adiw	r24, 0x01	; 1
  fc:	82 0f       	add	r24, r18
  fe:	93 1f       	adc	r25, r19
 100:	aa 27       	eor	r26, r26
 102:	97 fd       	sbrc	r25, 7
 104:	a0 95       	com	r26
 106:	ba 2f       	mov	r27, r26
 108:	29 81       	ldd	r18, Y+1	; 0x01
 10a:	3a 81       	ldd	r19, Y+2	; 0x02
 10c:	62 e3       	ldi	r22, 0x32	; 50
 10e:	62 9f       	mul	r22, r18
 110:	a0 01       	movw	r20, r0
 112:	63 9f       	mul	r22, r19
 114:	50 0d       	add	r21, r0
 116:	11 24       	eor	r1, r1
 118:	2b 81       	ldd	r18, Y+3	; 0x03
 11a:	3c 81       	ldd	r19, Y+4	; 0x04
 11c:	24 0f       	add	r18, r20
 11e:	35 1f       	adc	r19, r21
 120:	22 0f       	add	r18, r18
 122:	33 1f       	adc	r19, r19
 124:	22 0f       	add	r18, r18
 126:	33 1f       	adc	r19, r19
 128:	20 57       	subi	r18, 0x70	; 112
 12a:	3d 4f       	sbci	r19, 0xFD	; 253
 12c:	f9 01       	movw	r30, r18
 12e:	80 83       	st	Z, r24
 130:	91 83       	std	Z+1, r25	; 0x01
 132:	a2 83       	std	Z+2, r26	; 0x02
 134:	b3 83       	std	Z+3, r27	; 0x03
/home/becker/async/autosafe/trunk/tum/wcet-cbmc/benchmarks/ud/ud.c:105
 136:	29 81       	ldd	r18, Y+1	; 0x01
 138:	3a 81       	ldd	r19, Y+2	; 0x02
 13a:	8b 81       	ldd	r24, Y+3	; 0x03
 13c:	9c 81       	ldd	r25, Y+4	; 0x04
 13e:	28 17       	cp	r18, r24
 140:	39 07       	cpc	r19, r25
 142:	09 f0       	breq	.+2      	; 0x146 <main+0x92>
 144:	42 c0       	rjmp	.+132    	; 0x1ca <main+0x116>
/home/becker/async/autosafe/trunk/tum/wcet-cbmc/benchmarks/ud/ud.c:106
 146:	89 81       	ldd	r24, Y+1	; 0x01
 148:	9a 81       	ldd	r25, Y+2	; 0x02
 14a:	42 e3       	ldi	r20, 0x32	; 50
 14c:	48 9f       	mul	r20, r24
 14e:	90 01       	movw	r18, r0
 150:	49 9f       	mul	r20, r25
 152:	30 0d       	add	r19, r0
 154:	11 24       	eor	r1, r1
 156:	8b 81       	ldd	r24, Y+3	; 0x03
 158:	9c 81       	ldd	r25, Y+4	; 0x04
 15a:	82 0f       	add	r24, r18
 15c:	93 1f       	adc	r25, r19
 15e:	88 0f       	add	r24, r24
 160:	99 1f       	adc	r25, r25
 162:	88 0f       	add	r24, r24
 164:	99 1f       	adc	r25, r25
 166:	80 57       	subi	r24, 0x70	; 112
 168:	9d 4f       	sbci	r25, 0xFD	; 253
 16a:	fc 01       	movw	r30, r24
 16c:	80 81       	ld	r24, Z
 16e:	91 81       	ldd	r25, Z+1	; 0x01
 170:	a2 81       	ldd	r26, Z+2	; 0x02
 172:	b3 81       	ldd	r27, Z+3	; 0x03
 174:	bc 01       	movw	r22, r24
 176:	cd 01       	movw	r24, r26
 178:	0e 94 f4 04 	call	0x9e8	; 0x9e8 <__floatsisf>
 17c:	dc 01       	movw	r26, r24
 17e:	cb 01       	movw	r24, r22
 180:	9c 01       	movw	r18, r24
 182:	ad 01       	movw	r20, r26
 184:	bc 01       	movw	r22, r24
 186:	cd 01       	movw	r24, r26
 188:	0e 94 5d 04 	call	0x8ba	; 0x8ba <__addsf3>
 18c:	dc 01       	movw	r26, r24
 18e:	cb 01       	movw	r24, r22
 190:	bc 01       	movw	r22, r24
 192:	cd 01       	movw	r24, r26
 194:	0e 94 c1 04 	call	0x982	; 0x982 <__fixsfsi>
 198:	dc 01       	movw	r26, r24
 19a:	cb 01       	movw	r24, r22
 19c:	29 81       	ldd	r18, Y+1	; 0x01
 19e:	3a 81       	ldd	r19, Y+2	; 0x02
 1a0:	62 e3       	ldi	r22, 0x32	; 50
 1a2:	62 9f       	mul	r22, r18
 1a4:	a0 01       	movw	r20, r0
 1a6:	63 9f       	mul	r22, r19
 1a8:	50 0d       	add	r21, r0
 1aa:	11 24       	eor	r1, r1
 1ac:	2b 81       	ldd	r18, Y+3	; 0x03
 1ae:	3c 81       	ldd	r19, Y+4	; 0x04
 1b0:	24 0f       	add	r18, r20
 1b2:	35 1f       	adc	r19, r21
 1b4:	22 0f       	add	r18, r18
 1b6:	33 1f       	adc	r19, r19
 1b8:	22 0f       	add	r18, r18
 1ba:	33 1f       	adc	r19, r19
 1bc:	20 57       	subi	r18, 0x70	; 112
 1be:	3d 4f       	sbci	r19, 0xFD	; 253
 1c0:	f9 01       	movw	r30, r18
 1c2:	80 83       	st	Z, r24
 1c4:	91 83       	std	Z+1, r25	; 0x01
 1c6:	a2 83       	std	Z+2, r26	; 0x02
 1c8:	b3 83       	std	Z+3, r27	; 0x03
/home/becker/async/autosafe/trunk/tum/wcet-cbmc/benchmarks/ud/ud.c:107
 1ca:	89 81       	ldd	r24, Y+1	; 0x01
 1cc:	9a 81       	ldd	r25, Y+2	; 0x02
 1ce:	42 e3       	ldi	r20, 0x32	; 50
 1d0:	48 9f       	mul	r20, r24
 1d2:	90 01       	movw	r18, r0
 1d4:	49 9f       	mul	r20, r25
 1d6:	30 0d       	add	r19, r0
 1d8:	11 24       	eor	r1, r1
 1da:	8b 81       	ldd	r24, Y+3	; 0x03
 1dc:	9c 81       	ldd	r25, Y+4	; 0x04
 1de:	82 0f       	add	r24, r18
 1e0:	93 1f       	adc	r25, r19
 1e2:	88 0f       	add	r24, r24
 1e4:	99 1f       	adc	r25, r25
 1e6:	88 0f       	add	r24, r24
 1e8:	99 1f       	adc	r25, r25
 1ea:	80 57       	subi	r24, 0x70	; 112
 1ec:	9d 4f       	sbci	r25, 0xFD	; 253
 1ee:	fc 01       	movw	r30, r24
 1f0:	80 81       	ld	r24, Z
 1f2:	91 81       	ldd	r25, Z+1	; 0x01
 1f4:	a2 81       	ldd	r26, Z+2	; 0x02
 1f6:	b3 81       	ldd	r27, Z+3	; 0x03
 1f8:	2d 81       	ldd	r18, Y+5	; 0x05
 1fa:	3e 81       	ldd	r19, Y+6	; 0x06
 1fc:	4f 81       	ldd	r20, Y+7	; 0x07
 1fe:	58 85       	ldd	r21, Y+8	; 0x08
 200:	82 0f       	add	r24, r18
 202:	93 1f       	adc	r25, r19
 204:	a4 1f       	adc	r26, r20
 206:	b5 1f       	adc	r27, r21
 208:	8d 83       	std	Y+5, r24	; 0x05
 20a:	9e 83       	std	Y+6, r25	; 0x06
 20c:	af 83       	std	Y+7, r26	; 0x07
 20e:	b8 87       	std	Y+8, r27	; 0x08
/home/becker/async/autosafe/trunk/tum/wcet-cbmc/benchmarks/ud/ud.c:102
 210:	8b 81       	ldd	r24, Y+3	; 0x03
 212:	9c 81       	ldd	r25, Y+4	; 0x04
 214:	01 96       	adiw	r24, 0x01	; 1
 216:	9c 83       	std	Y+4, r25	; 0x04
 218:	8b 83       	std	Y+3, r24	; 0x03
 21a:	2b 81       	ldd	r18, Y+3	; 0x03
 21c:	3c 81       	ldd	r19, Y+4	; 0x04
 21e:	8b 85       	ldd	r24, Y+11	; 0x0b
 220:	9c 85       	ldd	r25, Y+12	; 0x0c
 222:	82 17       	cp	r24, r18
 224:	93 07       	cpc	r25, r19
 226:	0c f0       	brlt	.+2      	; 0x22a <main+0x176>
 228:	61 cf       	rjmp	.-318    	; 0xec <main+0x38>
/home/becker/async/autosafe/trunk/tum/wcet-cbmc/benchmarks/ud/ud.c:109
 22a:	89 81       	ldd	r24, Y+1	; 0x01
 22c:	9a 81       	ldd	r25, Y+2	; 0x02
 22e:	88 0f       	add	r24, r24
 230:	99 1f       	adc	r25, r25
 232:	88 0f       	add	r24, r24
 234:	99 1f       	adc	r25, r25
 236:	9c 01       	movw	r18, r24
 238:	20 50       	subi	r18, 0x00	; 0
 23a:	3f 4f       	sbci	r19, 0xFF	; 255
 23c:	8d 81       	ldd	r24, Y+5	; 0x05
 23e:	9e 81       	ldd	r25, Y+6	; 0x06
 240:	af 81       	ldd	r26, Y+7	; 0x07
 242:	b8 85       	ldd	r27, Y+8	; 0x08
 244:	f9 01       	movw	r30, r18
 246:	80 83       	st	Z, r24
 248:	91 83       	std	Z+1, r25	; 0x01
 24a:	a2 83       	std	Z+2, r26	; 0x02
 24c:	b3 83       	std	Z+3, r27	; 0x03
/home/becker/async/autosafe/trunk/tum/wcet-cbmc/benchmarks/ud/ud.c:99
 24e:	89 81       	ldd	r24, Y+1	; 0x01
 250:	9a 81       	ldd	r25, Y+2	; 0x02
 252:	01 96       	adiw	r24, 0x01	; 1
 254:	9a 83       	std	Y+2, r25	; 0x02
 256:	89 83       	std	Y+1, r24	; 0x01
 258:	29 81       	ldd	r18, Y+1	; 0x01
 25a:	3a 81       	ldd	r19, Y+2	; 0x02
 25c:	8b 85       	ldd	r24, Y+11	; 0x0b
 25e:	9c 85       	ldd	r25, Y+12	; 0x0c
 260:	82 17       	cp	r24, r18
 262:	93 07       	cpc	r25, r19
 264:	0c f0       	brlt	.+2      	; 0x268 <main+0x1b4>
 266:	3b cf       	rjmp	.-394    	; 0xde <main+0x2a>
/home/becker/async/autosafe/trunk/tum/wcet-cbmc/benchmarks/ud/ud.c:113
 268:	2b 85       	ldd	r18, Y+11	; 0x0b
 26a:	3c 85       	ldd	r19, Y+12	; 0x0c
 26c:	89 85       	ldd	r24, Y+9	; 0x09
 26e:	9a 85       	ldd	r25, Y+10	; 0x0a
 270:	b9 01       	movw	r22, r18
 272:	0e 94 46 01 	call	0x28c	; 0x28c <ludcmp>
 276:	9e 87       	std	Y+14, r25	; 0x0e
 278:	8d 87       	std	Y+13, r24	; 0x0d
/home/becker/async/autosafe/trunk/tum/wcet-cbmc/benchmarks/ud/ud.c:114
 27a:	2e 96       	adiw	r28, 0x0e	; 14
 27c:	0f b6       	in	r0, 0x3f	; 63
 27e:	f8 94       	cli
 280:	de bf       	out	0x3e, r29	; 62
 282:	0f be       	out	0x3f, r0	; 63
 284:	cd bf       	out	0x3d, r28	; 61
 286:	df 91       	pop	r29
 288:	cf 91       	pop	r28
 28a:	08 95       	ret

0000028c <ludcmp>:
ludcmp():
/home/becker/async/autosafe/trunk/tum/wcet-cbmc/benchmarks/ud/ud.c:117
 28c:	ef 92       	push	r14
 28e:	ff 92       	push	r15
 290:	0f 93       	push	r16
 292:	1f 93       	push	r17
 294:	cf 93       	push	r28
 296:	df 93       	push	r29
 298:	cd b7       	in	r28, 0x3d	; 61
 29a:	de b7       	in	r29, 0x3e	; 62
 29c:	ce 59       	subi	r28, 0x9E	; 158
 29e:	d1 40       	sbci	r29, 0x01	; 1
 2a0:	0f b6       	in	r0, 0x3f	; 63
 2a2:	f8 94       	cli
 2a4:	de bf       	out	0x3e, r29	; 62
 2a6:	0f be       	out	0x3f, r0	; 63
 2a8:	cd bf       	out	0x3d, r28	; 61
 2aa:	9e 01       	movw	r18, r28
 2ac:	25 56       	subi	r18, 0x65	; 101
 2ae:	3e 4f       	sbci	r19, 0xFE	; 254
 2b0:	f9 01       	movw	r30, r18
 2b2:	91 83       	std	Z+1, r25	; 0x01
 2b4:	80 83       	st	Z, r24
 2b6:	ce 01       	movw	r24, r28
 2b8:	83 56       	subi	r24, 0x63	; 99
 2ba:	9e 4f       	sbci	r25, 0xFE	; 254
 2bc:	fc 01       	movw	r30, r24
 2be:	71 83       	std	Z+1, r23	; 0x01
 2c0:	60 83       	st	Z, r22
/home/becker/async/autosafe/trunk/tum/wcet-cbmc/benchmarks/ud/ud.c:122
 2c2:	1a 82       	std	Y+2, r1	; 0x02
 2c4:	19 82       	std	Y+1, r1	; 0x01
 2c6:	65 c1       	rjmp	.+714    	; 0x592 <ludcmp+0x306>
/home/becker/async/autosafe/trunk/tum/wcet-cbmc/benchmarks/ud/ud.c:125
 2c8:	89 81       	ldd	r24, Y+1	; 0x01
 2ca:	9a 81       	ldd	r25, Y+2	; 0x02
 2cc:	01 96       	adiw	r24, 0x01	; 1
 2ce:	9c 83       	std	Y+4, r25	; 0x04
 2d0:	8b 83       	std	Y+3, r24	; 0x03
 2d2:	a9 c0       	rjmp	.+338    	; 0x426 <ludcmp+0x19a>
/home/becker/async/autosafe/trunk/tum/wcet-cbmc/benchmarks/ud/ud.c:127
 2d4:	8b 81       	ldd	r24, Y+3	; 0x03
 2d6:	9c 81       	ldd	r25, Y+4	; 0x04
 2d8:	42 e3       	ldi	r20, 0x32	; 50
 2da:	48 9f       	mul	r20, r24
 2dc:	90 01       	movw	r18, r0
 2de:	49 9f       	mul	r20, r25
 2e0:	30 0d       	add	r19, r0
 2e2:	11 24       	eor	r1, r1
 2e4:	89 81       	ldd	r24, Y+1	; 0x01
 2e6:	9a 81       	ldd	r25, Y+2	; 0x02
 2e8:	82 0f       	add	r24, r18
 2ea:	93 1f       	adc	r25, r19
 2ec:	88 0f       	add	r24, r24
 2ee:	99 1f       	adc	r25, r25
 2f0:	88 0f       	add	r24, r24
 2f2:	99 1f       	adc	r25, r25
 2f4:	80 57       	subi	r24, 0x70	; 112
 2f6:	9d 4f       	sbci	r25, 0xFD	; 253
 2f8:	fc 01       	movw	r30, r24
 2fa:	80 81       	ld	r24, Z
 2fc:	91 81       	ldd	r25, Z+1	; 0x01
 2fe:	a2 81       	ldd	r26, Z+2	; 0x02
 300:	b3 81       	ldd	r27, Z+3	; 0x03
 302:	8f 83       	std	Y+7, r24	; 0x07
 304:	98 87       	std	Y+8, r25	; 0x08
 306:	a9 87       	std	Y+9, r26	; 0x09
 308:	ba 87       	std	Y+10, r27	; 0x0a
/home/becker/async/autosafe/trunk/tum/wcet-cbmc/benchmarks/ud/ud.c:128
 30a:	89 81       	ldd	r24, Y+1	; 0x01
 30c:	9a 81       	ldd	r25, Y+2	; 0x02
 30e:	00 97       	sbiw	r24, 0x00	; 0
 310:	09 f4       	brne	.+2      	; 0x314 <ludcmp+0x88>
 312:	54 c0       	rjmp	.+168    	; 0x3bc <ludcmp+0x130>
/home/becker/async/autosafe/trunk/tum/wcet-cbmc/benchmarks/ud/ud.c:131
 314:	1e 82       	std	Y+6, r1	; 0x06
 316:	1d 82       	std	Y+5, r1	; 0x05
 318:	49 c0       	rjmp	.+146    	; 0x3ac <ludcmp+0x120>
/home/becker/async/autosafe/trunk/tum/wcet-cbmc/benchmarks/ud/ud.c:132
 31a:	8b 81       	ldd	r24, Y+3	; 0x03
 31c:	9c 81       	ldd	r25, Y+4	; 0x04
 31e:	42 e3       	ldi	r20, 0x32	; 50
 320:	48 9f       	mul	r20, r24
 322:	90 01       	movw	r18, r0
 324:	49 9f       	mul	r20, r25
 326:	30 0d       	add	r19, r0
 328:	11 24       	eor	r1, r1
 32a:	8d 81       	ldd	r24, Y+5	; 0x05
 32c:	9e 81       	ldd	r25, Y+6	; 0x06
 32e:	82 0f       	add	r24, r18
 330:	93 1f       	adc	r25, r19
 332:	88 0f       	add	r24, r24
 334:	99 1f       	adc	r25, r25
 336:	88 0f       	add	r24, r24
 338:	99 1f       	adc	r25, r25
 33a:	80 57       	subi	r24, 0x70	; 112
 33c:	9d 4f       	sbci	r25, 0xFD	; 253
 33e:	fc 01       	movw	r30, r24
 340:	20 81       	ld	r18, Z
 342:	31 81       	ldd	r19, Z+1	; 0x01
 344:	42 81       	ldd	r20, Z+2	; 0x02
 346:	53 81       	ldd	r21, Z+3	; 0x03
 348:	8d 81       	ldd	r24, Y+5	; 0x05
 34a:	9e 81       	ldd	r25, Y+6	; 0x06
 34c:	e2 e3       	ldi	r30, 0x32	; 50
 34e:	e8 9f       	mul	r30, r24
 350:	b0 01       	movw	r22, r0
 352:	e9 9f       	mul	r30, r25
 354:	70 0d       	add	r23, r0
 356:	11 24       	eor	r1, r1
 358:	89 81       	ldd	r24, Y+1	; 0x01
 35a:	9a 81       	ldd	r25, Y+2	; 0x02
 35c:	86 0f       	add	r24, r22
 35e:	97 1f       	adc	r25, r23
 360:	88 0f       	add	r24, r24
 362:	99 1f       	adc	r25, r25
 364:	88 0f       	add	r24, r24
 366:	99 1f       	adc	r25, r25
 368:	80 57       	subi	r24, 0x70	; 112
 36a:	9d 4f       	sbci	r25, 0xFD	; 253
 36c:	fc 01       	movw	r30, r24
 36e:	80 81       	ld	r24, Z
 370:	91 81       	ldd	r25, Z+1	; 0x01
 372:	a2 81       	ldd	r26, Z+2	; 0x02
 374:	b3 81       	ldd	r27, Z+3	; 0x03
 376:	bc 01       	movw	r22, r24
 378:	cd 01       	movw	r24, r26
 37a:	0e 94 80 05 	call	0xb00	; 0xb00 <__mulsi3>
 37e:	dc 01       	movw	r26, r24
 380:	cb 01       	movw	r24, r22
 382:	2f 81       	ldd	r18, Y+7	; 0x07
 384:	38 85       	ldd	r19, Y+8	; 0x08
 386:	49 85       	ldd	r20, Y+9	; 0x09
 388:	5a 85       	ldd	r21, Y+10	; 0x0a
 38a:	79 01       	movw	r14, r18
 38c:	8a 01       	movw	r16, r20
 38e:	e8 1a       	sub	r14, r24
 390:	f9 0a       	sbc	r15, r25
 392:	0a 0b       	sbc	r16, r26
 394:	1b 0b       	sbc	r17, r27
 396:	d8 01       	movw	r26, r16
 398:	c7 01       	movw	r24, r14
 39a:	8f 83       	std	Y+7, r24	; 0x07
 39c:	98 87       	std	Y+8, r25	; 0x08
 39e:	a9 87       	std	Y+9, r26	; 0x09
 3a0:	ba 87       	std	Y+10, r27	; 0x0a
/home/becker/async/autosafe/trunk/tum/wcet-cbmc/benchmarks/ud/ud.c:131
 3a2:	8d 81       	ldd	r24, Y+5	; 0x05
 3a4:	9e 81       	ldd	r25, Y+6	; 0x06
 3a6:	01 96       	adiw	r24, 0x01	; 1
 3a8:	9e 83       	std	Y+6, r25	; 0x06
 3aa:	8d 83       	std	Y+5, r24	; 0x05
 3ac:	2d 81       	ldd	r18, Y+5	; 0x05
 3ae:	3e 81       	ldd	r19, Y+6	; 0x06
 3b0:	89 81       	ldd	r24, Y+1	; 0x01
 3b2:	9a 81       	ldd	r25, Y+2	; 0x02
 3b4:	28 17       	cp	r18, r24
 3b6:	39 07       	cpc	r19, r25
 3b8:	0c f4       	brge	.+2      	; 0x3bc <ludcmp+0x130>
 3ba:	af cf       	rjmp	.-162    	; 0x31a <ludcmp+0x8e>
/home/becker/async/autosafe/trunk/tum/wcet-cbmc/benchmarks/ud/ud.c:133
 3bc:	29 81       	ldd	r18, Y+1	; 0x01
 3be:	3a 81       	ldd	r19, Y+2	; 0x02
 3c0:	4c ec       	ldi	r20, 0xCC	; 204
 3c2:	42 9f       	mul	r20, r18
 3c4:	c0 01       	movw	r24, r0
 3c6:	43 9f       	mul	r20, r19
 3c8:	90 0d       	add	r25, r0
 3ca:	11 24       	eor	r1, r1
 3cc:	80 57       	subi	r24, 0x70	; 112
 3ce:	9d 4f       	sbci	r25, 0xFD	; 253
 3d0:	fc 01       	movw	r30, r24
 3d2:	20 81       	ld	r18, Z
 3d4:	31 81       	ldd	r19, Z+1	; 0x01
 3d6:	42 81       	ldd	r20, Z+2	; 0x02
 3d8:	53 81       	ldd	r21, Z+3	; 0x03
 3da:	8f 81       	ldd	r24, Y+7	; 0x07
 3dc:	98 85       	ldd	r25, Y+8	; 0x08
 3de:	a9 85       	ldd	r26, Y+9	; 0x09
 3e0:	ba 85       	ldd	r27, Y+10	; 0x0a
 3e2:	bc 01       	movw	r22, r24
 3e4:	cd 01       	movw	r24, r26
 3e6:	0e 94 90 05 	call	0xb20	; 0xb20 <__divmodsi4>
 3ea:	da 01       	movw	r26, r20
 3ec:	c9 01       	movw	r24, r18
 3ee:	2b 81       	ldd	r18, Y+3	; 0x03
 3f0:	3c 81       	ldd	r19, Y+4	; 0x04
 3f2:	62 e3       	ldi	r22, 0x32	; 50
 3f4:	62 9f       	mul	r22, r18
 3f6:	a0 01       	movw	r20, r0
 3f8:	63 9f       	mul	r22, r19
 3fa:	50 0d       	add	r21, r0
 3fc:	11 24       	eor	r1, r1
 3fe:	29 81       	ldd	r18, Y+1	; 0x01
 400:	3a 81       	ldd	r19, Y+2	; 0x02
 402:	24 0f       	add	r18, r20
 404:	35 1f       	adc	r19, r21
 406:	22 0f       	add	r18, r18
 408:	33 1f       	adc	r19, r19
 40a:	22 0f       	add	r18, r18
 40c:	33 1f       	adc	r19, r19
 40e:	20 57       	subi	r18, 0x70	; 112
 410:	3d 4f       	sbci	r19, 0xFD	; 253
 412:	f9 01       	movw	r30, r18
 414:	80 83       	st	Z, r24
 416:	91 83       	std	Z+1, r25	; 0x01
 418:	a2 83       	std	Z+2, r26	; 0x02
 41a:	b3 83       	std	Z+3, r27	; 0x03
/home/becker/async/autosafe/trunk/tum/wcet-cbmc/benchmarks/ud/ud.c:125
 41c:	8b 81       	ldd	r24, Y+3	; 0x03
 41e:	9c 81       	ldd	r25, Y+4	; 0x04
 420:	01 96       	adiw	r24, 0x01	; 1
 422:	9c 83       	std	Y+4, r25	; 0x04
 424:	8b 83       	std	Y+3, r24	; 0x03
 426:	ce 01       	movw	r24, r28
 428:	83 56       	subi	r24, 0x63	; 99
 42a:	9e 4f       	sbci	r25, 0xFE	; 254
 42c:	2b 81       	ldd	r18, Y+3	; 0x03
 42e:	3c 81       	ldd	r19, Y+4	; 0x04
 430:	fc 01       	movw	r30, r24
 432:	80 81       	ld	r24, Z
 434:	91 81       	ldd	r25, Z+1	; 0x01
 436:	82 17       	cp	r24, r18
 438:	93 07       	cpc	r25, r19
 43a:	0c f0       	brlt	.+2      	; 0x43e <ludcmp+0x1b2>
 43c:	4b cf       	rjmp	.-362    	; 0x2d4 <ludcmp+0x48>
/home/becker/async/autosafe/trunk/tum/wcet-cbmc/benchmarks/ud/ud.c:135
 43e:	89 81       	ldd	r24, Y+1	; 0x01
 440:	9a 81       	ldd	r25, Y+2	; 0x02
 442:	01 96       	adiw	r24, 0x01	; 1
 444:	9c 83       	std	Y+4, r25	; 0x04
 446:	8b 83       	std	Y+3, r24	; 0x03
 448:	93 c0       	rjmp	.+294    	; 0x570 <ludcmp+0x2e4>
/home/becker/async/autosafe/trunk/tum/wcet-cbmc/benchmarks/ud/ud.c:137
 44a:	89 81       	ldd	r24, Y+1	; 0x01
 44c:	9a 81       	ldd	r25, Y+2	; 0x02
 44e:	01 96       	adiw	r24, 0x01	; 1
 450:	42 e3       	ldi	r20, 0x32	; 50
 452:	48 9f       	mul	r20, r24
 454:	90 01       	movw	r18, r0
 456:	49 9f       	mul	r20, r25
 458:	30 0d       	add	r19, r0
 45a:	11 24       	eor	r1, r1
 45c:	8b 81       	ldd	r24, Y+3	; 0x03
 45e:	9c 81       	ldd	r25, Y+4	; 0x04
 460:	82 0f       	add	r24, r18
 462:	93 1f       	adc	r25, r19
 464:	88 0f       	add	r24, r24
 466:	99 1f       	adc	r25, r25
 468:	88 0f       	add	r24, r24
 46a:	99 1f       	adc	r25, r25
 46c:	80 57       	subi	r24, 0x70	; 112
 46e:	9d 4f       	sbci	r25, 0xFD	; 253
 470:	fc 01       	movw	r30, r24
 472:	80 81       	ld	r24, Z
 474:	91 81       	ldd	r25, Z+1	; 0x01
 476:	a2 81       	ldd	r26, Z+2	; 0x02
 478:	b3 81       	ldd	r27, Z+3	; 0x03
 47a:	8f 83       	std	Y+7, r24	; 0x07
 47c:	98 87       	std	Y+8, r25	; 0x08
 47e:	a9 87       	std	Y+9, r26	; 0x09
 480:	ba 87       	std	Y+10, r27	; 0x0a
/home/becker/async/autosafe/trunk/tum/wcet-cbmc/benchmarks/ud/ud.c:138
 482:	1e 82       	std	Y+6, r1	; 0x06
 484:	1d 82       	std	Y+5, r1	; 0x05
 486:	4a c0       	rjmp	.+148    	; 0x51c <ludcmp+0x290>
/home/becker/async/autosafe/trunk/tum/wcet-cbmc/benchmarks/ud/ud.c:139
 488:	89 81       	ldd	r24, Y+1	; 0x01
 48a:	9a 81       	ldd	r25, Y+2	; 0x02
 48c:	01 96       	adiw	r24, 0x01	; 1
 48e:	42 e3       	ldi	r20, 0x32	; 50
 490:	48 9f       	mul	r20, r24
 492:	90 01       	movw	r18, r0
 494:	49 9f       	mul	r20, r25
 496:	30 0d       	add	r19, r0
 498:	11 24       	eor	r1, r1
 49a:	8d 81       	ldd	r24, Y+5	; 0x05
 49c:	9e 81       	ldd	r25, Y+6	; 0x06
 49e:	82 0f       	add	r24, r18
 4a0:	93 1f       	adc	r25, r19
 4a2:	88 0f       	add	r24, r24
 4a4:	99 1f       	adc	r25, r25
 4a6:	88 0f       	add	r24, r24
 4a8:	99 1f       	adc	r25, r25
 4aa:	80 57       	subi	r24, 0x70	; 112
 4ac:	9d 4f       	sbci	r25, 0xFD	; 253
 4ae:	fc 01       	movw	r30, r24
 4b0:	20 81       	ld	r18, Z
 4b2:	31 81       	ldd	r19, Z+1	; 0x01
 4b4:	42 81       	ldd	r20, Z+2	; 0x02
 4b6:	53 81       	ldd	r21, Z+3	; 0x03
 4b8:	8d 81       	ldd	r24, Y+5	; 0x05
 4ba:	9e 81       	ldd	r25, Y+6	; 0x06
 4bc:	e2 e3       	ldi	r30, 0x32	; 50
 4be:	e8 9f       	mul	r30, r24
 4c0:	b0 01       	movw	r22, r0
 4c2:	e9 9f       	mul	r30, r25
 4c4:	70 0d       	add	r23, r0
 4c6:	11 24       	eor	r1, r1
 4c8:	8b 81       	ldd	r24, Y+3	; 0x03
 4ca:	9c 81       	ldd	r25, Y+4	; 0x04
 4cc:	86 0f       	add	r24, r22
 4ce:	97 1f       	adc	r25, r23
 4d0:	88 0f       	add	r24, r24
 4d2:	99 1f       	adc	r25, r25
 4d4:	88 0f       	add	r24, r24
 4d6:	99 1f       	adc	r25, r25
 4d8:	80 57       	subi	r24, 0x70	; 112
 4da:	9d 4f       	sbci	r25, 0xFD	; 253
 4dc:	fc 01       	movw	r30, r24
 4de:	80 81       	ld	r24, Z
 4e0:	91 81       	ldd	r25, Z+1	; 0x01
 4e2:	a2 81       	ldd	r26, Z+2	; 0x02
 4e4:	b3 81       	ldd	r27, Z+3	; 0x03
 4e6:	bc 01       	movw	r22, r24
 4e8:	cd 01       	movw	r24, r26
 4ea:	0e 94 80 05 	call	0xb00	; 0xb00 <__mulsi3>
 4ee:	dc 01       	movw	r26, r24
 4f0:	cb 01       	movw	r24, r22
 4f2:	2f 81       	ldd	r18, Y+7	; 0x07
 4f4:	38 85       	ldd	r19, Y+8	; 0x08
 4f6:	49 85       	ldd	r20, Y+9	; 0x09
 4f8:	5a 85       	ldd	r21, Y+10	; 0x0a
 4fa:	79 01       	movw	r14, r18
 4fc:	8a 01       	movw	r16, r20
 4fe:	e8 1a       	sub	r14, r24
 500:	f9 0a       	sbc	r15, r25
 502:	0a 0b       	sbc	r16, r26
 504:	1b 0b       	sbc	r17, r27
 506:	d8 01       	movw	r26, r16
 508:	c7 01       	movw	r24, r14
 50a:	8f 83       	std	Y+7, r24	; 0x07
 50c:	98 87       	std	Y+8, r25	; 0x08
 50e:	a9 87       	std	Y+9, r26	; 0x09
 510:	ba 87       	std	Y+10, r27	; 0x0a
/home/becker/async/autosafe/trunk/tum/wcet-cbmc/benchmarks/ud/ud.c:138
 512:	8d 81       	ldd	r24, Y+5	; 0x05
 514:	9e 81       	ldd	r25, Y+6	; 0x06
 516:	01 96       	adiw	r24, 0x01	; 1
 518:	9e 83       	std	Y+6, r25	; 0x06
 51a:	8d 83       	std	Y+5, r24	; 0x05
 51c:	2d 81       	ldd	r18, Y+5	; 0x05
 51e:	3e 81       	ldd	r19, Y+6	; 0x06
 520:	89 81       	ldd	r24, Y+1	; 0x01
 522:	9a 81       	ldd	r25, Y+2	; 0x02
 524:	82 17       	cp	r24, r18
 526:	93 07       	cpc	r25, r19
 528:	0c f0       	brlt	.+2      	; 0x52c <ludcmp+0x2a0>
 52a:	ae cf       	rjmp	.-164    	; 0x488 <ludcmp+0x1fc>
/home/becker/async/autosafe/trunk/tum/wcet-cbmc/benchmarks/ud/ud.c:140
 52c:	89 81       	ldd	r24, Y+1	; 0x01
 52e:	9a 81       	ldd	r25, Y+2	; 0x02
 530:	01 96       	adiw	r24, 0x01	; 1
 532:	42 e3       	ldi	r20, 0x32	; 50
 534:	48 9f       	mul	r20, r24
 536:	90 01       	movw	r18, r0
 538:	49 9f       	mul	r20, r25
 53a:	30 0d       	add	r19, r0
 53c:	11 24       	eor	r1, r1
 53e:	8b 81       	ldd	r24, Y+3	; 0x03
 540:	9c 81       	ldd	r25, Y+4	; 0x04
 542:	82 0f       	add	r24, r18
 544:	93 1f       	adc	r25, r19
 546:	88 0f       	add	r24, r24
 548:	99 1f       	adc	r25, r25
 54a:	88 0f       	add	r24, r24
 54c:	99 1f       	adc	r25, r25
 54e:	9c 01       	movw	r18, r24
 550:	20 57       	subi	r18, 0x70	; 112
 552:	3d 4f       	sbci	r19, 0xFD	; 253
 554:	8f 81       	ldd	r24, Y+7	; 0x07
 556:	98 85       	ldd	r25, Y+8	; 0x08
 558:	a9 85       	ldd	r26, Y+9	; 0x09
 55a:	ba 85       	ldd	r27, Y+10	; 0x0a
 55c:	f9 01       	movw	r30, r18
 55e:	80 83       	st	Z, r24
 560:	91 83       	std	Z+1, r25	; 0x01
 562:	a2 83       	std	Z+2, r26	; 0x02
 564:	b3 83       	std	Z+3, r27	; 0x03
/home/becker/async/autosafe/trunk/tum/wcet-cbmc/benchmarks/ud/ud.c:135
 566:	8b 81       	ldd	r24, Y+3	; 0x03
 568:	9c 81       	ldd	r25, Y+4	; 0x04
 56a:	01 96       	adiw	r24, 0x01	; 1
 56c:	9c 83       	std	Y+4, r25	; 0x04
 56e:	8b 83       	std	Y+3, r24	; 0x03
 570:	ce 01       	movw	r24, r28
 572:	83 56       	subi	r24, 0x63	; 99
 574:	9e 4f       	sbci	r25, 0xFE	; 254
 576:	2b 81       	ldd	r18, Y+3	; 0x03
 578:	3c 81       	ldd	r19, Y+4	; 0x04
 57a:	fc 01       	movw	r30, r24
 57c:	80 81       	ld	r24, Z
 57e:	91 81       	ldd	r25, Z+1	; 0x01
 580:	82 17       	cp	r24, r18
 582:	93 07       	cpc	r25, r19
 584:	0c f0       	brlt	.+2      	; 0x588 <ludcmp+0x2fc>
 586:	61 cf       	rjmp	.-318    	; 0x44a <ludcmp+0x1be>
/home/becker/async/autosafe/trunk/tum/wcet-cbmc/benchmarks/ud/ud.c:122
 588:	89 81       	ldd	r24, Y+1	; 0x01
 58a:	9a 81       	ldd	r25, Y+2	; 0x02
 58c:	01 96       	adiw	r24, 0x01	; 1
 58e:	9a 83       	std	Y+2, r25	; 0x02
 590:	89 83       	std	Y+1, r24	; 0x01
 592:	ce 01       	movw	r24, r28
 594:	83 56       	subi	r24, 0x63	; 99
 596:	9e 4f       	sbci	r25, 0xFE	; 254
 598:	29 81       	ldd	r18, Y+1	; 0x01
 59a:	3a 81       	ldd	r19, Y+2	; 0x02
 59c:	fc 01       	movw	r30, r24
 59e:	80 81       	ld	r24, Z
 5a0:	91 81       	ldd	r25, Z+1	; 0x01
 5a2:	28 17       	cp	r18, r24
 5a4:	39 07       	cpc	r19, r25
 5a6:	0c f4       	brge	.+2      	; 0x5aa <ludcmp+0x31e>
 5a8:	8f ce       	rjmp	.-738    	; 0x2c8 <ludcmp+0x3c>
/home/becker/async/autosafe/trunk/tum/wcet-cbmc/benchmarks/ud/ud.c:143
 5aa:	80 91 00 01 	lds	r24, 0x0100
 5ae:	90 91 01 01 	lds	r25, 0x0101
 5b2:	a0 91 02 01 	lds	r26, 0x0102
 5b6:	b0 91 03 01 	lds	r27, 0x0103
 5ba:	8b 87       	std	Y+11, r24	; 0x0b
 5bc:	9c 87       	std	Y+12, r25	; 0x0c
 5be:	ad 87       	std	Y+13, r26	; 0x0d
 5c0:	be 87       	std	Y+14, r27	; 0x0e
/home/becker/async/autosafe/trunk/tum/wcet-cbmc/benchmarks/ud/ud.c:144
 5c2:	81 e0       	ldi	r24, 0x01	; 1
 5c4:	90 e0       	ldi	r25, 0x00	; 0
 5c6:	9a 83       	std	Y+2, r25	; 0x02
 5c8:	89 83       	std	Y+1, r24	; 0x01
 5ca:	7b c0       	rjmp	.+246    	; 0x6c2 <ludcmp+0x436>
/home/becker/async/autosafe/trunk/tum/wcet-cbmc/benchmarks/ud/ud.c:146
 5cc:	89 81       	ldd	r24, Y+1	; 0x01
 5ce:	9a 81       	ldd	r25, Y+2	; 0x02
 5d0:	88 0f       	add	r24, r24
 5d2:	99 1f       	adc	r25, r25
 5d4:	88 0f       	add	r24, r24
 5d6:	99 1f       	adc	r25, r25
 5d8:	80 50       	subi	r24, 0x00	; 0
 5da:	9f 4f       	sbci	r25, 0xFF	; 255
 5dc:	fc 01       	movw	r30, r24
 5de:	80 81       	ld	r24, Z
 5e0:	91 81       	ldd	r25, Z+1	; 0x01
 5e2:	a2 81       	ldd	r26, Z+2	; 0x02
 5e4:	b3 81       	ldd	r27, Z+3	; 0x03
 5e6:	8f 83       	std	Y+7, r24	; 0x07
 5e8:	98 87       	std	Y+8, r25	; 0x08
 5ea:	a9 87       	std	Y+9, r26	; 0x09
 5ec:	ba 87       	std	Y+10, r27	; 0x0a
/home/becker/async/autosafe/trunk/tum/wcet-cbmc/benchmarks/ud/ud.c:147
 5ee:	1c 82       	std	Y+4, r1	; 0x04
 5f0:	1b 82       	std	Y+3, r1	; 0x03
 5f2:	43 c0       	rjmp	.+134    	; 0x67a <ludcmp+0x3ee>
/home/becker/async/autosafe/trunk/tum/wcet-cbmc/benchmarks/ud/ud.c:148
 5f4:	89 81       	ldd	r24, Y+1	; 0x01
 5f6:	9a 81       	ldd	r25, Y+2	; 0x02
 5f8:	42 e3       	ldi	r20, 0x32	; 50
 5fa:	48 9f       	mul	r20, r24
 5fc:	90 01       	movw	r18, r0
 5fe:	49 9f       	mul	r20, r25
 600:	30 0d       	add	r19, r0
 602:	11 24       	eor	r1, r1
 604:	8b 81       	ldd	r24, Y+3	; 0x03
 606:	9c 81       	ldd	r25, Y+4	; 0x04
 608:	82 0f       	add	r24, r18
 60a:	93 1f       	adc	r25, r19
 60c:	88 0f       	add	r24, r24
 60e:	99 1f       	adc	r25, r25
 610:	88 0f       	add	r24, r24
 612:	99 1f       	adc	r25, r25
 614:	80 57       	subi	r24, 0x70	; 112
 616:	9d 4f       	sbci	r25, 0xFD	; 253
 618:	fc 01       	movw	r30, r24
 61a:	20 81       	ld	r18, Z
 61c:	31 81       	ldd	r19, Z+1	; 0x01
 61e:	42 81       	ldd	r20, Z+2	; 0x02
 620:	53 81       	ldd	r21, Z+3	; 0x03
 622:	8b 81       	ldd	r24, Y+3	; 0x03
 624:	9c 81       	ldd	r25, Y+4	; 0x04
 626:	88 0f       	add	r24, r24
 628:	99 1f       	adc	r25, r25
 62a:	88 0f       	add	r24, r24
 62c:	99 1f       	adc	r25, r25
 62e:	be 01       	movw	r22, r28
 630:	6f 5f       	subi	r22, 0xFF	; 255
 632:	7f 4f       	sbci	r23, 0xFF	; 255
 634:	86 0f       	add	r24, r22
 636:	97 1f       	adc	r25, r23
 638:	0a 96       	adiw	r24, 0x0a	; 10
 63a:	fc 01       	movw	r30, r24
 63c:	80 81       	ld	r24, Z
 63e:	91 81       	ldd	r25, Z+1	; 0x01
 640:	a2 81       	ldd	r26, Z+2	; 0x02
 642:	b3 81       	ldd	r27, Z+3	; 0x03
 644:	bc 01       	movw	r22, r24
 646:	cd 01       	movw	r24, r26
 648:	0e 94 80 05 	call	0xb00	; 0xb00 <__mulsi3>
 64c:	dc 01       	movw	r26, r24
 64e:	cb 01       	movw	r24, r22
 650:	2f 81       	ldd	r18, Y+7	; 0x07
 652:	38 85       	ldd	r19, Y+8	; 0x08
 654:	49 85       	ldd	r20, Y+9	; 0x09
 656:	5a 85       	ldd	r21, Y+10	; 0x0a
 658:	79 01       	movw	r14, r18
 65a:	8a 01       	movw	r16, r20
 65c:	e8 1a       	sub	r14, r24
 65e:	f9 0a       	sbc	r15, r25
 660:	0a 0b       	sbc	r16, r26
 662:	1b 0b       	sbc	r17, r27
 664:	d8 01       	movw	r26, r16
 666:	c7 01       	movw	r24, r14
 668:	8f 83       	std	Y+7, r24	; 0x07
 66a:	98 87       	std	Y+8, r25	; 0x08
 66c:	a9 87       	std	Y+9, r26	; 0x09
 66e:	ba 87       	std	Y+10, r27	; 0x0a
/home/becker/async/autosafe/trunk/tum/wcet-cbmc/benchmarks/ud/ud.c:147
 670:	8b 81       	ldd	r24, Y+3	; 0x03
 672:	9c 81       	ldd	r25, Y+4	; 0x04
 674:	01 96       	adiw	r24, 0x01	; 1
 676:	9c 83       	std	Y+4, r25	; 0x04
 678:	8b 83       	std	Y+3, r24	; 0x03
 67a:	2b 81       	ldd	r18, Y+3	; 0x03
 67c:	3c 81       	ldd	r19, Y+4	; 0x04
 67e:	89 81       	ldd	r24, Y+1	; 0x01
 680:	9a 81       	ldd	r25, Y+2	; 0x02
 682:	28 17       	cp	r18, r24
 684:	39 07       	cpc	r19, r25
 686:	0c f4       	brge	.+2      	; 0x68a <ludcmp+0x3fe>
 688:	b5 cf       	rjmp	.-150    	; 0x5f4 <ludcmp+0x368>
/home/becker/async/autosafe/trunk/tum/wcet-cbmc/benchmarks/ud/ud.c:149
 68a:	89 81       	ldd	r24, Y+1	; 0x01
 68c:	9a 81       	ldd	r25, Y+2	; 0x02
 68e:	88 0f       	add	r24, r24
 690:	99 1f       	adc	r25, r25
 692:	88 0f       	add	r24, r24
 694:	99 1f       	adc	r25, r25
 696:	9e 01       	movw	r18, r28
 698:	2f 5f       	subi	r18, 0xFF	; 255
 69a:	3f 4f       	sbci	r19, 0xFF	; 255
 69c:	82 0f       	add	r24, r18
 69e:	93 1f       	adc	r25, r19
 6a0:	9c 01       	movw	r18, r24
 6a2:	26 5f       	subi	r18, 0xF6	; 246
 6a4:	3f 4f       	sbci	r19, 0xFF	; 255
 6a6:	8f 81       	ldd	r24, Y+7	; 0x07
 6a8:	98 85       	ldd	r25, Y+8	; 0x08
 6aa:	a9 85       	ldd	r26, Y+9	; 0x09
 6ac:	ba 85       	ldd	r27, Y+10	; 0x0a
 6ae:	f9 01       	movw	r30, r18
 6b0:	80 83       	st	Z, r24
 6b2:	91 83       	std	Z+1, r25	; 0x01
 6b4:	a2 83       	std	Z+2, r26	; 0x02
 6b6:	b3 83       	std	Z+3, r27	; 0x03
/home/becker/async/autosafe/trunk/tum/wcet-cbmc/benchmarks/ud/ud.c:144
 6b8:	89 81       	ldd	r24, Y+1	; 0x01
 6ba:	9a 81       	ldd	r25, Y+2	; 0x02
 6bc:	01 96       	adiw	r24, 0x01	; 1
 6be:	9a 83       	std	Y+2, r25	; 0x02
 6c0:	89 83       	std	Y+1, r24	; 0x01
 6c2:	ce 01       	movw	r24, r28
 6c4:	83 56       	subi	r24, 0x63	; 99
 6c6:	9e 4f       	sbci	r25, 0xFE	; 254
 6c8:	29 81       	ldd	r18, Y+1	; 0x01
 6ca:	3a 81       	ldd	r19, Y+2	; 0x02
 6cc:	fc 01       	movw	r30, r24
 6ce:	80 81       	ld	r24, Z
 6d0:	91 81       	ldd	r25, Z+1	; 0x01
 6d2:	82 17       	cp	r24, r18
 6d4:	93 07       	cpc	r25, r19
 6d6:	0c f0       	brlt	.+2      	; 0x6da <ludcmp+0x44e>
 6d8:	79 cf       	rjmp	.-270    	; 0x5cc <ludcmp+0x340>
/home/becker/async/autosafe/trunk/tum/wcet-cbmc/benchmarks/ud/ud.c:151
 6da:	ce 01       	movw	r24, r28
 6dc:	83 56       	subi	r24, 0x63	; 99
 6de:	9e 4f       	sbci	r25, 0xFE	; 254
 6e0:	fc 01       	movw	r30, r24
 6e2:	80 81       	ld	r24, Z
 6e4:	91 81       	ldd	r25, Z+1	; 0x01
 6e6:	88 0f       	add	r24, r24
 6e8:	99 1f       	adc	r25, r25
 6ea:	88 0f       	add	r24, r24
 6ec:	99 1f       	adc	r25, r25
 6ee:	9e 01       	movw	r18, r28
 6f0:	2f 5f       	subi	r18, 0xFF	; 255
 6f2:	3f 4f       	sbci	r19, 0xFF	; 255
 6f4:	82 0f       	add	r24, r18
 6f6:	93 1f       	adc	r25, r19
 6f8:	0a 96       	adiw	r24, 0x0a	; 10
 6fa:	fc 01       	movw	r30, r24
 6fc:	80 81       	ld	r24, Z
 6fe:	91 81       	ldd	r25, Z+1	; 0x01
 700:	a2 81       	ldd	r26, Z+2	; 0x02
 702:	b3 81       	ldd	r27, Z+3	; 0x03
 704:	9e 01       	movw	r18, r28
 706:	23 56       	subi	r18, 0x63	; 99
 708:	3e 4f       	sbci	r19, 0xFE	; 254
 70a:	f9 01       	movw	r30, r18
 70c:	40 81       	ld	r20, Z
 70e:	51 81       	ldd	r21, Z+1	; 0x01
 710:	6c ec       	ldi	r22, 0xCC	; 204
 712:	64 9f       	mul	r22, r20
 714:	90 01       	movw	r18, r0
 716:	65 9f       	mul	r22, r21
 718:	30 0d       	add	r19, r0
 71a:	11 24       	eor	r1, r1
 71c:	20 57       	subi	r18, 0x70	; 112
 71e:	3d 4f       	sbci	r19, 0xFD	; 253
 720:	f9 01       	movw	r30, r18
 722:	20 81       	ld	r18, Z
 724:	31 81       	ldd	r19, Z+1	; 0x01
 726:	42 81       	ldd	r20, Z+2	; 0x02
 728:	53 81       	ldd	r21, Z+3	; 0x03
 72a:	bc 01       	movw	r22, r24
 72c:	cd 01       	movw	r24, r26
 72e:	0e 94 90 05 	call	0xb20	; 0xb20 <__divmodsi4>
 732:	da 01       	movw	r26, r20
 734:	c9 01       	movw	r24, r18
 736:	9e 01       	movw	r18, r28
 738:	23 56       	subi	r18, 0x63	; 99
 73a:	3e 4f       	sbci	r19, 0xFE	; 254
 73c:	f9 01       	movw	r30, r18
 73e:	20 81       	ld	r18, Z
 740:	31 81       	ldd	r19, Z+1	; 0x01
 742:	22 0f       	add	r18, r18
 744:	33 1f       	adc	r19, r19
 746:	22 0f       	add	r18, r18
 748:	33 1f       	adc	r19, r19
 74a:	28 53       	subi	r18, 0x38	; 56
 74c:	3e 4f       	sbci	r19, 0xFE	; 254
 74e:	f9 01       	movw	r30, r18
 750:	80 83       	st	Z, r24
 752:	91 83       	std	Z+1, r25	; 0x01
 754:	a2 83       	std	Z+2, r26	; 0x02
 756:	b3 83       	std	Z+3, r27	; 0x03
/home/becker/async/autosafe/trunk/tum/wcet-cbmc/benchmarks/ud/ud.c:152
 758:	ce 01       	movw	r24, r28
 75a:	83 56       	subi	r24, 0x63	; 99
 75c:	9e 4f       	sbci	r25, 0xFE	; 254
 75e:	fc 01       	movw	r30, r24
 760:	80 81       	ld	r24, Z
 762:	91 81       	ldd	r25, Z+1	; 0x01
 764:	01 97       	sbiw	r24, 0x01	; 1
 766:	9a 83       	std	Y+2, r25	; 0x02
 768:	89 83       	std	Y+1, r24	; 0x01
 76a:	91 c0       	rjmp	.+290    	; 0x88e <ludcmp+0x602>
/home/becker/async/autosafe/trunk/tum/wcet-cbmc/benchmarks/ud/ud.c:154
 76c:	89 81       	ldd	r24, Y+1	; 0x01
 76e:	9a 81       	ldd	r25, Y+2	; 0x02
 770:	88 0f       	add	r24, r24
 772:	99 1f       	adc	r25, r25
 774:	88 0f       	add	r24, r24
 776:	99 1f       	adc	r25, r25
 778:	9e 01       	movw	r18, r28
 77a:	2f 5f       	subi	r18, 0xFF	; 255
 77c:	3f 4f       	sbci	r19, 0xFF	; 255
 77e:	82 0f       	add	r24, r18
 780:	93 1f       	adc	r25, r19
 782:	0a 96       	adiw	r24, 0x0a	; 10
 784:	fc 01       	movw	r30, r24
 786:	80 81       	ld	r24, Z
 788:	91 81       	ldd	r25, Z+1	; 0x01
 78a:	a2 81       	ldd	r26, Z+2	; 0x02
 78c:	b3 81       	ldd	r27, Z+3	; 0x03
 78e:	8f 83       	std	Y+7, r24	; 0x07
 790:	98 87       	std	Y+8, r25	; 0x08
 792:	a9 87       	std	Y+9, r26	; 0x09
 794:	ba 87       	std	Y+10, r27	; 0x0a
/home/becker/async/autosafe/trunk/tum/wcet-cbmc/benchmarks/ud/ud.c:155
 796:	89 81       	ldd	r24, Y+1	; 0x01
 798:	9a 81       	ldd	r25, Y+2	; 0x02
 79a:	01 96       	adiw	r24, 0x01	; 1
 79c:	9c 83       	std	Y+4, r25	; 0x04
 79e:	8b 83       	std	Y+3, r24	; 0x03
 7a0:	3f c0       	rjmp	.+126    	; 0x820 <ludcmp+0x594>
/home/becker/async/autosafe/trunk/tum/wcet-cbmc/benchmarks/ud/ud.c:156
 7a2:	89 81       	ldd	r24, Y+1	; 0x01
 7a4:	9a 81       	ldd	r25, Y+2	; 0x02
 7a6:	42 e3       	ldi	r20, 0x32	; 50
 7a8:	48 9f       	mul	r20, r24
 7aa:	90 01       	movw	r18, r0
 7ac:	49 9f       	mul	r20, r25
 7ae:	30 0d       	add	r19, r0
 7b0:	11 24       	eor	r1, r1
 7b2:	8b 81       	ldd	r24, Y+3	; 0x03
 7b4:	9c 81       	ldd	r25, Y+4	; 0x04
 7b6:	82 0f       	add	r24, r18
 7b8:	93 1f       	adc	r25, r19
 7ba:	88 0f       	add	r24, r24
 7bc:	99 1f       	adc	r25, r25
 7be:	88 0f       	add	r24, r24
 7c0:	99 1f       	adc	r25, r25
 7c2:	80 57       	subi	r24, 0x70	; 112
 7c4:	9d 4f       	sbci	r25, 0xFD	; 253
 7c6:	fc 01       	movw	r30, r24
 7c8:	20 81       	ld	r18, Z
 7ca:	31 81       	ldd	r19, Z+1	; 0x01
 7cc:	42 81       	ldd	r20, Z+2	; 0x02
 7ce:	53 81       	ldd	r21, Z+3	; 0x03
 7d0:	8b 81       	ldd	r24, Y+3	; 0x03
 7d2:	9c 81       	ldd	r25, Y+4	; 0x04
 7d4:	88 0f       	add	r24, r24
 7d6:	99 1f       	adc	r25, r25
 7d8:	88 0f       	add	r24, r24
 7da:	99 1f       	adc	r25, r25
 7dc:	88 53       	subi	r24, 0x38	; 56
 7de:	9e 4f       	sbci	r25, 0xFE	; 254
 7e0:	fc 01       	movw	r30, r24
 7e2:	80 81       	ld	r24, Z
 7e4:	91 81       	ldd	r25, Z+1	; 0x01
 7e6:	a2 81       	ldd	r26, Z+2	; 0x02
 7e8:	b3 81       	ldd	r27, Z+3	; 0x03
 7ea:	bc 01       	movw	r22, r24
 7ec:	cd 01       	movw	r24, r26
 7ee:	0e 94 80 05 	call	0xb00	; 0xb00 <__mulsi3>
 7f2:	dc 01       	movw	r26, r24
 7f4:	cb 01       	movw	r24, r22
 7f6:	2f 81       	ldd	r18, Y+7	; 0x07
 7f8:	38 85       	ldd	r19, Y+8	; 0x08
 7fa:	49 85       	ldd	r20, Y+9	; 0x09
 7fc:	5a 85       	ldd	r21, Y+10	; 0x0a
 7fe:	79 01       	movw	r14, r18
 800:	8a 01       	movw	r16, r20
 802:	e8 1a       	sub	r14, r24
 804:	f9 0a       	sbc	r15, r25
 806:	0a 0b       	sbc	r16, r26
 808:	1b 0b       	sbc	r17, r27
 80a:	d8 01       	movw	r26, r16
 80c:	c7 01       	movw	r24, r14
 80e:	8f 83       	std	Y+7, r24	; 0x07
 810:	98 87       	std	Y+8, r25	; 0x08
 812:	a9 87       	std	Y+9, r26	; 0x09
 814:	ba 87       	std	Y+10, r27	; 0x0a
/home/becker/async/autosafe/trunk/tum/wcet-cbmc/benchmarks/ud/ud.c:155
 816:	8b 81       	ldd	r24, Y+3	; 0x03
 818:	9c 81       	ldd	r25, Y+4	; 0x04
 81a:	01 96       	adiw	r24, 0x01	; 1
 81c:	9c 83       	std	Y+4, r25	; 0x04
 81e:	8b 83       	std	Y+3, r24	; 0x03
 820:	ce 01       	movw	r24, r28
 822:	83 56       	subi	r24, 0x63	; 99
 824:	9e 4f       	sbci	r25, 0xFE	; 254
 826:	2b 81       	ldd	r18, Y+3	; 0x03
 828:	3c 81       	ldd	r19, Y+4	; 0x04
 82a:	fc 01       	movw	r30, r24
 82c:	80 81       	ld	r24, Z
 82e:	91 81       	ldd	r25, Z+1	; 0x01
 830:	82 17       	cp	r24, r18
 832:	93 07       	cpc	r25, r19
 834:	0c f0       	brlt	.+2      	; 0x838 <ludcmp+0x5ac>
 836:	b5 cf       	rjmp	.-150    	; 0x7a2 <ludcmp+0x516>
/home/becker/async/autosafe/trunk/tum/wcet-cbmc/benchmarks/ud/ud.c:157
 838:	29 81       	ldd	r18, Y+1	; 0x01
 83a:	3a 81       	ldd	r19, Y+2	; 0x02
 83c:	4c ec       	ldi	r20, 0xCC	; 204
 83e:	42 9f       	mul	r20, r18
 840:	c0 01       	movw	r24, r0
 842:	43 9f       	mul	r20, r19
 844:	90 0d       	add	r25, r0
 846:	11 24       	eor	r1, r1
 848:	80 57       	subi	r24, 0x70	; 112
 84a:	9d 4f       	sbci	r25, 0xFD	; 253
 84c:	fc 01       	movw	r30, r24
 84e:	20 81       	ld	r18, Z
 850:	31 81       	ldd	r19, Z+1	; 0x01
 852:	42 81       	ldd	r20, Z+2	; 0x02
 854:	53 81       	ldd	r21, Z+3	; 0x03
 856:	8f 81       	ldd	r24, Y+7	; 0x07
 858:	98 85       	ldd	r25, Y+8	; 0x08
 85a:	a9 85       	ldd	r26, Y+9	; 0x09
 85c:	ba 85       	ldd	r27, Y+10	; 0x0a
 85e:	bc 01       	movw	r22, r24
 860:	cd 01       	movw	r24, r26
 862:	0e 94 90 05 	call	0xb20	; 0xb20 <__divmodsi4>
 866:	da 01       	movw	r26, r20
 868:	c9 01       	movw	r24, r18
 86a:	29 81       	ldd	r18, Y+1	; 0x01
 86c:	3a 81       	ldd	r19, Y+2	; 0x02
 86e:	22 0f       	add	r18, r18
 870:	33 1f       	adc	r19, r19
 872:	22 0f       	add	r18, r18
 874:	33 1f       	adc	r19, r19
 876:	28 53       	subi	r18, 0x38	; 56
 878:	3e 4f       	sbci	r19, 0xFE	; 254
 87a:	f9 01       	movw	r30, r18
 87c:	80 83       	st	Z, r24
 87e:	91 83       	std	Z+1, r25	; 0x01
 880:	a2 83       	std	Z+2, r26	; 0x02
 882:	b3 83       	std	Z+3, r27	; 0x03
/home/becker/async/autosafe/trunk/tum/wcet-cbmc/benchmarks/ud/ud.c:152
 884:	89 81       	ldd	r24, Y+1	; 0x01
 886:	9a 81       	ldd	r25, Y+2	; 0x02
 888:	01 97       	sbiw	r24, 0x01	; 1
 88a:	9a 83       	std	Y+2, r25	; 0x02
 88c:	89 83       	std	Y+1, r24	; 0x01
 88e:	89 81       	ldd	r24, Y+1	; 0x01
 890:	9a 81       	ldd	r25, Y+2	; 0x02
 892:	99 23       	and	r25, r25
 894:	0c f0       	brlt	.+2      	; 0x898 <ludcmp+0x60c>
 896:	6a cf       	rjmp	.-300    	; 0x76c <ludcmp+0x4e0>
/home/becker/async/autosafe/trunk/tum/wcet-cbmc/benchmarks/ud/ud.c:159
 898:	80 e0       	ldi	r24, 0x00	; 0
 89a:	90 e0       	ldi	r25, 0x00	; 0
/home/becker/async/autosafe/trunk/tum/wcet-cbmc/benchmarks/ud/ud.c:160
 89c:	c2 56       	subi	r28, 0x62	; 98
 89e:	de 4f       	sbci	r29, 0xFE	; 254
 8a0:	0f b6       	in	r0, 0x3f	; 63
 8a2:	f8 94       	cli
 8a4:	de bf       	out	0x3e, r29	; 62
 8a6:	0f be       	out	0x3f, r0	; 63
 8a8:	cd bf       	out	0x3d, r28	; 61
 8aa:	df 91       	pop	r29
 8ac:	cf 91       	pop	r28
 8ae:	1f 91       	pop	r17
 8b0:	0f 91       	pop	r16
 8b2:	ff 90       	pop	r15
 8b4:	ef 90       	pop	r14
 8b6:	08 95       	ret

000008b8 <__subsf3>:
../../../libm/fplib/fp_zero.S:39
 8b8:	50 58       	subi	r21, 0x80	; 128

000008ba <__addsf3>:
 8ba:	bb 27       	eor	r27, r27
 8bc:	aa 27       	eor	r26, r26
 8be:	0e d0       	rcall	.+28     	; 0x8dc <__addsf3x>
 8c0:	e5 c0       	rjmp	.+458    	; 0xa8c <__fp_round>
 8c2:	d6 d0       	rcall	.+428    	; 0xa70 <__fp_pscA>
 8c4:	30 f0       	brcs	.+12     	; 0x8d2 <__addsf3+0x18>
 8c6:	db d0       	rcall	.+438    	; 0xa7e <__fp_pscB>
 8c8:	20 f0       	brcs	.+8      	; 0x8d2 <__addsf3+0x18>
 8ca:	31 f4       	brne	.+12     	; 0x8d8 <__addsf3+0x1e>
 8cc:	9f 3f       	cpi	r25, 0xFF	; 255
 8ce:	11 f4       	brne	.+4      	; 0x8d4 <__addsf3+0x1a>
 8d0:	1e f4       	brtc	.+6      	; 0x8d8 <__addsf3+0x1e>
 8d2:	cb c0       	rjmp	.+406    	; 0xa6a <__fp_nan>
 8d4:	0e f4       	brtc	.+2      	; 0x8d8 <__addsf3+0x1e>
 8d6:	e0 95       	com	r30
 8d8:	e7 fb       	bst	r30, 7
 8da:	c1 c0       	rjmp	.+386    	; 0xa5e <__fp_inf>

000008dc <__addsf3x>:
 8dc:	e9 2f       	mov	r30, r25
 8de:	e7 d0       	rcall	.+462    	; 0xaae <__fp_split3>
 8e0:	80 f3       	brcs	.-32     	; 0x8c2 <__addsf3+0x8>
 8e2:	ba 17       	cp	r27, r26
 8e4:	62 07       	cpc	r22, r18
 8e6:	73 07       	cpc	r23, r19
 8e8:	84 07       	cpc	r24, r20
 8ea:	95 07       	cpc	r25, r21
 8ec:	18 f0       	brcs	.+6      	; 0x8f4 <__addsf3x+0x18>
 8ee:	71 f4       	brne	.+28     	; 0x90c <__addsf3x+0x30>
 8f0:	9e f5       	brtc	.+102    	; 0x958 <__addsf3x+0x7c>
 8f2:	ff c0       	rjmp	.+510    	; 0xaf2 <__fp_zero>
 8f4:	0e f4       	brtc	.+2      	; 0x8f8 <__addsf3x+0x1c>
 8f6:	e0 95       	com	r30
 8f8:	0b 2e       	mov	r0, r27
 8fa:	ba 2f       	mov	r27, r26
 8fc:	a0 2d       	mov	r26, r0
 8fe:	0b 01       	movw	r0, r22
 900:	b9 01       	movw	r22, r18
 902:	90 01       	movw	r18, r0
 904:	0c 01       	movw	r0, r24
 906:	ca 01       	movw	r24, r20
 908:	a0 01       	movw	r20, r0
 90a:	11 24       	eor	r1, r1
 90c:	ff 27       	eor	r31, r31
 90e:	59 1b       	sub	r21, r25
 910:	99 f0       	breq	.+38     	; 0x938 <__addsf3x+0x5c>
 912:	59 3f       	cpi	r21, 0xF9	; 249
 914:	50 f4       	brcc	.+20     	; 0x92a <__addsf3x+0x4e>
 916:	50 3e       	cpi	r21, 0xE0	; 224
 918:	68 f1       	brcs	.+90     	; 0x974 <__addsf3x+0x98>
 91a:	1a 16       	cp	r1, r26
 91c:	f0 40       	sbci	r31, 0x00	; 0
 91e:	a2 2f       	mov	r26, r18
 920:	23 2f       	mov	r18, r19
 922:	34 2f       	mov	r19, r20
 924:	44 27       	eor	r20, r20
 926:	58 5f       	subi	r21, 0xF8	; 248
 928:	f3 cf       	rjmp	.-26     	; 0x910 <__addsf3x+0x34>
 92a:	46 95       	lsr	r20
 92c:	37 95       	ror	r19
 92e:	27 95       	ror	r18
 930:	a7 95       	ror	r26
 932:	f0 40       	sbci	r31, 0x00	; 0
 934:	53 95       	inc	r21
 936:	c9 f7       	brne	.-14     	; 0x92a <__addsf3x+0x4e>
 938:	7e f4       	brtc	.+30     	; 0x958 <__addsf3x+0x7c>
 93a:	1f 16       	cp	r1, r31
 93c:	ba 0b       	sbc	r27, r26
 93e:	62 0b       	sbc	r22, r18
 940:	73 0b       	sbc	r23, r19
 942:	84 0b       	sbc	r24, r20
 944:	ba f0       	brmi	.+46     	; 0x974 <__addsf3x+0x98>
 946:	91 50       	subi	r25, 0x01	; 1
 948:	a1 f0       	breq	.+40     	; 0x972 <__addsf3x+0x96>
 94a:	ff 0f       	add	r31, r31
 94c:	bb 1f       	adc	r27, r27
 94e:	66 1f       	adc	r22, r22
 950:	77 1f       	adc	r23, r23
 952:	88 1f       	adc	r24, r24
 954:	c2 f7       	brpl	.-16     	; 0x946 <__addsf3x+0x6a>
 956:	0e c0       	rjmp	.+28     	; 0x974 <__addsf3x+0x98>
 958:	ba 0f       	add	r27, r26
 95a:	62 1f       	adc	r22, r18
 95c:	73 1f       	adc	r23, r19
 95e:	84 1f       	adc	r24, r20
 960:	48 f4       	brcc	.+18     	; 0x974 <__addsf3x+0x98>
 962:	87 95       	ror	r24
 964:	77 95       	ror	r23
 966:	67 95       	ror	r22
 968:	b7 95       	ror	r27
 96a:	f7 95       	ror	r31
 96c:	9e 3f       	cpi	r25, 0xFE	; 254
 96e:	08 f0       	brcs	.+2      	; 0x972 <__addsf3x+0x96>
 970:	b3 cf       	rjmp	.-154    	; 0x8d8 <__addsf3+0x1e>
 972:	93 95       	inc	r25
 974:	88 0f       	add	r24, r24
 976:	08 f0       	brcs	.+2      	; 0x97a <__addsf3x+0x9e>
 978:	99 27       	eor	r25, r25
 97a:	ee 0f       	add	r30, r30
 97c:	97 95       	ror	r25
 97e:	87 95       	ror	r24
 980:	08 95       	ret

00000982 <__fixsfsi>:
 982:	04 d0       	rcall	.+8      	; 0x98c <__fixunssfsi>
 984:	68 94       	set
 986:	b1 11       	cpse	r27, r1
 988:	b5 c0       	rjmp	.+362    	; 0xaf4 <__fp_szero>
 98a:	08 95       	ret

0000098c <__fixunssfsi>:
 98c:	98 d0       	rcall	.+304    	; 0xabe <__fp_splitA>
 98e:	88 f0       	brcs	.+34     	; 0x9b2 <__fixunssfsi+0x26>
 990:	9f 57       	subi	r25, 0x7F	; 127
 992:	90 f0       	brcs	.+36     	; 0x9b8 <__fixunssfsi+0x2c>
 994:	b9 2f       	mov	r27, r25
 996:	99 27       	eor	r25, r25
 998:	b7 51       	subi	r27, 0x17	; 23
 99a:	a0 f0       	brcs	.+40     	; 0x9c4 <__fixunssfsi+0x38>
 99c:	d1 f0       	breq	.+52     	; 0x9d2 <__fixunssfsi+0x46>
 99e:	66 0f       	add	r22, r22
 9a0:	77 1f       	adc	r23, r23
 9a2:	88 1f       	adc	r24, r24
 9a4:	99 1f       	adc	r25, r25
 9a6:	1a f0       	brmi	.+6      	; 0x9ae <__fixunssfsi+0x22>
 9a8:	ba 95       	dec	r27
 9aa:	c9 f7       	brne	.-14     	; 0x99e <__fixunssfsi+0x12>
 9ac:	12 c0       	rjmp	.+36     	; 0x9d2 <__fixunssfsi+0x46>
 9ae:	b1 30       	cpi	r27, 0x01	; 1
 9b0:	81 f0       	breq	.+32     	; 0x9d2 <__fixunssfsi+0x46>
 9b2:	9f d0       	rcall	.+318    	; 0xaf2 <__fp_zero>
 9b4:	b1 e0       	ldi	r27, 0x01	; 1
 9b6:	08 95       	ret
 9b8:	9c c0       	rjmp	.+312    	; 0xaf2 <__fp_zero>
 9ba:	67 2f       	mov	r22, r23
 9bc:	78 2f       	mov	r23, r24
 9be:	88 27       	eor	r24, r24
 9c0:	b8 5f       	subi	r27, 0xF8	; 248
 9c2:	39 f0       	breq	.+14     	; 0x9d2 <__fixunssfsi+0x46>
 9c4:	b9 3f       	cpi	r27, 0xF9	; 249
 9c6:	cc f3       	brlt	.-14     	; 0x9ba <__fixunssfsi+0x2e>
 9c8:	86 95       	lsr	r24
 9ca:	77 95       	ror	r23
 9cc:	67 95       	ror	r22
 9ce:	b3 95       	inc	r27
 9d0:	d9 f7       	brne	.-10     	; 0x9c8 <__fixunssfsi+0x3c>
 9d2:	3e f4       	brtc	.+14     	; 0x9e2 <__fixunssfsi+0x56>
 9d4:	90 95       	com	r25
 9d6:	80 95       	com	r24
 9d8:	70 95       	com	r23
 9da:	61 95       	neg	r22
 9dc:	7f 4f       	sbci	r23, 0xFF	; 255
 9de:	8f 4f       	sbci	r24, 0xFF	; 255
 9e0:	9f 4f       	sbci	r25, 0xFF	; 255
 9e2:	08 95       	ret

000009e4 <__floatunsisf>:
 9e4:	e8 94       	clt
 9e6:	09 c0       	rjmp	.+18     	; 0x9fa <__floatsisf+0x12>

000009e8 <__floatsisf>:
 9e8:	97 fb       	bst	r25, 7
 9ea:	3e f4       	brtc	.+14     	; 0x9fa <__floatsisf+0x12>
 9ec:	90 95       	com	r25
 9ee:	80 95       	com	r24
 9f0:	70 95       	com	r23
 9f2:	61 95       	neg	r22
 9f4:	7f 4f       	sbci	r23, 0xFF	; 255
 9f6:	8f 4f       	sbci	r24, 0xFF	; 255
 9f8:	9f 4f       	sbci	r25, 0xFF	; 255
 9fa:	99 23       	and	r25, r25
 9fc:	a9 f0       	breq	.+42     	; 0xa28 <__floatsisf+0x40>
 9fe:	f9 2f       	mov	r31, r25
 a00:	96 e9       	ldi	r25, 0x96	; 150
 a02:	bb 27       	eor	r27, r27
 a04:	93 95       	inc	r25
 a06:	f6 95       	lsr	r31
 a08:	87 95       	ror	r24
 a0a:	77 95       	ror	r23
 a0c:	67 95       	ror	r22
 a0e:	b7 95       	ror	r27
 a10:	f1 11       	cpse	r31, r1
 a12:	f8 cf       	rjmp	.-16     	; 0xa04 <__floatsisf+0x1c>
 a14:	fa f4       	brpl	.+62     	; 0xa54 <__floatsisf+0x6c>
 a16:	bb 0f       	add	r27, r27
 a18:	11 f4       	brne	.+4      	; 0xa1e <__floatsisf+0x36>
 a1a:	60 ff       	sbrs	r22, 0
 a1c:	1b c0       	rjmp	.+54     	; 0xa54 <__floatsisf+0x6c>
 a1e:	6f 5f       	subi	r22, 0xFF	; 255
 a20:	7f 4f       	sbci	r23, 0xFF	; 255
 a22:	8f 4f       	sbci	r24, 0xFF	; 255
 a24:	9f 4f       	sbci	r25, 0xFF	; 255
 a26:	16 c0       	rjmp	.+44     	; 0xa54 <__floatsisf+0x6c>
 a28:	88 23       	and	r24, r24
 a2a:	11 f0       	breq	.+4      	; 0xa30 <__floatsisf+0x48>
 a2c:	96 e9       	ldi	r25, 0x96	; 150
 a2e:	11 c0       	rjmp	.+34     	; 0xa52 <__floatsisf+0x6a>
 a30:	77 23       	and	r23, r23
 a32:	21 f0       	breq	.+8      	; 0xa3c <__floatsisf+0x54>
 a34:	9e e8       	ldi	r25, 0x8E	; 142
 a36:	87 2f       	mov	r24, r23
 a38:	76 2f       	mov	r23, r22
 a3a:	05 c0       	rjmp	.+10     	; 0xa46 <__floatsisf+0x5e>
 a3c:	66 23       	and	r22, r22
 a3e:	71 f0       	breq	.+28     	; 0xa5c <__floatsisf+0x74>
 a40:	96 e8       	ldi	r25, 0x86	; 134
 a42:	86 2f       	mov	r24, r22
 a44:	70 e0       	ldi	r23, 0x00	; 0
 a46:	60 e0       	ldi	r22, 0x00	; 0
 a48:	2a f0       	brmi	.+10     	; 0xa54 <__floatsisf+0x6c>
 a4a:	9a 95       	dec	r25
 a4c:	66 0f       	add	r22, r22
 a4e:	77 1f       	adc	r23, r23
 a50:	88 1f       	adc	r24, r24
 a52:	da f7       	brpl	.-10     	; 0xa4a <__floatsisf+0x62>
 a54:	88 0f       	add	r24, r24
 a56:	96 95       	lsr	r25
 a58:	87 95       	ror	r24
 a5a:	97 f9       	bld	r25, 7
 a5c:	08 95       	ret

00000a5e <__fp_inf>:
 a5e:	97 f9       	bld	r25, 7
 a60:	9f 67       	ori	r25, 0x7F	; 127
 a62:	80 e8       	ldi	r24, 0x80	; 128
 a64:	70 e0       	ldi	r23, 0x00	; 0
 a66:	60 e0       	ldi	r22, 0x00	; 0
 a68:	08 95       	ret

00000a6a <__fp_nan>:
 a6a:	9f ef       	ldi	r25, 0xFF	; 255
 a6c:	80 ec       	ldi	r24, 0xC0	; 192
 a6e:	08 95       	ret

00000a70 <__fp_pscA>:
 a70:	00 24       	eor	r0, r0
 a72:	0a 94       	dec	r0
 a74:	16 16       	cp	r1, r22
 a76:	17 06       	cpc	r1, r23
 a78:	18 06       	cpc	r1, r24
 a7a:	09 06       	cpc	r0, r25
 a7c:	08 95       	ret

00000a7e <__fp_pscB>:
 a7e:	00 24       	eor	r0, r0
 a80:	0a 94       	dec	r0
 a82:	12 16       	cp	r1, r18
 a84:	13 06       	cpc	r1, r19
 a86:	14 06       	cpc	r1, r20
 a88:	05 06       	cpc	r0, r21
 a8a:	08 95       	ret

00000a8c <__fp_round>:
 a8c:	09 2e       	mov	r0, r25
 a8e:	03 94       	inc	r0
 a90:	00 0c       	add	r0, r0
 a92:	11 f4       	brne	.+4      	; 0xa98 <__fp_round+0xc>
 a94:	88 23       	and	r24, r24
 a96:	52 f0       	brmi	.+20     	; 0xaac <__fp_round+0x20>
 a98:	bb 0f       	add	r27, r27
 a9a:	40 f4       	brcc	.+16     	; 0xaac <__fp_round+0x20>
 a9c:	bf 2b       	or	r27, r31
 a9e:	11 f4       	brne	.+4      	; 0xaa4 <__fp_round+0x18>
 aa0:	60 ff       	sbrs	r22, 0
 aa2:	04 c0       	rjmp	.+8      	; 0xaac <__fp_round+0x20>
 aa4:	6f 5f       	subi	r22, 0xFF	; 255
 aa6:	7f 4f       	sbci	r23, 0xFF	; 255
 aa8:	8f 4f       	sbci	r24, 0xFF	; 255
 aaa:	9f 4f       	sbci	r25, 0xFF	; 255
 aac:	08 95       	ret

00000aae <__fp_split3>:
 aae:	57 fd       	sbrc	r21, 7
 ab0:	90 58       	subi	r25, 0x80	; 128
 ab2:	44 0f       	add	r20, r20
 ab4:	55 1f       	adc	r21, r21
 ab6:	59 f0       	breq	.+22     	; 0xace <__fp_splitA+0x10>
 ab8:	5f 3f       	cpi	r21, 0xFF	; 255
 aba:	71 f0       	breq	.+28     	; 0xad8 <__fp_splitA+0x1a>
 abc:	47 95       	ror	r20

00000abe <__fp_splitA>:
 abe:	88 0f       	add	r24, r24
 ac0:	97 fb       	bst	r25, 7
 ac2:	99 1f       	adc	r25, r25
 ac4:	61 f0       	breq	.+24     	; 0xade <__fp_splitA+0x20>
 ac6:	9f 3f       	cpi	r25, 0xFF	; 255
 ac8:	79 f0       	breq	.+30     	; 0xae8 <__fp_splitA+0x2a>
 aca:	87 95       	ror	r24
 acc:	08 95       	ret
 ace:	12 16       	cp	r1, r18
 ad0:	13 06       	cpc	r1, r19
 ad2:	14 06       	cpc	r1, r20
 ad4:	55 1f       	adc	r21, r21
 ad6:	f2 cf       	rjmp	.-28     	; 0xabc <__fp_split3+0xe>
 ad8:	46 95       	lsr	r20
 ada:	f1 df       	rcall	.-30     	; 0xabe <__fp_splitA>
 adc:	08 c0       	rjmp	.+16     	; 0xaee <__fp_splitA+0x30>
 ade:	16 16       	cp	r1, r22
 ae0:	17 06       	cpc	r1, r23
 ae2:	18 06       	cpc	r1, r24
 ae4:	99 1f       	adc	r25, r25
 ae6:	f1 cf       	rjmp	.-30     	; 0xaca <__fp_splitA+0xc>
 ae8:	86 95       	lsr	r24
 aea:	71 05       	cpc	r23, r1
 aec:	61 05       	cpc	r22, r1
 aee:	08 94       	sec
 af0:	08 95       	ret

00000af2 <__fp_zero>:
../../../libm/fplib/fp_zero.S:40
 af2:	e8 94       	clt

00000af4 <__fp_szero>:
../../../libm/fplib/fp_zero.S:42
 af4:	bb 27       	eor	r27, r27
../../../libm/fplib/fp_zero.S:43
 af6:	66 27       	eor	r22, r22
../../../libm/fplib/fp_zero.S:44
 af8:	77 27       	eor	r23, r23
../../../libm/fplib/fp_zero.S:45
 afa:	cb 01       	movw	r24, r22
../../../libm/fplib/fp_zero.S:46
 afc:	97 f9       	bld	r25, 7
../../../libm/fplib/fp_zero.S:47
 afe:	08 95       	ret

00000b00 <__mulsi3>:
../../../libm/fplib/fp_zero.S:48
 b00:	db 01       	movw	r26, r22
 b02:	8f 93       	push	r24
 b04:	9f 93       	push	r25
 b06:	0e 94 ac 05 	call	0xb58	; 0xb58 <__muluhisi3>
 b0a:	bf 91       	pop	r27
 b0c:	af 91       	pop	r26
 b0e:	a2 9f       	mul	r26, r18
 b10:	80 0d       	add	r24, r0
 b12:	91 1d       	adc	r25, r1
 b14:	a3 9f       	mul	r26, r19
 b16:	90 0d       	add	r25, r0
 b18:	b2 9f       	mul	r27, r18
 b1a:	90 0d       	add	r25, r0
 b1c:	11 24       	eor	r1, r1
 b1e:	08 95       	ret

00000b20 <__divmodsi4>:
 b20:	05 2e       	mov	r0, r21
 b22:	97 fb       	bst	r25, 7
 b24:	16 f4       	brtc	.+4      	; 0xb2a <__divmodsi4+0xa>
 b26:	00 94       	com	r0
 b28:	07 d0       	rcall	.+14     	; 0xb38 <__divmodsi4_neg1>
 b2a:	57 fd       	sbrc	r21, 7
 b2c:	0d d0       	rcall	.+26     	; 0xb48 <__divmodsi4_neg2>
 b2e:	0e 94 b7 05 	call	0xb6e	; 0xb6e <__udivmodsi4>
 b32:	07 fc       	sbrc	r0, 7
 b34:	09 d0       	rcall	.+18     	; 0xb48 <__divmodsi4_neg2>
 b36:	7e f4       	brtc	.+30     	; 0xb56 <__divmodsi4_exit>

00000b38 <__divmodsi4_neg1>:
 b38:	90 95       	com	r25
 b3a:	80 95       	com	r24
 b3c:	70 95       	com	r23
 b3e:	61 95       	neg	r22
 b40:	7f 4f       	sbci	r23, 0xFF	; 255
 b42:	8f 4f       	sbci	r24, 0xFF	; 255
 b44:	9f 4f       	sbci	r25, 0xFF	; 255
 b46:	08 95       	ret

00000b48 <__divmodsi4_neg2>:
 b48:	50 95       	com	r21
 b4a:	40 95       	com	r20
 b4c:	30 95       	com	r19
 b4e:	21 95       	neg	r18
 b50:	3f 4f       	sbci	r19, 0xFF	; 255
 b52:	4f 4f       	sbci	r20, 0xFF	; 255
 b54:	5f 4f       	sbci	r21, 0xFF	; 255

00000b56 <__divmodsi4_exit>:
 b56:	08 95       	ret

00000b58 <__muluhisi3>:
 b58:	0e 94 d9 05 	call	0xbb2	; 0xbb2 <__umulhisi3>
 b5c:	a5 9f       	mul	r26, r21
 b5e:	90 0d       	add	r25, r0
 b60:	b4 9f       	mul	r27, r20
 b62:	90 0d       	add	r25, r0
 b64:	a4 9f       	mul	r26, r20
 b66:	80 0d       	add	r24, r0
 b68:	91 1d       	adc	r25, r1
 b6a:	11 24       	eor	r1, r1
 b6c:	08 95       	ret

00000b6e <__udivmodsi4>:
 b6e:	a1 e2       	ldi	r26, 0x21	; 33
 b70:	1a 2e       	mov	r1, r26
 b72:	aa 1b       	sub	r26, r26
 b74:	bb 1b       	sub	r27, r27
 b76:	fd 01       	movw	r30, r26
 b78:	0d c0       	rjmp	.+26     	; 0xb94 <__udivmodsi4_ep>

00000b7a <__udivmodsi4_loop>:
 b7a:	aa 1f       	adc	r26, r26
 b7c:	bb 1f       	adc	r27, r27
 b7e:	ee 1f       	adc	r30, r30
 b80:	ff 1f       	adc	r31, r31
 b82:	a2 17       	cp	r26, r18
 b84:	b3 07       	cpc	r27, r19
 b86:	e4 07       	cpc	r30, r20
 b88:	f5 07       	cpc	r31, r21
 b8a:	20 f0       	brcs	.+8      	; 0xb94 <__udivmodsi4_ep>
 b8c:	a2 1b       	sub	r26, r18
 b8e:	b3 0b       	sbc	r27, r19
 b90:	e4 0b       	sbc	r30, r20
 b92:	f5 0b       	sbc	r31, r21

00000b94 <__udivmodsi4_ep>:
 b94:	66 1f       	adc	r22, r22
 b96:	77 1f       	adc	r23, r23
 b98:	88 1f       	adc	r24, r24
 b9a:	99 1f       	adc	r25, r25
 b9c:	1a 94       	dec	r1
 b9e:	69 f7       	brne	.-38     	; 0xb7a <__udivmodsi4_loop>
 ba0:	60 95       	com	r22
 ba2:	70 95       	com	r23
 ba4:	80 95       	com	r24
 ba6:	90 95       	com	r25
 ba8:	9b 01       	movw	r18, r22
 baa:	ac 01       	movw	r20, r24
 bac:	bd 01       	movw	r22, r26
 bae:	cf 01       	movw	r24, r30
 bb0:	08 95       	ret

00000bb2 <__umulhisi3>:
 bb2:	a2 9f       	mul	r26, r18
 bb4:	b0 01       	movw	r22, r0
 bb6:	b3 9f       	mul	r27, r19
 bb8:	c0 01       	movw	r24, r0
 bba:	a3 9f       	mul	r26, r19
 bbc:	01 d0       	rcall	.+2      	; 0xbc0 <__umulhisi3+0xe>
 bbe:	b2 9f       	mul	r27, r18
 bc0:	70 0d       	add	r23, r0
 bc2:	81 1d       	adc	r24, r1
 bc4:	11 24       	eor	r1, r1
 bc6:	91 1d       	adc	r25, r1
 bc8:	08 95       	ret

00000bca <_exit>:
 bca:	f8 94       	cli

00000bcc <__stop_program>:
 bcc:	ff cf       	rjmp	.-2      	; 0xbcc <__stop_program>
