
main.elf:     file format elf32-avr


Disassembly of section .text:

00000000 <__vectors>:
__vectors():
../../../../crt1/gcrt1.S:52
   0:	0c 94 46 00 	jmp	0x8c	; 0x8c <__ctors_end>
../../../../crt1/gcrt1.S:53
   4:	0c 94 58 00 	jmp	0xb0	; 0xb0 <__bad_interrupt>
../../../../crt1/gcrt1.S:54
   8:	0c 94 58 00 	jmp	0xb0	; 0xb0 <__bad_interrupt>
../../../../crt1/gcrt1.S:55
   c:	0c 94 58 00 	jmp	0xb0	; 0xb0 <__bad_interrupt>
../../../../crt1/gcrt1.S:56
  10:	0c 94 58 00 	jmp	0xb0	; 0xb0 <__bad_interrupt>
../../../../crt1/gcrt1.S:57
  14:	0c 94 58 00 	jmp	0xb0	; 0xb0 <__bad_interrupt>
../../../../crt1/gcrt1.S:58
  18:	0c 94 58 00 	jmp	0xb0	; 0xb0 <__bad_interrupt>
../../../../crt1/gcrt1.S:59
  1c:	0c 94 58 00 	jmp	0xb0	; 0xb0 <__bad_interrupt>
../../../../crt1/gcrt1.S:60
  20:	0c 94 58 00 	jmp	0xb0	; 0xb0 <__bad_interrupt>
../../../../crt1/gcrt1.S:61
  24:	0c 94 58 00 	jmp	0xb0	; 0xb0 <__bad_interrupt>
../../../../crt1/gcrt1.S:62
  28:	0c 94 58 00 	jmp	0xb0	; 0xb0 <__bad_interrupt>
../../../../crt1/gcrt1.S:63
  2c:	0c 94 58 00 	jmp	0xb0	; 0xb0 <__bad_interrupt>
../../../../crt1/gcrt1.S:64
  30:	0c 94 58 00 	jmp	0xb0	; 0xb0 <__bad_interrupt>
../../../../crt1/gcrt1.S:65
  34:	0c 94 58 00 	jmp	0xb0	; 0xb0 <__bad_interrupt>
../../../../crt1/gcrt1.S:66
  38:	0c 94 58 00 	jmp	0xb0	; 0xb0 <__bad_interrupt>
../../../../crt1/gcrt1.S:67
  3c:	0c 94 58 00 	jmp	0xb0	; 0xb0 <__bad_interrupt>
../../../../crt1/gcrt1.S:68
  40:	0c 94 58 00 	jmp	0xb0	; 0xb0 <__bad_interrupt>
../../../../crt1/gcrt1.S:69
  44:	0c 94 58 00 	jmp	0xb0	; 0xb0 <__bad_interrupt>
../../../../crt1/gcrt1.S:70
  48:	0c 94 58 00 	jmp	0xb0	; 0xb0 <__bad_interrupt>
../../../../crt1/gcrt1.S:71
  4c:	0c 94 58 00 	jmp	0xb0	; 0xb0 <__bad_interrupt>
../../../../crt1/gcrt1.S:72
  50:	0c 94 58 00 	jmp	0xb0	; 0xb0 <__bad_interrupt>
../../../../crt1/gcrt1.S:73
  54:	0c 94 58 00 	jmp	0xb0	; 0xb0 <__bad_interrupt>
../../../../crt1/gcrt1.S:74
  58:	0c 94 58 00 	jmp	0xb0	; 0xb0 <__bad_interrupt>
../../../../crt1/gcrt1.S:75
  5c:	0c 94 58 00 	jmp	0xb0	; 0xb0 <__bad_interrupt>
../../../../crt1/gcrt1.S:76
  60:	0c 94 58 00 	jmp	0xb0	; 0xb0 <__bad_interrupt>
../../../../crt1/gcrt1.S:77
  64:	0c 94 58 00 	jmp	0xb0	; 0xb0 <__bad_interrupt>
../../../../crt1/gcrt1.S:78
  68:	0c 94 58 00 	jmp	0xb0	; 0xb0 <__bad_interrupt>
../../../../crt1/gcrt1.S:79
  6c:	0c 94 58 00 	jmp	0xb0	; 0xb0 <__bad_interrupt>
../../../../crt1/gcrt1.S:80
  70:	0c 94 58 00 	jmp	0xb0	; 0xb0 <__bad_interrupt>
../../../../crt1/gcrt1.S:81
  74:	0c 94 58 00 	jmp	0xb0	; 0xb0 <__bad_interrupt>
../../../../crt1/gcrt1.S:82
  78:	0c 94 58 00 	jmp	0xb0	; 0xb0 <__bad_interrupt>
../../../../crt1/gcrt1.S:83
  7c:	0c 94 58 00 	jmp	0xb0	; 0xb0 <__bad_interrupt>
../../../../crt1/gcrt1.S:84
  80:	0c 94 58 00 	jmp	0xb0	; 0xb0 <__bad_interrupt>
../../../../crt1/gcrt1.S:85
  84:	0c 94 58 00 	jmp	0xb0	; 0xb0 <__bad_interrupt>
../../../../crt1/gcrt1.S:86
  88:	0c 94 58 00 	jmp	0xb0	; 0xb0 <__bad_interrupt>

0000008c <__ctors_end>:
../../../../crt1/gcrt1.S:179
  8c:	11 24       	eor	r1, r1
  8e:	1f be       	out	0x3f, r1	; 63
  90:	cf ef       	ldi	r28, 0xFF	; 255
  92:	d0 e1       	ldi	r29, 0x10	; 16
  94:	de bf       	out	0x3e, r29	; 62
  96:	cd bf       	out	0x3d, r28	; 61

00000098 <__do_clear_bss>:
  98:	19 e2       	ldi	r17, 0x29	; 41
  9a:	a0 e0       	ldi	r26, 0x00	; 0
  9c:	b1 e0       	ldi	r27, 0x01	; 1
  9e:	01 c0       	rjmp	.+2      	; 0xa2 <.do_clear_bss_start>

000000a0 <.do_clear_bss_loop>:
  a0:	1d 92       	st	X+, r1

000000a2 <.do_clear_bss_start>:
  a2:	a0 3a       	cpi	r26, 0xA0	; 160
  a4:	b1 07       	cpc	r27, r17
  a6:	e1 f7       	brne	.-8      	; 0xa0 <.do_clear_bss_loop>
  a8:	0e 94 5a 00 	call	0xb4	; 0xb4 <main>
  ac:	0c 94 e5 05 	jmp	0xbca	; 0xbca <_exit>

000000b0 <__bad_interrupt>:
__bad_interrupt():
../../../../crt1/gcrt1.S:195
  b0:	0c 94 00 00 	jmp	0	; 0x0 <__vectors>

000000b4 <main>:
main():
/home/becker/async/autosafe/trunk/tum/wcet-cbmc/benchmarks/ud/ud.c:92
  b4:	cf 93       	push	r28
  b6:	df 93       	push	r29
  b8:	cd b7       	in	r28, 0x3d	; 61
  ba:	de b7       	in	r29, 0x3e	; 62
  bc:	2e 97       	sbiw	r28, 0x0e	; 14
  be:	0f b6       	in	r0, 0x3f	; 63
  c0:	f8 94       	cli
  c2:	de bf       	out	0x3e, r29	; 62
  c4:	0f be       	out	0x3f, r0	; 63
  c6:	cd bf       	out	0x3d, r28	; 61
/home/becker/async/autosafe/trunk/tum/wcet-cbmc/benchmarks/ud/ud.c:93
  c8:	82 e3       	ldi	r24, 0x32	; 50
  ca:	90 e0       	ldi	r25, 0x00	; 0
  cc:	9a 87       	std	Y+10, r25	; 0x0a
  ce:	89 87       	std	Y+9, r24	; 0x09
  d0:	85 e0       	ldi	r24, 0x05	; 5
  d2:	90 e0       	ldi	r25, 0x00	; 0
  d4:	9c 87       	std	Y+12, r25	; 0x0c
  d6:	8b 87       	std	Y+11, r24	; 0x0b
/home/becker/async/autosafe/trunk/tum/wcet-cbmc/benchmarks/ud/ud.c:99
  d8:	1a 82       	std	Y+2, r1	; 0x02
  da:	19 82       	std	Y+1, r1	; 0x01
  dc:	bd c0       	rjmp	.+378    	; 0x258 <main+0x1a4>
/home/becker/async/autosafe/trunk/tum/wcet-cbmc/benchmarks/ud/ud.c:101
  de:	1d 82       	std	Y+5, r1	; 0x05
  e0:	1e 82       	std	Y+6, r1	; 0x06
  e2:	1f 82       	std	Y+7, r1	; 0x07
  e4:	18 86       	std	Y+8, r1	; 0x08
/home/becker/async/autosafe/trunk/tum/wcet-cbmc/benchmarks/ud/ud.c:102
  e6:	1c 82       	std	Y+4, r1	; 0x04
  e8:	1b 82       	std	Y+3, r1	; 0x03
  ea:	97 c0       	rjmp	.+302    	; 0x21a <main+0x166>
/home/becker/async/autosafe/trunk/tum/wcet-cbmc/benchmarks/ud/ud.c:104
  ec:	89 81       	ldd	r24, Y+1	; 0x01
  ee:	9a 81       	ldd	r25, Y+2	; 0x02
  f0:	9c 01       	movw	r18, r24
  f2:	2f 5f       	subi	r18, 0xFF	; 255
  f4:	3f 4f       	sbci	r19, 0xFF	; 255
  f6:	8b 81       	ldd	r24, Y+3	; 0x03
  f8:	9c 81       	ldd	r25, Y+4	; 0x04
  fa:	01 96       	adiw	r24, 0x01	; 1
  fc:	82 0f       	add	r24, r18
  fe:	93 1f       	adc	r25, r19
 100:	aa 27       	eor	r26, r26
 102:	97 fd       	sbrc	r25, 7
 104:	a0 95       	com	r26
 106:	ba 2f       	mov	r27, r26
 108:	29 81       	ldd	r18, Y+1	; 0x01
 10a:	3a 81       	ldd	r19, Y+2	; 0x02
 10c:	62 e3       	ldi	r22, 0x32	; 50
 10e:	62 9f       	mul	r22, r18
 110:	a0 01       	movw	r20, r0
 112:	63 9f       	mul	r22, r19
 114:	50 0d       	add	r21, r0
 116:	11 24       	eor	r1, r1
 118:	2b 81       	ldd	r18, Y+3	; 0x03
 11a:	3c 81       	ldd	r19, Y+4	; 0x04
 11c:	24 0f       	add	r18, r20
 11e:	35 1f       	adc	r19, r21
 120:	22 0f       	add	r18, r18
 122:	33 1f       	adc	r19, r19
 124:	22 0f       	add	r18, r18
 126:	33 1f       	adc	r19, r19
 128:	20 57       	subi	r18, 0x70	; 112
 12a:	3d 4f       	sbci	r19, 0xFD	; 253
 12c:	f9 01       	movw	r30, r18
 12e:	80 83       	st	Z, r24
 130:	91 83       	std	Z+1, r25	; 0x01
 132:	a2 83       	std	Z+2, r26	; 0x02
 134:	b3 83       	std	Z+3, r27	; 0x03
/home/becker/async/autosafe/trunk/tum/wcet-cbmc/benchmarks/ud/ud.c:105
 136:	29 81       	ldd	r18, Y+1	; 0x01
 138:	3a 81       	ldd	r19, Y+2	; 0x02
 13a:	8b 81       	ldd	r24, Y+3	; 0x03
 13c:	9c 81       	ldd	r25, Y+4	; 0x04
 13e:	28 17       	cp	r18, r24
 140:	39 07       	cpc	r19, r25
 142:	09 f0       	breq	.+2      	; 0x146 <main+0x92>
 144:	42 c0       	rjmp	.+132    	; 0x1ca <main+0x116>
/home/becker/async/autosafe/trunk/tum/wcet-cbmc/benchmarks/ud/ud.c:106
 146:	89 81       	ldd	r24, Y+1	; 0x01
 148:	9a 81       	ldd	r25, Y+2	; 0x02
 14a:	42 e3       	ldi	r20, 0x32	; 50
 14c:	48 9f       	mul	r20, r24
 14e:	90 01       	movw	r18, r0
 150:	49 9f       	mul	r20, r25
 152:	30 0d       	add	r19, r0
 154:	11 24       	eor	r1, r1
 156:	8b 81       	ldd	r24, Y+3	; 0x03
 158:	9c 81       	ldd	r25, Y+4	; 0x04
 15a:	82 0f       	add	r24, r18
 15c:	93 1f       	adc	r25, r19
 15e:	88 0f       	add	r24, r24
 160:	99 1f       	adc	r25, r25
 162:	88 0f       	add	r24, r24
 164:	99 1f       	adc	r25, r25
 166:	80 57       	subi	r24, 0x70	; 112
 168:	9d 4f       	sbci	r25, 0xFD	; 253
 16a:	fc 01       	movw	r30, r24
 16c:	80 81       	ld	r24, Z
 16e:	91 81       	ldd	r25, Z+1	; 0x01
 170:	a2 81       	ldd	r26, Z+2	; 0x02
 172:	b3 81       	ldd	r27, Z+3	; 0x03
 174:	bc 01       	movw	r22, r24
 176:	cd 01       	movw	r24, r26
 178:	0e 94 f4 04 	call	0x9e8	; 0x9e8 <__floatsisf>
 17c:	dc 01       	movw	r26, r24
 17e:	cb 01       	movw	r24, r22
 180:	9c 01       	movw	r18, r24
 182:	ad 01       	movw	r20, r26
 184:	bc 01       	movw	r22, r24
 186:	cd 01       	movw	r24, r26
 188:	0e 94 5d 04 	call	0x8ba	; 0x8ba <__addsf3>
 18c:	dc 01       	movw	r26, r24
 18e:	cb 01       	movw	r24, r22
 190:	bc 01       	movw	r22, r24
 192:	cd 01       	movw	r24, r26
 194:	0e 94 c1 04 	call	0x982	; 0x982 <__fixsfsi>
 198:	dc 01       	movw	r26, r24
 19a:	cb 01       	movw	r24, r22
 19c:	29 81       	ldd	r18, Y+1	; 0x01
 19e:	3a 81       	ldd	r19, Y+2	; 0x02
 1a0:	62 e3       	ldi	r22, 0x32	; 50
 1a2:	62 9f       	mul	r22, r18
 1a4:	a0 01       	movw	r20, r0
 1a6:	63 9f       	mul	r22, r19
 1a8:	50 0d       	add	r21, r0
 1aa:	11 24       	eor	r1, r1
 1ac:	2b 81       	ldd	r18, Y+3	; 0x03
 1ae:	3c 81       	ldd	r19, Y+4	; 0x04
 1b0:	24 0f       	add	r18, r20
 1b2:	35 1f       	adc	r19, r21
 1b4:	22 0f       	add	r18, r18
 1b6:	33 1f       	adc	r19, r19
 1b8:	22 0f       	add	r18, r18
 1ba:	33 1f       	adc	r19, r19
 1bc:	20 57       	subi	r18, 0x70	; 112
 1be:	3d 4f       	sbci	r19, 0xFD	; 253
 1c0:	f9 01       	movw	r30, r18
 1c2:	80 83       	st	Z, r24
 1c4:	91 83       	std	Z+1, r25	; 0x01
 1c6:	a2 83       	std	Z+2, r26	; 0x02
 1c8:	b3 83       	std	Z+3, r27	; 0x03
/home/becker/async/autosafe/trunk/tum/wcet-cbmc/benchmarks/ud/ud.c:107
 1ca:	89 81       	ldd	r24, Y+1	; 0x01
 1cc:	9a 81       	ldd	r25, Y+2	; 0x02
 1ce:	42 e3       	ldi	r20, 0x32	; 50
 1d0:	48 9f       	mul	r20, r24
 1d2:	90 01       	movw	r18, r0
 1d4:	49 9f       	mul	r20, r25
 1d6:	30 0d       	add	r19, r0
 1d8:	11 24       	eor	r1, r1
 1da:	8b 81       	ldd	r24, Y+3	; 0x03
 1dc:	9c 81       	ldd	r25, Y+4	; 0x04
 1de:	82 0f       	add	r24, r18
 1e0:	93 1f       	adc	r25, r19
 1e2:	88 0f       	add	r24, r24
 1e4:	99 1f       	adc	r25, r25
 1e6:	88 0f       	add	r24, r24
 1e8:	99 1f       	adc	r25, r25
 1ea:	80 57       	subi	r24, 0x70	; 112
 1ec:	9d 4f       	sbci	r25, 0xFD	; 253
 1ee:	fc 01       	movw	r30, r24
 1f0:	80 81       	ld	r24, Z
 1f2:	91 81       	ldd	r25, Z+1	; 0x01
 1f4:	a2 81       	ldd	r26, Z+2	; 0x02
 1f6:	b3 81       	ldd	r27, Z+3	; 0x03
 1f8:	2d 81       	ldd	r18, Y+5	; 0x05
 1fa:	3e 81       	ldd	r19, Y+6	; 0x06
 1fc:	4f 81       	ldd	r20, Y+7	; 0x07
 1fe:	58 85       	ldd	r21, Y+8	; 0x08
 200:	82 0f       	add	r24, r18
 202:	93 1f       	adc	r25, r19
 204:	a4 1f       	adc	r26, r20
 206:	b5 1f       	adc	r27, r21
 208:	8d 83       	std	Y+5, r24	; 0x05
 20a:	9e 83       	std	Y+6, r25	; 0x06
 20c:	af 83       	std	Y+7, r26	; 0x07
 20e:	b8 87       	std	Y+8, r27	; 0x08
/home/becker/async/autosafe/trunk/tum/wcet-cbmc/benchmarks/ud/ud.c:102
 210:	8b 81       	ldd	r24, Y+3	; 0x03
 212:	9c 81       	ldd	r25, Y+4	; 0x04
 214:	01 96       	adiw	r24, 0x01	; 1
 216:	9c 83       	std	Y+4, r25	; 0x04
 218:	8b 83       	std	Y+3, r24	; 0x03
 21a:	2b 81       	ldd	r18, Y+3	; 0x03
 21c:	3c 81       	ldd	r19, Y+4	; 0x04
 21e:	8b 85       	ldd	r24, Y+11	; 0x0b
 220:	9c 85       	ldd	r25, Y+12	; 0x0c
 222:	82 17       	cp	r24, r18
 224:	93 07       	cpc	r25, r19
 226:	0c f0       	brlt	.+2      	; 0x22a <main+0x176>
 228:	61 cf       	rjmp	.-318    	; 0xec <main+0x38>
/home/becker/async/autosafe/trunk/tum/wcet-cbmc/benchmarks/ud/ud.c:109
 22a:	89 81       	ldd	r24, Y+1	; 0x01
 22c:	9a 81       	ldd	r25, Y+2	; 0x02
 22e:	88 0f       	add	r24, r24
 230:	99 1f       	adc	r25, r25
 232:	88 0f       	add	r24, r24
 234:	99 1f       	adc	r25, r25
 236:	9c 01       	movw	r18, r24
 238:	20 50       	subi	r18, 0x00	; 0
 23a:	3f 4f       	sbci	r19, 0xFF	; 255
 23c:	8d 81       	ldd	r24, Y+5	; 0x05
 23e:	9e 81       	ldd	r25, Y+6	; 0x06
 240:	af 81       	ldd	r26, Y+7	; 0x07
 242:	b8 85       	ldd	r27, Y+8	; 0x08
 244:	f9 01       	movw	r30, r18
 246:	80 83       	st	Z, r24
 248:	91 83       	std	Z+1, r25	; 0x01
 24a:	a2 83       	std	Z+2, r26	; 0x02
 24c:	b3 83       	std	Z+3, r27	; 0x03
/home/becker/async/autosafe/trunk/tum/wcet-cbmc/benchmarks/ud/ud.c:99
 24e:	89 81       	ldd	r24, Y+1	; 0x01
 250:	9a 81       	ldd	r25, Y+2	; 0x02
 252:	01 96       	adiw	r24, 0x01	; 1
 254:	9a 83       	std	Y+2, r25	; 0x02
 256:	89 83       	std	Y+1, r24	; 0x01
 258:	29 81       	ldd	r18, Y+1	; 0x01
 25a:	3a 81       	ldd	r19, Y+2	; 0x02
 25c:	8b 85       	ldd	r24, Y+11	; 0x0b
 25e:	9c 85       	ldd	r25, Y+12	; 0x0c
 260:	82 17       	cp	r24, r18
 262:	93 07       	cpc	r25, r19
 264:	0c f0       	brlt	.+2      	; 0x268 <main+0x1b4>
 266:	3b cf       	rjmp	.-394    	; 0xde <main+0x2a>
/home/becker/async/autosafe/trunk/tum/wcet-cbmc/benchmarks/ud/ud.c:113
 268:	2b 85       	ldd	r18, Y+11	; 0x0b
 26a:	3c 85       	ldd	r19, Y+12	; 0x0c
 26c:	89 85       	ldd	r24, Y+9	; 0x09
 26e:	9a 85       	ldd	r25, Y+10	; 0x0a
 270:	b9 01       	movw	r22, r18
 272:	0e 94 46 01 	call	0x28c	; 0x28c <ludcmp>
 276:	9e 87       	std	Y+14, r25	; 0x0e
 278:	8d 87       	std	Y+13, r24	; 0x0d
/home/becker/async/autosafe/trunk/tum/wcet-cbmc/benchmarks/ud/ud.c:114
 27a:	2e 96       	adiw	r28, 0x0e	; 14
 27c:	0f b6       	in	r0, 0x3f	; 63
 27e:	f8 94       	cli
 280:	de bf       	out	0x3e, r29	; 62
 282:	0f be       	out	0x3f, r0	; 63
 284:	cd bf       	out	0x3d, r28	; 61
 286:	df 91       	pop	r29
 288:	cf 91       	pop	r28
 28a:	08 95       	ret

0000028c <ludcmp>:
ludcmp():
/home/becker/async/autosafe/trunk/tum/wcet-cbmc/benchmarks/ud/ud.c:117
 28c:	ef 92       	push	r14
 28e:	ff 92       	push	r15
 290:	0f 93       	push	r16
 292:	1f 93       	push	r17
 294:	cf 93       	push	r28
 296:	df 93       	push	r29
 298:	cd b7       	in	r28, 0x3d	; 61
 29a:	de b7       	in	r29, 0x3e	; 62
 29c:	ce 59       	subi	r28, 0x9E	; 158
 29e:	d1 40       	sbci	r29, 0x01	; 1
 2a0:	0f b6       	in	r0, 0x3f	; 63
 2a2:	f8 94       	cli
 2a4:	de bf       	out	0x3e, r29	; 62
 2a6:	0f be       	out	0x3f, r0	; 63
 2a8:	cd bf       	out	0x3d, r28	; 61
 2aa:	9e 01       	movw	r18, r28
 2ac:	25 56       	subi	r18, 0x65	; 101
 2ae:	3e 4f       	sbci	r19, 0xFE	; 254
 2b0:	f9 01       	movw	r30, r18
 2b2:	91 83       	std	Z+1, r25	; 0x01
 2b4:	80 83       	st	Z, r24
 2b6:	ce 01       	movw	r24, r28
 2b8:	83 56       	subi	r24, 0x63	; 99
 2ba:	9e 4f       	sbci	r25, 0xFE	; 254
 2bc:	fc 01       	movw	r30, r24
 2be:	71 83       	std	Z+1, r23	; 0x01
 2c0:	60 83       	st	Z, r22
/home/becker/async/autosafe/trunk/tum/wcet-cbmc/benchmarks/ud/ud.c:122
 2c2:	1a 82       	std	Y+2, r1	; 0x02
 2c4:	19 82       	std	Y+1, r1	; 0x01
 2c6:	65 c1       	rjmp	.+714    	; 0x592 <ludcmp+0x306>
/home/becker/async/autosafe/trunk/tum/wcet-cbmc/benchmarks/ud/ud.c:125
 2c8:	89 81       	ldd	r24, Y+1	; 0x01
 2ca:	9a 81       	ldd	r25, Y+2	; 0x02
 2cc:	01 96       	adiw	r24, 0x01	; 1
 2ce:	9c 83       	std	Y+4, r25	; 0x04
 2d0:	8b 83       	std	Y+3, r24	; 0x03
 2d2:	a9 c0       	rjmp	.+338    	; 0x426 <ludcmp+0x19a>
/home/becker/async/autosafe/trunk/tum/wcet-cbmc/benchmarks/ud/ud.c:127
 2d4:	8b 81       	ldd	r24, Y+3	; 0x03
 2d6:	9c 81       	ldd	r25, Y+4	; 0x04
 2d8:	42 e3       	ldi	r20, 0x32	; 50
 2da:	48 9f       	mul	r20, r24
 2dc:	90 01       	movw	r18, r0
 2de:	49 9f       	mul	r20, r25
 2e0:	30 0d       	add	r19, r0
 2e2:	11 24       	eor	r1, r1
 2e4:	89 81       	ldd	r24, Y+1	; 0x01
 2e6:	9a 81       	ldd	r25, Y+2	; 0x02
 2e8:	82 0f       	add	r24, r18
 2ea:	93 1f       	adc	r25, r19
 2ec:	88 0f       	add	r24, r24
 2ee:	99 1f       	adc	r25, r25
 2f0:	88 0f       	add	r24, r24
 2f2:	99 1f       	adc	r25, r25
 2f4:	80 57       	subi	r24, 0x70	; 112
 2f6:	9d 4f       	sbci	r25, 0xFD	; 253
 2f8:	fc 01       	movw	r30, r24
 2fa:	80 81       	ld	r24, Z
 2fc:	91 81       	ldd	r25, Z+1	; 0x01
 2fe:	a2 81       	ldd	r26, Z+2	; 0x02
 300:	b3 81       	ldd	r27, Z+3	; 0x03
 302:	8f 83       	std	Y+7, r24	; 0x07
 304:	98 87       	std	Y+8, r25	; 0x08
 306:	a9 87       	std	Y+9, r26	; 0x09
 308:	ba 87       	std	Y+10, r27	; 0x0a
/home/becker/async/autosafe/trunk/tum/wcet-cbmc/benchmarks/ud/ud.c:128
 30a:	89 81       	ldd	r24, Y+1	; 0x01
 30c:	9a 81       	ldd	r25, Y+2	; 0x02
 30e:	00 97       	sbiw	r24, 0x00	; 0
 310:	09 f4       	brne	.+2      	; 0x314 <ludcmp+0x88>
 312:	54 c0       	rjmp	.+168    	; 0x3bc <ludcmp+0x130>
/home/becker/async/autosafe/trunk/tum/wcet-cbmc/benchmarks/ud/ud.c:131
 314:	1e 82       	std	Y+6, r1	; 0x06
 316:	1d 82       	std	Y+5, r1	; 0x05
 318:	49 c0       	rjmp	.+146    	; 0x3ac <ludcmp+0x120>
/home/becker/async/autosafe/trunk/tum/wcet-cbmc/benchmarks/ud/ud.c:132
 31a:	8b 81       	ldd	r24, Y+3	; 0x03
 31c:	9c 81       	ldd	r25, Y+4	; 0x04
 31e:	42 e3       	ldi	r20, 0x32	; 50
 320:	48 9f       	mul	r20, r24
 322:	90 01       	movw	r18, r0
 324:	49 9f       	mul	r20, r25
 326:	30 0d       	add	r19, r0
 328:	11 24       	eor	r1, r1
 32a:	8d 81       	ldd	r24, Y+5	; 0x05
 32c:	9e 81       	ldd	r25, Y+6	; 0x06
 32e:	82 0f       	add	r24, r18
 330:	93 1f       	adc	r25, r19
 332:	88 0f       	add	r24, r24
 334:	99 1f       	adc	r25, r25
 336:	88 0f       	add	r24, r24
 338:	99 1f       	adc	r25, r25
 33a:	80 57       	subi	r24, 0x70	; 112
 33c:	9d 4f       	sbci	r25, 0xFD	; 253
 33e:	fc 01       	movw	r30, r24
 340:	20 81       	ld	r18, Z
 342:	31 81       	ldd	r19, Z+1	; 0x01
 344:	42 81       	ldd	r20, Z+2	; 0x02
 346:	53 81       	ldd	r21, Z+3	; 0x03
 348:	8d 81       	ldd	r24, Y+5	; 0x05
 34a:	9e 81       	ldd	r25, Y+6	; 0x06
 34c:	e2 e3       	ldi	r30, 0x32	; 50
 34e:	e8 9f       	mul	r30, r24
 350:	b0 01       	movw	r22, r0
 352:	e9 9f       	mul	r30, r25
 354:	70 0d       	add	r23, r0
 356:	11 24       	eor	r1, r1
 358:	89 81       	ldd	r24, Y+1	; 0x01
 35a:	9a 81       	ldd	r25, Y+2	; 0x02
 35c:	86 0f       	add	r24, r22
 35e:	97 1f       	adc	r25, r23
 360:	88 0f       	add	r24, r24
 362:	99 1f       	adc	r25, r25
 364:	88 0f       	add	r24, r24
 366:	99 1f       	adc	r25, r25
 368:	80 57       	subi	r24, 0x70	; 112
 36a:	9d 4f       	sbci	r25, 0xFD	; 253
 36c:	fc 01       	movw	r30, r24
 36e:	80 81       	ld	r24, Z
 370:	91 81       	ldd	r25, Z+1	; 0x01
 372:	a2 81       	ldd	r26, Z+2	; 0x02
 374:	b3 81       	ldd	r27, Z+3	; 0x03
 376:	bc 01       	movw	r22, r24
 378:	cd 01       	movw	r24, r26
 37a:	0e 94 80 05 	call	0xb00	; 0xb00 <__mulsi3>
 37e:	dc 01       	movw	r26, r24
 380:	cb 01       	movw	r24, r22
 382:	2f 81       	ldd	r18, Y+7	; 0x07
 384:	38 85       	ldd	r19, Y+8	; 0x08
 386:	49 85       	ldd	r20, Y+9	; 0x09
 388:	5a 85       	ldd	r21, Y+10	; 0x0a
 38a:	79 01       	movw	r14, r18
 38c:	8a 01       	movw	r16, r20
 38e:	e8 1a       	sub	r14, r24
 390:	f9 0a       	sbc	r15, r25
 392:	0a 0b       	sbc	r16, r26
 394:	1b 0b       	sbc	r17, r27
 396:	d8 01       	movw	r26, r16
 398:	c7 01       	movw	r24, r14
 39a:	8f 83       	std	Y+7, r24	; 0x07
 39c:	98 87       	std	Y+8, r25	; 0x08
 39e:	a9 87       	std	Y+9, r26	; 0x09
 3a0:	ba 87       	std	Y+10, r27	; 0x0a
/home/becker/async/autosafe/trunk/tum/wcet-cbmc/benchmarks/ud/ud.c:131
 3a2:	8d 81       	ldd	r24, Y+5	; 0x05
 3a4:	9e 81       	ldd	r25, Y+6	; 0x06
 3a6:	01 96       	adiw	r24, 0x01	; 1
 3a8:	9e 83       	std	Y+6, r25	; 0x06
 3aa:	8d 83       	std	Y+5, r24	; 0x05
 3ac:	2d 81       	ldd	r18, Y+5	; 0x05
 3ae:	3e 81       	ldd	r19, Y+6	; 0x06
 3b0:	89 81       	ldd	r24, Y+1	; 0x01
 3b2:	9a 81       	ldd	r25, Y+2	; 0x02
 3b4:	28 17       	cp	r18, r24
 3b6:	39 07       	cpc	r19, r25
 3b8:	0c f4       	brge	.+2      	; 0x3bc <ludcmp+0x130>
 3ba:	af cf       	rjmp	.-162    	; 0x31a <ludcmp+0x8e>
/home/becker/async/autosafe/trunk/tum/wcet-cbmc/benchmarks/ud/ud.c:133
 3bc:	29 81       	ldd	r18, Y+1	; 0x01
 3be:	3a 81       	ldd	r19, Y+2	; 0x02
 3c0:	4c ec       	ldi	r20, 0xCC	; 204
 3c2:	42 9f       	mul	r20, r18
 3c4:	c0 01       	movw	r24, r0
 3c6:	43 9f       	mul	r20, r19
 3c8:	90 0d       	add	r25, r0
 3ca:	11 24       	eor	r1, r1
 3cc:	80 57       	subi	r24, 0x70	; 112
 3ce:	9d 4f       	sbci	r25, 0xFD	; 253
 3d0:	fc 01       	movw	r30, r24
 3d2:	20 81       	ld	r18, Z
 3d4:	31 81       	ldd	r19, Z+1	; 0x01
 3d6:	42 81       	ldd	r20, Z+2	; 0x02
 3d8:	53 81       	ldd	r21, Z+3	; 0x03
 3da:	8f 81       	ldd	r24, Y+7	; 0x07
 3dc:	98 85       	ldd	r25, Y+8	; 0x08
 3de:	a9 85       	ldd	r26, Y+9	; 0x09
 3e0:	ba 85       	ldd	r27, Y+10	; 0x0a
 3e2:	bc 01       	movw	r22, r24
 3e4:	cd 01       	movw	r24, r26
 3e6:	0e 94 90 05 	call	0xb20	; 0xb20 <__divmodsi4>
 3ea:	da 01       	movw	r26, r20
 3ec:	c9 01       	movw	r24, r18
 3ee:	2b 81       	ldd	r18, Y+3	; 0x03
 3f0:	3c 81       	ldd	r19, Y+4	; 0x04
 3f2:	62 e3       	ldi	r22, 0x32	; 50
 3f4:	62 9f       	mul	r22, r18
 3f6:	a0 01       	movw	r20, r0
 3f8:	63 9f       	mul	r22, r19
 3fa:	50 0d       	add	r21, r0
 3fc:	11 24       	eor	r1, r1
 3fe:	29 81       	ldd	r18, Y+1	; 0x01
 400:	3a 81       	ldd	r19, Y+2	; 0x02
 402:	24 0f       	add	r18, r20
 404:	35 1f       	adc	r19, r21
 406:	22 0f       	add	r18, r18
 408:	33 1f       	adc	r19, r19
 40a:	22 0f       	add	r18, r18
 40c:	33 1f       	adc	r19, r19
 40e:	20 57       	subi	r18, 0x70	; 112
 410:	3d 4f       	sbci	r19, 0xFD	; 253
 412:	f9 01       	movw	r30, r18
 414:	80 83       	st	Z, r24
 416:	91 83       	std	Z+1, r25	; 0x01
 418:	a2 83       	std	Z+2, r26	; 0x02
 41a:	b3 83       	std	Z+3, r27	; 0x03
/home/becker/async/autosafe/trunk/tum/wcet-cbmc/benchmarks/ud/ud.c:125
 41c:	8b 81       	ldd	r24, Y+3	; 0x03
 41e:	9c 81       	ldd	r25, Y+4	; 0x04
 420:	01 96       	adiw	r24, 0x01	; 1
 422:	9c 83       	std	Y+4, r25	; 0x04
 424:	8b 83       	std	Y+3, r24	; 0x03
 426:	ce 01       	movw	r24, r28
 428:	83 56       	subi	r24, 0x63	; 99
 42a:	9e 4f       	sbci	r25, 0xFE	; 254
 42c:	2b 81       	ldd	r18, Y+3	; 0x03
 42e:	3c 81       	ldd	r19, Y+4	; 0x04
 430:	fc 01       	movw	r30, r24
 432:	80 81       	ld	r24, Z
 434:	91 81       	ldd	r25, Z+1	; 0x01
 436:	82 17       	cp	r24, r18
 438:	93 07       	cpc	r25, r19
 43a:	0c f0       	brlt	.+2      	; 0x43e <ludcmp+0x1b2>
 43c:	4b cf       	rjmp	.-362    	; 0x2d4 <ludcmp+0x48>
/home/becker/async/autosafe/trunk/tum/wcet-cbmc/benchmarks/ud/ud.c:135
 43e:	89 81       	ldd	r24, Y+1	; 0x01
 440:	9a 81       	ldd	r25, Y+2	; 0x02
 442:	01 96       	adiw	r24, 0x01	; 1
 444:	9c 83       	std	Y+4, r25	; 0x04
 446:	8b 83       	std	Y+3, r24	; 0x03
 448:	93 c0       	rjmp	.+294    	; 0x570 <ludcmp+0x2e4>
/home/becker/async/autosafe/trunk/tum/wcet-cbmc/benchmarks/ud/ud.c:137
 44a:	89 81       	ldd	r24, Y+1	; 0x01
 44c:	9a 81       	ldd	r25, Y+2	; 0x02
 44e:	01 96       	adiw	r24, 0x01	; 1
 450:	42 e3       	ldi	r20, 0x32	; 50
 452:	48 9f       	mul	r20, r24
 454:	90 01       	movw	r18, r0
 456:	49 9f       	mul	r20, r25
 458:	30 0d       	add	r19, r0
 45a:	11 24       	eor	r1, r1
 45c:	8b 81       	ldd	r24, Y+3	; 0x03
 45e:	9c 81       	ldd	r25, Y+4	; 0x04
 460:	82 0f       	add	r24, r18
 462:	93 1f       	adc	r25, r19
 464:	88 0f       	add	r24, r24
 466:	99 1f       	adc	r25, r25
 468:	88 0f       	add	r24, r24
 46a:	99 1f       	adc	r25, r25
 46c:	80 57       	subi	r24, 0x70	; 112
 46e:	9d 4f       	sbci	r25, 0xFD	; 253
 470:	fc 01       	movw	r30, r24
 472:	80 81       	ld	r24, Z
 474:	91 81       	ldd	r25, Z+1	; 0x01
 476:	a2 81       	ldd	r26, Z+2	; 0x02
 478:	b3 81       	ldd	r27, Z+3	; 0x03
 47a:	8f 83       	std	Y+7, r24	; 0x07
 47c:	98 87       	std	Y+8, r25	; 0x08
 47e:	a9 87       	std	Y+9, r26	; 0x09
 480:	ba 87       	std	Y+10, r27	; 0x0a
/home/becker/async/autosafe/trunk/tum/wcet-cbmc/benchmarks/ud/ud.c:138
 482:	1e 82       	std	Y+6, r1	; 0x06
 484:	1d 82       	std	Y+5, r1	; 0x05
 486:	4a c0       	rjmp	.+148    	; 0x51c <ludcmp+0x290>
/home/becker/async/autosafe/trunk/tum/wcet-cbmc/benchmarks/ud/ud.c:139
 488:	89 81       	ldd	r24, Y+1	; 0x01
 48a:	9a 81       	ldd	r25, Y+2	; 0x02
 48c:	01 96       	adiw	r24, 0x01	; 1
 48e:	42 e3       	ldi	r20, 0x32	; 50
 490:	48 9f       	mul	r20, r24
 492:	90 01       	movw	r18, r0
 494:	49 9f       	mul	r20, r25
 496:	30 0d       	add	r19, r0
 498:	11 24       	eor	r1, r1
 49a:	8d 81       	ldd	r24, Y+5	; 0x05
 49c:	9e 81       	ldd	r25, Y+6	; 0x06
 49e:	82 0f       	add	r24, r18
 4a0:	93 1f       	adc	r25, r19
 4a2:	88 0f       	add	r24, r24
 4a4:	99 1f       	adc	r25, r25
 4a6:	88 0f       	add	r24, r24
 4a8:	99 1f       	adc	r25, r25
 4aa:	80 57       	subi	r24, 0x70	; 112
 4ac:	9d 4f       	sbci	r25, 0xFD	; 253
 4ae:	fc 01       	movw	r30, r24
 4b0:	20 81       	ld	r18, Z
 4b2:	31 81       	ldd	r19, Z+1	; 0x01
 4b4:	42 81       	ldd	r20, Z+2	; 0x02
 4b6:	53 81       	ldd	r21, Z+3	; 0x03
 4b8:	8d 81       	ldd	r24, Y+5	; 0x05
 4ba:	9e 81       	ldd	r25, Y+6	; 0x06
 4bc:	e2 e3       	ldi	r30, 0x32	; 50
 4be:	e8 9f       	mul	r30, r24
 4c0:	b0 01       	movw	r22, r0
 4c2:	e9 9f       	mul	r30, r25
 4c4:	70 0d       	add	r23, r0
 4c6:	11 24       	eor	r1, r1
 4c8:	8b 81       	ldd	r24, Y+3	; 0x03
 4ca:	9c 81       	ldd	r25, Y+4	; 0x04
 4cc:	86 0f       	add	r24, r22
 4ce:	97 1f       	adc	r25, r23
 4d0:	88 0f       	add	r24, r24
 4d2:	99 1f       	adc	r25, r25
 4d4:	88 0f       	add	r24, r24
 4d6:	99 1f       	adc	r25, r25
 4d8:	80 57       	subi	r24, 0x70	; 112
 4da:	9d 4f       	sbci	r25, 0xFD	; 253
 4dc:	fc 01       	movw	r30, r24
 4de:	80 81       	ld	r24, Z
 4e0:	91 81       	ldd	r25, Z+1	; 0x01
 4e2:	a2 81       	ldd	r26, Z+2	; 0x02
 4e4:	b3 81       	ldd	r27, Z+3	; 0x03
 4e6:	bc 01       	movw	r22, r24
 4e8:	cd 01       	movw	r24, r26
 4ea:	0e 94 80 05 	call	0xb00	; 0xb00 <__mulsi3>
 4ee:	dc 01       	movw	r26, r24
 4f0:	cb 01       	movw	r24, r22
 4f2:	2f 81       	ldd	r18, Y+7	; 0x07
 4f4:	38 85       	ldd	r19, Y+8	; 0x08
 4f6:	49 85       	ldd	r20, Y+9	; 0x09
 4f8:	5a 85       	ldd	r21, Y+10	; 0x0a
 4fa:	79 01       	movw	r14, r18
 4fc:	8a 01       	movw	r16, r20
 4fe:	e8 1a       	sub	r14, r24
 500:	f9 0a       	sbc	r15, r25
 502:	0a 0b       	sbc	r16, r26
 504:	1b 0b       	sbc	r17, r27
 506:	d8 01       	movw	r26, r16
 508:	c7 01       	movw	r24, r14
 50a:	8f 83       	std	Y+7, r24	; 0x07
 50c:	98 87       	std	Y+8, r25	; 0x08
 50e:	a9 87       	std	Y+9, r26	; 0x09
 510:	ba 87       	std	Y+10, r27	; 0x0a
/home/becker/async/autosafe/trunk/tum/wcet-cbmc/benchmarks/ud/ud.c:138
 512:	8d 81       	ldd	r24, Y+5	; 0x05
 514:	9e 81       	ldd	r25, Y+6	; 0x06
 516:	01 96       	adiw	r24, 0x01	; 1
 518:	9e 83       	std	Y+6, r25	; 0x06
 51a:	8d 83       	std	Y+5, r24	; 0x05
 51c:	2d 81       	ldd	r18, Y+5	; 0x05
 51e:	3e 81       	ldd	r19, Y+6	; 0x06
 520:	89 81       	ldd	r24, Y+1	; 0x01
 522:	9a 81       	ldd	r25, Y+2	; 0x02
 524:	82 17       	cp	r24, r18
 526:	93 07       	cpc	r25, r19
 528:	0c f0       	brlt	.+2      	; 0x52c <ludcmp+0x2a0>
 52a:	ae cf       	rjmp	.-164    	; 0x488 <ludcmp+0x1fc>
/home/becker/async/autosafe/trunk/tum/wcet-cbmc/benchmarks/ud/ud.c:140
 52c:	89 81       	ldd	r24, Y+1	; 0x01
 52e:	9a 81       	ldd	r25, Y+2	; 0x02
 530:	01 96       	adiw	r24, 0x01	; 1
 532:	42 e3       	ldi	r20, 0x32	; 50
 534:	48 9f       	mul	r20, r24
 536:	90 01       	movw	r18, r0
 538:	49 9f       	mul	r20, r25
 53a:	30 0d       	add	r19, r0
 53c:	11 24       	eor	r1, r1
 53e:	8b 81       	ldd	r24, Y+3	; 0x03
 540:	9c 81       	ldd	r25, Y+4	; 0x04
 542:	82 0f       	add	r24, r18
 544:	93 1f       	adc	r25, r19
 546:	88 0f       	add	r24, r24
 548:	99 1f       	adc	r25, r25
 54a:	88 0f       	add	r24, r24
 54c:	99 1f       	adc	r25, r25
 54e:	9c 01       	movw	r18, r24
 550:	20 57       	subi	r18, 0x70	; 112
 552:	3d 4f       	sbci	r19, 0xFD	; 253
 554:	8f 81       	ldd	r24, Y+7	; 0x07
 556:	98 85       	ldd	r25, Y+8	; 0x08
 558:	a9 85       	ldd	r26, Y+9	; 0x09
 55a:	ba 85       	ldd	r27, Y+10	; 0x0a
 55c:	f9 01       	movw	r30, r18
 55e:	80 83       	st	Z, r24
 560:	91 83       	std	Z+1, r25	; 0x01
 562:	a2 83       	std	Z+2, r26	; 0x02
 564:	b3 83       	std	Z+3, r27	; 0x03
/home/becker/async/autosafe/trunk/tum/wcet-cbmc/benchmarks/ud/ud.c:135
 566:	8b 81       	ldd	r24, Y+3	; 0x03
 568:	9c 81       	ldd	r25, Y+4	; 0x04
 56a:	01 96       	adiw	r24, 0x01	; 1
 56c:	9c 83       	std	Y+4, r25	; 0x04
 56e:	8b 83       	std	Y+3, r24	; 0x03
 570:	ce 01       	movw	r24, r28
 572:	83 56       	subi	r24, 0x63	; 99
 574:	9e 4f       	sbci	r25, 0xFE	; 254
 576:	2b 81       	ldd	r18, Y+3	; 0x03
 578:	3c 81       	ldd	r19, Y+4	; 0x04
 57a:	fc 01       	movw	r30, r24
 57c:	80 81       	ld	r24, Z
 57e:	91 81       	ldd	r25, Z+1	; 0x01
 580:	82 17       	cp	r24, r18
 582:	93 07       	cpc	r25, r19
 584:	0c f0       	brlt	.+2      	; 0x588 <ludcmp+0x2fc>
 586:	61 cf       	rjmp	.-318    	; 0x44a <ludcmp+0x1be>
/home/becker/async/autosafe/trunk/tum/wcet-cbmc/benchmarks/ud/ud.c:122
 588:	89 81       	ldd	r24, Y+1	; 0x01
 58a:	9a 81       	ldd	r25, Y+2	; 0x02
 58c:	01 96       	adiw	r24, 0x01	; 1
 58e:	9a 83       	std	Y+2, r25	; 0x02
 590:	89 83       	std	Y+1, r24	; 0x01
 592:	ce 01       	movw	r24, r28
 594:	83 56       	subi	r24, 0x63	; 99
 596:	9e 4f       	sbci	r25, 0xFE	; 254
 598:	29 81       	ldd	r18, Y+1	; 0x01
 59a:	3a 81       	ldd	r19, Y+2	; 0x02
 59c:	fc 01       	movw	r30, r24
 59e:	80 81       	ld	r24, Z
 5a0:	91 81       	ldd	r25, Z+1	; 0x01
 5a2:	28 17       	cp	r18, r24
 5a4:	39 07       	cpc	r19, r25
 5a6:	0c f4       	brge	.+2      	; 0x5aa <ludcmp+0x31e>
 5a8:	8f ce       	rjmp	.-738    	; 0x2c8 <ludcmp+0x3c>
/home/becker/async/autosafe/trunk/tum/wcet-cbmc/benchmarks/ud/ud.c:143
 5aa:	80 91 00 01 	lds	r24, 0x0100
 5ae:	90 91 01 01 	lds	r25, 0x0101
 5b2:	a0 91 02 01 	lds	r26, 0x0102
 5b6:	b0 91 03 01 	lds	r27, 0x0103
 5ba:	8b 87       	std	Y+11, r24	; 0x0b
 5bc:	9c 87       	std	Y+12, r25	; 0x0c
 5be:	ad 87       	std	Y+13, r26	; 0x0d
 5c0:	be 87       	std	Y+14, r27	; 0x0e
/home/becker/async/autosafe/trunk/tum/wcet-cbmc/benchmarks/ud/ud.c:144
 5c2:	81 e0       	ldi	r24, 0x01	; 1
 5c4:	90 e0       	ldi	r25, 0x00	; 0
 5c6:	9a 83       	std	Y+2, r25	; 0x02
 5c8:	89 83       	std	Y+1, r24	; 0x01
 5ca:	7b c0       	rjmp	.+246    	; 0x6c2 <ludcmp+0x436>
/home/becker/async/autosafe/trunk/tum/wcet-cbmc/benchmarks/ud/ud.c:146
 5cc:	89 81       	ldd	r24, Y+1	; 0x01
 5ce:	9a 81       	ldd	r25, Y+2	; 0x02
 5d0:	88 0f       	add	r24, r24
 5d2:	99 1f       	adc	r25, r25
 5d4:	88 0f       	add	r24, r24
 5d6:	99 1f       	adc	r25, r25
 5d8:	80 50       	subi	r24, 0x00	; 0
 5da:	9f 4f       	sbci	r25, 0xFF	; 255
 5dc:	fc 01       	movw	r30, r24
 5de:	80 81       	ld	r24, Z
 5e0:	91 81       	ldd	r25, Z+1	; 0x01
 5e2:	a2 81       	ldd	r26, Z+2	; 0x02
 5e4:	b3 81       	ldd	r27, Z+3	; 0x03
 5e6:	8f 83       	std	Y+7, r24	; 0x07
 5e8:	98 87       	std	Y+8, r25	; 0x08
 5ea:	a9 87       	std	Y+9, r26	; 0x09
 5ec:	ba 87       	std	Y+10, r27	; 0x0a
/home/becker/async/autosafe/trunk/tum/wcet-cbmc/benchmarks/ud/ud.c:147
 5ee:	1c 82       	std	Y+4, r1	; 0x04
 5f0:	1b 82       	std	Y+3, r1	; 0x03
 5f2:	43 c0       	rjmp	.+134    	; 0x67a <ludcmp+0x3ee>
/home/becker/async/autosafe/trunk/tum/wcet-cbmc/benchmarks/ud/ud.c:148
 5f4:	89 81       	ldd	r24, Y+1	; 0x01
 5f6:	9a 81       	ldd	r25, Y+2	; 0x02
 5f8:	42 e3       	ldi	r20, 0x32	; 50
 5fa:	48 9f       	mul	r20, r24
 5fc:	90 01       	movw	r18, r0
 5fe:	49 9f       	mul	r20, r25
 600:	30 0d       	add	r19, r0
 602:	11 24       	eor	r1, r1
 604:	8b 81       	ldd	r24, Y+3	; 0x03
 606:	9c 81       	ldd	r25, Y+4	; 0x04
 608:	82 0f       	add	r24, r18
 60a:	93 1f       	adc	r25, r19
 60c:	88 0f       	add	r24, r24
 60e:	99 1f       	adc	r25, r25
 610:	88 0f       	add	r24, r24
 612:	99 1f       	adc	r25, r25
 614:	80 57       	subi	r24, 0x70	; 112
 616:	9d 4f       	sbci	r25, 0xFD	; 253
 618:	fc 01       	movw	r30, r24
 61a:	20 81       	ld	r18, Z
 61c:	31 81       	ldd	r19, Z+1	; 0x01
 61e:	42 81       	ldd	r20, Z+2	; 0x02
 620:	53 81       	ldd	r21, Z+3	; 0x03
 622:	8b 81       	ldd	r24, Y+3	; 0x03
 624:	9c 81       	ldd	r25, Y+4	; 0x04
 626:	88 0f       	add	r24, r24
 628:	99 1f       	adc	r25, r25
 62a:	88 0f       	add	r24, r24
 62c:	99 1f       	adc	r25, r25
 62e:	be 01       	movw	r22, r28
 630:	6f 5f       	subi	r22, 0xFF	; 255
 632:	7f 4f       	sbci	r23, 0xFF	; 255
 634:	86 0f       	add	r24, r22
 636:	97 1f       	adc	r25, r23
 638:	0a 96       	adiw	r24, 0x0a	; 10
 63a:	fc 01       	movw	r30, r24
 63c:	80 81       	ld	r24, Z
 63e:	91 81       	ldd	r25, Z+1	; 0x01
 640:	a2 81       	ldd	r26, Z+2	; 0x02
 642:	b3 81       	ldd	r27, Z+3	; 0x03
 644:	bc 01       	movw	r22, r24
 646:	cd 01       	movw	r24, r26
 648:	0e 94 80 05 	call	0xb00	; 0xb00 <__mulsi3>
 64c:	dc 01       	movw	r26, r24
 64e:	cb 01       	movw	r24, r22
 650:	2f 81       	ldd	r18, Y+7	; 0x07
 652:	38 85       	ldd	r19, Y+8	; 0x08
 654:	49 85       	ldd	r20, Y+9	; 0x09
 656:	5a 85       	ldd	r21, Y+10	; 0x0a
 658:	79 01       	movw	r14, r18
 65a:	8a 01       	movw	r16, r20
 65c:	e8 1a       	sub	r14, r24
 65e:	f9 0a       	sbc	r15, r25
 660:	0a 0b       	sbc	r16, r26
 662:	1b 0b       	sbc	r17, r27
 664:	d8 01       	movw	r26, r16
 666:	c7 01       	movw	r24, r14
 668:	8f 83       	std	Y+7, r24	; 0x07
 66a:	98 87       	std	Y+8, r25	; 0x08
 66c:	a9 87       	std	Y+9, r26	; 0x09
 66e:	ba 87       	std	Y+10, r27	; 0x0a
/home/becker/async/autosafe/trunk/tum/wcet-cbmc/benchmarks/ud/ud.c:147
 670:	8b 81       	ldd	r24, Y+3	; 0x03
 672:	9c 81       	ldd	r25, Y+4	; 0x04
 674:	01 96       	adiw	r24, 0x01	; 1
 676:	9c 83       	std	Y+4, r25	; 0x04
 678:	8b 83       	std	Y+3, r24	; 0x03
 67a:	2b 81       	ldd	r18, Y+3	; 0x03
 67c:	3c 81       	ldd	r19, Y+4	; 0x04
 67e:	89 81       	ldd	r24, Y+1	; 0x01
 680:	9a 81       	ldd	r25, Y+2	; 0x02
 682:	28 17       	cp	r18, r24
 684:	39 07       	cpc	r19, r25
 686:	0c f4       	brge	.+2      	; 0x68a <ludcmp+0x3fe>
 688:	b5 cf       	rjmp	.-150    	; 0x5f4 <ludcmp+0x368>
/home/becker/async/autosafe/trunk/tum/wcet-cbmc/benchmarks/ud/ud.c:149
 68a:	89 81       	ldd	r24, Y+1	; 0x01
 68c:	9a 81       	ldd	r25, Y+2	; 0x02
 68e:	88 0f       	add	r24, r24
 690:	99 1f       	adc	r25, r25
 692:	88 0f       	add	r24, r24
 694:	99 1f       	adc	r25, r25
 696:	9e 01       	movw	r18, r28
 698:	2f 5f       	subi	r18, 0xFF	; 255
 69a:	3f 4f       	sbci	r19, 0xFF	; 255
 69c:	82 0f       	add	r24, r18
 69e:	93 1f       	adc	r25, r19
 6a0:	9c 01       	movw	r18, r24
 6a2:	26 5f       	subi	r18, 0xF6	; 246
 6a4:	3f 4f       	sbci	r19, 0xFF	; 255
 6a6:	8f 81       	ldd	r24, Y+7	; 0x07
 6a8:	98 85       	ldd	r25, Y+8	; 0x08
 6aa:	a9 85       	ldd	r26, Y+9	; 0x09
 6ac:	ba 85       	ldd	r27, Y+10	; 0x0a
 6ae:	f9 01       	movw	r30, r18
 6b0:	80 83       	st	Z, r24
 6b2:	91 83       	std	Z+1, r25	; 0x01
 6b4:	a2 83       	std	Z+2, r26	; 0x02
 6b6:	b3 83       	std	Z+3, r27	; 0x03
/home/becker/async/autosafe/trunk/tum/wcet-cbmc/benchmarks/ud/ud.c:144
 6b8:	89 81       	ldd	r24, Y+1	; 0x01
 6ba:	9a 81       	ldd	r25, Y+2	; 0x02
 6bc:	01 96       	adiw	r24, 0x01	; 1
 6be:	9a 83       	std	Y+2, r25	; 0x02
 6c0:	89 83       	std	Y+1, r24	; 0x01
 6c2:	ce 01       	movw	r24, r28
 6c4:	83 56       	subi	r24, 0x63	; 99
 6c6:	9e 4f       	sbci	r25, 0xFE	; 254
 6c8:	29 81       	ldd	r18, Y+1	; 0x01
 6ca:	3a 81       	ldd	r19, Y+2	; 0x02
 6cc:	fc 01       	movw	r30, r24
 6ce:	80 81       	ld	r24, Z
 6d0:	91 81       	ldd	r25, Z+1	; 0x01
 6d2:	82 17       	cp	r24, r18
 6d4:	93 07       	cpc	r25, r19
 6d6:	0c f0       	brlt	.+2      	; 0x6da <ludcmp+0x44e>
 6d8:	79 cf       	rjmp	.-270    	; 0x5cc <ludcmp+0x340>
/home/becker/async/autosafe/trunk/tum/wcet-cbmc/benchmarks/ud/ud.c:151
 6da:	ce 01       	movw	r24, r28
 6dc:	83 56       	subi	r24, 0x63	; 99
 6de:	9e 4f       	sbci	r25, 0xFE	; 254
 6e0:	fc 01       	movw	r30, r24
 6e2:	80 81       	ld	r24, Z
 6e4:	91 81       	ldd	r25, Z+1	; 0x01
 6e6:	88 0f       	add	r24, r24
 6e8:	99 1f       	adc	r25, r25
 6ea:	88 0f       	add	r24, r24
 6ec:	99 1f       	adc	r25, r25
 6ee:	9e 01       	movw	r18, r28
 6f0:	2f 5f       	subi	r18, 0xFF	; 255
 6f2:	3f 4f       	sbci	r19, 0xFF	; 255
 6f4:	82 0f       	add	r24, r18
 6f6:	93 1f       	adc	r25, r19
 6f8:	0a 96       	adiw	r24, 0x0a	; 10
 6fa:	fc 01       	movw	r30, r24
 6fc:	80 81       	ld	r24, Z
 6fe:	91 81       	ldd	r25, Z+1	; 0x01
 700:	a2 81       	ldd	r26, Z+2	; 0x02
 702:	b3 81       	ldd	r27, Z+3	; 0x03
 704:	9e 01       	movw	r18, r28
 706:	23 56       	subi	r18, 0x63	; 99
 708:	3e 4f       	sbci	r19, 0xFE	; 254
 70a:	f9 01       	movw	r30, r18
 70c:	40 81       	ld	r20, Z
 70e:	51 81       	ldd	r21, Z+1	; 0x01
 710:	6c ec       	ldi	r22, 0xCC	; 204
 712:	64 9f       	mul	r22, r20
 714:	90 01       	movw	r18, r0
 716:	65 9f       	mul	r22, r21
 718:	30 0d       	add	r19, r0
 71a:	11 24       	eor	r1, r1
 71c:	20 57       	subi	r18, 0x70	; 112
 71e:	3d 4f       	sbci	r19, 0xFD	; 253
 720:	f9 01       	movw	r30, r18
 722:	20 81       	ld	r18, Z
 724:	31 81       	ldd	r19, Z+1	; 0x01
 726:	42 81       	ldd	r20, Z+2	; 0x02
 728:	53 81       	ldd	r21, Z+3	; 0x03
 72a:	bc 01       	movw	r22, r24
 72c:	cd 01       	movw	r24, r26
 72e:	0e 94 90 05 	call	0xb20	; 0xb20 <__divmodsi4>
 732:	da 01       	movw	r26, r20
 734:	c9 01       	movw	r24, r18
 736:	9e 01       	movw	r18, r28
 738:	23 56       	subi	r18, 0x63	; 99
 73a:	3e 4f       	sbci	r19, 0xFE	; 254
 73c:	f9 01       	movw	r30, r18
 73e:	20 81       	ld	r18, Z
 740:	31 81       	ldd	r19, Z+1	; 0x01
 742:	22 0f       	add	r18, r18
 744:	33 1f       	adc	r19, r19
 746:	22 0f       	add	r18, r18
 748:	33 1f       	adc	r19, r19
 74a:	28 53       	subi	r18, 0x38	; 56
 74c:	3e 4f       	sbci	r19, 0xFE	; 254
 74e:	f9 01       	movw	r30, r18
 750:	80 83       	st	Z, r24
 752:	91 83       	std	Z+1, r25	; 0x01
 754:	a2 83       	std	Z+2, r26	; 0x02
 756:	b3 83       	std	Z+3, r27	; 0x03
/home/becker/async/autosafe/trunk/tum/wcet-cbmc/benchmarks/ud/ud.c:152
 758:	ce 01       	movw	r24, r28
 75a:	83 56       	subi	r24, 0x63	; 99
 75c:	9e 4f       	sbci	r25, 0xFE	; 254
 75e:	fc 01       	movw	r30, r24
 760:	80 81       	ld	r24, Z
 762:	91 81       	ldd	r25, Z+1	; 0x01
 764:	01 97       	sbiw	r24, 0x01	; 1
 766:	9a 83       	std	Y+2, r25	; 0x02
 768:	89 83       	std	Y+1, r24	; 0x01
 76a:	91 c0       	rjmp	.+290    	; 0x88e <ludcmp+0x602>
/home/becker/async/autosafe/trunk/tum/wcet-cbmc/benchmarks/ud/ud.c:154
 76c:	89 81       	ldd	r24, Y+1	; 0x01
 76e:	9a 81       	ldd	r25, Y+2	; 0x02
 770:	88 0f       	add	r24, r24
 772:	99 1f       	adc	r25, r25
 774:	88 0f       	add	r24, r24
 776:	99 1f       	adc	r25, r25
 778:	9e 01       	movw	r18, r28
 77a:	2f 5f       	subi	r18, 0xFF	; 255
 77c:	3f 4f       	sbci	r19, 0xFF	; 255
 77e:	82 0f       	add	r24, r18
 780:	93 1f       	adc	r25, r19
 782:	0a 96       	adiw	r24, 0x0a	; 10
 784:	fc 01       	movw	r30, r24
 786:	80 81       	ld	r24, Z
 788:	91 81       	ldd	r25, Z+1	; 0x01
 78a:	a2 81       	ldd	r26, Z+2	; 0x02
 78c:	b3 81       	ldd	r27, Z+3	; 0x03
 78e:	8f 83       	std	Y+7, r24	; 0x07
 790:	98 87       	std	Y+8, r25	; 0x08
 792:	a9 87       	std	Y+9, r26	; 0x09
 794:	ba 87       	std	Y+10, r27	; 0x0a
/home/becker/async/autosafe/trunk/tum/wcet-cbmc/benchmarks/ud/ud.c:155
 796:	89 81       	ldd	r24, Y+1	; 0x01
 798:	9a 81       	ldd	r25, Y+2	; 0x02
 79a:	01 96       	adiw	r24, 0x01	; 1
 79c:	9c 83       	std	Y+4, r25	; 0x04
 79e:	8b 83       	std	Y+3, r24	; 0x03
 7a0:	3f c0       	rjmp	.+126    	; 0x820 <ludcmp+0x594>
/home/becker/async/autosafe/trunk/tum/wcet-cbmc/benchmarks/ud/ud.c:156
 7a2:	89 81       	ldd	r24, Y+1	; 0x01
 7a4:	9a 81       	ldd	r25, Y+2	; 0x02
 7a6:	42 e3       	ldi	r20, 0x32	; 50
 7a8:	48 9f       	mul	r20, r24
 7aa:	90 01       	movw	r18, r0
 7ac:	49 9f       	mul	r20, r25
 7ae:	30 0d       	add	r19, r0
 7b0:	11 24       	eor	r1, r1
 7b2:	8b 81       	ldd	r24, Y+3	; 0x03
 7b4:	9c 81       	ldd	r25, Y+4	; 0x04
 7b6:	82 0f       	add	r24, r18
 7b8:	93 1f       	adc	r25, r19
 7ba:	88 0f       	add	r24, r24
 7bc:	99 1f       	adc	r25, r25
 7be:	88 0f       	add	r24, r24
 7c0:	99 1f       	adc	r25, r25
 7c2:	80 57       	subi	r24, 0x70	; 112
 7c4:	9d 4f       	sbci	r25, 0xFD	; 253
 7c6:	fc 01       	movw	r30, r24
 7c8:	20 81       	ld	r18, Z
 7ca:	31 81       	ldd	r19, Z+1	; 0x01
 7cc:	42 81       	ldd	r20, Z+2	; 0x02
 7ce:	53 81       	ldd	r21, Z+3	; 0x03
 7d0:	8b 81       	ldd	r24, Y+3	; 0x03
 7d2:	9c 81       	ldd	r25, Y+4	; 0x04
 7d4:	88 0f       	add	r24, r24
 7d6:	99 1f       	adc	r25, r25
 7d8:	88 0f       	add	r24, r24
 7da:	99 1f       	adc	r25, r25
 7dc:	88 53       	subi	r24, 0x38	; 56
 7de:	9e 4f       	sbci	r25, 0xFE	; 254
 7e0:	fc 01       	movw	r30, r24
 7e2:	80 81       	ld	r24, Z
 7e4:	91 81       	ldd	r25, Z+1	; 0x01
 7e6:	a2 81       	ldd	r26, Z+2	; 0x02
 7e8:	b3 81       	ldd	r27, Z+3	; 0x03
 7ea:	bc 01       	movw	r22, r24
 7ec:	cd 01       	movw	r24, r26
 7ee:	0e 94 80 05 	call	0xb00	; 0xb00 <__mulsi3>
 7f2:	dc 01       	movw	r26, r24
 7f4:	cb 01       	movw	r24, r22
 7f6:	2f 81       	ldd	r18, Y+7	; 0x07
 7f8:	38 85       	ldd	r19, Y+8	; 0x08
 7fa:	49 85       	ldd	r20, Y+9	; 0x09
 7fc:	5a 85       	ldd	r21, Y+10	; 0x0a
 7fe:	79 01       	movw	r14, r18
 800:	8a 01       	movw	r16, r20
 802:	e8 1a       	sub	r14, r24
 804:	f9 0a       	sbc	r15, r25
 806:	0a 0b       	sbc	r16, r26
 808:	1b 0b       	sbc	r17, r27
 80a:	d8 01       	movw	r26, r16
 80c:	c7 01       	movw	r24, r14
 80e:	8f 83       	std	Y+7, r24	; 0x07
 810:	98 87       	std	Y+8, r25	; 0x08
 812:	a9 87       	std	Y+9, r26	; 0x09
 814:	ba 87       	std	Y+10, r27	; 0x0a
/home/becker/async/autosafe/trunk/tum/wcet-cbmc/benchmarks/ud/ud.c:155
 816:	8b 81       	ldd	r24, Y+3	; 0x03
 818:	9c 81       	ldd	r25, Y+4	; 0x04
 81a:	01 96       	adiw	r24, 0x01	; 1
 81c:	9c 83       	std	Y+4, r25	; 0x04
 81e:	8b 83       	std	Y+3, r24	; 0x03
 820:	ce 01       	movw	r24, r28
 822:	83 56       	subi	r24, 0x63	; 99
 824:	9e 4f       	sbci	r25, 0xFE	; 254
 826:	2b 81       	ldd	r18, Y+3	; 0x03
 828:	3c 81       	ldd	r19, Y+4	; 0x04
 82a:	fc 01       	movw	r30, r24
 82c:	80 81       	ld	r24, Z
 82e:	91 81       	ldd	r25, Z+1	; 0x01
 830:	82 17       	cp	r24, r18
 832:	93 07       	cpc	r25, r19
 834:	0c f0       	brlt	.+2      	; 0x838 <ludcmp+0x5ac>
 836:	b5 cf       	rjmp	.-150    	; 0x7a2 <ludcmp+0x516>
/home/becker/async/autosafe/trunk/tum/wcet-cbmc/benchmarks/ud/ud.c:157
 838:	29 81       	ldd	r18, Y+1	; 0x01
 83a:	3a 81       	ldd	r19, Y+2	; 0x02
 83c:	4c ec       	ldi	r20, 0xCC	; 204
 83e:	42 9f       	mul	r20, r18
 840:	c0 01       	movw	r24, r0
 842:	43 9f       	mul	r20, r19
 844:	90 0d       	add	r25, r0
 846:	11 24       	eor	r1, r1
 848:	80 57       	subi	r24, 0x70	; 112
 84a:	9d 4f       	sbci	r25, 0xFD	; 253
 84c:	fc 01       	movw	r30, r24
 84e:	20 81       	ld	r18, Z
 850:	31 81       	ldd	r19, Z+1	; 0x01
 852:	42 81       	ldd	r20, Z+2	; 0x02
 854:	53 81       	ldd	r21, Z+3	; 0x03
 856:	8f 81       	ldd	r24, Y+7	; 0x07
 858:	98 85       	ldd	r25, Y+8	; 0x08
 85a:	a9 85       	ldd	r26, Y+9	; 0x09
 85c:	ba 85       	ldd	r27, Y+10	; 0x0a
 85e:	bc 01       	movw	r22, r24
 860:	cd 01       	movw	r24, r26
 862:	0e 94 90 05 	call	0xb20	; 0xb20 <__divmodsi4>
 866:	da 01       	movw	r26, r20
 868:	c9 01       	movw	r24, r18
 86a:	29 81       	ldd	r18, Y+1	; 0x01
 86c:	3a 81       	ldd	r19, Y+2	; 0x02
 86e:	22 0f       	add	r18, r18
 870:	33 1f       	adc	r19, r19
 872:	22 0f       	add	r18, r18
 874:	33 1f       	adc	r19, r19
 876:	28 53       	subi	r18, 0x38	; 56
 878:	3e 4f       	sbci	r19, 0xFE	; 254
 87a:	f9 01       	movw	r30, r18
 87c:	80 83       	st	Z, r24
 87e:	91 83       	std	Z+1, r25	; 0x01
 880:	a2 83       	std	Z+2, r26	; 0x02
 882:	b3 83       	std	Z+3, r27	; 0x03
/home/becker/async/autosafe/trunk/tum/wcet-cbmc/benchmarks/ud/ud.c:152
 884:	89 81       	ldd	r24, Y+1	; 0x01
 886:	9a 81       	ldd	r25, Y+2	; 0x02
 888:	01 97       	sbiw	r24, 0x01	; 1
 88a:	9a 83       	std	Y+2, r25	; 0x02
 88c:	89 83       	std	Y+1, r24	; 0x01
 88e:	89 81       	ldd	r24, Y+1	; 0x01
 890:	9a 81       	ldd	r25, Y+2	; 0x02
 892:	99 23       	and	r25, r25
 894:	0c f0       	brlt	.+2      	; 0x898 <ludcmp+0x60c>
 896:	6a cf       	rjmp	.-300    	; 0x76c <ludcmp+0x4e0>
/home/becker/async/autosafe/trunk/tum/wcet-cbmc/benchmarks/ud/ud.c:159
 898:	80 e0       	ldi	r24, 0x00	; 0
 89a:	90 e0       	ldi	r25, 0x00	; 0
/home/becker/async/autosafe/trunk/tum/wcet-cbmc/benchmarks/ud/ud.c:160
 89c:	c2 56       	subi	r28, 0x62	; 98
 89e:	de 4f       	sbci	r29, 0xFE	; 254
 8a0:	0f b6       	in	r0, 0x3f	; 63
 8a2:	f8 94       	cli
 8a4:	de bf       	out	0x3e, r29	; 62
 8a6:	0f be       	out	0x3f, r0	; 63
 8a8:	cd bf       	out	0x3d, r28	; 61
 8aa:	df 91       	pop	r29
 8ac:	cf 91       	pop	r28
 8ae:	1f 91       	pop	r17
 8b0:	0f 91       	pop	r16
 8b2:	ff 90       	pop	r15
 8b4:	ef 90       	pop	r14
 8b6:	08 95       	ret

000008b8 <__subsf3>:
../../../libm/fplib/fp_zero.S:39
 8b8:	50 58       	subi	r21, 0x80	; 128

000008ba <__addsf3>:
 8ba:	bb 27       	eor	r27, r27
 8bc:	aa 27       	eor	r26, r26
 8be:	0e d0       	rcall	.+28     	; 0x8dc <__addsf3x>
 8c0:	e5 c0       	rjmp	.+458    	; 0xa8c <__fp_round>
 8c2:	d6 d0       	rcall	.+428    	; 0xa70 <__fp_pscA>
 8c4:	30 f0       	brcs	.+12     	; 0x8d2 <__addsf3+0x18>
 8c6:	db d0       	rcall	.+438    	; 0xa7e <__fp_pscB>
 8c8:	20 f0       	brcs	.+8      	; 0x8d2 <__addsf3+0x18>
 8ca:	31 f4       	brne	.+12     	; 0x8d8 <__addsf3+0x1e>
 8cc:	9f 3f       	cpi	r25, 0xFF	; 255
 8ce:	11 f4       	brne	.+4      	; 0x8d4 <__addsf3+0x1a>
 8d0:	1e f4       	brtc	.+6      	; 0x8d8 <__addsf3+0x1e>
 8d2:	cb c0       	rjmp	.+406    	; 0xa6a <__fp_nan>
 8d4:	0e f4       	brtc	.+2      	; 0x8d8 <__addsf3+0x1e>
 8d6:	e0 95       	com	r30
 8d8:	e7 fb       	bst	r30, 7
 8da:	c1 c0       	rjmp	.+386    	; 0xa5e <__fp_inf>

000008dc <__addsf3x>:
 8dc:	e9 2f       	mov	r30, r25
 8de:	e7 d0       	rcall	.+462    	; 0xaae <__fp_split3>
 8e0:	80 f3       	brcs	.-32     	; 0x8c2 <__addsf3+0x8>
 8e2:	ba 17       	cp	r27, r26
 8e4:	62 07       	cpc	r22, r18
 8e6:	73 07       	cpc	r23, r19
 8e8:	84 07       	cpc	r24, r20
 8ea:	95 07       	cpc	r25, r21
 8ec:	18 f0       	brcs	.+6      	; 0x8f4 <__addsf3x+0x18>
 8ee:	71 f4       	brne	.+28     	; 0x90c <__addsf3x+0x30>
 8f0:	9e f5       	brtc	.+102    	; 0x958 <__addsf3x+0x7c>
 8f2:	ff c0       	rjmp	.+510    	; 0xaf2 <__fp_zero>
 8f4:	0e f4       	brtc	.+2      	; 0x8f8 <__addsf3x+0x1c>
 8f6:	e0 95       	com	r30
 8f8:	0b 2e       	mov	r0, r27
 8fa:	ba 2f       	mov	r27, r26
 8fc:	a0 2d       	mov	r26, r0
 8fe:	0b 01       	movw	r0, r22
 900:	b9 01       	movw	r22, r18
 902:	90 01       	movw	r18, r0
 904:	0c 01       	movw	r0, r24
 906:	ca 01       	movw	r24, r20
 908:	a0 01       	movw	r20, r0
 90a:	11 24       	eor	r1, r1
 90c:	ff 27       	eor	r31, r31
 90e:	59 1b       	sub	r21, r25
 910:	99 f0       	breq	.+38     	; 0x938 <__addsf3x+0x5c>
 912:	59 3f       	cpi	r21, 0xF9	; 249
 914:	50 f4       	brcc	.+20     	; 0x92a <__addsf3x+0x4e>
 916:	50 3e       	cpi	r21, 0xE0	; 224
 918:	68 f1       	brcs	.+90     	; 0x974 <__addsf3x+0x98>
 91a:	1a 16       	cp	r1, r26
 91c:	f0 40       	sbci	r31, 0x00	; 0
 91e:	a2 2f       	mov	r26, r18
 920:	23 2f       	mov	r18, r19
 922:	34 2f       	mov	r19, r20
 924:	44 27       	eor	r20, r20
 926:	58 5f       	subi	r21, 0xF8	; 248
 928:	f3 cf       	rjmp	.-26     	; 0x910 <__addsf3x+0x34>
 92a:	46 95       	lsr	r20
 92c:	37 95       	ror	r19
 92e:	27 95       	ror	r18
 930:	a7 95       	ror	r26
 932:	f0 40       	sbci	r31, 0x00	; 0
 934:	53 95       	inc	r21
 936:	c9 f7       	brne	.-14     	; 0x92a <__addsf3x+0x4e>
 938:	7e f4       	brtc	.+30     	; 0x958 <__addsf3x+0x7c>
 93a:	1f 16       	cp	r1, r31
 93c:	ba 0b       	sbc	r27, r26
 93e:	62 0b       	sbc	r22, r18
 940:	73 0b       	sbc	r23, r19
 942:	84 0b       	sbc	r24, r20
 944:	ba f0       	brmi	.+46     	; 0x974 <__addsf3x+0x98>
 946:	91 50       	subi	r25, 0x01	; 1
 948:	a1 f0       	breq	.+40     	; 0x972 <__addsf3x+0x96>
 94a:	ff 0f       	add	r31, r31
 94c:	bb 1f       	adc	r27, r27
 94e:	66 1f       	adc	r22, r22
 950:	77 1f       	adc	r23, r23
 952:	88 1f       	adc	r24, r24
 954:	c2 f7       	brpl	.-16     	; 0x946 <__addsf3x+0x6a>
 956:	0e c0       	rjmp	.+28     	; 0x974 <__addsf3x+0x98>
 958:	ba 0f       	add	r27, r26
 95a:	62 1f       	adc	r22, r18
 95c:	73 1f       	adc	r23, r19
 95e:	84 1f       	adc	r24, r20
 960:	48 f4       	brcc	.+18     	; 0x974 <__addsf3x+0x98>
 962:	87 95       	ror	r24
 964:	77 95       	ror	r23
 966:	67 95       	ror	r22
 968:	b7 95       	ror	r27
 96a:	f7 95       	ror	r31
 96c:	9e 3f       	cpi	r25, 0xFE	; 254
 96e:	08 f0       	brcs	.+2      	; 0x972 <__addsf3x+0x96>
 970:	b3 cf       	rjmp	.-154    	; 0x8d8 <__addsf3+0x1e>
 972:	93 95       	inc	r25
 974:	88 0f       	add	r24, r24
 976:	08 f0       	brcs	.+2      	; 0x97a <__addsf3x+0x9e>
 978:	99 27       	eor	r25, r25
 97a:	ee 0f       	add	r30, r30
 97c:	97 95       	ror	r25
 97e:	87 95       	ror	r24
 980:	08 95       	ret

00000982 <__fixsfsi>:
 982:	04 d0       	rcall	.+8      	; 0x98c <__fixunssfsi>
 984:	68 94       	set
 986:	b1 11       	cpse	r27, r1
 988:	b5 c0       	rjmp	.+362    	; 0xaf4 <__fp_szero>
 98a:	08 95       	ret

0000098c <__fixunssfsi>:
 98c:	98 d0       	rcall	.+304    	; 0xabe <__fp_splitA>
 98e:	88 f0       	brcs	.+34     	; 0x9b2 <__fixunssfsi+0x26>
 990:	9f 57       	subi	r25, 0x7F	; 127
 992:	90 f0       	brcs	.+36     	; 0x9b8 <__fixunssfsi+0x2c>
 994:	b9 2f       	mov	r27, r25
 996:	99 27       	eor	r25, r25
 998:	b7 51       	subi	r27, 0x17	; 23
 99a:	a0 f0       	brcs	.+40     	; 0x9c4 <__fixunssfsi+0x38>
 99c:	d1 f0       	breq	.+52     	; 0x9d2 <__fixunssfsi+0x46>
 99e:	66 0f       	add	r22, r22
 9a0:	77 1f       	adc	r23, r23
 9a2:	88 1f       	adc	r24, r24
 9a4:	99 1f       	adc	r25, r25
 9a6:	1a f0       	brmi	.+6      	; 0x9ae <__fixunssfsi+0x22>
 9a8:	ba 95       	dec	r27
 9aa:	c9 f7       	brne	.-14     	; 0x99e <__fixunssfsi+0x12>
 9ac:	12 c0       	rjmp	.+36     	; 0x9d2 <__fixunssfsi+0x46>
 9ae:	b1 30       	cpi	r27, 0x01	; 1
 9b0:	81 f0       	breq	.+32     	; 0x9d2 <__fixunssfsi+0x46>
 9b2:	9f d0       	rcall	.+318    	; 0xaf2 <__fp_zero>
 9b4:	b1 e0       	ldi	r27, 0x01	; 1
 9b6:	08 95       	ret
 9b8:	9c c0       	rjmp	.+312    	; 0xaf2 <__fp_zero>
 9ba:	67 2f       	mov	r22, r23
 9bc:	78 2f       	mov	r23, r24
 9be:	88 27       	eor	r24, r24
 9c0:	b8 5f       	subi	r27, 0xF8	; 248
 9c2:	39 f0       	breq	.+14     	; 0x9d2 <__fixunssfsi+0x46>
 9c4:	b9 3f       	cpi	r27, 0xF9	; 249
 9c6:	cc f3       	brlt	.-14     	; 0x9ba <__fixunssfsi+0x2e>
 9c8:	86 95       	lsr	r24
 9ca:	77 95       	ror	r23
 9cc:	67 95       	ror	r22
 9ce:	b3 95       	inc	r27
 9d0:	d9 f7       	brne	.-10     	; 0x9c8 <__fixunssfsi+0x3c>
 9d2:	3e f4       	brtc	.+14     	; 0x9e2 <__fixunssfsi+0x56>
 9d4:	90 95       	com	r25
 9d6:	80 95       	com	r24
 9d8:	70 95       	com	r23
 9da:	61 95       	neg	r22
 9dc:	7f 4f       	sbci	r23, 0xFF	; 255
 9de:	8f 4f       	sbci	r24, 0xFF	; 255
 9e0:	9f 4f       	sbci	r25, 0xFF	; 255
 9e2:	08 95       	ret

000009e4 <__floatunsisf>:
 9e4:	e8 94       	clt
 9e6:	09 c0       	rjmp	.+18     	; 0x9fa <__floatsisf+0x12>

000009e8 <__floatsisf>:
 9e8:	97 fb       	bst	r25, 7
 9ea:	3e f4       	brtc	.+14     	; 0x9fa <__floatsisf+0x12>
 9ec:	90 95       	com	r25
 9ee:	80 95       	com	r24
 9f0:	70 95       	com	r23
 9f2:	61 95       	neg	r22
 9f4:	7f 4f       	sbci	r23, 0xFF	; 255
 9f6:	8f 4f       	sbci	r24, 0xFF	; 255
 9f8:	9f 4f       	sbci	r25, 0xFF	; 255
 9fa:	99 23       	and	r25, r25
 9fc:	a9 f0       	breq	.+42     	; 0xa28 <__floatsisf+0x40>
 9fe:	f9 2f       	mov	r31, r25
 a00:	96 e9       	ldi	r25, 0x96	; 150
 a02:	bb 27       	eor	r27, r27
 a04:	93 95       	inc	r25
 a06:	f6 95       	lsr	r31
 a08:	87 95       	ror	r24
 a0a:	77 95       	ror	r23
 a0c:	67 95       	ror	r22
 a0e:	b7 95       	ror	r27
 a10:	f1 11       	cpse	r31, r1
 a12:	f8 cf       	rjmp	.-16     	; 0xa04 <__floatsisf+0x1c>
 a14:	fa f4       	brpl	.+62     	; 0xa54 <__floatsisf+0x6c>
 a16:	bb 0f       	add	r27, r27
 a18:	11 f4       	brne	.+4      	; 0xa1e <__floatsisf+0x36>
 a1a:	60 ff       	sbrs	r22, 0
 a1c:	1b c0       	rjmp	.+54     	; 0xa54 <__floatsisf+0x6c>
 a1e:	6f 5f       	subi	r22, 0xFF	; 255
 a20:	7f 4f       	sbci	r23, 0xFF	; 255
 a22:	8f 4f       	sbci	r24, 0xFF	; 255
 a24:	9f 4f       	sbci	r25, 0xFF	; 255
 a26:	16 c0       	rjmp	.+44     	; 0xa54 <__floatsisf+0x6c>
 a28:	88 23       	and	r24, r24
 a2a:	11 f0       	breq	.+4      	; 0xa30 <__floatsisf+0x48>
 a2c:	96 e9       	ldi	r25, 0x96	; 150
 a2e:	11 c0       	rjmp	.+34     	; 0xa52 <__floatsisf+0x6a>
 a30:	77 23       	and	r23, r23
 a32:	21 f0       	breq	.+8      	; 0xa3c <__floatsisf+0x54>
 a34:	9e e8       	ldi	r25, 0x8E	; 142
 a36:	87 2f       	mov	r24, r23
 a38:	76 2f       	mov	r23, r22
 a3a:	05 c0       	rjmp	.+10     	; 0xa46 <__floatsisf+0x5e>
 a3c:	66 23       	and	r22, r22
 a3e:	71 f0       	breq	.+28     	; 0xa5c <__floatsisf+0x74>
 a40:	96 e8       	ldi	r25, 0x86	; 134
 a42:	86 2f       	mov	r24, r22
 a44:	70 e0       	ldi	r23, 0x00	; 0
 a46:	60 e0       	ldi	r22, 0x00	; 0
 a48:	2a f0       	brmi	.+10     	; 0xa54 <__floatsisf+0x6c>
 a4a:	9a 95       	dec	r25
 a4c:	66 0f       	add	r22, r22
 a4e:	77 1f       	adc	r23, r23
 a50:	88 1f       	adc	r24, r24
 a52:	da f7       	brpl	.-10     	; 0xa4a <__floatsisf+0x62>
 a54:	88 0f       	add	r24, r24
 a56:	96 95       	lsr	r25
 a58:	87 95       	ror	r24
 a5a:	97 f9       	bld	r25, 7
 a5c:	08 95       	ret

00000a5e <__fp_inf>:
 a5e:	97 f9       	bld	r25, 7
 a60:	9f 67       	ori	r25, 0x7F	; 127
 a62:	80 e8       	ldi	r24, 0x80	; 128
 a64:	70 e0       	ldi	r23, 0x00	; 0
 a66:	60 e0       	ldi	r22, 0x00	; 0
 a68:	08 95       	ret

00000a6a <__fp_nan>:
 a6a:	9f ef       	ldi	r25, 0xFF	; 255
 a6c:	80 ec       	ldi	r24, 0xC0	; 192
 a6e:	08 95       	ret

00000a70 <__fp_pscA>:
 a70:	00 24       	eor	r0, r0
 a72:	0a 94       	dec	r0
 a74:	16 16       	cp	r1, r22
 a76:	17 06       	cpc	r1, r23
 a78:	18 06       	cpc	r1, r24
 a7a:	09 06       	cpc	r0, r25
 a7c:	08 95       	ret

00000a7e <__fp_pscB>:
 a7e:	00 24       	eor	r0, r0
 a80:	0a 94       	dec	r0
 a82:	12 16       	cp	r1, r18
 a84:	13 06       	cpc	r1, r19
 a86:	14 06       	cpc	r1, r20
 a88:	05 06       	cpc	r0, r21
 a8a:	08 95       	ret

00000a8c <__fp_round>:
 a8c:	09 2e       	mov	r0, r25
 a8e:	03 94       	inc	r0
 a90:	00 0c       	add	r0, r0
 a92:	11 f4       	brne	.+4      	; 0xa98 <__fp_round+0xc>
 a94:	88 23       	and	r24, r24
 a96:	52 f0       	brmi	.+20     	; 0xaac <__fp_round+0x20>
 a98:	bb 0f       	add	r27, r27
 a9a:	40 f4       	brcc	.+16     	; 0xaac <__fp_round+0x20>
 a9c:	bf 2b       	or	r27, r31
 a9e:	11 f4       	brne	.+4      	; 0xaa4 <__fp_round+0x18>
 aa0:	60 ff       	sbrs	r22, 0
 aa2:	04 c0       	rjmp	.+8      	; 0xaac <__fp_round+0x20>
 aa4:	6f 5f       	subi	r22, 0xFF	; 255
 aa6:	7f 4f       	sbci	r23, 0xFF	; 255
 aa8:	8f 4f       	sbci	r24, 0xFF	; 255
 aaa:	9f 4f       	sbci	r25, 0xFF	; 255
 aac:	08 95       	ret

00000aae <__fp_split3>:
 aae:	57 fd       	sbrc	r21, 7
 ab0:	90 58       	subi	r25, 0x80	; 128
 ab2:	44 0f       	add	r20, r20
 ab4:	55 1f       	adc	r21, r21
 ab6:	59 f0       	breq	.+22     	; 0xace <__fp_splitA+0x10>
 ab8:	5f 3f       	cpi	r21, 0xFF	; 255
 aba:	71 f0       	breq	.+28     	; 0xad8 <__fp_splitA+0x1a>
 abc:	47 95       	ror	r20

00000abe <__fp_splitA>:
 abe:	88 0f       	add	r24, r24
 ac0:	97 fb       	bst	r25, 7
 ac2:	99 1f       	adc	r25, r25
 ac4:	61 f0       	breq	.+24     	; 0xade <__fp_splitA+0x20>
 ac6:	9f 3f       	cpi	r25, 0xFF	; 255
 ac8:	79 f0       	breq	.+30     	; 0xae8 <__fp_splitA+0x2a>
 aca:	87 95       	ror	r24
 acc:	08 95       	ret
 ace:	12 16       	cp	r1, r18
 ad0:	13 06       	cpc	r1, r19
 ad2:	14 06       	cpc	r1, r20
 ad4:	55 1f       	adc	r21, r21
 ad6:	f2 cf       	rjmp	.-28     	; 0xabc <__fp_split3+0xe>
 ad8:	46 95       	lsr	r20
 ada:	f1 df       	rcall	.-30     	; 0xabe <__fp_splitA>
 adc:	08 c0       	rjmp	.+16     	; 0xaee <__fp_splitA+0x30>
 ade:	16 16       	cp	r1, r22
 ae0:	17 06       	cpc	r1, r23
 ae2:	18 06       	cpc	r1, r24
 ae4:	99 1f       	adc	r25, r25
 ae6:	f1 cf       	rjmp	.-30     	; 0xaca <__fp_splitA+0xc>
 ae8:	86 95       	lsr	r24
 aea:	71 05       	cpc	r23, r1
 aec:	61 05       	cpc	r22, r1
 aee:	08 94       	sec
 af0:	08 95       	ret

00000af2 <__fp_zero>:
../../../libm/fplib/fp_zero.S:40
 af2:	e8 94       	clt

00000af4 <__fp_szero>:
../../../libm/fplib/fp_zero.S:42
 af4:	bb 27       	eor	r27, r27
../../../libm/fplib/fp_zero.S:43
 af6:	66 27       	eor	r22, r22
../../../libm/fplib/fp_zero.S:44
 af8:	77 27       	eor	r23, r23
../../../libm/fplib/fp_zero.S:45
 afa:	cb 01       	movw	r24, r22
../../../libm/fplib/fp_zero.S:46
 afc:	97 f9       	bld	r25, 7
../../../libm/fplib/fp_zero.S:47
 afe:	08 95       	ret

00000b00 <__mulsi3>:
../../../libm/fplib/fp_zero.S:48
 b00:	db 01       	movw	r26, r22
 b02:	8f 93       	push	r24
 b04:	9f 93       	push	r25
 b06:	0e 94 ac 05 	call	0xb58	; 0xb58 <__muluhisi3>
 b0a:	bf 91       	pop	r27
 b0c:	af 91       	pop	r26
 b0e:	a2 9f       	mul	r26, r18
 b10:	80 0d       	add	r24, r0
 b12:	91 1d       	adc	r25, r1
 b14:	a3 9f       	mul	r26, r19
 b16:	90 0d       	add	r25, r0
 b18:	b2 9f       	mul	r27, r18
 b1a:	90 0d       	add	r25, r0
 b1c:	11 24       	eor	r1, r1
 b1e:	08 95       	ret

00000b20 <__divmodsi4>:
 b20:	05 2e       	mov	r0, r21
 b22:	97 fb       	bst	r25, 7
 b24:	16 f4       	brtc	.+4      	; 0xb2a <__divmodsi4+0xa>
 b26:	00 94       	com	r0
 b28:	07 d0       	rcall	.+14     	; 0xb38 <__divmodsi4_neg1>
 b2a:	57 fd       	sbrc	r21, 7
 b2c:	0d d0       	rcall	.+26     	; 0xb48 <__divmodsi4_neg2>
 b2e:	0e 94 b7 05 	call	0xb6e	; 0xb6e <__udivmodsi4>
 b32:	07 fc       	sbrc	r0, 7
 b34:	09 d0       	rcall	.+18     	; 0xb48 <__divmodsi4_neg2>
 b36:	7e f4       	brtc	.+30     	; 0xb56 <__divmodsi4_exit>

00000b38 <__divmodsi4_neg1>:
 b38:	90 95       	com	r25
 b3a:	80 95       	com	r24
 b3c:	70 95       	com	r23
 b3e:	61 95       	neg	r22
 b40:	7f 4f       	sbci	r23, 0xFF	; 255
 b42:	8f 4f       	sbci	r24, 0xFF	; 255
 b44:	9f 4f       	sbci	r25, 0xFF	; 255
 b46:	08 95       	ret

00000b48 <__divmodsi4_neg2>:
 b48:	50 95       	com	r21
 b4a:	40 95       	com	r20
 b4c:	30 95       	com	r19
 b4e:	21 95       	neg	r18
 b50:	3f 4f       	sbci	r19, 0xFF	; 255
 b52:	4f 4f       	sbci	r20, 0xFF	; 255
 b54:	5f 4f       	sbci	r21, 0xFF	; 255

00000b56 <__divmodsi4_exit>:
 b56:	08 95       	ret

00000b58 <__muluhisi3>:
 b58:	0e 94 d9 05 	call	0xbb2	; 0xbb2 <__umulhisi3>
 b5c:	a5 9f       	mul	r26, r21
 b5e:	90 0d       	add	r25, r0
 b60:	b4 9f       	mul	r27, r20
 b62:	90 0d       	add	r25, r0
 b64:	a4 9f       	mul	r26, r20
 b66:	80 0d       	add	r24, r0
 b68:	91 1d       	adc	r25, r1
 b6a:	11 24       	eor	r1, r1
 b6c:	08 95       	ret

00000b6e <__udivmodsi4>:
 b6e:	a1 e2       	ldi	r26, 0x21	; 33
 b70:	1a 2e       	mov	r1, r26
 b72:	aa 1b       	sub	r26, r26
 b74:	bb 1b       	sub	r27, r27
 b76:	fd 01       	movw	r30, r26
 b78:	0d c0       	rjmp	.+26     	; 0xb94 <__udivmodsi4_ep>

00000b7a <__udivmodsi4_loop>:
 b7a:	aa 1f       	adc	r26, r26
 b7c:	bb 1f       	adc	r27, r27
 b7e:	ee 1f       	adc	r30, r30
 b80:	ff 1f       	adc	r31, r31
 b82:	a2 17       	cp	r26, r18
 b84:	b3 07       	cpc	r27, r19
 b86:	e4 07       	cpc	r30, r20
 b88:	f5 07       	cpc	r31, r21
 b8a:	20 f0       	brcs	.+8      	; 0xb94 <__udivmodsi4_ep>
 b8c:	a2 1b       	sub	r26, r18
 b8e:	b3 0b       	sbc	r27, r19
 b90:	e4 0b       	sbc	r30, r20
 b92:	f5 0b       	sbc	r31, r21

00000b94 <__udivmodsi4_ep>:
 b94:	66 1f       	adc	r22, r22
 b96:	77 1f       	adc	r23, r23
 b98:	88 1f       	adc	r24, r24
 b9a:	99 1f       	adc	r25, r25
 b9c:	1a 94       	dec	r1
 b9e:	69 f7       	brne	.-38     	; 0xb7a <__udivmodsi4_loop>
 ba0:	60 95       	com	r22
 ba2:	70 95       	com	r23
 ba4:	80 95       	com	r24
 ba6:	90 95       	com	r25
 ba8:	9b 01       	movw	r18, r22
 baa:	ac 01       	movw	r20, r24
 bac:	bd 01       	movw	r22, r26
 bae:	cf 01       	movw	r24, r30
 bb0:	08 95       	ret

00000bb2 <__umulhisi3>:
 bb2:	a2 9f       	mul	r26, r18
 bb4:	b0 01       	movw	r22, r0
 bb6:	b3 9f       	mul	r27, r19
 bb8:	c0 01       	movw	r24, r0
 bba:	a3 9f       	mul	r26, r19
 bbc:	01 d0       	rcall	.+2      	; 0xbc0 <__umulhisi3+0xe>
 bbe:	b2 9f       	mul	r27, r18
 bc0:	70 0d       	add	r23, r0
 bc2:	81 1d       	adc	r24, r1
 bc4:	11 24       	eor	r1, r1
 bc6:	91 1d       	adc	r25, r1
 bc8:	08 95       	ret

00000bca <_exit>:
 bca:	f8 94       	cli

00000bcc <__stop_program>:
 bcc:	ff cf       	rjmp	.-2      	; 0xbcc <__stop_program>

Disassembly of section .bss:

00800100 <__bss_start>:
	...

008001c8 <x>:
	...

00800290 <a>:
	...

Disassembly of section .stab:

00000000 <_end-0x8029a0>:
__vectors():
../../../../crt1/gcrt1.S:52
       0:	01 00       	.word	0x0001	; ????
       2:	00 00       	nop
../../../../crt1/gcrt1.S:53
       4:	00 00       	nop
       6:	e9 01       	movw	r28, r18
../../../../crt1/gcrt1.S:54
       8:	81 02       	muls	r24, r17
       a:	00 00       	nop
../../../../crt1/gcrt1.S:55
       c:	01 00       	.word	0x0001	; ????
       e:	00 00       	nop
../../../../crt1/gcrt1.S:56
      10:	64 00       	.word	0x0064	; ????
      12:	00 00       	nop
../../../../crt1/gcrt1.S:57
      14:	b0 00       	.word	0x00b0	; ????
      16:	00 00       	nop
../../../../crt1/gcrt1.S:58
      18:	11 00       	.word	0x0011	; ????
      1a:	00 00       	nop
../../../../crt1/gcrt1.S:59
      1c:	80 00       	.word	0x0080	; ????
      1e:	00 00       	nop
../../../../crt1/gcrt1.S:60
      20:	00 00       	nop
      22:	00 00       	nop
../../../../crt1/gcrt1.S:61
      24:	1b 00       	.word	0x001b	; ????
      26:	00 00       	nop
../../../../crt1/gcrt1.S:62
      28:	24 00       	.word	0x0024	; ????
      2a:	33 00       	.word	0x0033	; ????
../../../../crt1/gcrt1.S:63
      2c:	00 00       	nop
      2e:	00 00       	nop
../../../../crt1/gcrt1.S:64
      30:	28 00       	.word	0x0028	; ????
      32:	00 00       	nop
../../../../crt1/gcrt1.S:65
      34:	84 00       	.word	0x0084	; ????
	...
../../../../crt1/gcrt1.S:67
      3e:	00 00       	nop
../../../../crt1/gcrt1.S:68
      40:	44 00       	.word	0x0044	; ????
      42:	34 00       	.word	0x0034	; ????
	...
../../../../crt1/gcrt1.S:71
      4c:	44 00       	.word	0x0044	; ????
      4e:	35 00       	.word	0x0035	; ????
../../../../crt1/gcrt1.S:72
      50:	04 00       	.word	0x0004	; ????
      52:	00 00       	nop
../../../../crt1/gcrt1.S:73
      54:	00 00       	nop
      56:	00 00       	nop
../../../../crt1/gcrt1.S:74
      58:	44 00       	.word	0x0044	; ????
      5a:	36 00       	.word	0x0036	; ????
../../../../crt1/gcrt1.S:75
      5c:	08 00       	.word	0x0008	; ????
      5e:	00 00       	nop
../../../../crt1/gcrt1.S:76
      60:	00 00       	nop
      62:	00 00       	nop
../../../../crt1/gcrt1.S:77
      64:	44 00       	.word	0x0044	; ????
      66:	37 00       	.word	0x0037	; ????
../../../../crt1/gcrt1.S:78
      68:	0c 00       	.word	0x000c	; ????
      6a:	00 00       	nop
../../../../crt1/gcrt1.S:79
      6c:	00 00       	nop
      6e:	00 00       	nop
../../../../crt1/gcrt1.S:80
      70:	44 00       	.word	0x0044	; ????
      72:	38 00       	.word	0x0038	; ????
../../../../crt1/gcrt1.S:81
      74:	10 00       	.word	0x0010	; ????
      76:	00 00       	nop
../../../../crt1/gcrt1.S:82
      78:	00 00       	nop
      7a:	00 00       	nop
../../../../crt1/gcrt1.S:83
      7c:	44 00       	.word	0x0044	; ????
      7e:	39 00       	.word	0x0039	; ????
../../../../crt1/gcrt1.S:84
      80:	14 00       	.word	0x0014	; ????
      82:	00 00       	nop
../../../../crt1/gcrt1.S:85
      84:	00 00       	nop
      86:	00 00       	nop
../../../../crt1/gcrt1.S:86
      88:	44 00       	.word	0x0044	; ????
      8a:	3a 00       	.word	0x003a	; ????
../../../../crt1/gcrt1.S:179
      8c:	18 00       	.word	0x0018	; ????
      8e:	00 00       	nop
      90:	00 00       	nop
      92:	00 00       	nop
      94:	44 00       	.word	0x0044	; ????
      96:	3b 00       	.word	0x003b	; ????
      98:	1c 00       	.word	0x001c	; ????
      9a:	00 00       	nop
      9c:	00 00       	nop
      9e:	00 00       	nop
      a0:	44 00       	.word	0x0044	; ????
      a2:	3c 00       	.word	0x003c	; ????
      a4:	20 00       	.word	0x0020	; ????
      a6:	00 00       	nop
      a8:	00 00       	nop
      aa:	00 00       	nop
      ac:	44 00       	.word	0x0044	; ????
      ae:	3d 00       	.word	0x003d	; ????
__bad_interrupt():
../../../../crt1/gcrt1.S:195
      b0:	24 00       	.word	0x0024	; ????
      b2:	00 00       	nop
main():
/home/becker/async/autosafe/trunk/tum/wcet-cbmc/benchmarks/ud/ud.c:92
      b4:	00 00       	nop
      b6:	00 00       	nop
      b8:	44 00       	.word	0x0044	; ????
      ba:	3e 00       	.word	0x003e	; ????
      bc:	28 00       	.word	0x0028	; ????
      be:	00 00       	nop
      c0:	00 00       	nop
      c2:	00 00       	nop
      c4:	44 00       	.word	0x0044	; ????
      c6:	3f 00       	.word	0x003f	; ????
/home/becker/async/autosafe/trunk/tum/wcet-cbmc/benchmarks/ud/ud.c:93
      c8:	2c 00       	.word	0x002c	; ????
      ca:	00 00       	nop
      cc:	00 00       	nop
      ce:	00 00       	nop
      d0:	44 00       	.word	0x0044	; ????
      d2:	40 00       	.word	0x0040	; ????
      d4:	30 00       	.word	0x0030	; ????
      d6:	00 00       	nop
/home/becker/async/autosafe/trunk/tum/wcet-cbmc/benchmarks/ud/ud.c:99
      d8:	00 00       	nop
      da:	00 00       	nop
      dc:	44 00       	.word	0x0044	; ????
/home/becker/async/autosafe/trunk/tum/wcet-cbmc/benchmarks/ud/ud.c:101
      de:	41 00       	.word	0x0041	; ????
      e0:	34 00       	.word	0x0034	; ????
      e2:	00 00       	nop
      e4:	00 00       	nop
/home/becker/async/autosafe/trunk/tum/wcet-cbmc/benchmarks/ud/ud.c:102
      e6:	00 00       	nop
      e8:	44 00       	.word	0x0044	; ????
      ea:	42 00       	.word	0x0042	; ????
/home/becker/async/autosafe/trunk/tum/wcet-cbmc/benchmarks/ud/ud.c:104
      ec:	38 00       	.word	0x0038	; ????
      ee:	00 00       	nop
      f0:	00 00       	nop
      f2:	00 00       	nop
      f4:	44 00       	.word	0x0044	; ????
      f6:	43 00       	.word	0x0043	; ????
      f8:	3c 00       	.word	0x003c	; ????
      fa:	00 00       	nop
      fc:	00 00       	nop
      fe:	00 00       	nop
     100:	44 00       	.word	0x0044	; ????
     102:	44 00       	.word	0x0044	; ????
     104:	40 00       	.word	0x0040	; ????
     106:	00 00       	nop
     108:	00 00       	nop
     10a:	00 00       	nop
     10c:	44 00       	.word	0x0044	; ????
     10e:	45 00       	.word	0x0045	; ????
     110:	44 00       	.word	0x0044	; ????
     112:	00 00       	nop
     114:	00 00       	nop
     116:	00 00       	nop
     118:	44 00       	.word	0x0044	; ????
     11a:	46 00       	.word	0x0046	; ????
     11c:	48 00       	.word	0x0048	; ????
     11e:	00 00       	nop
     120:	00 00       	nop
     122:	00 00       	nop
     124:	44 00       	.word	0x0044	; ????
     126:	47 00       	.word	0x0047	; ????
     128:	4c 00       	.word	0x004c	; ????
     12a:	00 00       	nop
     12c:	00 00       	nop
     12e:	00 00       	nop
     130:	44 00       	.word	0x0044	; ????
     132:	48 00       	.word	0x0048	; ????
     134:	50 00       	.word	0x0050	; ????
/home/becker/async/autosafe/trunk/tum/wcet-cbmc/benchmarks/ud/ud.c:105
     136:	00 00       	nop
     138:	00 00       	nop
     13a:	00 00       	nop
     13c:	44 00       	.word	0x0044	; ????
     13e:	49 00       	.word	0x0049	; ????
     140:	54 00       	.word	0x0054	; ????
     142:	00 00       	nop
     144:	00 00       	nop
/home/becker/async/autosafe/trunk/tum/wcet-cbmc/benchmarks/ud/ud.c:106
     146:	00 00       	nop
     148:	44 00       	.word	0x0044	; ????
     14a:	4a 00       	.word	0x004a	; ????
     14c:	58 00       	.word	0x0058	; ????
     14e:	00 00       	nop
     150:	00 00       	nop
     152:	00 00       	nop
     154:	44 00       	.word	0x0044	; ????
     156:	4b 00       	.word	0x004b	; ????
     158:	5c 00       	.word	0x005c	; ????
     15a:	00 00       	nop
     15c:	00 00       	nop
     15e:	00 00       	nop
     160:	44 00       	.word	0x0044	; ????
     162:	4c 00       	.word	0x004c	; ????
     164:	60 00       	.word	0x0060	; ????
     166:	00 00       	nop
     168:	00 00       	nop
     16a:	00 00       	nop
     16c:	44 00       	.word	0x0044	; ????
     16e:	4d 00       	.word	0x004d	; ????
     170:	64 00       	.word	0x0064	; ????
     172:	00 00       	nop
     174:	00 00       	nop
     176:	00 00       	nop
     178:	44 00       	.word	0x0044	; ????
     17a:	4e 00       	.word	0x004e	; ????
     17c:	68 00       	.word	0x0068	; ????
     17e:	00 00       	nop
     180:	00 00       	nop
     182:	00 00       	nop
     184:	44 00       	.word	0x0044	; ????
     186:	4f 00       	.word	0x004f	; ????
     188:	6c 00       	.word	0x006c	; ????
     18a:	00 00       	nop
     18c:	00 00       	nop
     18e:	00 00       	nop
     190:	44 00       	.word	0x0044	; ????
     192:	50 00       	.word	0x0050	; ????
     194:	70 00       	.word	0x0070	; ????
     196:	00 00       	nop
     198:	00 00       	nop
     19a:	00 00       	nop
     19c:	44 00       	.word	0x0044	; ????
     19e:	51 00       	.word	0x0051	; ????
     1a0:	74 00       	.word	0x0074	; ????
     1a2:	00 00       	nop
     1a4:	00 00       	nop
     1a6:	00 00       	nop
     1a8:	44 00       	.word	0x0044	; ????
     1aa:	52 00       	.word	0x0052	; ????
     1ac:	78 00       	.word	0x0078	; ????
     1ae:	00 00       	nop
     1b0:	00 00       	nop
     1b2:	00 00       	nop
     1b4:	44 00       	.word	0x0044	; ????
     1b6:	53 00       	.word	0x0053	; ????
     1b8:	7c 00       	.word	0x007c	; ????
     1ba:	00 00       	nop
     1bc:	00 00       	nop
     1be:	00 00       	nop
     1c0:	44 00       	.word	0x0044	; ????
     1c2:	54 00       	.word	0x0054	; ????
     1c4:	80 00       	.word	0x0080	; ????
     1c6:	00 00       	nop
     1c8:	00 00       	nop
/home/becker/async/autosafe/trunk/tum/wcet-cbmc/benchmarks/ud/ud.c:107
     1ca:	00 00       	nop
     1cc:	44 00       	.word	0x0044	; ????
     1ce:	55 00       	.word	0x0055	; ????
     1d0:	84 00       	.word	0x0084	; ????
     1d2:	00 00       	nop
     1d4:	00 00       	nop
     1d6:	00 00       	nop
     1d8:	44 00       	.word	0x0044	; ????
     1da:	56 00       	.word	0x0056	; ????
     1dc:	88 00       	.word	0x0088	; ????
     1de:	00 00       	nop
     1e0:	00 00       	nop
     1e2:	00 00       	nop
     1e4:	44 00       	.word	0x0044	; ????
     1e6:	57 00       	.word	0x0057	; ????
     1e8:	8c 00       	.word	0x008c	; ????
     1ea:	00 00       	nop
     1ec:	00 00       	nop
     1ee:	00 00       	nop
     1f0:	44 00       	.word	0x0044	; ????
     1f2:	58 00       	.word	0x0058	; ????
     1f4:	8c 00       	.word	0x008c	; ????
     1f6:	00 00       	nop
     1f8:	00 00       	nop
     1fa:	00 00       	nop
     1fc:	44 00       	.word	0x0044	; ????
     1fe:	59 00       	.word	0x0059	; ????
     200:	8c 00       	.word	0x008c	; ????
     202:	00 00       	nop
     204:	00 00       	nop
     206:	00 00       	nop
     208:	44 00       	.word	0x0044	; ????
     20a:	5a 00       	.word	0x005a	; ????
     20c:	8c 00       	.word	0x008c	; ????
     20e:	00 00       	nop
/home/becker/async/autosafe/trunk/tum/wcet-cbmc/benchmarks/ud/ud.c:102
     210:	00 00       	nop
     212:	00 00       	nop
     214:	44 00       	.word	0x0044	; ????
     216:	5b 00       	.word	0x005b	; ????
     218:	8c 00       	.word	0x008c	; ????
     21a:	00 00       	nop
     21c:	00 00       	nop
     21e:	00 00       	nop
     220:	44 00       	.word	0x0044	; ????
     222:	5c 00       	.word	0x005c	; ????
     224:	8c 00       	.word	0x008c	; ????
     226:	00 00       	nop
     228:	00 00       	nop
/home/becker/async/autosafe/trunk/tum/wcet-cbmc/benchmarks/ud/ud.c:109
     22a:	00 00       	nop
     22c:	44 00       	.word	0x0044	; ????
     22e:	5d 00       	.word	0x005d	; ????
     230:	8c 00       	.word	0x008c	; ????
     232:	00 00       	nop
     234:	00 00       	nop
     236:	00 00       	nop
     238:	44 00       	.word	0x0044	; ????
     23a:	5e 00       	.word	0x005e	; ????
     23c:	8c 00       	.word	0x008c	; ????
     23e:	00 00       	nop
     240:	00 00       	nop
     242:	00 00       	nop
     244:	44 00       	.word	0x0044	; ????
     246:	5f 00       	.word	0x005f	; ????
     248:	8c 00       	.word	0x008c	; ????
     24a:	00 00       	nop
     24c:	00 00       	nop
/home/becker/async/autosafe/trunk/tum/wcet-cbmc/benchmarks/ud/ud.c:99
     24e:	00 00       	nop
     250:	44 00       	.word	0x0044	; ????
     252:	60 00       	.word	0x0060	; ????
     254:	8c 00       	.word	0x008c	; ????
     256:	00 00       	nop
     258:	00 00       	nop
     25a:	00 00       	nop
     25c:	44 00       	.word	0x0044	; ????
     25e:	61 00       	.word	0x0061	; ????
     260:	8c 00       	.word	0x008c	; ????
     262:	00 00       	nop
     264:	00 00       	nop
     266:	00 00       	nop
/home/becker/async/autosafe/trunk/tum/wcet-cbmc/benchmarks/ud/ud.c:113
     268:	44 00       	.word	0x0044	; ????
     26a:	62 00       	.word	0x0062	; ????
     26c:	8c 00       	.word	0x008c	; ????
     26e:	00 00       	nop
     270:	00 00       	nop
     272:	00 00       	nop
     274:	44 00       	.word	0x0044	; ????
     276:	63 00       	.word	0x0063	; ????
     278:	8c 00       	.word	0x008c	; ????
/home/becker/async/autosafe/trunk/tum/wcet-cbmc/benchmarks/ud/ud.c:114
     27a:	00 00       	nop
     27c:	00 00       	nop
     27e:	00 00       	nop
     280:	44 00       	.word	0x0044	; ????
     282:	64 00       	.word	0x0064	; ????
     284:	8c 00       	.word	0x008c	; ????
     286:	00 00       	nop
     288:	00 00       	nop
     28a:	00 00       	nop
ludcmp():
/home/becker/async/autosafe/trunk/tum/wcet-cbmc/benchmarks/ud/ud.c:117
     28c:	44 00       	.word	0x0044	; ????
     28e:	65 00       	.word	0x0065	; ????
     290:	8c 00       	.word	0x008c	; ????
     292:	00 00       	nop
     294:	00 00       	nop
     296:	00 00       	nop
     298:	44 00       	.word	0x0044	; ????
     29a:	66 00       	.word	0x0066	; ????
     29c:	8c 00       	.word	0x008c	; ????
     29e:	00 00       	nop
     2a0:	00 00       	nop
     2a2:	00 00       	nop
     2a4:	44 00       	.word	0x0044	; ????
     2a6:	67 00       	.word	0x0067	; ????
     2a8:	8c 00       	.word	0x008c	; ????
     2aa:	00 00       	nop
     2ac:	00 00       	nop
     2ae:	00 00       	nop
     2b0:	44 00       	.word	0x0044	; ????
     2b2:	68 00       	.word	0x0068	; ????
     2b4:	8c 00       	.word	0x008c	; ????
     2b6:	00 00       	nop
     2b8:	00 00       	nop
     2ba:	00 00       	nop
     2bc:	44 00       	.word	0x0044	; ????
     2be:	69 00       	.word	0x0069	; ????
     2c0:	8c 00       	.word	0x008c	; ????
/home/becker/async/autosafe/trunk/tum/wcet-cbmc/benchmarks/ud/ud.c:122
     2c2:	00 00       	nop
     2c4:	00 00       	nop
     2c6:	00 00       	nop
/home/becker/async/autosafe/trunk/tum/wcet-cbmc/benchmarks/ud/ud.c:125
     2c8:	44 00       	.word	0x0044	; ????
     2ca:	6a 00       	.word	0x006a	; ????
     2cc:	8c 00       	.word	0x008c	; ????
     2ce:	00 00       	nop
     2d0:	00 00       	nop
     2d2:	00 00       	nop
/home/becker/async/autosafe/trunk/tum/wcet-cbmc/benchmarks/ud/ud.c:127
     2d4:	44 00       	.word	0x0044	; ????
     2d6:	6b 00       	.word	0x006b	; ????
     2d8:	8c 00       	.word	0x008c	; ????
     2da:	00 00       	nop
     2dc:	00 00       	nop
     2de:	00 00       	nop
     2e0:	44 00       	.word	0x0044	; ????
     2e2:	6c 00       	.word	0x006c	; ????
     2e4:	8c 00       	.word	0x008c	; ????
     2e6:	00 00       	nop
     2e8:	00 00       	nop
     2ea:	00 00       	nop
     2ec:	44 00       	.word	0x0044	; ????
     2ee:	6d 00       	.word	0x006d	; ????
     2f0:	8c 00       	.word	0x008c	; ????
     2f2:	00 00       	nop
     2f4:	00 00       	nop
     2f6:	00 00       	nop
     2f8:	44 00       	.word	0x0044	; ????
     2fa:	6e 00       	.word	0x006e	; ????
     2fc:	8c 00       	.word	0x008c	; ????
     2fe:	00 00       	nop
     300:	00 00       	nop
     302:	00 00       	nop
     304:	44 00       	.word	0x0044	; ????
     306:	6f 00       	.word	0x006f	; ????
     308:	8c 00       	.word	0x008c	; ????
/home/becker/async/autosafe/trunk/tum/wcet-cbmc/benchmarks/ud/ud.c:128
     30a:	00 00       	nop
     30c:	00 00       	nop
     30e:	00 00       	nop
     310:	44 00       	.word	0x0044	; ????
     312:	70 00       	.word	0x0070	; ????
/home/becker/async/autosafe/trunk/tum/wcet-cbmc/benchmarks/ud/ud.c:131
     314:	8c 00       	.word	0x008c	; ????
     316:	00 00       	nop
     318:	00 00       	nop
/home/becker/async/autosafe/trunk/tum/wcet-cbmc/benchmarks/ud/ud.c:132
     31a:	00 00       	nop
     31c:	44 00       	.word	0x0044	; ????
     31e:	71 00       	.word	0x0071	; ????
     320:	8c 00       	.word	0x008c	; ????
     322:	00 00       	nop
     324:	00 00       	nop
     326:	00 00       	nop
     328:	44 00       	.word	0x0044	; ????
     32a:	72 00       	.word	0x0072	; ????
     32c:	8c 00       	.word	0x008c	; ????
     32e:	00 00       	nop
     330:	00 00       	nop
     332:	00 00       	nop
     334:	44 00       	.word	0x0044	; ????
     336:	73 00       	.word	0x0073	; ????
     338:	8c 00       	.word	0x008c	; ????
     33a:	00 00       	nop
     33c:	00 00       	nop
     33e:	00 00       	nop
     340:	44 00       	.word	0x0044	; ????
     342:	74 00       	.word	0x0074	; ????
     344:	8c 00       	.word	0x008c	; ????
     346:	00 00       	nop
     348:	00 00       	nop
     34a:	00 00       	nop
     34c:	44 00       	.word	0x0044	; ????
     34e:	75 00       	.word	0x0075	; ????
     350:	8c 00       	.word	0x008c	; ????
     352:	00 00       	nop
     354:	00 00       	nop
     356:	00 00       	nop
     358:	44 00       	.word	0x0044	; ????
     35a:	76 00       	.word	0x0076	; ????
     35c:	8c 00       	.word	0x008c	; ????
     35e:	00 00       	nop
     360:	00 00       	nop
     362:	00 00       	nop
     364:	44 00       	.word	0x0044	; ????
     366:	77 00       	.word	0x0077	; ????
     368:	8c 00       	.word	0x008c	; ????
     36a:	00 00       	nop
     36c:	00 00       	nop
     36e:	00 00       	nop
     370:	44 00       	.word	0x0044	; ????
     372:	78 00       	.word	0x0078	; ????
     374:	8c 00       	.word	0x008c	; ????
     376:	00 00       	nop
     378:	00 00       	nop
     37a:	00 00       	nop
     37c:	44 00       	.word	0x0044	; ????
     37e:	79 00       	.word	0x0079	; ????
     380:	8c 00       	.word	0x008c	; ????
     382:	00 00       	nop
     384:	00 00       	nop
     386:	00 00       	nop
     388:	44 00       	.word	0x0044	; ????
     38a:	7a 00       	.word	0x007a	; ????
     38c:	8c 00       	.word	0x008c	; ????
     38e:	00 00       	nop
     390:	00 00       	nop
     392:	00 00       	nop
     394:	44 00       	.word	0x0044	; ????
     396:	7b 00       	.word	0x007b	; ????
     398:	8c 00       	.word	0x008c	; ????
     39a:	00 00       	nop
     39c:	00 00       	nop
     39e:	00 00       	nop
     3a0:	44 00       	.word	0x0044	; ????
/home/becker/async/autosafe/trunk/tum/wcet-cbmc/benchmarks/ud/ud.c:131
     3a2:	7c 00       	.word	0x007c	; ????
     3a4:	8c 00       	.word	0x008c	; ????
     3a6:	00 00       	nop
     3a8:	00 00       	nop
     3aa:	00 00       	nop
     3ac:	44 00       	.word	0x0044	; ????
     3ae:	7d 00       	.word	0x007d	; ????
     3b0:	8c 00       	.word	0x008c	; ????
     3b2:	00 00       	nop
     3b4:	00 00       	nop
     3b6:	00 00       	nop
     3b8:	44 00       	.word	0x0044	; ????
     3ba:	7e 00       	.word	0x007e	; ????
/home/becker/async/autosafe/trunk/tum/wcet-cbmc/benchmarks/ud/ud.c:133
     3bc:	8c 00       	.word	0x008c	; ????
     3be:	00 00       	nop
     3c0:	00 00       	nop
     3c2:	00 00       	nop
     3c4:	44 00       	.word	0x0044	; ????
     3c6:	7f 00       	.word	0x007f	; ????
     3c8:	8c 00       	.word	0x008c	; ????
     3ca:	00 00       	nop
     3cc:	00 00       	nop
     3ce:	00 00       	nop
     3d0:	44 00       	.word	0x0044	; ????
     3d2:	80 00       	.word	0x0080	; ????
     3d4:	8c 00       	.word	0x008c	; ????
     3d6:	00 00       	nop
     3d8:	00 00       	nop
     3da:	00 00       	nop
     3dc:	44 00       	.word	0x0044	; ????
     3de:	81 00       	.word	0x0081	; ????
     3e0:	8c 00       	.word	0x008c	; ????
     3e2:	00 00       	nop
     3e4:	00 00       	nop
     3e6:	00 00       	nop
     3e8:	44 00       	.word	0x0044	; ????
     3ea:	82 00       	.word	0x0082	; ????
     3ec:	8c 00       	.word	0x008c	; ????
     3ee:	00 00       	nop
     3f0:	00 00       	nop
     3f2:	00 00       	nop
     3f4:	44 00       	.word	0x0044	; ????
     3f6:	83 00       	.word	0x0083	; ????
     3f8:	8c 00       	.word	0x008c	; ????
     3fa:	00 00       	nop
     3fc:	00 00       	nop
     3fe:	00 00       	nop
     400:	44 00       	.word	0x0044	; ????
     402:	84 00       	.word	0x0084	; ????
     404:	8c 00       	.word	0x008c	; ????
     406:	00 00       	nop
     408:	00 00       	nop
     40a:	00 00       	nop
     40c:	44 00       	.word	0x0044	; ????
     40e:	85 00       	.word	0x0085	; ????
     410:	8c 00       	.word	0x008c	; ????
     412:	00 00       	nop
     414:	00 00       	nop
     416:	00 00       	nop
     418:	44 00       	.word	0x0044	; ????
     41a:	86 00       	.word	0x0086	; ????
/home/becker/async/autosafe/trunk/tum/wcet-cbmc/benchmarks/ud/ud.c:125
     41c:	8c 00       	.word	0x008c	; ????
     41e:	00 00       	nop
     420:	00 00       	nop
     422:	00 00       	nop
     424:	44 00       	.word	0x0044	; ????
     426:	87 00       	.word	0x0087	; ????
     428:	8c 00       	.word	0x008c	; ????
     42a:	00 00       	nop
     42c:	00 00       	nop
     42e:	00 00       	nop
     430:	44 00       	.word	0x0044	; ????
     432:	88 00       	.word	0x0088	; ????
     434:	8c 00       	.word	0x008c	; ????
     436:	00 00       	nop
     438:	00 00       	nop
     43a:	00 00       	nop
     43c:	44 00       	.word	0x0044	; ????
/home/becker/async/autosafe/trunk/tum/wcet-cbmc/benchmarks/ud/ud.c:135
     43e:	89 00       	.word	0x0089	; ????
     440:	8c 00       	.word	0x008c	; ????
     442:	00 00       	nop
     444:	00 00       	nop
     446:	00 00       	nop
     448:	44 00       	.word	0x0044	; ????
/home/becker/async/autosafe/trunk/tum/wcet-cbmc/benchmarks/ud/ud.c:137
     44a:	8a 00       	.word	0x008a	; ????
     44c:	8c 00       	.word	0x008c	; ????
     44e:	00 00       	nop
     450:	00 00       	nop
     452:	00 00       	nop
     454:	44 00       	.word	0x0044	; ????
     456:	8b 00       	.word	0x008b	; ????
     458:	8c 00       	.word	0x008c	; ????
     45a:	00 00       	nop
     45c:	00 00       	nop
     45e:	00 00       	nop
     460:	44 00       	.word	0x0044	; ????
     462:	8c 00       	.word	0x008c	; ????
     464:	8c 00       	.word	0x008c	; ????
     466:	00 00       	nop
     468:	00 00       	nop
     46a:	00 00       	nop
     46c:	44 00       	.word	0x0044	; ????
     46e:	8d 00       	.word	0x008d	; ????
     470:	8c 00       	.word	0x008c	; ????
     472:	00 00       	nop
     474:	00 00       	nop
     476:	00 00       	nop
     478:	44 00       	.word	0x0044	; ????
     47a:	8e 00       	.word	0x008e	; ????
     47c:	8c 00       	.word	0x008c	; ????
     47e:	00 00       	nop
     480:	00 00       	nop
/home/becker/async/autosafe/trunk/tum/wcet-cbmc/benchmarks/ud/ud.c:138
     482:	00 00       	nop
     484:	44 00       	.word	0x0044	; ????
     486:	8f 00       	.word	0x008f	; ????
/home/becker/async/autosafe/trunk/tum/wcet-cbmc/benchmarks/ud/ud.c:139
     488:	8c 00       	.word	0x008c	; ????
     48a:	00 00       	nop
     48c:	00 00       	nop
     48e:	00 00       	nop
     490:	44 00       	.word	0x0044	; ????
     492:	90 00       	.word	0x0090	; ????
     494:	8c 00       	.word	0x008c	; ????
     496:	00 00       	nop
     498:	00 00       	nop
     49a:	00 00       	nop
     49c:	44 00       	.word	0x0044	; ????
     49e:	91 00       	.word	0x0091	; ????
     4a0:	8c 00       	.word	0x008c	; ????
     4a2:	00 00       	nop
     4a4:	00 00       	nop
     4a6:	00 00       	nop
     4a8:	44 00       	.word	0x0044	; ????
     4aa:	92 00       	.word	0x0092	; ????
     4ac:	8c 00       	.word	0x008c	; ????
     4ae:	00 00       	nop
     4b0:	00 00       	nop
     4b2:	00 00       	nop
     4b4:	44 00       	.word	0x0044	; ????
     4b6:	93 00       	.word	0x0093	; ????
     4b8:	8c 00       	.word	0x008c	; ????
     4ba:	00 00       	nop
     4bc:	00 00       	nop
     4be:	00 00       	nop
     4c0:	44 00       	.word	0x0044	; ????
     4c2:	94 00       	.word	0x0094	; ????
     4c4:	8c 00       	.word	0x008c	; ????
     4c6:	00 00       	nop
     4c8:	00 00       	nop
     4ca:	00 00       	nop
     4cc:	44 00       	.word	0x0044	; ????
     4ce:	95 00       	.word	0x0095	; ????
     4d0:	8c 00       	.word	0x008c	; ????
     4d2:	00 00       	nop
     4d4:	00 00       	nop
     4d6:	00 00       	nop
     4d8:	44 00       	.word	0x0044	; ????
     4da:	96 00       	.word	0x0096	; ????
     4dc:	8c 00       	.word	0x008c	; ????
     4de:	00 00       	nop
     4e0:	00 00       	nop
     4e2:	00 00       	nop
     4e4:	44 00       	.word	0x0044	; ????
     4e6:	97 00       	.word	0x0097	; ????
     4e8:	8c 00       	.word	0x008c	; ????
     4ea:	00 00       	nop
     4ec:	00 00       	nop
     4ee:	00 00       	nop
     4f0:	44 00       	.word	0x0044	; ????
     4f2:	98 00       	.word	0x0098	; ????
     4f4:	8c 00       	.word	0x008c	; ????
     4f6:	00 00       	nop
     4f8:	00 00       	nop
     4fa:	00 00       	nop
     4fc:	44 00       	.word	0x0044	; ????
     4fe:	99 00       	.word	0x0099	; ????
     500:	8c 00       	.word	0x008c	; ????
     502:	00 00       	nop
     504:	00 00       	nop
     506:	00 00       	nop
     508:	44 00       	.word	0x0044	; ????
     50a:	9a 00       	.word	0x009a	; ????
     50c:	8c 00       	.word	0x008c	; ????
     50e:	00 00       	nop
     510:	00 00       	nop
/home/becker/async/autosafe/trunk/tum/wcet-cbmc/benchmarks/ud/ud.c:138
     512:	00 00       	nop
     514:	44 00       	.word	0x0044	; ????
     516:	9b 00       	.word	0x009b	; ????
     518:	8c 00       	.word	0x008c	; ????
     51a:	00 00       	nop
     51c:	00 00       	nop
     51e:	00 00       	nop
     520:	44 00       	.word	0x0044	; ????
     522:	9c 00       	.word	0x009c	; ????
     524:	8c 00       	.word	0x008c	; ????
     526:	00 00       	nop
     528:	00 00       	nop
     52a:	00 00       	nop
/home/becker/async/autosafe/trunk/tum/wcet-cbmc/benchmarks/ud/ud.c:140
     52c:	44 00       	.word	0x0044	; ????
     52e:	9d 00       	.word	0x009d	; ????
     530:	8c 00       	.word	0x008c	; ????
     532:	00 00       	nop
     534:	00 00       	nop
     536:	00 00       	nop
     538:	44 00       	.word	0x0044	; ????
     53a:	9e 00       	.word	0x009e	; ????
     53c:	8c 00       	.word	0x008c	; ????
     53e:	00 00       	nop
     540:	00 00       	nop
     542:	00 00       	nop
     544:	44 00       	.word	0x0044	; ????
     546:	9f 00       	.word	0x009f	; ????
     548:	8c 00       	.word	0x008c	; ????
     54a:	00 00       	nop
     54c:	00 00       	nop
     54e:	00 00       	nop
     550:	44 00       	.word	0x0044	; ????
     552:	a0 00       	.word	0x00a0	; ????
     554:	8c 00       	.word	0x008c	; ????
     556:	00 00       	nop
     558:	00 00       	nop
     55a:	00 00       	nop
     55c:	44 00       	.word	0x0044	; ????
     55e:	a1 00       	.word	0x00a1	; ????
     560:	8c 00       	.word	0x008c	; ????
     562:	00 00       	nop
     564:	00 00       	nop
/home/becker/async/autosafe/trunk/tum/wcet-cbmc/benchmarks/ud/ud.c:135
     566:	00 00       	nop
     568:	44 00       	.word	0x0044	; ????
     56a:	a2 00       	.word	0x00a2	; ????
     56c:	8c 00       	.word	0x008c	; ????
     56e:	00 00       	nop
     570:	00 00       	nop
     572:	00 00       	nop
     574:	44 00       	.word	0x0044	; ????
     576:	a3 00       	.word	0x00a3	; ????
     578:	8c 00       	.word	0x008c	; ????
     57a:	00 00       	nop
     57c:	00 00       	nop
     57e:	00 00       	nop
     580:	44 00       	.word	0x0044	; ????
     582:	a4 00       	.word	0x00a4	; ????
     584:	8c 00       	.word	0x008c	; ????
     586:	00 00       	nop
/home/becker/async/autosafe/trunk/tum/wcet-cbmc/benchmarks/ud/ud.c:122
     588:	00 00       	nop
     58a:	00 00       	nop
     58c:	44 00       	.word	0x0044	; ????
     58e:	a5 00       	.word	0x00a5	; ????
     590:	8c 00       	.word	0x008c	; ????
     592:	00 00       	nop
     594:	00 00       	nop
     596:	00 00       	nop
     598:	44 00       	.word	0x0044	; ????
     59a:	a6 00       	.word	0x00a6	; ????
     59c:	8c 00       	.word	0x008c	; ????
     59e:	00 00       	nop
     5a0:	00 00       	nop
     5a2:	00 00       	nop
     5a4:	44 00       	.word	0x0044	; ????
     5a6:	a7 00       	.word	0x00a7	; ????
     5a8:	8c 00       	.word	0x008c	; ????
/home/becker/async/autosafe/trunk/tum/wcet-cbmc/benchmarks/ud/ud.c:143
     5aa:	00 00       	nop
     5ac:	00 00       	nop
     5ae:	00 00       	nop
     5b0:	44 00       	.word	0x0044	; ????
     5b2:	a8 00       	.word	0x00a8	; ????
     5b4:	8c 00       	.word	0x008c	; ????
     5b6:	00 00       	nop
     5b8:	00 00       	nop
     5ba:	00 00       	nop
     5bc:	44 00       	.word	0x0044	; ????
     5be:	a9 00       	.word	0x00a9	; ????
     5c0:	8c 00       	.word	0x008c	; ????
/home/becker/async/autosafe/trunk/tum/wcet-cbmc/benchmarks/ud/ud.c:144
     5c2:	00 00       	nop
     5c4:	00 00       	nop
     5c6:	00 00       	nop
     5c8:	44 00       	.word	0x0044	; ????
     5ca:	aa 00       	.word	0x00aa	; ????
/home/becker/async/autosafe/trunk/tum/wcet-cbmc/benchmarks/ud/ud.c:146
     5cc:	8c 00       	.word	0x008c	; ????
     5ce:	00 00       	nop
     5d0:	00 00       	nop
     5d2:	00 00       	nop
     5d4:	44 00       	.word	0x0044	; ????
     5d6:	ab 00       	.word	0x00ab	; ????
     5d8:	8c 00       	.word	0x008c	; ????
     5da:	00 00       	nop
     5dc:	00 00       	nop
     5de:	00 00       	nop
     5e0:	44 00       	.word	0x0044	; ????
     5e2:	ac 00       	.word	0x00ac	; ????
     5e4:	8c 00       	.word	0x008c	; ????
     5e6:	00 00       	nop
     5e8:	00 00       	nop
     5ea:	00 00       	nop
     5ec:	44 00       	.word	0x0044	; ????
/home/becker/async/autosafe/trunk/tum/wcet-cbmc/benchmarks/ud/ud.c:147
     5ee:	ad 00       	.word	0x00ad	; ????
     5f0:	8c 00       	.word	0x008c	; ????
     5f2:	00 00       	nop
/home/becker/async/autosafe/trunk/tum/wcet-cbmc/benchmarks/ud/ud.c:148
     5f4:	00 00       	nop
     5f6:	00 00       	nop
     5f8:	44 00       	.word	0x0044	; ????
     5fa:	ae 00       	.word	0x00ae	; ????
     5fc:	8c 00       	.word	0x008c	; ????
     5fe:	00 00       	nop
     600:	00 00       	nop
     602:	00 00       	nop
     604:	44 00       	.word	0x0044	; ????
     606:	af 00       	.word	0x00af	; ????
     608:	8c 00       	.word	0x008c	; ????
     60a:	00 00       	nop
     60c:	00 00       	nop
     60e:	00 00       	nop
     610:	44 00       	.word	0x0044	; ????
     612:	b0 00       	.word	0x00b0	; ????
     614:	8c 00       	.word	0x008c	; ????
     616:	00 00       	nop
     618:	00 00       	nop
     61a:	00 00       	nop
     61c:	44 00       	.word	0x0044	; ????
     61e:	b1 00       	.word	0x00b1	; ????
     620:	8c 00       	.word	0x008c	; ????
     622:	00 00       	nop
     624:	00 00       	nop
     626:	00 00       	nop
     628:	44 00       	.word	0x0044	; ????
     62a:	b2 00       	.word	0x00b2	; ????
     62c:	8c 00       	.word	0x008c	; ????
     62e:	00 00       	nop
     630:	00 00       	nop
     632:	00 00       	nop
     634:	44 00       	.word	0x0044	; ????
     636:	b3 00       	.word	0x00b3	; ????
     638:	8c 00       	.word	0x008c	; ????
     63a:	00 00       	nop
     63c:	00 00       	nop
     63e:	00 00       	nop
     640:	24 00       	.word	0x0024	; ????
     642:	00 00       	nop
     644:	8c 00       	.word	0x008c	; ????
     646:	00 00       	nop
     648:	41 00       	.word	0x0041	; ????
     64a:	00 00       	nop
     64c:	24 00       	.word	0x0024	; ????
     64e:	c0 00       	.word	0x00c0	; ????
     650:	b0 00       	.word	0x00b0	; ????
     652:	00 00       	nop
     654:	00 00       	nop
     656:	00 00       	nop
     658:	44 00       	.word	0x0044	; ????
     65a:	c3 00       	.word	0x00c3	; ????
	...
     664:	24 00       	.word	0x0024	; ????
     666:	00 00       	nop
     668:	04 00       	.word	0x0004	; ????
     66a:	00 00       	nop
     66c:	00 00       	nop
     66e:	00 00       	nop
/home/becker/async/autosafe/trunk/tum/wcet-cbmc/benchmarks/ud/ud.c:147
     670:	44 00       	.word	0x0044	; ????
     672:	d8 00       	.word	0x00d8	; ????
     674:	8c 00       	.word	0x008c	; ????
     676:	00 00       	nop
     678:	00 00       	nop
     67a:	00 00       	nop
     67c:	44 00       	.word	0x0044	; ????
     67e:	d9 00       	.word	0x00d9	; ????
     680:	8e 00       	.word	0x008e	; ????
     682:	00 00       	nop
     684:	00 00       	nop
     686:	00 00       	nop
     688:	44 00       	.word	0x0044	; ????
/home/becker/async/autosafe/trunk/tum/wcet-cbmc/benchmarks/ud/ud.c:149
     68a:	da 00       	.word	0x00da	; ????
     68c:	90 00       	.word	0x0090	; ????
     68e:	00 00       	nop
     690:	00 00       	nop
     692:	00 00       	nop
     694:	44 00       	.word	0x0044	; ????
     696:	dc 00       	.word	0x00dc	; ????
     698:	92 00       	.word	0x0092	; ????
     69a:	00 00       	nop
     69c:	00 00       	nop
     69e:	00 00       	nop
     6a0:	44 00       	.word	0x0044	; ????
     6a2:	dd 00       	.word	0x00dd	; ????
     6a4:	94 00       	.word	0x0094	; ????
     6a6:	00 00       	nop
     6a8:	00 00       	nop
     6aa:	00 00       	nop
     6ac:	44 00       	.word	0x0044	; ????
     6ae:	df 00       	.word	0x00df	; ????
     6b0:	96 00       	.word	0x0096	; ????
     6b2:	00 00       	nop
     6b4:	00 00       	nop
     6b6:	00 00       	nop
/home/becker/async/autosafe/trunk/tum/wcet-cbmc/benchmarks/ud/ud.c:144
     6b8:	44 00       	.word	0x0044	; ????
     6ba:	24 01       	movw	r4, r8
     6bc:	a8 00       	.word	0x00a8	; ????
     6be:	00 00       	nop
     6c0:	00 00       	nop
     6c2:	00 00       	nop
     6c4:	44 00       	.word	0x0044	; ????
     6c6:	25 01       	movw	r4, r10
     6c8:	ac 00       	.word	0x00ac	; ????
     6ca:	00 00       	nop
     6cc:	54 00       	.word	0x0054	; ????
     6ce:	00 00       	nop
     6d0:	64 00       	.word	0x0064	; ????
     6d2:	00 00       	nop
     6d4:	b8 08       	sbc	r11, r8
     6d6:	00 00       	nop
     6d8:	64 00       	.word	0x0064	; ????
/home/becker/async/autosafe/trunk/tum/wcet-cbmc/benchmarks/ud/ud.c:151
     6da:	00 00       	nop
     6dc:	84 00       	.word	0x0084	; ????
     6de:	00 00       	nop
     6e0:	b8 08       	sbc	r11, r8
     6e2:	00 00       	nop
     6e4:	00 00       	nop
     6e6:	00 00       	nop
     6e8:	44 00       	.word	0x0044	; ????
     6ea:	27 00       	.word	0x0027	; ????
     6ec:	b8 08       	sbc	r11, r8
     6ee:	00 00       	nop
     6f0:	00 00       	nop
     6f2:	00 00       	nop
     6f4:	44 00       	.word	0x0044	; ????
     6f6:	28 00       	.word	0x0028	; ????
     6f8:	b8 08       	sbc	r11, r8
     6fa:	00 00       	nop
     6fc:	00 00       	nop
     6fe:	00 00       	nop
     700:	44 00       	.word	0x0044	; ????
     702:	29 00       	.word	0x0029	; ????
     704:	ba 08       	sbc	r11, r10
     706:	00 00       	nop
     708:	00 00       	nop
     70a:	00 00       	nop
     70c:	44 00       	.word	0x0044	; ????
     70e:	2a 00       	.word	0x002a	; ????
     710:	ba 08       	sbc	r11, r10
     712:	00 00       	nop
     714:	00 00       	nop
     716:	00 00       	nop
     718:	44 00       	.word	0x0044	; ????
     71a:	2b 00       	.word	0x002b	; ????
     71c:	bc 08       	sbc	r11, r12
     71e:	00 00       	nop
     720:	00 00       	nop
     722:	00 00       	nop
     724:	44 00       	.word	0x0044	; ????
     726:	2c 00       	.word	0x002c	; ????
     728:	be 08       	sbc	r11, r14
     72a:	00 00       	nop
     72c:	00 00       	nop
     72e:	00 00       	nop
     730:	44 00       	.word	0x0044	; ????
     732:	2d 00       	.word	0x002d	; ????
     734:	c0 08       	sbc	r12, r0
     736:	00 00       	nop
     738:	00 00       	nop
     73a:	00 00       	nop
     73c:	44 00       	.word	0x0044	; ????
     73e:	2e 00       	.word	0x002e	; ????
     740:	c2 08       	sbc	r12, r2
     742:	00 00       	nop
     744:	81 00       	.word	0x0081	; ????
     746:	00 00       	nop
     748:	64 00       	.word	0x0064	; ????
     74a:	00 00       	nop
     74c:	b8 08       	sbc	r11, r8
     74e:	00 00       	nop
     750:	91 00       	.word	0x0091	; ????
     752:	00 00       	nop
     754:	84 00       	.word	0x0084	; ????
     756:	00 00       	nop
/home/becker/async/autosafe/trunk/tum/wcet-cbmc/benchmarks/ud/ud.c:152
     758:	b8 08       	sbc	r11, r8
     75a:	00 00       	nop
     75c:	00 00       	nop
     75e:	00 00       	nop
     760:	44 00       	.word	0x0044	; ????
     762:	31 00       	.word	0x0031	; ????
     764:	b8 08       	sbc	r11, r8
     766:	00 00       	nop
     768:	00 00       	nop
     76a:	00 00       	nop
/home/becker/async/autosafe/trunk/tum/wcet-cbmc/benchmarks/ud/ud.c:154
     76c:	44 00       	.word	0x0044	; ????
     76e:	33 00       	.word	0x0033	; ????
     770:	c2 08       	sbc	r12, r2
     772:	00 00       	nop
     774:	00 00       	nop
     776:	00 00       	nop
     778:	44 00       	.word	0x0044	; ????
     77a:	34 00       	.word	0x0034	; ????
     77c:	c4 08       	sbc	r12, r4
     77e:	00 00       	nop
     780:	00 00       	nop
     782:	00 00       	nop
     784:	44 00       	.word	0x0044	; ????
     786:	35 00       	.word	0x0035	; ????
     788:	c6 08       	sbc	r12, r6
     78a:	00 00       	nop
     78c:	00 00       	nop
     78e:	00 00       	nop
     790:	44 00       	.word	0x0044	; ????
     792:	36 00       	.word	0x0036	; ????
     794:	c8 08       	sbc	r12, r8
/home/becker/async/autosafe/trunk/tum/wcet-cbmc/benchmarks/ud/ud.c:155
     796:	00 00       	nop
     798:	00 00       	nop
     79a:	00 00       	nop
     79c:	44 00       	.word	0x0044	; ????
     79e:	37 00       	.word	0x0037	; ????
     7a0:	ca 08       	sbc	r12, r10
/home/becker/async/autosafe/trunk/tum/wcet-cbmc/benchmarks/ud/ud.c:156
     7a2:	00 00       	nop
     7a4:	00 00       	nop
     7a6:	00 00       	nop
     7a8:	44 00       	.word	0x0044	; ????
     7aa:	38 00       	.word	0x0038	; ????
     7ac:	cc 08       	sbc	r12, r12
     7ae:	00 00       	nop
     7b0:	00 00       	nop
     7b2:	00 00       	nop
     7b4:	44 00       	.word	0x0044	; ????
     7b6:	39 00       	.word	0x0039	; ????
     7b8:	ce 08       	sbc	r12, r14
     7ba:	00 00       	nop
     7bc:	00 00       	nop
     7be:	00 00       	nop
     7c0:	44 00       	.word	0x0044	; ????
     7c2:	3a 00       	.word	0x003a	; ????
     7c4:	d0 08       	sbc	r13, r0
     7c6:	00 00       	nop
     7c8:	00 00       	nop
     7ca:	00 00       	nop
     7cc:	44 00       	.word	0x0044	; ????
     7ce:	3c 00       	.word	0x003c	; ????
     7d0:	d2 08       	sbc	r13, r2
     7d2:	00 00       	nop
     7d4:	00 00       	nop
     7d6:	00 00       	nop
     7d8:	44 00       	.word	0x0044	; ????
     7da:	3e 00       	.word	0x003e	; ????
     7dc:	d4 08       	sbc	r13, r4
     7de:	00 00       	nop
     7e0:	00 00       	nop
     7e2:	00 00       	nop
     7e4:	44 00       	.word	0x0044	; ????
     7e6:	3f 00       	.word	0x003f	; ????
     7e8:	d6 08       	sbc	r13, r6
     7ea:	00 00       	nop
     7ec:	00 00       	nop
     7ee:	00 00       	nop
     7f0:	44 00       	.word	0x0044	; ????
     7f2:	41 00       	.word	0x0041	; ????
     7f4:	d8 08       	sbc	r13, r8
     7f6:	00 00       	nop
     7f8:	00 00       	nop
     7fa:	00 00       	nop
     7fc:	44 00       	.word	0x0044	; ????
     7fe:	42 00       	.word	0x0042	; ????
     800:	da 08       	sbc	r13, r10
     802:	00 00       	nop
     804:	00 00       	nop
     806:	00 00       	nop
     808:	44 00       	.word	0x0044	; ????
     80a:	44 00       	.word	0x0044	; ????
     80c:	dc 08       	sbc	r13, r12
     80e:	00 00       	nop
     810:	00 00       	nop
     812:	00 00       	nop
     814:	44 00       	.word	0x0044	; ????
/home/becker/async/autosafe/trunk/tum/wcet-cbmc/benchmarks/ud/ud.c:155
     816:	45 00       	.word	0x0045	; ????
     818:	dc 08       	sbc	r13, r12
     81a:	00 00       	nop
     81c:	00 00       	nop
     81e:	00 00       	nop
     820:	44 00       	.word	0x0044	; ????
     822:	46 00       	.word	0x0046	; ????
     824:	de 08       	sbc	r13, r14
     826:	00 00       	nop
     828:	00 00       	nop
     82a:	00 00       	nop
     82c:	44 00       	.word	0x0044	; ????
     82e:	47 00       	.word	0x0047	; ????
     830:	e0 08       	sbc	r14, r0
     832:	00 00       	nop
     834:	00 00       	nop
     836:	00 00       	nop
/home/becker/async/autosafe/trunk/tum/wcet-cbmc/benchmarks/ud/ud.c:157
     838:	44 00       	.word	0x0044	; ????
     83a:	49 00       	.word	0x0049	; ????
     83c:	e2 08       	sbc	r14, r2
     83e:	00 00       	nop
     840:	00 00       	nop
     842:	00 00       	nop
     844:	44 00       	.word	0x0044	; ????
     846:	4a 00       	.word	0x004a	; ????
     848:	e4 08       	sbc	r14, r4
     84a:	00 00       	nop
     84c:	00 00       	nop
     84e:	00 00       	nop
     850:	44 00       	.word	0x0044	; ????
     852:	4b 00       	.word	0x004b	; ????
     854:	e6 08       	sbc	r14, r6
     856:	00 00       	nop
     858:	00 00       	nop
     85a:	00 00       	nop
     85c:	44 00       	.word	0x0044	; ????
     85e:	4c 00       	.word	0x004c	; ????
     860:	e8 08       	sbc	r14, r8
     862:	00 00       	nop
     864:	00 00       	nop
     866:	00 00       	nop
     868:	44 00       	.word	0x0044	; ????
     86a:	4d 00       	.word	0x004d	; ????
     86c:	ea 08       	sbc	r14, r10
     86e:	00 00       	nop
     870:	00 00       	nop
     872:	00 00       	nop
     874:	44 00       	.word	0x0044	; ????
     876:	4e 00       	.word	0x004e	; ????
     878:	ec 08       	sbc	r14, r12
     87a:	00 00       	nop
     87c:	00 00       	nop
     87e:	00 00       	nop
     880:	44 00       	.word	0x0044	; ????
     882:	4f 00       	.word	0x004f	; ????
/home/becker/async/autosafe/trunk/tum/wcet-cbmc/benchmarks/ud/ud.c:152
     884:	ee 08       	sbc	r14, r14
     886:	00 00       	nop
     888:	00 00       	nop
     88a:	00 00       	nop
     88c:	44 00       	.word	0x0044	; ????
     88e:	50 00       	.word	0x0050	; ????
     890:	f0 08       	sbc	r15, r0
     892:	00 00       	nop
     894:	00 00       	nop
     896:	00 00       	nop
/home/becker/async/autosafe/trunk/tum/wcet-cbmc/benchmarks/ud/ud.c:159
     898:	44 00       	.word	0x0044	; ????
     89a:	51 00       	.word	0x0051	; ????
/home/becker/async/autosafe/trunk/tum/wcet-cbmc/benchmarks/ud/ud.c:160
     89c:	f2 08       	sbc	r15, r2
     89e:	00 00       	nop
     8a0:	00 00       	nop
     8a2:	00 00       	nop
     8a4:	44 00       	.word	0x0044	; ????
     8a6:	53 00       	.word	0x0053	; ????
     8a8:	f4 08       	sbc	r15, r4
     8aa:	00 00       	nop
     8ac:	00 00       	nop
     8ae:	00 00       	nop
     8b0:	44 00       	.word	0x0044	; ????
     8b2:	54 00       	.word	0x0054	; ????
     8b4:	f6 08       	sbc	r15, r6
     8b6:	00 00       	nop
../../../libm/fplib/fp_zero.S:39
     8b8:	00 00       	nop
     8ba:	00 00       	nop
     8bc:	44 00       	.word	0x0044	; ????
     8be:	55 00       	.word	0x0055	; ????
     8c0:	f8 08       	sbc	r15, r8
     8c2:	00 00       	nop
     8c4:	00 00       	nop
     8c6:	00 00       	nop
     8c8:	44 00       	.word	0x0044	; ????
     8ca:	56 00       	.word	0x0056	; ????
     8cc:	fa 08       	sbc	r15, r10
     8ce:	00 00       	nop
     8d0:	00 00       	nop
     8d2:	00 00       	nop
     8d4:	44 00       	.word	0x0044	; ????
     8d6:	57 00       	.word	0x0057	; ????
     8d8:	fc 08       	sbc	r15, r12
     8da:	00 00       	nop
     8dc:	00 00       	nop
     8de:	00 00       	nop
     8e0:	44 00       	.word	0x0044	; ????
     8e2:	59 00       	.word	0x0059	; ????
     8e4:	fe 08       	sbc	r15, r14
     8e6:	00 00       	nop
     8e8:	00 00       	nop
     8ea:	00 00       	nop
     8ec:	44 00       	.word	0x0044	; ????
     8ee:	5a 00       	.word	0x005a	; ????
     8f0:	00 09       	sbc	r16, r0
     8f2:	00 00       	nop
     8f4:	00 00       	nop
     8f6:	00 00       	nop
     8f8:	44 00       	.word	0x0044	; ????
     8fa:	5b 00       	.word	0x005b	; ????
     8fc:	02 09       	sbc	r16, r2
     8fe:	00 00       	nop
     900:	00 00       	nop
     902:	00 00       	nop
     904:	44 00       	.word	0x0044	; ????
     906:	5c 00       	.word	0x005c	; ????
     908:	04 09       	sbc	r16, r4
     90a:	00 00       	nop
     90c:	00 00       	nop
     90e:	00 00       	nop
     910:	44 00       	.word	0x0044	; ????
     912:	5d 00       	.word	0x005d	; ????
     914:	06 09       	sbc	r16, r6
     916:	00 00       	nop
     918:	00 00       	nop
     91a:	00 00       	nop
     91c:	44 00       	.word	0x0044	; ????
     91e:	5e 00       	.word	0x005e	; ????
     920:	08 09       	sbc	r16, r8
     922:	00 00       	nop
     924:	00 00       	nop
     926:	00 00       	nop
     928:	44 00       	.word	0x0044	; ????
     92a:	5f 00       	.word	0x005f	; ????
     92c:	0a 09       	sbc	r16, r10
     92e:	00 00       	nop
     930:	00 00       	nop
     932:	00 00       	nop
     934:	44 00       	.word	0x0044	; ????
     936:	6f 00       	.word	0x006f	; ????
     938:	0c 09       	sbc	r16, r12
     93a:	00 00       	nop
     93c:	00 00       	nop
     93e:	00 00       	nop
     940:	44 00       	.word	0x0044	; ????
     942:	70 00       	.word	0x0070	; ????
     944:	0e 09       	sbc	r16, r14
     946:	00 00       	nop
     948:	00 00       	nop
     94a:	00 00       	nop
     94c:	44 00       	.word	0x0044	; ????
     94e:	71 00       	.word	0x0071	; ????
     950:	10 09       	sbc	r17, r0
     952:	00 00       	nop
     954:	00 00       	nop
     956:	00 00       	nop
     958:	44 00       	.word	0x0044	; ????
     95a:	72 00       	.word	0x0072	; ????
     95c:	12 09       	sbc	r17, r2
     95e:	00 00       	nop
     960:	00 00       	nop
     962:	00 00       	nop
     964:	44 00       	.word	0x0044	; ????
     966:	73 00       	.word	0x0073	; ????
     968:	14 09       	sbc	r17, r4
     96a:	00 00       	nop
     96c:	00 00       	nop
     96e:	00 00       	nop
     970:	44 00       	.word	0x0044	; ????
     972:	74 00       	.word	0x0074	; ????
     974:	16 09       	sbc	r17, r6
     976:	00 00       	nop
     978:	00 00       	nop
     97a:	00 00       	nop
     97c:	44 00       	.word	0x0044	; ????
     97e:	75 00       	.word	0x0075	; ????
     980:	18 09       	sbc	r17, r8
     982:	00 00       	nop
     984:	00 00       	nop
     986:	00 00       	nop
     988:	44 00       	.word	0x0044	; ????
     98a:	76 00       	.word	0x0076	; ????
     98c:	1a 09       	sbc	r17, r10
     98e:	00 00       	nop
     990:	00 00       	nop
     992:	00 00       	nop
     994:	44 00       	.word	0x0044	; ????
     996:	77 00       	.word	0x0077	; ????
     998:	1c 09       	sbc	r17, r12
     99a:	00 00       	nop
     99c:	00 00       	nop
     99e:	00 00       	nop
     9a0:	44 00       	.word	0x0044	; ????
     9a2:	78 00       	.word	0x0078	; ????
     9a4:	1e 09       	sbc	r17, r14
     9a6:	00 00       	nop
     9a8:	00 00       	nop
     9aa:	00 00       	nop
     9ac:	44 00       	.word	0x0044	; ????
     9ae:	79 00       	.word	0x0079	; ????
     9b0:	20 09       	sbc	r18, r0
     9b2:	00 00       	nop
     9b4:	00 00       	nop
     9b6:	00 00       	nop
     9b8:	44 00       	.word	0x0044	; ????
     9ba:	7a 00       	.word	0x007a	; ????
     9bc:	22 09       	sbc	r18, r2
     9be:	00 00       	nop
     9c0:	00 00       	nop
     9c2:	00 00       	nop
     9c4:	44 00       	.word	0x0044	; ????
     9c6:	7b 00       	.word	0x007b	; ????
     9c8:	24 09       	sbc	r18, r4
     9ca:	00 00       	nop
     9cc:	00 00       	nop
     9ce:	00 00       	nop
     9d0:	44 00       	.word	0x0044	; ????
     9d2:	7c 00       	.word	0x007c	; ????
     9d4:	26 09       	sbc	r18, r6
     9d6:	00 00       	nop
     9d8:	00 00       	nop
     9da:	00 00       	nop
     9dc:	44 00       	.word	0x0044	; ????
     9de:	7d 00       	.word	0x007d	; ????
     9e0:	28 09       	sbc	r18, r8
     9e2:	00 00       	nop
     9e4:	00 00       	nop
     9e6:	00 00       	nop
     9e8:	44 00       	.word	0x0044	; ????
     9ea:	7e 00       	.word	0x007e	; ????
     9ec:	2a 09       	sbc	r18, r10
     9ee:	00 00       	nop
     9f0:	00 00       	nop
     9f2:	00 00       	nop
     9f4:	44 00       	.word	0x0044	; ????
     9f6:	7f 00       	.word	0x007f	; ????
     9f8:	2c 09       	sbc	r18, r12
     9fa:	00 00       	nop
     9fc:	00 00       	nop
     9fe:	00 00       	nop
     a00:	44 00       	.word	0x0044	; ????
     a02:	80 00       	.word	0x0080	; ????
     a04:	2e 09       	sbc	r18, r14
     a06:	00 00       	nop
     a08:	00 00       	nop
     a0a:	00 00       	nop
     a0c:	44 00       	.word	0x0044	; ????
     a0e:	81 00       	.word	0x0081	; ????
     a10:	30 09       	sbc	r19, r0
     a12:	00 00       	nop
     a14:	00 00       	nop
     a16:	00 00       	nop
     a18:	44 00       	.word	0x0044	; ????
     a1a:	82 00       	.word	0x0082	; ????
     a1c:	32 09       	sbc	r19, r2
     a1e:	00 00       	nop
     a20:	00 00       	nop
     a22:	00 00       	nop
     a24:	44 00       	.word	0x0044	; ????
     a26:	83 00       	.word	0x0083	; ????
     a28:	34 09       	sbc	r19, r4
     a2a:	00 00       	nop
     a2c:	00 00       	nop
     a2e:	00 00       	nop
     a30:	44 00       	.word	0x0044	; ????
     a32:	84 00       	.word	0x0084	; ????
     a34:	36 09       	sbc	r19, r6
     a36:	00 00       	nop
     a38:	00 00       	nop
     a3a:	00 00       	nop
     a3c:	44 00       	.word	0x0044	; ????
     a3e:	87 00       	.word	0x0087	; ????
     a40:	38 09       	sbc	r19, r8
     a42:	00 00       	nop
     a44:	00 00       	nop
     a46:	00 00       	nop
     a48:	44 00       	.word	0x0044	; ????
     a4a:	89 00       	.word	0x0089	; ????
     a4c:	3a 09       	sbc	r19, r10
     a4e:	00 00       	nop
     a50:	00 00       	nop
     a52:	00 00       	nop
     a54:	44 00       	.word	0x0044	; ????
     a56:	8a 00       	.word	0x008a	; ????
     a58:	3c 09       	sbc	r19, r12
     a5a:	00 00       	nop
     a5c:	00 00       	nop
     a5e:	00 00       	nop
     a60:	44 00       	.word	0x0044	; ????
     a62:	8b 00       	.word	0x008b	; ????
     a64:	3e 09       	sbc	r19, r14
     a66:	00 00       	nop
     a68:	00 00       	nop
     a6a:	00 00       	nop
     a6c:	44 00       	.word	0x0044	; ????
     a6e:	8c 00       	.word	0x008c	; ????
     a70:	40 09       	sbc	r20, r0
     a72:	00 00       	nop
     a74:	00 00       	nop
     a76:	00 00       	nop
     a78:	44 00       	.word	0x0044	; ????
     a7a:	8d 00       	.word	0x008d	; ????
     a7c:	42 09       	sbc	r20, r2
     a7e:	00 00       	nop
     a80:	00 00       	nop
     a82:	00 00       	nop
     a84:	44 00       	.word	0x0044	; ????
     a86:	8e 00       	.word	0x008e	; ????
     a88:	44 09       	sbc	r20, r4
     a8a:	00 00       	nop
     a8c:	00 00       	nop
     a8e:	00 00       	nop
     a90:	44 00       	.word	0x0044	; ????
     a92:	8f 00       	.word	0x008f	; ????
     a94:	46 09       	sbc	r20, r6
     a96:	00 00       	nop
     a98:	00 00       	nop
     a9a:	00 00       	nop
     a9c:	44 00       	.word	0x0044	; ????
     a9e:	90 00       	.word	0x0090	; ????
     aa0:	48 09       	sbc	r20, r8
     aa2:	00 00       	nop
     aa4:	00 00       	nop
     aa6:	00 00       	nop
     aa8:	44 00       	.word	0x0044	; ????
     aaa:	91 00       	.word	0x0091	; ????
     aac:	4a 09       	sbc	r20, r10
     aae:	00 00       	nop
     ab0:	00 00       	nop
     ab2:	00 00       	nop
     ab4:	44 00       	.word	0x0044	; ????
     ab6:	92 00       	.word	0x0092	; ????
     ab8:	4c 09       	sbc	r20, r12
     aba:	00 00       	nop
     abc:	00 00       	nop
     abe:	00 00       	nop
     ac0:	44 00       	.word	0x0044	; ????
     ac2:	93 00       	.word	0x0093	; ????
     ac4:	4e 09       	sbc	r20, r14
     ac6:	00 00       	nop
     ac8:	00 00       	nop
     aca:	00 00       	nop
     acc:	44 00       	.word	0x0044	; ????
     ace:	94 00       	.word	0x0094	; ????
     ad0:	50 09       	sbc	r21, r0
     ad2:	00 00       	nop
     ad4:	00 00       	nop
     ad6:	00 00       	nop
     ad8:	44 00       	.word	0x0044	; ????
     ada:	95 00       	.word	0x0095	; ????
     adc:	52 09       	sbc	r21, r2
     ade:	00 00       	nop
     ae0:	00 00       	nop
     ae2:	00 00       	nop
     ae4:	44 00       	.word	0x0044	; ????
     ae6:	96 00       	.word	0x0096	; ????
     ae8:	54 09       	sbc	r21, r4
     aea:	00 00       	nop
     aec:	00 00       	nop
     aee:	00 00       	nop
     af0:	44 00       	.word	0x0044	; ????
../../../libm/fplib/fp_zero.S:40
     af2:	97 00       	.word	0x0097	; ????
../../../libm/fplib/fp_zero.S:42
     af4:	56 09       	sbc	r21, r6
../../../libm/fplib/fp_zero.S:43
     af6:	00 00       	nop
../../../libm/fplib/fp_zero.S:44
     af8:	00 00       	nop
../../../libm/fplib/fp_zero.S:45
     afa:	00 00       	nop
../../../libm/fplib/fp_zero.S:46
     afc:	44 00       	.word	0x0044	; ????
../../../libm/fplib/fp_zero.S:47
     afe:	9a 00       	.word	0x009a	; ????
../../../libm/fplib/fp_zero.S:48
     b00:	58 09       	sbc	r21, r8
     b02:	00 00       	nop
     b04:	00 00       	nop
     b06:	00 00       	nop
     b08:	44 00       	.word	0x0044	; ????
     b0a:	9b 00       	.word	0x009b	; ????
     b0c:	5a 09       	sbc	r21, r10
     b0e:	00 00       	nop
     b10:	00 00       	nop
     b12:	00 00       	nop
     b14:	44 00       	.word	0x0044	; ????
     b16:	9c 00       	.word	0x009c	; ????
     b18:	5c 09       	sbc	r21, r12
     b1a:	00 00       	nop
     b1c:	00 00       	nop
     b1e:	00 00       	nop
     b20:	44 00       	.word	0x0044	; ????
     b22:	9d 00       	.word	0x009d	; ????
     b24:	5e 09       	sbc	r21, r14
     b26:	00 00       	nop
     b28:	00 00       	nop
     b2a:	00 00       	nop
     b2c:	44 00       	.word	0x0044	; ????
     b2e:	9e 00       	.word	0x009e	; ????
     b30:	60 09       	sbc	r22, r0
     b32:	00 00       	nop
     b34:	00 00       	nop
     b36:	00 00       	nop
     b38:	44 00       	.word	0x0044	; ????
     b3a:	9f 00       	.word	0x009f	; ????
     b3c:	62 09       	sbc	r22, r2
     b3e:	00 00       	nop
     b40:	00 00       	nop
     b42:	00 00       	nop
     b44:	44 00       	.word	0x0044	; ????
     b46:	a0 00       	.word	0x00a0	; ????
     b48:	64 09       	sbc	r22, r4
     b4a:	00 00       	nop
     b4c:	00 00       	nop
     b4e:	00 00       	nop
     b50:	44 00       	.word	0x0044	; ????
     b52:	a1 00       	.word	0x00a1	; ????
     b54:	66 09       	sbc	r22, r6
     b56:	00 00       	nop
     b58:	00 00       	nop
     b5a:	00 00       	nop
     b5c:	44 00       	.word	0x0044	; ????
     b5e:	a2 00       	.word	0x00a2	; ????
     b60:	68 09       	sbc	r22, r8
     b62:	00 00       	nop
     b64:	00 00       	nop
     b66:	00 00       	nop
     b68:	44 00       	.word	0x0044	; ????
     b6a:	a3 00       	.word	0x00a3	; ????
     b6c:	6a 09       	sbc	r22, r10
     b6e:	00 00       	nop
     b70:	00 00       	nop
     b72:	00 00       	nop
     b74:	44 00       	.word	0x0044	; ????
     b76:	a4 00       	.word	0x00a4	; ????
     b78:	6c 09       	sbc	r22, r12
     b7a:	00 00       	nop
     b7c:	00 00       	nop
     b7e:	00 00       	nop
     b80:	44 00       	.word	0x0044	; ????
     b82:	a5 00       	.word	0x00a5	; ????
     b84:	6e 09       	sbc	r22, r14
     b86:	00 00       	nop
     b88:	00 00       	nop
     b8a:	00 00       	nop
     b8c:	44 00       	.word	0x0044	; ????
     b8e:	a6 00       	.word	0x00a6	; ????
     b90:	70 09       	sbc	r23, r0
     b92:	00 00       	nop
     b94:	00 00       	nop
     b96:	00 00       	nop
     b98:	44 00       	.word	0x0044	; ????
     b9a:	a7 00       	.word	0x00a7	; ????
     b9c:	72 09       	sbc	r23, r2
     b9e:	00 00       	nop
     ba0:	00 00       	nop
     ba2:	00 00       	nop
     ba4:	44 00       	.word	0x0044	; ????
     ba6:	a9 00       	.word	0x00a9	; ????
     ba8:	74 09       	sbc	r23, r4
     baa:	00 00       	nop
     bac:	00 00       	nop
     bae:	00 00       	nop
     bb0:	44 00       	.word	0x0044	; ????
     bb2:	aa 00       	.word	0x00aa	; ????
     bb4:	76 09       	sbc	r23, r6
     bb6:	00 00       	nop
     bb8:	00 00       	nop
     bba:	00 00       	nop
     bbc:	44 00       	.word	0x0044	; ????
     bbe:	ab 00       	.word	0x00ab	; ????
     bc0:	78 09       	sbc	r23, r8
     bc2:	00 00       	nop
     bc4:	00 00       	nop
     bc6:	00 00       	nop
     bc8:	44 00       	.word	0x0044	; ????
     bca:	ac 00       	.word	0x00ac	; ????
     bcc:	7a 09       	sbc	r23, r10
     bce:	00 00       	nop
     bd0:	00 00       	nop
     bd2:	00 00       	nop
     bd4:	44 00       	.word	0x0044	; ????
     bd6:	ad 00       	.word	0x00ad	; ????
     bd8:	7c 09       	sbc	r23, r12
     bda:	00 00       	nop
     bdc:	00 00       	nop
     bde:	00 00       	nop
     be0:	44 00       	.word	0x0044	; ????
     be2:	ae 00       	.word	0x00ae	; ????
     be4:	7e 09       	sbc	r23, r14
     be6:	00 00       	nop
     be8:	00 00       	nop
     bea:	00 00       	nop
     bec:	44 00       	.word	0x0044	; ????
     bee:	af 00       	.word	0x00af	; ????
     bf0:	80 09       	sbc	r24, r0
     bf2:	00 00       	nop
     bf4:	00 00       	nop
     bf6:	00 00       	nop
     bf8:	44 00       	.word	0x0044	; ????
     bfa:	b0 00       	.word	0x00b0	; ????
     bfc:	82 09       	sbc	r24, r2
     bfe:	00 00       	nop
     c00:	af 00       	.word	0x00af	; ????
     c02:	00 00       	nop
     c04:	64 00       	.word	0x0064	; ????
     c06:	00 00       	nop
     c08:	b8 08       	sbc	r11, r8
     c0a:	00 00       	nop
     c0c:	bf 00       	.word	0x00bf	; ????
     c0e:	00 00       	nop
     c10:	84 00       	.word	0x0084	; ????
     c12:	00 00       	nop
     c14:	b8 08       	sbc	r11, r8
     c16:	00 00       	nop
     c18:	00 00       	nop
     c1a:	00 00       	nop
     c1c:	44 00       	.word	0x0044	; ????
     c1e:	33 00       	.word	0x0033	; ????
     c20:	b8 08       	sbc	r11, r8
     c22:	00 00       	nop
     c24:	00 00       	nop
     c26:	00 00       	nop
     c28:	44 00       	.word	0x0044	; ????
     c2a:	34 00       	.word	0x0034	; ????
     c2c:	82 09       	sbc	r24, r2
     c2e:	00 00       	nop
     c30:	00 00       	nop
     c32:	00 00       	nop
     c34:	44 00       	.word	0x0044	; ????
     c36:	35 00       	.word	0x0035	; ????
     c38:	84 09       	sbc	r24, r4
     c3a:	00 00       	nop
     c3c:	00 00       	nop
     c3e:	00 00       	nop
     c40:	44 00       	.word	0x0044	; ????
     c42:	36 00       	.word	0x0036	; ????
     c44:	86 09       	sbc	r24, r6
     c46:	00 00       	nop
     c48:	00 00       	nop
     c4a:	00 00       	nop
     c4c:	44 00       	.word	0x0044	; ????
     c4e:	37 00       	.word	0x0037	; ????
     c50:	88 09       	sbc	r24, r8
     c52:	00 00       	nop
     c54:	00 00       	nop
     c56:	00 00       	nop
     c58:	44 00       	.word	0x0044	; ????
     c5a:	38 00       	.word	0x0038	; ????
     c5c:	8a 09       	sbc	r24, r10
     c5e:	00 00       	nop
     c60:	00 00       	nop
     c62:	00 00       	nop
     c64:	44 00       	.word	0x0044	; ????
     c66:	39 00       	.word	0x0039	; ????
     c68:	8c 09       	sbc	r24, r12
     c6a:	00 00       	nop
     c6c:	dd 00       	.word	0x00dd	; ????
     c6e:	00 00       	nop
     c70:	64 00       	.word	0x0064	; ????
     c72:	00 00       	nop
     c74:	b8 08       	sbc	r11, r8
     c76:	00 00       	nop
     c78:	ed 00       	.word	0x00ed	; ????
     c7a:	00 00       	nop
     c7c:	84 00       	.word	0x0084	; ????
     c7e:	00 00       	nop
     c80:	b8 08       	sbc	r11, r8
     c82:	00 00       	nop
     c84:	00 00       	nop
     c86:	00 00       	nop
     c88:	44 00       	.word	0x0044	; ????
     c8a:	44 00       	.word	0x0044	; ????
     c8c:	b8 08       	sbc	r11, r8
     c8e:	00 00       	nop
     c90:	00 00       	nop
     c92:	00 00       	nop
     c94:	44 00       	.word	0x0044	; ????
     c96:	45 00       	.word	0x0045	; ????
     c98:	8c 09       	sbc	r24, r12
     c9a:	00 00       	nop
     c9c:	00 00       	nop
     c9e:	00 00       	nop
     ca0:	44 00       	.word	0x0044	; ????
     ca2:	46 00       	.word	0x0046	; ????
     ca4:	8e 09       	sbc	r24, r14
     ca6:	00 00       	nop
     ca8:	00 00       	nop
     caa:	00 00       	nop
     cac:	44 00       	.word	0x0044	; ????
     cae:	48 00       	.word	0x0048	; ????
     cb0:	90 09       	sbc	r25, r0
     cb2:	00 00       	nop
     cb4:	00 00       	nop
     cb6:	00 00       	nop
     cb8:	44 00       	.word	0x0044	; ????
     cba:	49 00       	.word	0x0049	; ????
     cbc:	92 09       	sbc	r25, r2
     cbe:	00 00       	nop
     cc0:	00 00       	nop
     cc2:	00 00       	nop
     cc4:	44 00       	.word	0x0044	; ????
     cc6:	4b 00       	.word	0x004b	; ????
     cc8:	94 09       	sbc	r25, r4
     cca:	00 00       	nop
     ccc:	00 00       	nop
     cce:	00 00       	nop
     cd0:	44 00       	.word	0x0044	; ????
     cd2:	4c 00       	.word	0x004c	; ????
     cd4:	96 09       	sbc	r25, r6
     cd6:	00 00       	nop
     cd8:	00 00       	nop
     cda:	00 00       	nop
     cdc:	44 00       	.word	0x0044	; ????
     cde:	4d 00       	.word	0x004d	; ????
     ce0:	98 09       	sbc	r25, r8
     ce2:	00 00       	nop
     ce4:	00 00       	nop
     ce6:	00 00       	nop
     ce8:	44 00       	.word	0x0044	; ????
     cea:	4e 00       	.word	0x004e	; ????
     cec:	9a 09       	sbc	r25, r10
     cee:	00 00       	nop
     cf0:	00 00       	nop
     cf2:	00 00       	nop
     cf4:	44 00       	.word	0x0044	; ????
     cf6:	4f 00       	.word	0x004f	; ????
     cf8:	9c 09       	sbc	r25, r12
     cfa:	00 00       	nop
     cfc:	00 00       	nop
     cfe:	00 00       	nop
     d00:	44 00       	.word	0x0044	; ????
     d02:	52 00       	.word	0x0052	; ????
     d04:	9e 09       	sbc	r25, r14
     d06:	00 00       	nop
     d08:	00 00       	nop
     d0a:	00 00       	nop
     d0c:	44 00       	.word	0x0044	; ????
     d0e:	53 00       	.word	0x0053	; ????
     d10:	a0 09       	sbc	r26, r0
     d12:	00 00       	nop
     d14:	00 00       	nop
     d16:	00 00       	nop
     d18:	44 00       	.word	0x0044	; ????
     d1a:	54 00       	.word	0x0054	; ????
     d1c:	a2 09       	sbc	r26, r2
     d1e:	00 00       	nop
     d20:	00 00       	nop
     d22:	00 00       	nop
     d24:	44 00       	.word	0x0044	; ????
     d26:	55 00       	.word	0x0055	; ????
     d28:	a4 09       	sbc	r26, r4
     d2a:	00 00       	nop
     d2c:	00 00       	nop
     d2e:	00 00       	nop
     d30:	44 00       	.word	0x0044	; ????
     d32:	56 00       	.word	0x0056	; ????
     d34:	a6 09       	sbc	r26, r6
     d36:	00 00       	nop
     d38:	00 00       	nop
     d3a:	00 00       	nop
     d3c:	44 00       	.word	0x0044	; ????
     d3e:	57 00       	.word	0x0057	; ????
     d40:	a8 09       	sbc	r26, r8
     d42:	00 00       	nop
     d44:	00 00       	nop
     d46:	00 00       	nop
     d48:	44 00       	.word	0x0044	; ????
     d4a:	58 00       	.word	0x0058	; ????
     d4c:	aa 09       	sbc	r26, r10
     d4e:	00 00       	nop
     d50:	00 00       	nop
     d52:	00 00       	nop
     d54:	44 00       	.word	0x0044	; ????
     d56:	59 00       	.word	0x0059	; ????
     d58:	ac 09       	sbc	r26, r12
     d5a:	00 00       	nop
     d5c:	00 00       	nop
     d5e:	00 00       	nop
     d60:	44 00       	.word	0x0044	; ????
     d62:	5b 00       	.word	0x005b	; ????
     d64:	ae 09       	sbc	r26, r14
     d66:	00 00       	nop
     d68:	00 00       	nop
     d6a:	00 00       	nop
     d6c:	44 00       	.word	0x0044	; ????
     d6e:	5c 00       	.word	0x005c	; ????
     d70:	b0 09       	sbc	r27, r0
     d72:	00 00       	nop
     d74:	00 00       	nop
     d76:	00 00       	nop
     d78:	44 00       	.word	0x0044	; ????
     d7a:	5e 00       	.word	0x005e	; ????
     d7c:	b2 09       	sbc	r27, r2
     d7e:	00 00       	nop
     d80:	00 00       	nop
     d82:	00 00       	nop
     d84:	44 00       	.word	0x0044	; ????
     d86:	5f 00       	.word	0x005f	; ????
     d88:	b4 09       	sbc	r27, r4
     d8a:	00 00       	nop
     d8c:	00 00       	nop
     d8e:	00 00       	nop
     d90:	44 00       	.word	0x0044	; ????
     d92:	60 00       	.word	0x0060	; ????
     d94:	b6 09       	sbc	r27, r6
     d96:	00 00       	nop
     d98:	00 00       	nop
     d9a:	00 00       	nop
     d9c:	44 00       	.word	0x0044	; ????
     d9e:	62 00       	.word	0x0062	; ????
     da0:	b8 09       	sbc	r27, r8
     da2:	00 00       	nop
     da4:	00 00       	nop
     da6:	00 00       	nop
     da8:	44 00       	.word	0x0044	; ????
     daa:	67 00       	.word	0x0067	; ????
     dac:	ba 09       	sbc	r27, r10
     dae:	00 00       	nop
     db0:	00 00       	nop
     db2:	00 00       	nop
     db4:	44 00       	.word	0x0044	; ????
     db6:	68 00       	.word	0x0068	; ????
     db8:	bc 09       	sbc	r27, r12
     dba:	00 00       	nop
     dbc:	00 00       	nop
     dbe:	00 00       	nop
     dc0:	44 00       	.word	0x0044	; ????
     dc2:	69 00       	.word	0x0069	; ????
     dc4:	be 09       	sbc	r27, r14
     dc6:	00 00       	nop
     dc8:	00 00       	nop
     dca:	00 00       	nop
     dcc:	44 00       	.word	0x0044	; ????
     dce:	6a 00       	.word	0x006a	; ????
     dd0:	c0 09       	sbc	r28, r0
     dd2:	00 00       	nop
     dd4:	00 00       	nop
     dd6:	00 00       	nop
     dd8:	44 00       	.word	0x0044	; ????
     dda:	6b 00       	.word	0x006b	; ????
     ddc:	c2 09       	sbc	r28, r2
     dde:	00 00       	nop
     de0:	00 00       	nop
     de2:	00 00       	nop
     de4:	44 00       	.word	0x0044	; ????
     de6:	6d 00       	.word	0x006d	; ????
     de8:	c4 09       	sbc	r28, r4
     dea:	00 00       	nop
     dec:	00 00       	nop
     dee:	00 00       	nop
     df0:	44 00       	.word	0x0044	; ????
     df2:	6e 00       	.word	0x006e	; ????
     df4:	c6 09       	sbc	r28, r6
     df6:	00 00       	nop
     df8:	00 00       	nop
     dfa:	00 00       	nop
     dfc:	44 00       	.word	0x0044	; ????
     dfe:	70 00       	.word	0x0070	; ????
     e00:	c8 09       	sbc	r28, r8
     e02:	00 00       	nop
     e04:	00 00       	nop
     e06:	00 00       	nop
     e08:	44 00       	.word	0x0044	; ????
     e0a:	71 00       	.word	0x0071	; ????
     e0c:	ca 09       	sbc	r28, r10
     e0e:	00 00       	nop
     e10:	00 00       	nop
     e12:	00 00       	nop
     e14:	44 00       	.word	0x0044	; ????
     e16:	72 00       	.word	0x0072	; ????
     e18:	cc 09       	sbc	r28, r12
     e1a:	00 00       	nop
     e1c:	00 00       	nop
     e1e:	00 00       	nop
     e20:	44 00       	.word	0x0044	; ????
     e22:	73 00       	.word	0x0073	; ????
     e24:	ce 09       	sbc	r28, r14
     e26:	00 00       	nop
     e28:	00 00       	nop
     e2a:	00 00       	nop
     e2c:	44 00       	.word	0x0044	; ????
     e2e:	74 00       	.word	0x0074	; ????
     e30:	d0 09       	sbc	r29, r0
     e32:	00 00       	nop
     e34:	00 00       	nop
     e36:	00 00       	nop
     e38:	44 00       	.word	0x0044	; ????
     e3a:	78 00       	.word	0x0078	; ????
     e3c:	d2 09       	sbc	r29, r2
     e3e:	00 00       	nop
     e40:	00 00       	nop
     e42:	00 00       	nop
     e44:	44 00       	.word	0x0044	; ????
     e46:	79 00       	.word	0x0079	; ????
     e48:	d4 09       	sbc	r29, r4
     e4a:	00 00       	nop
     e4c:	00 00       	nop
     e4e:	00 00       	nop
     e50:	44 00       	.word	0x0044	; ????
     e52:	7a 00       	.word	0x007a	; ????
     e54:	d6 09       	sbc	r29, r6
     e56:	00 00       	nop
     e58:	00 00       	nop
     e5a:	00 00       	nop
     e5c:	44 00       	.word	0x0044	; ????
     e5e:	7b 00       	.word	0x007b	; ????
     e60:	d8 09       	sbc	r29, r8
     e62:	00 00       	nop
     e64:	00 00       	nop
     e66:	00 00       	nop
     e68:	44 00       	.word	0x0044	; ????
     e6a:	7c 00       	.word	0x007c	; ????
     e6c:	da 09       	sbc	r29, r10
     e6e:	00 00       	nop
     e70:	00 00       	nop
     e72:	00 00       	nop
     e74:	44 00       	.word	0x0044	; ????
     e76:	7d 00       	.word	0x007d	; ????
     e78:	dc 09       	sbc	r29, r12
     e7a:	00 00       	nop
     e7c:	00 00       	nop
     e7e:	00 00       	nop
     e80:	44 00       	.word	0x0044	; ????
     e82:	7e 00       	.word	0x007e	; ????
     e84:	de 09       	sbc	r29, r14
     e86:	00 00       	nop
     e88:	00 00       	nop
     e8a:	00 00       	nop
     e8c:	44 00       	.word	0x0044	; ????
     e8e:	7f 00       	.word	0x007f	; ????
     e90:	e0 09       	sbc	r30, r0
     e92:	00 00       	nop
     e94:	00 00       	nop
     e96:	00 00       	nop
     e98:	44 00       	.word	0x0044	; ????
     e9a:	80 00       	.word	0x0080	; ????
     e9c:	e2 09       	sbc	r30, r2
     e9e:	00 00       	nop
     ea0:	00 00       	nop
     ea2:	00 00       	nop
     ea4:	44 00       	.word	0x0044	; ????
     ea6:	82 00       	.word	0x0082	; ????
     ea8:	e4 09       	sbc	r30, r4
     eaa:	00 00       	nop
     eac:	0e 01       	movw	r0, r28
     eae:	00 00       	nop
     eb0:	64 00       	.word	0x0064	; ????
     eb2:	00 00       	nop
     eb4:	b8 08       	sbc	r11, r8
     eb6:	00 00       	nop
     eb8:	1e 01       	movw	r2, r28
     eba:	00 00       	nop
     ebc:	84 00       	.word	0x0084	; ????
     ebe:	00 00       	nop
     ec0:	b8 08       	sbc	r11, r8
     ec2:	00 00       	nop
     ec4:	00 00       	nop
     ec6:	00 00       	nop
     ec8:	44 00       	.word	0x0044	; ????
     eca:	29 00       	.word	0x0029	; ????
     ecc:	b8 08       	sbc	r11, r8
     ece:	00 00       	nop
     ed0:	00 00       	nop
     ed2:	00 00       	nop
     ed4:	44 00       	.word	0x0044	; ????
     ed6:	2a 00       	.word	0x002a	; ????
     ed8:	e4 09       	sbc	r30, r4
     eda:	00 00       	nop
     edc:	00 00       	nop
     ede:	00 00       	nop
     ee0:	44 00       	.word	0x0044	; ????
     ee2:	2b 00       	.word	0x002b	; ????
     ee4:	e6 09       	sbc	r30, r6
     ee6:	00 00       	nop
     ee8:	00 00       	nop
     eea:	00 00       	nop
     eec:	44 00       	.word	0x0044	; ????
     eee:	2d 00       	.word	0x002d	; ????
     ef0:	e8 09       	sbc	r30, r8
     ef2:	00 00       	nop
     ef4:	00 00       	nop
     ef6:	00 00       	nop
     ef8:	44 00       	.word	0x0044	; ????
     efa:	2e 00       	.word	0x002e	; ????
     efc:	e8 09       	sbc	r30, r8
     efe:	00 00       	nop
     f00:	00 00       	nop
     f02:	00 00       	nop
     f04:	44 00       	.word	0x0044	; ????
     f06:	2f 00       	.word	0x002f	; ????
     f08:	ea 09       	sbc	r30, r10
     f0a:	00 00       	nop
     f0c:	00 00       	nop
     f0e:	00 00       	nop
     f10:	44 00       	.word	0x0044	; ????
     f12:	31 00       	.word	0x0031	; ????
     f14:	ec 09       	sbc	r30, r12
     f16:	00 00       	nop
     f18:	00 00       	nop
     f1a:	00 00       	nop
     f1c:	44 00       	.word	0x0044	; ????
     f1e:	32 00       	.word	0x0032	; ????
     f20:	ee 09       	sbc	r30, r14
     f22:	00 00       	nop
     f24:	00 00       	nop
     f26:	00 00       	nop
     f28:	44 00       	.word	0x0044	; ????
     f2a:	33 00       	.word	0x0033	; ????
     f2c:	f0 09       	sbc	r31, r0
     f2e:	00 00       	nop
     f30:	00 00       	nop
     f32:	00 00       	nop
     f34:	44 00       	.word	0x0044	; ????
     f36:	34 00       	.word	0x0034	; ????
     f38:	f2 09       	sbc	r31, r2
     f3a:	00 00       	nop
     f3c:	00 00       	nop
     f3e:	00 00       	nop
     f40:	44 00       	.word	0x0044	; ????
     f42:	35 00       	.word	0x0035	; ????
     f44:	f4 09       	sbc	r31, r4
     f46:	00 00       	nop
     f48:	00 00       	nop
     f4a:	00 00       	nop
     f4c:	44 00       	.word	0x0044	; ????
     f4e:	36 00       	.word	0x0036	; ????
     f50:	f6 09       	sbc	r31, r6
     f52:	00 00       	nop
     f54:	00 00       	nop
     f56:	00 00       	nop
     f58:	44 00       	.word	0x0044	; ????
     f5a:	37 00       	.word	0x0037	; ????
     f5c:	f8 09       	sbc	r31, r8
     f5e:	00 00       	nop
     f60:	00 00       	nop
     f62:	00 00       	nop
     f64:	44 00       	.word	0x0044	; ????
     f66:	39 00       	.word	0x0039	; ????
     f68:	fa 09       	sbc	r31, r10
     f6a:	00 00       	nop
     f6c:	00 00       	nop
     f6e:	00 00       	nop
     f70:	44 00       	.word	0x0044	; ????
     f72:	3a 00       	.word	0x003a	; ????
     f74:	fc 09       	sbc	r31, r12
     f76:	00 00       	nop
     f78:	00 00       	nop
     f7a:	00 00       	nop
     f7c:	44 00       	.word	0x0044	; ????
     f7e:	3c 00       	.word	0x003c	; ????
     f80:	fe 09       	sbc	r31, r14
     f82:	00 00       	nop
     f84:	00 00       	nop
     f86:	00 00       	nop
     f88:	44 00       	.word	0x0044	; ????
     f8a:	3d 00       	.word	0x003d	; ????
     f8c:	00 0a       	sbc	r0, r16
     f8e:	00 00       	nop
     f90:	00 00       	nop
     f92:	00 00       	nop
     f94:	44 00       	.word	0x0044	; ????
     f96:	3e 00       	.word	0x003e	; ????
     f98:	02 0a       	sbc	r0, r18
     f9a:	00 00       	nop
     f9c:	00 00       	nop
     f9e:	00 00       	nop
     fa0:	44 00       	.word	0x0044	; ????
     fa2:	3f 00       	.word	0x003f	; ????
     fa4:	04 0a       	sbc	r0, r20
     fa6:	00 00       	nop
     fa8:	00 00       	nop
     faa:	00 00       	nop
     fac:	44 00       	.word	0x0044	; ????
     fae:	40 00       	.word	0x0040	; ????
     fb0:	06 0a       	sbc	r0, r22
     fb2:	00 00       	nop
     fb4:	00 00       	nop
     fb6:	00 00       	nop
     fb8:	44 00       	.word	0x0044	; ????
     fba:	41 00       	.word	0x0041	; ????
     fbc:	08 0a       	sbc	r0, r24
     fbe:	00 00       	nop
     fc0:	00 00       	nop
     fc2:	00 00       	nop
     fc4:	44 00       	.word	0x0044	; ????
     fc6:	42 00       	.word	0x0042	; ????
     fc8:	0a 0a       	sbc	r0, r26
     fca:	00 00       	nop
     fcc:	00 00       	nop
     fce:	00 00       	nop
     fd0:	44 00       	.word	0x0044	; ????
     fd2:	43 00       	.word	0x0043	; ????
     fd4:	0c 0a       	sbc	r0, r28
     fd6:	00 00       	nop
     fd8:	00 00       	nop
     fda:	00 00       	nop
     fdc:	44 00       	.word	0x0044	; ????
     fde:	44 00       	.word	0x0044	; ????
     fe0:	0e 0a       	sbc	r0, r30
     fe2:	00 00       	nop
     fe4:	00 00       	nop
     fe6:	00 00       	nop
     fe8:	44 00       	.word	0x0044	; ????
     fea:	45 00       	.word	0x0045	; ????
     fec:	10 0a       	sbc	r1, r16
     fee:	00 00       	nop
     ff0:	00 00       	nop
     ff2:	00 00       	nop
     ff4:	44 00       	.word	0x0044	; ????
     ff6:	46 00       	.word	0x0046	; ????
     ff8:	12 0a       	sbc	r1, r18
     ffa:	00 00       	nop
     ffc:	00 00       	nop
     ffe:	00 00       	nop
    1000:	44 00       	.word	0x0044	; ????
    1002:	48 00       	.word	0x0048	; ????
    1004:	14 0a       	sbc	r1, r20
    1006:	00 00       	nop
    1008:	00 00       	nop
    100a:	00 00       	nop
    100c:	44 00       	.word	0x0044	; ????
    100e:	49 00       	.word	0x0049	; ????
    1010:	16 0a       	sbc	r1, r22
    1012:	00 00       	nop
    1014:	00 00       	nop
    1016:	00 00       	nop
    1018:	44 00       	.word	0x0044	; ????
    101a:	4a 00       	.word	0x004a	; ????
    101c:	18 0a       	sbc	r1, r24
    101e:	00 00       	nop
    1020:	00 00       	nop
    1022:	00 00       	nop
    1024:	44 00       	.word	0x0044	; ????
    1026:	4b 00       	.word	0x004b	; ????
    1028:	1a 0a       	sbc	r1, r26
    102a:	00 00       	nop
    102c:	00 00       	nop
    102e:	00 00       	nop
    1030:	44 00       	.word	0x0044	; ????
    1032:	4c 00       	.word	0x004c	; ????
    1034:	1c 0a       	sbc	r1, r28
    1036:	00 00       	nop
    1038:	00 00       	nop
    103a:	00 00       	nop
    103c:	44 00       	.word	0x0044	; ????
    103e:	4d 00       	.word	0x004d	; ????
    1040:	1e 0a       	sbc	r1, r30
    1042:	00 00       	nop
    1044:	00 00       	nop
    1046:	00 00       	nop
    1048:	44 00       	.word	0x0044	; ????
    104a:	4e 00       	.word	0x004e	; ????
    104c:	20 0a       	sbc	r2, r16
    104e:	00 00       	nop
    1050:	00 00       	nop
    1052:	00 00       	nop
    1054:	44 00       	.word	0x0044	; ????
    1056:	4f 00       	.word	0x004f	; ????
    1058:	22 0a       	sbc	r2, r18
    105a:	00 00       	nop
    105c:	00 00       	nop
    105e:	00 00       	nop
    1060:	44 00       	.word	0x0044	; ????
    1062:	50 00       	.word	0x0050	; ????
    1064:	24 0a       	sbc	r2, r20
    1066:	00 00       	nop
    1068:	00 00       	nop
    106a:	00 00       	nop
    106c:	44 00       	.word	0x0044	; ????
    106e:	51 00       	.word	0x0051	; ????
    1070:	26 0a       	sbc	r2, r22
    1072:	00 00       	nop
    1074:	00 00       	nop
    1076:	00 00       	nop
    1078:	44 00       	.word	0x0044	; ????
    107a:	53 00       	.word	0x0053	; ????
    107c:	28 0a       	sbc	r2, r24
    107e:	00 00       	nop
    1080:	00 00       	nop
    1082:	00 00       	nop
    1084:	44 00       	.word	0x0044	; ????
    1086:	54 00       	.word	0x0054	; ????
    1088:	2a 0a       	sbc	r2, r26
    108a:	00 00       	nop
    108c:	00 00       	nop
    108e:	00 00       	nop
    1090:	44 00       	.word	0x0044	; ????
    1092:	55 00       	.word	0x0055	; ????
    1094:	2c 0a       	sbc	r2, r28
    1096:	00 00       	nop
    1098:	00 00       	nop
    109a:	00 00       	nop
    109c:	44 00       	.word	0x0044	; ????
    109e:	56 00       	.word	0x0056	; ????
    10a0:	2e 0a       	sbc	r2, r30
    10a2:	00 00       	nop
    10a4:	00 00       	nop
    10a6:	00 00       	nop
    10a8:	44 00       	.word	0x0044	; ????
    10aa:	58 00       	.word	0x0058	; ????
    10ac:	30 0a       	sbc	r3, r16
    10ae:	00 00       	nop
    10b0:	00 00       	nop
    10b2:	00 00       	nop
    10b4:	44 00       	.word	0x0044	; ????
    10b6:	59 00       	.word	0x0059	; ????
    10b8:	32 0a       	sbc	r3, r18
    10ba:	00 00       	nop
    10bc:	00 00       	nop
    10be:	00 00       	nop
    10c0:	44 00       	.word	0x0044	; ????
    10c2:	5a 00       	.word	0x005a	; ????
    10c4:	34 0a       	sbc	r3, r20
    10c6:	00 00       	nop
    10c8:	00 00       	nop
    10ca:	00 00       	nop
    10cc:	44 00       	.word	0x0044	; ????
    10ce:	5b 00       	.word	0x005b	; ????
    10d0:	36 0a       	sbc	r3, r22
    10d2:	00 00       	nop
    10d4:	00 00       	nop
    10d6:	00 00       	nop
    10d8:	44 00       	.word	0x0044	; ????
    10da:	5c 00       	.word	0x005c	; ????
    10dc:	38 0a       	sbc	r3, r24
    10de:	00 00       	nop
    10e0:	00 00       	nop
    10e2:	00 00       	nop
    10e4:	44 00       	.word	0x0044	; ????
    10e6:	5d 00       	.word	0x005d	; ????
    10e8:	3a 0a       	sbc	r3, r26
    10ea:	00 00       	nop
    10ec:	00 00       	nop
    10ee:	00 00       	nop
    10f0:	44 00       	.word	0x0044	; ????
    10f2:	5f 00       	.word	0x005f	; ????
    10f4:	3c 0a       	sbc	r3, r28
    10f6:	00 00       	nop
    10f8:	00 00       	nop
    10fa:	00 00       	nop
    10fc:	44 00       	.word	0x0044	; ????
    10fe:	60 00       	.word	0x0060	; ????
    1100:	3e 0a       	sbc	r3, r30
    1102:	00 00       	nop
    1104:	00 00       	nop
    1106:	00 00       	nop
    1108:	44 00       	.word	0x0044	; ????
    110a:	61 00       	.word	0x0061	; ????
    110c:	40 0a       	sbc	r4, r16
    110e:	00 00       	nop
    1110:	00 00       	nop
    1112:	00 00       	nop
    1114:	44 00       	.word	0x0044	; ????
    1116:	62 00       	.word	0x0062	; ????
    1118:	42 0a       	sbc	r4, r18
    111a:	00 00       	nop
    111c:	00 00       	nop
    111e:	00 00       	nop
    1120:	44 00       	.word	0x0044	; ????
    1122:	63 00       	.word	0x0063	; ????
    1124:	44 0a       	sbc	r4, r20
    1126:	00 00       	nop
    1128:	00 00       	nop
    112a:	00 00       	nop
    112c:	44 00       	.word	0x0044	; ????
    112e:	65 00       	.word	0x0065	; ????
    1130:	46 0a       	sbc	r4, r22
    1132:	00 00       	nop
    1134:	00 00       	nop
    1136:	00 00       	nop
    1138:	44 00       	.word	0x0044	; ????
    113a:	66 00       	.word	0x0066	; ????
    113c:	48 0a       	sbc	r4, r24
    113e:	00 00       	nop
    1140:	00 00       	nop
    1142:	00 00       	nop
    1144:	44 00       	.word	0x0044	; ????
    1146:	68 00       	.word	0x0068	; ????
    1148:	4a 0a       	sbc	r4, r26
    114a:	00 00       	nop
    114c:	00 00       	nop
    114e:	00 00       	nop
    1150:	44 00       	.word	0x0044	; ????
    1152:	69 00       	.word	0x0069	; ????
    1154:	4c 0a       	sbc	r4, r28
    1156:	00 00       	nop
    1158:	00 00       	nop
    115a:	00 00       	nop
    115c:	44 00       	.word	0x0044	; ????
    115e:	6a 00       	.word	0x006a	; ????
    1160:	4e 0a       	sbc	r4, r30
    1162:	00 00       	nop
    1164:	00 00       	nop
    1166:	00 00       	nop
    1168:	44 00       	.word	0x0044	; ????
    116a:	6b 00       	.word	0x006b	; ????
    116c:	50 0a       	sbc	r5, r16
    116e:	00 00       	nop
    1170:	00 00       	nop
    1172:	00 00       	nop
    1174:	44 00       	.word	0x0044	; ????
    1176:	6c 00       	.word	0x006c	; ????
    1178:	52 0a       	sbc	r5, r18
    117a:	00 00       	nop
    117c:	00 00       	nop
    117e:	00 00       	nop
    1180:	44 00       	.word	0x0044	; ????
    1182:	6f 00       	.word	0x006f	; ????
    1184:	54 0a       	sbc	r5, r20
    1186:	00 00       	nop
    1188:	00 00       	nop
    118a:	00 00       	nop
    118c:	44 00       	.word	0x0044	; ????
    118e:	70 00       	.word	0x0070	; ????
    1190:	56 0a       	sbc	r5, r22
    1192:	00 00       	nop
    1194:	00 00       	nop
    1196:	00 00       	nop
    1198:	44 00       	.word	0x0044	; ????
    119a:	71 00       	.word	0x0071	; ????
    119c:	58 0a       	sbc	r5, r24
    119e:	00 00       	nop
    11a0:	00 00       	nop
    11a2:	00 00       	nop
    11a4:	44 00       	.word	0x0044	; ????
    11a6:	72 00       	.word	0x0072	; ????
    11a8:	5a 0a       	sbc	r5, r26
    11aa:	00 00       	nop
    11ac:	00 00       	nop
    11ae:	00 00       	nop
    11b0:	44 00       	.word	0x0044	; ????
    11b2:	73 00       	.word	0x0073	; ????
    11b4:	5c 0a       	sbc	r5, r28
    11b6:	00 00       	nop
    11b8:	00 00       	nop
    11ba:	00 00       	nop
    11bc:	44 00       	.word	0x0044	; ????
    11be:	74 00       	.word	0x0074	; ????
    11c0:	5e 0a       	sbc	r5, r30
    11c2:	00 00       	nop
    11c4:	3e 01       	movw	r6, r28
    11c6:	00 00       	nop
    11c8:	64 00       	.word	0x0064	; ????
    11ca:	00 00       	nop
    11cc:	b8 08       	sbc	r11, r8
    11ce:	00 00       	nop
    11d0:	4e 01       	movw	r8, r28
    11d2:	00 00       	nop
    11d4:	84 00       	.word	0x0084	; ????
    11d6:	00 00       	nop
    11d8:	b8 08       	sbc	r11, r8
    11da:	00 00       	nop
    11dc:	00 00       	nop
    11de:	00 00       	nop
    11e0:	44 00       	.word	0x0044	; ????
    11e2:	2a 00       	.word	0x002a	; ????
    11e4:	b8 08       	sbc	r11, r8
    11e6:	00 00       	nop
    11e8:	00 00       	nop
    11ea:	00 00       	nop
    11ec:	44 00       	.word	0x0044	; ????
    11ee:	2b 00       	.word	0x002b	; ????
    11f0:	5e 0a       	sbc	r5, r30
    11f2:	00 00       	nop
    11f4:	00 00       	nop
    11f6:	00 00       	nop
    11f8:	44 00       	.word	0x0044	; ????
    11fa:	2c 00       	.word	0x002c	; ????
    11fc:	60 0a       	sbc	r6, r16
    11fe:	00 00       	nop
    1200:	00 00       	nop
    1202:	00 00       	nop
    1204:	44 00       	.word	0x0044	; ????
    1206:	2d 00       	.word	0x002d	; ????
    1208:	62 0a       	sbc	r6, r18
    120a:	00 00       	nop
    120c:	00 00       	nop
    120e:	00 00       	nop
    1210:	44 00       	.word	0x0044	; ????
    1212:	2e 00       	.word	0x002e	; ????
    1214:	64 0a       	sbc	r6, r20
    1216:	00 00       	nop
    1218:	00 00       	nop
    121a:	00 00       	nop
    121c:	44 00       	.word	0x0044	; ????
    121e:	2f 00       	.word	0x002f	; ????
    1220:	66 0a       	sbc	r6, r22
    1222:	00 00       	nop
    1224:	00 00       	nop
    1226:	00 00       	nop
    1228:	44 00       	.word	0x0044	; ????
    122a:	30 00       	.word	0x0030	; ????
    122c:	68 0a       	sbc	r6, r24
    122e:	00 00       	nop
    1230:	00 00       	nop
    1232:	00 00       	nop
    1234:	44 00       	.word	0x0044	; ????
    1236:	31 00       	.word	0x0031	; ????
    1238:	6a 0a       	sbc	r6, r26
    123a:	00 00       	nop
    123c:	6b 01       	movw	r12, r22
    123e:	00 00       	nop
    1240:	64 00       	.word	0x0064	; ????
    1242:	00 00       	nop
    1244:	b8 08       	sbc	r11, r8
    1246:	00 00       	nop
    1248:	7b 01       	movw	r14, r22
    124a:	00 00       	nop
    124c:	84 00       	.word	0x0084	; ????
    124e:	00 00       	nop
    1250:	b8 08       	sbc	r11, r8
    1252:	00 00       	nop
    1254:	00 00       	nop
    1256:	00 00       	nop
    1258:	44 00       	.word	0x0044	; ????
    125a:	26 00       	.word	0x0026	; ????
    125c:	b8 08       	sbc	r11, r8
    125e:	00 00       	nop
    1260:	00 00       	nop
    1262:	00 00       	nop
    1264:	44 00       	.word	0x0044	; ????
    1266:	27 00       	.word	0x0027	; ????
    1268:	6a 0a       	sbc	r6, r26
    126a:	00 00       	nop
    126c:	00 00       	nop
    126e:	00 00       	nop
    1270:	44 00       	.word	0x0044	; ????
    1272:	28 00       	.word	0x0028	; ????
    1274:	6c 0a       	sbc	r6, r28
    1276:	00 00       	nop
    1278:	00 00       	nop
    127a:	00 00       	nop
    127c:	44 00       	.word	0x0044	; ????
    127e:	29 00       	.word	0x0029	; ????
    1280:	6e 0a       	sbc	r6, r30
    1282:	00 00       	nop
    1284:	00 00       	nop
    1286:	00 00       	nop
    1288:	44 00       	.word	0x0044	; ????
    128a:	2a 00       	.word	0x002a	; ????
    128c:	70 0a       	sbc	r7, r16
    128e:	00 00       	nop
    1290:	98 01       	movw	r18, r16
    1292:	00 00       	nop
    1294:	64 00       	.word	0x0064	; ????
    1296:	00 00       	nop
    1298:	b8 08       	sbc	r11, r8
    129a:	00 00       	nop
    129c:	a8 01       	movw	r20, r16
    129e:	00 00       	nop
    12a0:	84 00       	.word	0x0084	; ????
    12a2:	00 00       	nop
    12a4:	b8 08       	sbc	r11, r8
    12a6:	00 00       	nop
    12a8:	00 00       	nop
    12aa:	00 00       	nop
    12ac:	44 00       	.word	0x0044	; ????
    12ae:	2d 00       	.word	0x002d	; ????
    12b0:	b8 08       	sbc	r11, r8
    12b2:	00 00       	nop
    12b4:	00 00       	nop
    12b6:	00 00       	nop
    12b8:	44 00       	.word	0x0044	; ????
    12ba:	2e 00       	.word	0x002e	; ????
    12bc:	70 0a       	sbc	r7, r16
    12be:	00 00       	nop
    12c0:	00 00       	nop
    12c2:	00 00       	nop
    12c4:	44 00       	.word	0x0044	; ????
    12c6:	2f 00       	.word	0x002f	; ????
    12c8:	72 0a       	sbc	r7, r18
    12ca:	00 00       	nop
    12cc:	00 00       	nop
    12ce:	00 00       	nop
    12d0:	44 00       	.word	0x0044	; ????
    12d2:	30 00       	.word	0x0030	; ????
    12d4:	74 0a       	sbc	r7, r20
    12d6:	00 00       	nop
    12d8:	00 00       	nop
    12da:	00 00       	nop
    12dc:	44 00       	.word	0x0044	; ????
    12de:	31 00       	.word	0x0031	; ????
    12e0:	76 0a       	sbc	r7, r22
    12e2:	00 00       	nop
    12e4:	00 00       	nop
    12e6:	00 00       	nop
    12e8:	44 00       	.word	0x0044	; ????
    12ea:	32 00       	.word	0x0032	; ????
    12ec:	78 0a       	sbc	r7, r24
    12ee:	00 00       	nop
    12f0:	00 00       	nop
    12f2:	00 00       	nop
    12f4:	44 00       	.word	0x0044	; ????
    12f6:	33 00       	.word	0x0033	; ????
    12f8:	7a 0a       	sbc	r7, r26
    12fa:	00 00       	nop
    12fc:	00 00       	nop
    12fe:	00 00       	nop
    1300:	44 00       	.word	0x0044	; ????
    1302:	34 00       	.word	0x0034	; ????
    1304:	7c 0a       	sbc	r7, r28
    1306:	00 00       	nop
    1308:	00 00       	nop
    130a:	00 00       	nop
    130c:	44 00       	.word	0x0044	; ????
    130e:	35 00       	.word	0x0035	; ????
    1310:	7e 0a       	sbc	r7, r30
    1312:	00 00       	nop
    1314:	c6 01       	movw	r24, r12
    1316:	00 00       	nop
    1318:	64 00       	.word	0x0064	; ????
    131a:	00 00       	nop
    131c:	b8 08       	sbc	r11, r8
    131e:	00 00       	nop
    1320:	d6 01       	movw	r26, r12
    1322:	00 00       	nop
    1324:	84 00       	.word	0x0084	; ????
    1326:	00 00       	nop
    1328:	b8 08       	sbc	r11, r8
    132a:	00 00       	nop
    132c:	00 00       	nop
    132e:	00 00       	nop
    1330:	44 00       	.word	0x0044	; ????
    1332:	2d 00       	.word	0x002d	; ????
    1334:	b8 08       	sbc	r11, r8
    1336:	00 00       	nop
    1338:	00 00       	nop
    133a:	00 00       	nop
    133c:	44 00       	.word	0x0044	; ????
    133e:	2e 00       	.word	0x002e	; ????
    1340:	7e 0a       	sbc	r7, r30
    1342:	00 00       	nop
    1344:	00 00       	nop
    1346:	00 00       	nop
    1348:	44 00       	.word	0x0044	; ????
    134a:	2f 00       	.word	0x002f	; ????
    134c:	80 0a       	sbc	r8, r16
    134e:	00 00       	nop
    1350:	00 00       	nop
    1352:	00 00       	nop
    1354:	44 00       	.word	0x0044	; ????
    1356:	30 00       	.word	0x0030	; ????
    1358:	82 0a       	sbc	r8, r18
    135a:	00 00       	nop
    135c:	00 00       	nop
    135e:	00 00       	nop
    1360:	44 00       	.word	0x0044	; ????
    1362:	31 00       	.word	0x0031	; ????
    1364:	84 0a       	sbc	r8, r20
    1366:	00 00       	nop
    1368:	00 00       	nop
    136a:	00 00       	nop
    136c:	44 00       	.word	0x0044	; ????
    136e:	32 00       	.word	0x0032	; ????
    1370:	86 0a       	sbc	r8, r22
    1372:	00 00       	nop
    1374:	00 00       	nop
    1376:	00 00       	nop
    1378:	44 00       	.word	0x0044	; ????
    137a:	33 00       	.word	0x0033	; ????
    137c:	88 0a       	sbc	r8, r24
    137e:	00 00       	nop
    1380:	00 00       	nop
    1382:	00 00       	nop
    1384:	44 00       	.word	0x0044	; ????
    1386:	34 00       	.word	0x0034	; ????
    1388:	8a 0a       	sbc	r8, r26
    138a:	00 00       	nop
    138c:	00 00       	nop
    138e:	00 00       	nop
    1390:	44 00       	.word	0x0044	; ????
    1392:	35 00       	.word	0x0035	; ????
    1394:	8c 0a       	sbc	r8, r28
    1396:	00 00       	nop
    1398:	f4 01       	movw	r30, r8
    139a:	00 00       	nop
    139c:	64 00       	.word	0x0064	; ????
    139e:	00 00       	nop
    13a0:	b8 08       	sbc	r11, r8
    13a2:	00 00       	nop
    13a4:	04 02       	muls	r16, r20
    13a6:	00 00       	nop
    13a8:	84 00       	.word	0x0084	; ????
    13aa:	00 00       	nop
    13ac:	b8 08       	sbc	r11, r8
    13ae:	00 00       	nop
    13b0:	00 00       	nop
    13b2:	00 00       	nop
    13b4:	44 00       	.word	0x0044	; ????
    13b6:	2c 00       	.word	0x002c	; ????
    13b8:	b8 08       	sbc	r11, r8
    13ba:	00 00       	nop
    13bc:	00 00       	nop
    13be:	00 00       	nop
    13c0:	44 00       	.word	0x0044	; ????
    13c2:	2e 00       	.word	0x002e	; ????
    13c4:	8c 0a       	sbc	r8, r28
    13c6:	00 00       	nop
    13c8:	00 00       	nop
    13ca:	00 00       	nop
    13cc:	44 00       	.word	0x0044	; ????
    13ce:	2f 00       	.word	0x002f	; ????
    13d0:	8e 0a       	sbc	r8, r30
    13d2:	00 00       	nop
    13d4:	00 00       	nop
    13d6:	00 00       	nop
    13d8:	44 00       	.word	0x0044	; ????
    13da:	30 00       	.word	0x0030	; ????
    13dc:	90 0a       	sbc	r9, r16
    13de:	00 00       	nop
    13e0:	00 00       	nop
    13e2:	00 00       	nop
    13e4:	44 00       	.word	0x0044	; ????
    13e6:	31 00       	.word	0x0031	; ????
    13e8:	92 0a       	sbc	r9, r18
    13ea:	00 00       	nop
    13ec:	00 00       	nop
    13ee:	00 00       	nop
    13f0:	44 00       	.word	0x0044	; ????
    13f2:	32 00       	.word	0x0032	; ????
    13f4:	94 0a       	sbc	r9, r20
    13f6:	00 00       	nop
    13f8:	00 00       	nop
    13fa:	00 00       	nop
    13fc:	44 00       	.word	0x0044	; ????
    13fe:	33 00       	.word	0x0033	; ????
    1400:	96 0a       	sbc	r9, r22
    1402:	00 00       	nop
    1404:	00 00       	nop
    1406:	00 00       	nop
    1408:	44 00       	.word	0x0044	; ????
    140a:	35 00       	.word	0x0035	; ????
    140c:	98 0a       	sbc	r9, r24
    140e:	00 00       	nop
    1410:	00 00       	nop
    1412:	00 00       	nop
    1414:	44 00       	.word	0x0044	; ????
    1416:	36 00       	.word	0x0036	; ????
    1418:	9a 0a       	sbc	r9, r26
    141a:	00 00       	nop
    141c:	00 00       	nop
    141e:	00 00       	nop
    1420:	44 00       	.word	0x0044	; ????
    1422:	37 00       	.word	0x0037	; ????
    1424:	9c 0a       	sbc	r9, r28
    1426:	00 00       	nop
    1428:	00 00       	nop
    142a:	00 00       	nop
    142c:	44 00       	.word	0x0044	; ????
    142e:	38 00       	.word	0x0038	; ????
    1430:	9e 0a       	sbc	r9, r30
    1432:	00 00       	nop
    1434:	00 00       	nop
    1436:	00 00       	nop
    1438:	44 00       	.word	0x0044	; ????
    143a:	39 00       	.word	0x0039	; ????
    143c:	a0 0a       	sbc	r10, r16
    143e:	00 00       	nop
    1440:	00 00       	nop
    1442:	00 00       	nop
    1444:	44 00       	.word	0x0044	; ????
    1446:	3a 00       	.word	0x003a	; ????
    1448:	a2 0a       	sbc	r10, r18
    144a:	00 00       	nop
    144c:	00 00       	nop
    144e:	00 00       	nop
    1450:	44 00       	.word	0x0044	; ????
    1452:	3b 00       	.word	0x003b	; ????
    1454:	a4 0a       	sbc	r10, r20
    1456:	00 00       	nop
    1458:	00 00       	nop
    145a:	00 00       	nop
    145c:	44 00       	.word	0x0044	; ????
    145e:	3c 00       	.word	0x003c	; ????
    1460:	a6 0a       	sbc	r10, r22
    1462:	00 00       	nop
    1464:	00 00       	nop
    1466:	00 00       	nop
    1468:	44 00       	.word	0x0044	; ????
    146a:	3d 00       	.word	0x003d	; ????
    146c:	a8 0a       	sbc	r10, r24
    146e:	00 00       	nop
    1470:	00 00       	nop
    1472:	00 00       	nop
    1474:	44 00       	.word	0x0044	; ????
    1476:	3e 00       	.word	0x003e	; ????
    1478:	aa 0a       	sbc	r10, r26
    147a:	00 00       	nop
    147c:	00 00       	nop
    147e:	00 00       	nop
    1480:	44 00       	.word	0x0044	; ????
    1482:	40 00       	.word	0x0040	; ????
    1484:	ac 0a       	sbc	r10, r28
    1486:	00 00       	nop
    1488:	00 00       	nop
    148a:	00 00       	nop
    148c:	44 00       	.word	0x0044	; ????
    148e:	41 00       	.word	0x0041	; ????
    1490:	ae 0a       	sbc	r10, r30
    1492:	00 00       	nop
    1494:	23 02       	muls	r18, r19
    1496:	00 00       	nop
    1498:	64 00       	.word	0x0064	; ????
    149a:	00 00       	nop
    149c:	b8 08       	sbc	r11, r8
    149e:	00 00       	nop
    14a0:	33 02       	muls	r19, r19
    14a2:	00 00       	nop
    14a4:	84 00       	.word	0x0084	; ????
    14a6:	00 00       	nop
    14a8:	b8 08       	sbc	r11, r8
    14aa:	00 00       	nop
    14ac:	00 00       	nop
    14ae:	00 00       	nop
    14b0:	44 00       	.word	0x0044	; ????
    14b2:	34 00       	.word	0x0034	; ????
    14b4:	b8 08       	sbc	r11, r8
    14b6:	00 00       	nop
    14b8:	00 00       	nop
    14ba:	00 00       	nop
    14bc:	44 00       	.word	0x0044	; ????
    14be:	36 00       	.word	0x0036	; ????
    14c0:	ae 0a       	sbc	r10, r30
    14c2:	00 00       	nop
    14c4:	00 00       	nop
    14c6:	00 00       	nop
    14c8:	44 00       	.word	0x0044	; ????
    14ca:	37 00       	.word	0x0037	; ????
    14cc:	b0 0a       	sbc	r11, r16
    14ce:	00 00       	nop
    14d0:	00 00       	nop
    14d2:	00 00       	nop
    14d4:	44 00       	.word	0x0044	; ????
    14d6:	39 00       	.word	0x0039	; ????
    14d8:	b2 0a       	sbc	r11, r18
    14da:	00 00       	nop
    14dc:	00 00       	nop
    14de:	00 00       	nop
    14e0:	44 00       	.word	0x0044	; ????
    14e2:	3a 00       	.word	0x003a	; ????
    14e4:	b4 0a       	sbc	r11, r20
    14e6:	00 00       	nop
    14e8:	00 00       	nop
    14ea:	00 00       	nop
    14ec:	44 00       	.word	0x0044	; ????
    14ee:	3b 00       	.word	0x003b	; ????
    14f0:	b6 0a       	sbc	r11, r22
    14f2:	00 00       	nop
    14f4:	00 00       	nop
    14f6:	00 00       	nop
    14f8:	44 00       	.word	0x0044	; ????
    14fa:	3c 00       	.word	0x003c	; ????
    14fc:	b8 0a       	sbc	r11, r24
    14fe:	00 00       	nop
    1500:	00 00       	nop
    1502:	00 00       	nop
    1504:	44 00       	.word	0x0044	; ????
    1506:	3d 00       	.word	0x003d	; ????
    1508:	ba 0a       	sbc	r11, r26
    150a:	00 00       	nop
    150c:	00 00       	nop
    150e:	00 00       	nop
    1510:	44 00       	.word	0x0044	; ????
    1512:	3e 00       	.word	0x003e	; ????
    1514:	bc 0a       	sbc	r11, r28
    1516:	00 00       	nop
    1518:	00 00       	nop
    151a:	00 00       	nop
    151c:	44 00       	.word	0x0044	; ????
    151e:	57 00       	.word	0x0057	; ????
    1520:	be 0a       	sbc	r11, r30
    1522:	00 00       	nop
    1524:	00 00       	nop
    1526:	00 00       	nop
    1528:	44 00       	.word	0x0044	; ????
    152a:	58 00       	.word	0x0058	; ????
    152c:	be 0a       	sbc	r11, r30
    152e:	00 00       	nop
    1530:	00 00       	nop
    1532:	00 00       	nop
    1534:	44 00       	.word	0x0044	; ????
    1536:	59 00       	.word	0x0059	; ????
    1538:	c0 0a       	sbc	r12, r16
    153a:	00 00       	nop
    153c:	00 00       	nop
    153e:	00 00       	nop
    1540:	44 00       	.word	0x0044	; ????
    1542:	5a 00       	.word	0x005a	; ????
    1544:	c2 0a       	sbc	r12, r18
    1546:	00 00       	nop
    1548:	00 00       	nop
    154a:	00 00       	nop
    154c:	44 00       	.word	0x0044	; ????
    154e:	5b 00       	.word	0x005b	; ????
    1550:	c4 0a       	sbc	r12, r20
    1552:	00 00       	nop
    1554:	00 00       	nop
    1556:	00 00       	nop
    1558:	44 00       	.word	0x0044	; ????
    155a:	5c 00       	.word	0x005c	; ????
    155c:	c6 0a       	sbc	r12, r22
    155e:	00 00       	nop
    1560:	00 00       	nop
    1562:	00 00       	nop
    1564:	44 00       	.word	0x0044	; ????
    1566:	5d 00       	.word	0x005d	; ????
    1568:	c8 0a       	sbc	r12, r24
    156a:	00 00       	nop
    156c:	00 00       	nop
    156e:	00 00       	nop
    1570:	44 00       	.word	0x0044	; ????
    1572:	5e 00       	.word	0x005e	; ????
    1574:	ca 0a       	sbc	r12, r26
    1576:	00 00       	nop
    1578:	00 00       	nop
    157a:	00 00       	nop
    157c:	44 00       	.word	0x0044	; ????
    157e:	5f 00       	.word	0x005f	; ????
    1580:	cc 0a       	sbc	r12, r28
    1582:	00 00       	nop
    1584:	00 00       	nop
    1586:	00 00       	nop
    1588:	44 00       	.word	0x0044	; ????
    158a:	62 00       	.word	0x0062	; ????
    158c:	ce 0a       	sbc	r12, r30
    158e:	00 00       	nop
    1590:	00 00       	nop
    1592:	00 00       	nop
    1594:	44 00       	.word	0x0044	; ????
    1596:	63 00       	.word	0x0063	; ????
    1598:	d0 0a       	sbc	r13, r16
    159a:	00 00       	nop
    159c:	00 00       	nop
    159e:	00 00       	nop
    15a0:	44 00       	.word	0x0044	; ????
    15a2:	64 00       	.word	0x0064	; ????
    15a4:	d2 0a       	sbc	r13, r18
    15a6:	00 00       	nop
    15a8:	00 00       	nop
    15aa:	00 00       	nop
    15ac:	44 00       	.word	0x0044	; ????
    15ae:	65 00       	.word	0x0065	; ????
    15b0:	d4 0a       	sbc	r13, r20
    15b2:	00 00       	nop
    15b4:	00 00       	nop
    15b6:	00 00       	nop
    15b8:	44 00       	.word	0x0044	; ????
    15ba:	66 00       	.word	0x0066	; ????
    15bc:	d6 0a       	sbc	r13, r22
    15be:	00 00       	nop
    15c0:	00 00       	nop
    15c2:	00 00       	nop
    15c4:	44 00       	.word	0x0044	; ????
    15c6:	68 00       	.word	0x0068	; ????
    15c8:	d8 0a       	sbc	r13, r24
    15ca:	00 00       	nop
    15cc:	00 00       	nop
    15ce:	00 00       	nop
    15d0:	44 00       	.word	0x0044	; ????
    15d2:	69 00       	.word	0x0069	; ????
    15d4:	da 0a       	sbc	r13, r26
    15d6:	00 00       	nop
    15d8:	00 00       	nop
    15da:	00 00       	nop
    15dc:	44 00       	.word	0x0044	; ????
    15de:	6a 00       	.word	0x006a	; ????
    15e0:	dc 0a       	sbc	r13, r28
    15e2:	00 00       	nop
    15e4:	00 00       	nop
    15e6:	00 00       	nop
    15e8:	44 00       	.word	0x0044	; ????
    15ea:	6d 00       	.word	0x006d	; ????
    15ec:	de 0a       	sbc	r13, r30
    15ee:	00 00       	nop
    15f0:	00 00       	nop
    15f2:	00 00       	nop
    15f4:	44 00       	.word	0x0044	; ????
    15f6:	6e 00       	.word	0x006e	; ????
    15f8:	e0 0a       	sbc	r14, r16
    15fa:	00 00       	nop
    15fc:	00 00       	nop
    15fe:	00 00       	nop
    1600:	44 00       	.word	0x0044	; ????
    1602:	6f 00       	.word	0x006f	; ????
    1604:	e2 0a       	sbc	r14, r18
    1606:	00 00       	nop
    1608:	00 00       	nop
    160a:	00 00       	nop
    160c:	44 00       	.word	0x0044	; ????
    160e:	70 00       	.word	0x0070	; ????
    1610:	e4 0a       	sbc	r14, r20
    1612:	00 00       	nop
    1614:	00 00       	nop
    1616:	00 00       	nop
    1618:	44 00       	.word	0x0044	; ????
    161a:	71 00       	.word	0x0071	; ????
    161c:	e6 0a       	sbc	r14, r22
    161e:	00 00       	nop
    1620:	00 00       	nop
    1622:	00 00       	nop
    1624:	44 00       	.word	0x0044	; ????
    1626:	73 00       	.word	0x0073	; ????
    1628:	e8 0a       	sbc	r14, r24
    162a:	00 00       	nop
    162c:	00 00       	nop
    162e:	00 00       	nop
    1630:	44 00       	.word	0x0044	; ????
    1632:	74 00       	.word	0x0074	; ????
    1634:	ea 0a       	sbc	r14, r26
    1636:	00 00       	nop
    1638:	00 00       	nop
    163a:	00 00       	nop
    163c:	44 00       	.word	0x0044	; ????
    163e:	75 00       	.word	0x0075	; ????
    1640:	ec 0a       	sbc	r14, r28
    1642:	00 00       	nop
    1644:	00 00       	nop
    1646:	00 00       	nop
    1648:	44 00       	.word	0x0044	; ????
    164a:	76 00       	.word	0x0076	; ????
    164c:	ee 0a       	sbc	r14, r30
    164e:	00 00       	nop
    1650:	00 00       	nop
    1652:	00 00       	nop
    1654:	44 00       	.word	0x0044	; ????
    1656:	77 00       	.word	0x0077	; ????
    1658:	f0 0a       	sbc	r15, r16
    165a:	00 00       	nop
    165c:	00 00       	nop
    165e:	00 00       	nop
    1660:	44 00       	.word	0x0044	; ????
    1662:	78 00       	.word	0x0078	; ????
    1664:	f2 0a       	sbc	r15, r18
    1666:	00 00       	nop
    1668:	53 02       	muls	r21, r19
    166a:	00 00       	nop
    166c:	64 00       	.word	0x0064	; ????
    166e:	00 00       	nop
    1670:	b8 08       	sbc	r11, r8
    1672:	00 00       	nop
    1674:	63 02       	muls	r22, r19
    1676:	00 00       	nop
    1678:	84 00       	.word	0x0084	; ????
    167a:	00 00       	nop
    167c:	b8 08       	sbc	r11, r8
    167e:	00 00       	nop
    1680:	00 00       	nop
    1682:	00 00       	nop
    1684:	44 00       	.word	0x0044	; ????
    1686:	27 00       	.word	0x0027	; ????
    1688:	b8 08       	sbc	r11, r8
    168a:	00 00       	nop
    168c:	00 00       	nop
    168e:	00 00       	nop
    1690:	44 00       	.word	0x0044	; ????
    1692:	28 00       	.word	0x0028	; ????
    1694:	f2 0a       	sbc	r15, r18
    1696:	00 00       	nop
    1698:	00 00       	nop
    169a:	00 00       	nop
    169c:	44 00       	.word	0x0044	; ????
    169e:	29 00       	.word	0x0029	; ????
    16a0:	f4 0a       	sbc	r15, r20
    16a2:	00 00       	nop
    16a4:	00 00       	nop
    16a6:	00 00       	nop
    16a8:	44 00       	.word	0x0044	; ????
    16aa:	2a 00       	.word	0x002a	; ????
    16ac:	f4 0a       	sbc	r15, r20
    16ae:	00 00       	nop
    16b0:	00 00       	nop
    16b2:	00 00       	nop
    16b4:	44 00       	.word	0x0044	; ????
    16b6:	2b 00       	.word	0x002b	; ????
    16b8:	f6 0a       	sbc	r15, r22
    16ba:	00 00       	nop
    16bc:	00 00       	nop
    16be:	00 00       	nop
    16c0:	44 00       	.word	0x0044	; ????
    16c2:	2c 00       	.word	0x002c	; ????
    16c4:	f8 0a       	sbc	r15, r24
    16c6:	00 00       	nop
    16c8:	00 00       	nop
    16ca:	00 00       	nop
    16cc:	44 00       	.word	0x0044	; ????
    16ce:	2d 00       	.word	0x002d	; ????
    16d0:	fa 0a       	sbc	r15, r26
    16d2:	00 00       	nop
    16d4:	00 00       	nop
    16d6:	00 00       	nop
    16d8:	44 00       	.word	0x0044	; ????
    16da:	2e 00       	.word	0x002e	; ????
    16dc:	fc 0a       	sbc	r15, r28
    16de:	00 00       	nop
    16e0:	00 00       	nop
    16e2:	00 00       	nop
    16e4:	44 00       	.word	0x0044	; ????
    16e6:	2f 00       	.word	0x002f	; ????
    16e8:	fe 0a       	sbc	r15, r30
    16ea:	00 00       	nop
    16ec:	00 00       	nop
    16ee:	00 00       	nop
    16f0:	44 00       	.word	0x0044	; ????
    16f2:	30 00       	.word	0x0030	; ????
    16f4:	00 0b       	sbc	r16, r16
	...

Disassembly of section .stabstr:

00000000 <.stabstr>:
__vectors():
../../../../crt1/gcrt1.S:52
   0:	00 2f       	mov	r16, r16
   2:	74 6d       	ori	r23, 0xD4	; 212
../../../../crt1/gcrt1.S:53
   4:	70 2f       	mov	r23, r16
   6:	63 63       	ori	r22, 0x33	; 51
../../../../crt1/gcrt1.S:54
   8:	43 37       	cpi	r20, 0x73	; 115
   a:	6a 68       	ori	r22, 0x8A	; 138
../../../../crt1/gcrt1.S:55
   c:	61 79       	andi	r22, 0x91	; 145
   e:	2e 73       	andi	r18, 0x3E	; 62
../../../../crt1/gcrt1.S:56
  10:	00 76       	andi	r16, 0x60	; 96
  12:	6f 69       	ori	r22, 0x9F	; 159
../../../../crt1/gcrt1.S:57
  14:	64 3a       	cpi	r22, 0xA4	; 164
  16:	74 31       	cpi	r23, 0x14	; 20
../../../../crt1/gcrt1.S:58
  18:	3d 31       	cpi	r19, 0x1D	; 29
  1a:	00 5f       	subi	r16, 0xF0	; 240
../../../../crt1/gcrt1.S:59
  1c:	5f 76       	andi	r21, 0x6F	; 111
  1e:	65 63       	ori	r22, 0x35	; 53
../../../../crt1/gcrt1.S:60
  20:	74 6f       	ori	r23, 0xF4	; 244
  22:	72 73       	andi	r23, 0x32	; 50
../../../../crt1/gcrt1.S:61
  24:	3a 46       	sbci	r19, 0x6A	; 106
  26:	31 00       	.word	0x0031	; ????
../../../../crt1/gcrt1.S:62
  28:	2e 2e       	mov	r2, r30
  2a:	2f 2e       	mov	r2, r31
../../../../crt1/gcrt1.S:63
  2c:	2e 2f       	mov	r18, r30
  2e:	2e 2e       	mov	r2, r30
../../../../crt1/gcrt1.S:64
  30:	2f 2e       	mov	r2, r31
  32:	2e 2f       	mov	r18, r30
../../../../crt1/gcrt1.S:65
  34:	63 72       	andi	r22, 0x23	; 35
  36:	74 31       	cpi	r23, 0x14	; 20
../../../../crt1/gcrt1.S:66
  38:	2f 67       	ori	r18, 0x7F	; 127
  3a:	63 72       	andi	r22, 0x23	; 35
../../../../crt1/gcrt1.S:67
  3c:	74 31       	cpi	r23, 0x14	; 20
  3e:	2e 53       	subi	r18, 0x3E	; 62
../../../../crt1/gcrt1.S:68
  40:	00 5f       	subi	r16, 0xF0	; 240
  42:	5f 62       	ori	r21, 0x2F	; 47
../../../../crt1/gcrt1.S:69
  44:	61 64       	ori	r22, 0x41	; 65
  46:	5f 69       	ori	r21, 0x9F	; 159
../../../../crt1/gcrt1.S:70
  48:	6e 74       	andi	r22, 0x4E	; 78
  4a:	65 72       	andi	r22, 0x25	; 37
../../../../crt1/gcrt1.S:71
  4c:	72 75       	andi	r23, 0x52	; 82
  4e:	70 74       	andi	r23, 0x40	; 64
../../../../crt1/gcrt1.S:72
  50:	3a 46       	sbci	r19, 0x6A	; 106
  52:	31 00       	.word	0x0031	; ????
../../../../crt1/gcrt1.S:73
  54:	2f 74       	andi	r18, 0x4F	; 79
  56:	6d 70       	andi	r22, 0x0D	; 13
../../../../crt1/gcrt1.S:74
  58:	2f 63       	ori	r18, 0x3F	; 63
  5a:	63 62       	ori	r22, 0x23	; 35
../../../../crt1/gcrt1.S:75
  5c:	58 66       	ori	r21, 0x68	; 104
  5e:	6e 34       	cpi	r22, 0x4E	; 78
../../../../crt1/gcrt1.S:76
  60:	6f 2e       	mov	r6, r31
  62:	73 00       	.word	0x0073	; ????
../../../../crt1/gcrt1.S:77
  64:	2e 2e       	mov	r2, r30
  66:	2f 2e       	mov	r2, r31
../../../../crt1/gcrt1.S:78
  68:	2e 2f       	mov	r18, r30
  6a:	2e 2e       	mov	r2, r30
../../../../crt1/gcrt1.S:79
  6c:	2f 6c       	ori	r18, 0xCF	; 207
  6e:	69 62       	ori	r22, 0x29	; 41
../../../../crt1/gcrt1.S:80
  70:	6d 2f       	mov	r22, r29
  72:	66 70       	andi	r22, 0x06	; 6
../../../../crt1/gcrt1.S:81
  74:	6c 69       	ori	r22, 0x9C	; 156
  76:	62 2f       	mov	r22, r18
../../../../crt1/gcrt1.S:82
  78:	61 64       	ori	r22, 0x41	; 65
  7a:	64 73       	andi	r22, 0x34	; 52
../../../../crt1/gcrt1.S:83
  7c:	66 33       	cpi	r22, 0x36	; 54
  7e:	2e 53       	subi	r18, 0x3E	; 62
../../../../crt1/gcrt1.S:84
  80:	00 2f       	mov	r16, r16
  82:	74 6d       	ori	r23, 0xD4	; 212
../../../../crt1/gcrt1.S:85
  84:	70 2f       	mov	r23, r16
  86:	63 63       	ori	r22, 0x33	; 51
../../../../crt1/gcrt1.S:86
  88:	4b 49       	sbci	r20, 0x9B	; 155
  8a:	4c 76       	andi	r20, 0x6C	; 108
../../../../crt1/gcrt1.S:179
  8c:	65 73       	andi	r22, 0x35	; 53
  8e:	2e 73       	andi	r18, 0x3E	; 62
  90:	00 2e       	mov	r0, r16
  92:	2e 2f       	mov	r18, r30
  94:	2e 2e       	mov	r2, r30
  96:	2f 2e       	mov	r2, r31
  98:	2e 2f       	mov	r18, r30
  9a:	6c 69       	ori	r22, 0x9C	; 156
  9c:	62 6d       	ori	r22, 0xD2	; 210
  9e:	2f 66       	ori	r18, 0x6F	; 111
  a0:	70 6c       	ori	r23, 0xC0	; 192
  a2:	69 62       	ori	r22, 0x29	; 41
  a4:	2f 61       	ori	r18, 0x1F	; 31
  a6:	64 64       	ori	r22, 0x44	; 68
  a8:	73 66       	ori	r23, 0x63	; 99
  aa:	33 78       	andi	r19, 0x83	; 131
  ac:	2e 53       	subi	r18, 0x3E	; 62
  ae:	00 2f       	mov	r16, r16
__bad_interrupt():
../../../../crt1/gcrt1.S:195
  b0:	74 6d       	ori	r23, 0xD4	; 212
  b2:	70 2f       	mov	r23, r16
main():
/home/becker/async/autosafe/trunk/tum/wcet-cbmc/benchmarks/ud/ud.c:92
  b4:	63 63       	ori	r22, 0x33	; 51
  b6:	6f 70       	andi	r22, 0x0F	; 15
  b8:	72 6d       	ori	r23, 0xD2	; 210
  ba:	6f 76       	andi	r22, 0x6F	; 111
  bc:	2e 73       	andi	r18, 0x3E	; 62
  be:	00 2e       	mov	r0, r16
  c0:	2e 2f       	mov	r18, r30
  c2:	2e 2e       	mov	r2, r30
  c4:	2f 2e       	mov	r2, r31
  c6:	2e 2f       	mov	r18, r30
/home/becker/async/autosafe/trunk/tum/wcet-cbmc/benchmarks/ud/ud.c:93
  c8:	6c 69       	ori	r22, 0x9C	; 156
  ca:	62 6d       	ori	r22, 0xD2	; 210
  cc:	2f 66       	ori	r18, 0x6F	; 111
  ce:	70 6c       	ori	r23, 0xC0	; 192
  d0:	69 62       	ori	r22, 0x29	; 41
  d2:	2f 66       	ori	r18, 0x6F	; 111
  d4:	69 78       	andi	r22, 0x89	; 137
  d6:	73 66       	ori	r23, 0x63	; 99
/home/becker/async/autosafe/trunk/tum/wcet-cbmc/benchmarks/ud/ud.c:99
  d8:	73 69       	ori	r23, 0x93	; 147
  da:	2e 53       	subi	r18, 0x3E	; 62
  dc:	00 2f       	mov	r16, r16
/home/becker/async/autosafe/trunk/tum/wcet-cbmc/benchmarks/ud/ud.c:101
  de:	74 6d       	ori	r23, 0xD4	; 212
  e0:	70 2f       	mov	r23, r16
  e2:	63 63       	ori	r22, 0x33	; 51
  e4:	39 70       	andi	r19, 0x09	; 9
/home/becker/async/autosafe/trunk/tum/wcet-cbmc/benchmarks/ud/ud.c:102
  e6:	43 49       	sbci	r20, 0x93	; 147
  e8:	41 79       	andi	r20, 0x91	; 145
  ea:	2e 73       	andi	r18, 0x3E	; 62
/home/becker/async/autosafe/trunk/tum/wcet-cbmc/benchmarks/ud/ud.c:104
  ec:	00 2e       	mov	r0, r16
  ee:	2e 2f       	mov	r18, r30
  f0:	2e 2e       	mov	r2, r30
  f2:	2f 2e       	mov	r2, r31
  f4:	2e 2f       	mov	r18, r30
  f6:	6c 69       	ori	r22, 0x9C	; 156
  f8:	62 6d       	ori	r22, 0xD2	; 210
  fa:	2f 66       	ori	r18, 0x6F	; 111
  fc:	70 6c       	ori	r23, 0xC0	; 192
  fe:	69 62       	ori	r22, 0x29	; 41
 100:	2f 66       	ori	r18, 0x6F	; 111
 102:	69 78       	andi	r22, 0x89	; 137
 104:	75 6e       	ori	r23, 0xE5	; 229
 106:	73 73       	andi	r23, 0x33	; 51
 108:	66 73       	andi	r22, 0x36	; 54
 10a:	69 2e       	mov	r6, r25
 10c:	53 00       	.word	0x0053	; ????
 10e:	2f 74       	andi	r18, 0x4F	; 79
 110:	6d 70       	andi	r22, 0x0D	; 13
 112:	2f 63       	ori	r18, 0x3F	; 63
 114:	63 68       	ori	r22, 0x83	; 131
 116:	49 78       	andi	r20, 0x89	; 137
 118:	46 42       	sbci	r20, 0x26	; 38
 11a:	41 2e       	mov	r4, r17
 11c:	73 00       	.word	0x0073	; ????
 11e:	2e 2e       	mov	r2, r30
 120:	2f 2e       	mov	r2, r31
 122:	2e 2f       	mov	r18, r30
 124:	2e 2e       	mov	r2, r30
 126:	2f 6c       	ori	r18, 0xCF	; 207
 128:	69 62       	ori	r22, 0x29	; 41
 12a:	6d 2f       	mov	r22, r29
 12c:	66 70       	andi	r22, 0x06	; 6
 12e:	6c 69       	ori	r22, 0x9C	; 156
 130:	62 2f       	mov	r22, r18
 132:	66 6c       	ori	r22, 0xC6	; 198
 134:	6f 61       	ori	r22, 0x1F	; 31
/home/becker/async/autosafe/trunk/tum/wcet-cbmc/benchmarks/ud/ud.c:105
 136:	74 73       	andi	r23, 0x34	; 52
 138:	69 73       	andi	r22, 0x39	; 57
 13a:	66 2e       	mov	r6, r22
 13c:	53 00       	.word	0x0053	; ????
 13e:	2f 74       	andi	r18, 0x4F	; 79
 140:	6d 70       	andi	r22, 0x0D	; 13
 142:	2f 63       	ori	r18, 0x3F	; 63
 144:	63 6e       	ori	r22, 0xE3	; 227
/home/becker/async/autosafe/trunk/tum/wcet-cbmc/benchmarks/ud/ud.c:106
 146:	54 57       	subi	r21, 0x74	; 116
 148:	77 37       	cpi	r23, 0x77	; 119
 14a:	4a 2e       	mov	r4, r26
 14c:	73 00       	.word	0x0073	; ????
 14e:	2e 2e       	mov	r2, r30
 150:	2f 2e       	mov	r2, r31
 152:	2e 2f       	mov	r18, r30
 154:	2e 2e       	mov	r2, r30
 156:	2f 6c       	ori	r18, 0xCF	; 207
 158:	69 62       	ori	r22, 0x29	; 41
 15a:	6d 2f       	mov	r22, r29
 15c:	66 70       	andi	r22, 0x06	; 6
 15e:	6c 69       	ori	r22, 0x9C	; 156
 160:	62 2f       	mov	r22, r18
 162:	66 70       	andi	r22, 0x06	; 6
 164:	5f 69       	ori	r21, 0x9F	; 159
 166:	6e 66       	ori	r22, 0x6E	; 110
 168:	2e 53       	subi	r18, 0x3E	; 62
 16a:	00 2f       	mov	r16, r16
 16c:	74 6d       	ori	r23, 0xD4	; 212
 16e:	70 2f       	mov	r23, r16
 170:	63 63       	ori	r22, 0x33	; 51
 172:	44 6e       	ori	r20, 0xE4	; 228
 174:	41 57       	subi	r20, 0x71	; 113
 176:	76 50       	subi	r23, 0x06	; 6
 178:	2e 73       	andi	r18, 0x3E	; 62
 17a:	00 2e       	mov	r0, r16
 17c:	2e 2f       	mov	r18, r30
 17e:	2e 2e       	mov	r2, r30
 180:	2f 2e       	mov	r2, r31
 182:	2e 2f       	mov	r18, r30
 184:	6c 69       	ori	r22, 0x9C	; 156
 186:	62 6d       	ori	r22, 0xD2	; 210
 188:	2f 66       	ori	r18, 0x6F	; 111
 18a:	70 6c       	ori	r23, 0xC0	; 192
 18c:	69 62       	ori	r22, 0x29	; 41
 18e:	2f 66       	ori	r18, 0x6F	; 111
 190:	70 5f       	subi	r23, 0xF0	; 240
 192:	6e 61       	ori	r22, 0x1E	; 30
 194:	6e 2e       	mov	r6, r30
 196:	53 00       	.word	0x0053	; ????
 198:	2f 74       	andi	r18, 0x4F	; 79
 19a:	6d 70       	andi	r22, 0x0D	; 13
 19c:	2f 63       	ori	r18, 0x3F	; 63
 19e:	63 4a       	sbci	r22, 0xA3	; 163
 1a0:	59 6c       	ori	r21, 0xC9	; 201
 1a2:	50 6d       	ori	r21, 0xD0	; 208
 1a4:	55 2e       	mov	r5, r21
 1a6:	73 00       	.word	0x0073	; ????
 1a8:	2e 2e       	mov	r2, r30
 1aa:	2f 2e       	mov	r2, r31
 1ac:	2e 2f       	mov	r18, r30
 1ae:	2e 2e       	mov	r2, r30
 1b0:	2f 6c       	ori	r18, 0xCF	; 207
 1b2:	69 62       	ori	r22, 0x29	; 41
 1b4:	6d 2f       	mov	r22, r29
 1b6:	66 70       	andi	r22, 0x06	; 6
 1b8:	6c 69       	ori	r22, 0x9C	; 156
 1ba:	62 2f       	mov	r22, r18
 1bc:	66 70       	andi	r22, 0x06	; 6
 1be:	5f 70       	andi	r21, 0x0F	; 15
 1c0:	73 63       	ori	r23, 0x33	; 51
 1c2:	41 2e       	mov	r4, r17
 1c4:	53 00       	.word	0x0053	; ????
 1c6:	2f 74       	andi	r18, 0x4F	; 79
 1c8:	6d 70       	andi	r22, 0x0D	; 13
/home/becker/async/autosafe/trunk/tum/wcet-cbmc/benchmarks/ud/ud.c:107
 1ca:	2f 63       	ori	r18, 0x3F	; 63
 1cc:	63 47       	sbci	r22, 0x73	; 115
 1ce:	51 44       	sbci	r21, 0x41	; 65
 1d0:	74 6e       	ori	r23, 0xE4	; 228
 1d2:	54 2e       	mov	r5, r20
 1d4:	73 00       	.word	0x0073	; ????
 1d6:	2e 2e       	mov	r2, r30
 1d8:	2f 2e       	mov	r2, r31
 1da:	2e 2f       	mov	r18, r30
 1dc:	2e 2e       	mov	r2, r30
 1de:	2f 6c       	ori	r18, 0xCF	; 207
 1e0:	69 62       	ori	r22, 0x29	; 41
 1e2:	6d 2f       	mov	r22, r29
 1e4:	66 70       	andi	r22, 0x06	; 6
 1e6:	6c 69       	ori	r22, 0x9C	; 156
 1e8:	62 2f       	mov	r22, r18
 1ea:	66 70       	andi	r22, 0x06	; 6
 1ec:	5f 70       	andi	r21, 0x0F	; 15
 1ee:	73 63       	ori	r23, 0x33	; 51
 1f0:	42 2e       	mov	r4, r18
 1f2:	53 00       	.word	0x0053	; ????
 1f4:	2f 74       	andi	r18, 0x4F	; 79
 1f6:	6d 70       	andi	r22, 0x0D	; 13
 1f8:	2f 63       	ori	r18, 0x3F	; 63
 1fa:	63 6b       	ori	r22, 0xB3	; 179
 1fc:	30 39       	cpi	r19, 0x90	; 144
 1fe:	62 53       	subi	r22, 0x32	; 50
 200:	56 2e       	mov	r5, r22
 202:	73 00       	.word	0x0073	; ????
 204:	2e 2e       	mov	r2, r30
 206:	2f 2e       	mov	r2, r31
 208:	2e 2f       	mov	r18, r30
 20a:	2e 2e       	mov	r2, r30
 20c:	2f 6c       	ori	r18, 0xCF	; 207
 20e:	69 62       	ori	r22, 0x29	; 41
/home/becker/async/autosafe/trunk/tum/wcet-cbmc/benchmarks/ud/ud.c:102
 210:	6d 2f       	mov	r22, r29
 212:	66 70       	andi	r22, 0x06	; 6
 214:	6c 69       	ori	r22, 0x9C	; 156
 216:	62 2f       	mov	r22, r18
 218:	66 70       	andi	r22, 0x06	; 6
 21a:	5f 72       	andi	r21, 0x2F	; 47
 21c:	6f 75       	andi	r22, 0x5F	; 95
 21e:	6e 64       	ori	r22, 0x4E	; 78
 220:	2e 53       	subi	r18, 0x3E	; 62
 222:	00 2f       	mov	r16, r16
 224:	74 6d       	ori	r23, 0xD4	; 212
 226:	70 2f       	mov	r23, r16
 228:	63 63       	ori	r22, 0x33	; 51
/home/becker/async/autosafe/trunk/tum/wcet-cbmc/benchmarks/ud/ud.c:109
 22a:	51 6f       	ori	r21, 0xF1	; 241
 22c:	39 48       	sbci	r19, 0x89	; 137
 22e:	53 5a       	subi	r21, 0xA3	; 163
 230:	2e 73       	andi	r18, 0x3E	; 62
 232:	00 2e       	mov	r0, r16
 234:	2e 2f       	mov	r18, r30
 236:	2e 2e       	mov	r2, r30
 238:	2f 2e       	mov	r2, r31
 23a:	2e 2f       	mov	r18, r30
 23c:	6c 69       	ori	r22, 0x9C	; 156
 23e:	62 6d       	ori	r22, 0xD2	; 210
 240:	2f 66       	ori	r18, 0x6F	; 111
 242:	70 6c       	ori	r23, 0xC0	; 192
 244:	69 62       	ori	r22, 0x29	; 41
 246:	2f 66       	ori	r18, 0x6F	; 111
 248:	70 5f       	subi	r23, 0xF0	; 240
 24a:	73 70       	andi	r23, 0x03	; 3
 24c:	6c 69       	ori	r22, 0x9C	; 156
/home/becker/async/autosafe/trunk/tum/wcet-cbmc/benchmarks/ud/ud.c:99
 24e:	74 33       	cpi	r23, 0x34	; 52
 250:	2e 53       	subi	r18, 0x3E	; 62
 252:	00 2f       	mov	r16, r16
 254:	74 6d       	ori	r23, 0xD4	; 212
 256:	70 2f       	mov	r23, r16
 258:	63 63       	ori	r22, 0x33	; 51
 25a:	72 72       	andi	r23, 0x22	; 34
 25c:	37 6a       	ori	r19, 0xA7	; 167
 25e:	34 31       	cpi	r19, 0x14	; 20
 260:	2e 73       	andi	r18, 0x3E	; 62
 262:	00 2e       	mov	r0, r16
 264:	2e 2f       	mov	r18, r30
 266:	2e 2e       	mov	r2, r30
/home/becker/async/autosafe/trunk/tum/wcet-cbmc/benchmarks/ud/ud.c:113
 268:	2f 2e       	mov	r2, r31
 26a:	2e 2f       	mov	r18, r30
 26c:	6c 69       	ori	r22, 0x9C	; 156
 26e:	62 6d       	ori	r22, 0xD2	; 210
 270:	2f 66       	ori	r18, 0x6F	; 111
 272:	70 6c       	ori	r23, 0xC0	; 192
 274:	69 62       	ori	r22, 0x29	; 41
 276:	2f 66       	ori	r18, 0x6F	; 111
 278:	70 5f       	subi	r23, 0xF0	; 240
/home/becker/async/autosafe/trunk/tum/wcet-cbmc/benchmarks/ud/ud.c:114
 27a:	7a 65       	ori	r23, 0x5A	; 90
 27c:	72 6f       	ori	r23, 0xF2	; 242
 27e:	2e 53       	subi	r18, 0x3E	; 62
	...

Disassembly of section .comment:

00000000 <.comment>:
__vectors():
../../../../crt1/gcrt1.S:52
   0:	47 43       	sbci	r20, 0x37	; 55
   2:	43 3a       	cpi	r20, 0xA3	; 163
../../../../crt1/gcrt1.S:53
   4:	20 28       	or	r2, r0
   6:	47 4e       	sbci	r20, 0xE7	; 231
../../../../crt1/gcrt1.S:54
   8:	55 29       	or	r21, r5
   a:	20 34       	cpi	r18, 0x40	; 64
../../../../crt1/gcrt1.S:55
   c:	2e 37       	cpi	r18, 0x7E	; 126
   e:	2e 32       	cpi	r18, 0x2E	; 46
	...

Disassembly of section .debug_aranges:

00000000 <.debug_aranges>:
../../../../crt1/gcrt1.S:52
   0:	1c 00       	.word	0x001c	; ????
   2:	00 00       	nop
../../../../crt1/gcrt1.S:53
   4:	02 00       	.word	0x0002	; ????
   6:	00 00       	nop
../../../../crt1/gcrt1.S:54
   8:	00 00       	nop
   a:	04 00       	.word	0x0004	; ????
../../../../crt1/gcrt1.S:55
   c:	00 00       	nop
   e:	00 00       	nop
../../../../crt1/gcrt1.S:56
  10:	b4 00       	.word	0x00b4	; ????
  12:	00 00       	nop
../../../../crt1/gcrt1.S:57
  14:	04 08       	sbc	r0, r4
	...

Disassembly of section .debug_info:

00000000 <.debug_info>:
../../../../crt1/gcrt1.S:52
   0:	7a 01       	movw	r14, r20
   2:	00 00       	nop
../../../../crt1/gcrt1.S:53
   4:	02 00       	.word	0x0002	; ????
   6:	00 00       	nop
../../../../crt1/gcrt1.S:54
   8:	00 00       	nop
   a:	04 01       	movw	r0, r8
../../../../crt1/gcrt1.S:55
   c:	07 00       	.word	0x0007	; ????
   e:	00 00       	nop
../../../../crt1/gcrt1.S:56
  10:	01 13       	cpse	r16, r17
  12:	00 00       	nop
../../../../crt1/gcrt1.S:57
  14:	00 24       	eor	r0, r0
  16:	00 00       	nop
../../../../crt1/gcrt1.S:58
  18:	00 b4       	in	r0, 0x20	; 32
  1a:	00 00       	nop
../../../../crt1/gcrt1.S:59
  1c:	00 b8       	out	0x00, r0	; 0
  1e:	08 00       	.word	0x0008	; ????
../../../../crt1/gcrt1.S:60
  20:	00 00       	nop
  22:	00 00       	nop
../../../../crt1/gcrt1.S:61
  24:	00 02       	muls	r16, r16
  26:	01 74       	andi	r16, 0x41	; 65
../../../../crt1/gcrt1.S:62
  28:	00 00       	nop
  2a:	00 01       	movw	r0, r0
../../../../crt1/gcrt1.S:63
  2c:	5b b4       	in	r5, 0x2b	; 43
  2e:	00 00       	nop
../../../../crt1/gcrt1.S:64
  30:	00 8c       	ldd	r0, Z+24	; 0x18
  32:	02 00       	.word	0x0002	; ????
../../../../crt1/gcrt1.S:65
  34:	00 00       	nop
  36:	00 00       	nop
../../../../crt1/gcrt1.S:66
  38:	00 01       	movw	r0, r0
  3a:	8b 00       	.word	0x008b	; ????
../../../../crt1/gcrt1.S:67
  3c:	00 00       	nop
  3e:	03 69       	ori	r16, 0x93	; 147
../../../../crt1/gcrt1.S:68
  40:	00 01       	movw	r0, r0
  42:	5d 8b       	std	Y+21, r21	; 0x15
../../../../crt1/gcrt1.S:69
  44:	00 00       	nop
  46:	00 02       	muls	r16, r16
../../../../crt1/gcrt1.S:70
  48:	8c 01       	movw	r16, r24
  4a:	03 6a       	ori	r16, 0xA3	; 163
../../../../crt1/gcrt1.S:71
  4c:	00 01       	movw	r0, r0
  4e:	5d 8b       	std	Y+21, r21	; 0x15
../../../../crt1/gcrt1.S:72
  50:	00 00       	nop
  52:	00 02       	muls	r16, r16
../../../../crt1/gcrt1.S:73
  54:	8c 03       	fmulsu	r16, r20
  56:	04 18       	sub	r0, r4
../../../../crt1/gcrt1.S:74
  58:	00 00       	nop
  5a:	00 01       	movw	r0, r0
../../../../crt1/gcrt1.S:75
  5c:	5d 8b       	std	Y+21, r21	; 0x15
  5e:	00 00       	nop
../../../../crt1/gcrt1.S:76
  60:	00 02       	muls	r16, r16
  62:	8c 09       	sbc	r24, r12
../../../../crt1/gcrt1.S:77
  64:	03 6e       	ori	r16, 0xE3	; 227
  66:	00 01       	movw	r0, r0
../../../../crt1/gcrt1.S:78
  68:	5d 8b       	std	Y+21, r21	; 0x15
  6a:	00 00       	nop
../../../../crt1/gcrt1.S:79
  6c:	00 02       	muls	r16, r16
  6e:	8c 0b       	sbc	r24, r28
../../../../crt1/gcrt1.S:80
  70:	04 00       	.word	0x0004	; ????
  72:	00 00       	nop
../../../../crt1/gcrt1.S:81
  74:	00 01       	movw	r0, r0
  76:	5d 8b       	std	Y+21, r21	; 0x15
../../../../crt1/gcrt1.S:82
  78:	00 00       	nop
  7a:	00 02       	muls	r16, r16
../../../../crt1/gcrt1.S:83
  7c:	8c 0d       	add	r24, r12
  7e:	03 77       	andi	r16, 0x73	; 115
../../../../crt1/gcrt1.S:84
  80:	00 01       	movw	r0, r0
  82:	5e 92       	st	-X, r5
../../../../crt1/gcrt1.S:85
  84:	00 00       	nop
  86:	00 02       	muls	r16, r16
../../../../crt1/gcrt1.S:86
  88:	8c 05       	cpc	r24, r12
  8a:	00 05       	cpc	r16, r0
../../../../crt1/gcrt1.S:179
  8c:	02 05       	cpc	r16, r2
  8e:	69 6e       	ori	r22, 0xE9	; 233
  90:	74 00       	.word	0x0074	; ????
  92:	06 04       	cpc	r0, r6
  94:	05 62       	ori	r16, 0x25	; 37
  96:	00 00       	nop
  98:	00 07       	cpc	r16, r16
  9a:	01 1d       	adc	r16, r1
  9c:	00 00       	nop
  9e:	00 01       	movw	r0, r0
  a0:	74 01       	movw	r14, r8
  a2:	8b 00       	.word	0x008b	; ????
  a4:	00 00       	nop
  a6:	8c 02       	muls	r24, r28
  a8:	00 00       	nop
  aa:	b8 08       	sbc	r11, r8
  ac:	00 00       	nop
  ae:	47 00       	.word	0x0047	; ????
__bad_interrupt():
../../../../crt1/gcrt1.S:195
  b0:	00 00       	nop
  b2:	01 10       	cpse	r0, r1
main():
/home/becker/async/autosafe/trunk/tum/wcet-cbmc/benchmarks/ud/ud.c:92
  b4:	01 00       	.word	0x0001	; ????
  b6:	00 08       	sbc	r0, r0
  b8:	18 00       	.word	0x0018	; ????
  ba:	00 00       	nop
  bc:	01 74       	andi	r16, 0x41	; 65
  be:	8b 00       	.word	0x008b	; ????
  c0:	00 00       	nop
  c2:	03 8c       	ldd	r0, Z+27	; 0x1b
  c4:	9b 03       	fmulsu	r17, r19
  c6:	09 6e       	ori	r16, 0xE9	; 233
/home/becker/async/autosafe/trunk/tum/wcet-cbmc/benchmarks/ud/ud.c:93
  c8:	00 01       	movw	r0, r0
  ca:	74 8b       	std	Z+20, r23	; 0x14
  cc:	00 00       	nop
  ce:	00 03       	mulsu	r16, r16
  d0:	8c 9d       	mul	r24, r12
  d2:	03 03       	mulsu	r16, r19
  d4:	69 00       	.word	0x0069	; ????
  d6:	01 76       	andi	r16, 0x61	; 97
/home/becker/async/autosafe/trunk/tum/wcet-cbmc/benchmarks/ud/ud.c:99
  d8:	8b 00       	.word	0x008b	; ????
  da:	00 00       	nop
  dc:	02 8c       	ldd	r0, Z+26	; 0x1a
/home/becker/async/autosafe/trunk/tum/wcet-cbmc/benchmarks/ud/ud.c:101
  de:	01 03       	mulsu	r16, r17
  e0:	6a 00       	.word	0x006a	; ????
  e2:	01 76       	andi	r16, 0x61	; 97
  e4:	8b 00       	.word	0x008b	; ????
/home/becker/async/autosafe/trunk/tum/wcet-cbmc/benchmarks/ud/ud.c:102
  e6:	00 00       	nop
  e8:	02 8c       	ldd	r0, Z+26	; 0x1a
  ea:	03 03       	mulsu	r16, r19
/home/becker/async/autosafe/trunk/tum/wcet-cbmc/benchmarks/ud/ud.c:104
  ec:	6b 00       	.word	0x006b	; ????
  ee:	01 76       	andi	r16, 0x61	; 97
  f0:	8b 00       	.word	0x008b	; ????
  f2:	00 00       	nop
  f4:	02 8c       	ldd	r0, Z+26	; 0x1a
  f6:	05 03       	mulsu	r16, r21
  f8:	77 00       	.word	0x0077	; ????
  fa:	01 77       	andi	r16, 0x71	; 113
  fc:	92 00       	.word	0x0092	; ????
  fe:	00 00       	nop
 100:	02 8c       	ldd	r0, Z+26	; 0x1a
 102:	07 03       	mulsu	r16, r23
 104:	79 00       	.word	0x0079	; ????
 106:	01 77       	andi	r16, 0x71	; 113
 108:	10 01       	movw	r2, r0
 10a:	00 00       	nop
 10c:	02 8c       	ldd	r0, Z+26	; 0x1a
 10e:	0b 00       	.word	0x000b	; ????
 110:	0a 92       	st	-Y, r0
 112:	00 00       	nop
 114:	00 20       	and	r0, r0
 116:	01 00       	.word	0x0001	; ????
 118:	00 0b       	sbc	r16, r16
 11a:	20 01       	movw	r4, r0
 11c:	00 00       	nop
 11e:	63 00       	.word	0x0063	; ????
 120:	06 02       	muls	r16, r22
 122:	07 6b       	ori	r16, 0xB7	; 183
 124:	00 00       	nop
 126:	00 0a       	sbc	r0, r16
 128:	92 00       	.word	0x0092	; ????
 12a:	00 00       	nop
 12c:	3d 01       	movw	r6, r26
 12e:	00 00       	nop
 130:	0b 20       	and	r0, r11
 132:	01 00       	.word	0x0001	; ????
 134:	00 31       	cpi	r16, 0x10	; 16
/home/becker/async/autosafe/trunk/tum/wcet-cbmc/benchmarks/ud/ud.c:105
 136:	0b 20       	and	r0, r11
 138:	01 00       	.word	0x0001	; ????
 13a:	00 31       	cpi	r16, 0x10	; 16
 13c:	00 0c       	add	r0, r0
 13e:	61 00       	.word	0x0061	; ????
 140:	01 4d       	sbci	r16, 0xD1	; 209
 142:	27 01       	movw	r4, r14
 144:	00 00       	nop
/home/becker/async/autosafe/trunk/tum/wcet-cbmc/benchmarks/ud/ud.c:106
 146:	01 05       	cpc	r16, r1
 148:	03 90       	.word	0x9003	; ????
 14a:	02 80       	ldd	r0, Z+2	; 0x02
 14c:	00 0a       	sbc	r0, r16
 14e:	92 00       	.word	0x0092	; ????
 150:	00 00       	nop
 152:	5d 01       	movw	r10, r26
 154:	00 00       	nop
 156:	0b 20       	and	r0, r11
 158:	01 00       	.word	0x0001	; ????
 15a:	00 31       	cpi	r16, 0x10	; 16
 15c:	00 0c       	add	r0, r0
 15e:	62 00       	.word	0x0062	; ????
 160:	01 4d       	sbci	r16, 0xD1	; 209
 162:	4d 01       	movw	r8, r26
 164:	00 00       	nop
 166:	01 05       	cpc	r16, r1
 168:	03 00       	.word	0x0003	; ????
 16a:	01 80       	ldd	r0, Z+1	; 0x01
 16c:	00 0c       	add	r0, r0
 16e:	78 00       	.word	0x0078	; ????
 170:	01 4d       	sbci	r16, 0xD1	; 209
 172:	4d 01       	movw	r8, r26
 174:	00 00       	nop
 176:	01 05       	cpc	r16, r1
 178:	03 c8       	rjmp	.-4090   	; 0xfffff180 <__eeprom_end+0xff7ef180>
 17a:	01 80       	ldd	r0, Z+1	; 0x01
	...

Disassembly of section .debug_abbrev:

00000000 <.debug_abbrev>:
__vectors():
../../../../crt1/gcrt1.S:52
   0:	01 11       	cpse	r16, r1
   2:	01 25       	eor	r16, r1
../../../../crt1/gcrt1.S:53
   4:	0e 13       	cpse	r16, r30
   6:	0b 03       	fmul	r16, r19
../../../../crt1/gcrt1.S:54
   8:	0e 1b       	sub	r16, r30
   a:	0e 11       	cpse	r16, r14
../../../../crt1/gcrt1.S:55
   c:	01 12       	cpse	r0, r17
   e:	01 10       	cpse	r0, r1
../../../../crt1/gcrt1.S:56
  10:	06 00       	.word	0x0006	; ????
  12:	00 02       	muls	r16, r16
../../../../crt1/gcrt1.S:57
  14:	2e 01       	movw	r4, r28
  16:	3f 0c       	add	r3, r15
../../../../crt1/gcrt1.S:58
  18:	03 0e       	add	r0, r19
  1a:	3a 0b       	sbc	r19, r26
../../../../crt1/gcrt1.S:59
  1c:	3b 0b       	sbc	r19, r27
  1e:	11 01       	movw	r2, r2
../../../../crt1/gcrt1.S:60
  20:	12 01       	movw	r2, r4
  22:	40 06       	cpc	r4, r16
../../../../crt1/gcrt1.S:61
  24:	96 42       	sbci	r25, 0x26	; 38
  26:	0c 01       	movw	r0, r24
../../../../crt1/gcrt1.S:62
  28:	13 00       	.word	0x0013	; ????
  2a:	00 03       	mulsu	r16, r16
../../../../crt1/gcrt1.S:63
  2c:	34 00       	.word	0x0034	; ????
  2e:	03 08       	sbc	r0, r3
../../../../crt1/gcrt1.S:64
  30:	3a 0b       	sbc	r19, r26
  32:	3b 0b       	sbc	r19, r27
../../../../crt1/gcrt1.S:65
  34:	49 13       	cpse	r20, r25
  36:	02 0a       	sbc	r0, r18
../../../../crt1/gcrt1.S:66
  38:	00 00       	nop
  3a:	04 34       	cpi	r16, 0x44	; 68
../../../../crt1/gcrt1.S:67
  3c:	00 03       	mulsu	r16, r16
  3e:	0e 3a       	cpi	r16, 0xAE	; 174
../../../../crt1/gcrt1.S:68
  40:	0b 3b       	cpi	r16, 0xBB	; 187
  42:	0b 49       	sbci	r16, 0x9B	; 155
../../../../crt1/gcrt1.S:69
  44:	13 02       	muls	r17, r19
  46:	0a 00       	.word	0x000a	; ????
../../../../crt1/gcrt1.S:70
  48:	00 05       	cpc	r16, r0
  4a:	24 00       	.word	0x0024	; ????
../../../../crt1/gcrt1.S:71
  4c:	0b 0b       	sbc	r16, r27
  4e:	3e 0b       	sbc	r19, r30
../../../../crt1/gcrt1.S:72
  50:	03 08       	sbc	r0, r3
  52:	00 00       	nop
../../../../crt1/gcrt1.S:73
  54:	06 24       	eor	r0, r6
  56:	00 0b       	sbc	r16, r16
../../../../crt1/gcrt1.S:74
  58:	0b 3e       	cpi	r16, 0xEB	; 235
  5a:	0b 03       	fmul	r16, r19
../../../../crt1/gcrt1.S:75
  5c:	0e 00       	.word	0x000e	; ????
  5e:	00 07       	cpc	r16, r16
../../../../crt1/gcrt1.S:76
  60:	2e 01       	movw	r4, r28
  62:	3f 0c       	add	r3, r15
../../../../crt1/gcrt1.S:77
  64:	03 0e       	add	r0, r19
  66:	3a 0b       	sbc	r19, r26
../../../../crt1/gcrt1.S:78
  68:	3b 0b       	sbc	r19, r27
  6a:	27 0c       	add	r2, r7
../../../../crt1/gcrt1.S:79
  6c:	49 13       	cpse	r20, r25
  6e:	11 01       	movw	r2, r2
../../../../crt1/gcrt1.S:80
  70:	12 01       	movw	r2, r4
  72:	40 06       	cpc	r4, r16
../../../../crt1/gcrt1.S:81
  74:	97 42       	sbci	r25, 0x27	; 39
  76:	0c 01       	movw	r0, r24
../../../../crt1/gcrt1.S:82
  78:	13 00       	.word	0x0013	; ????
  7a:	00 08       	sbc	r0, r0
../../../../crt1/gcrt1.S:83
  7c:	05 00       	.word	0x0005	; ????
  7e:	03 0e       	add	r0, r19
../../../../crt1/gcrt1.S:84
  80:	3a 0b       	sbc	r19, r26
  82:	3b 0b       	sbc	r19, r27
../../../../crt1/gcrt1.S:85
  84:	49 13       	cpse	r20, r25
  86:	02 0a       	sbc	r0, r18
../../../../crt1/gcrt1.S:86
  88:	00 00       	nop
  8a:	09 05       	cpc	r16, r9
../../../../crt1/gcrt1.S:179
  8c:	00 03       	mulsu	r16, r16
  8e:	08 3a       	cpi	r16, 0xA8	; 168
  90:	0b 3b       	cpi	r16, 0xBB	; 187
  92:	0b 49       	sbci	r16, 0x9B	; 155
  94:	13 02       	muls	r17, r19
  96:	0a 00       	.word	0x000a	; ????
  98:	00 0a       	sbc	r0, r16
  9a:	01 01       	movw	r0, r2
  9c:	49 13       	cpse	r20, r25
  9e:	01 13       	cpse	r16, r17
  a0:	00 00       	nop
  a2:	0b 21       	and	r16, r11
  a4:	00 49       	sbci	r16, 0x90	; 144
  a6:	13 2f       	mov	r17, r19
  a8:	0b 00       	.word	0x000b	; ????
  aa:	00 0c       	add	r0, r0
  ac:	34 00       	.word	0x0034	; ????
  ae:	03 08       	sbc	r0, r3
__bad_interrupt():
../../../../crt1/gcrt1.S:195
  b0:	3a 0b       	sbc	r19, r26
  b2:	3b 0b       	sbc	r19, r27
main():
/home/becker/async/autosafe/trunk/tum/wcet-cbmc/benchmarks/ud/ud.c:92
  b4:	49 13       	cpse	r20, r25
  b6:	3f 0c       	add	r3, r15
  b8:	02 0a       	sbc	r0, r18
  ba:	00 00       	nop
	...

Disassembly of section .debug_line:

00000000 <.debug_line>:
__vectors():
../../../../crt1/gcrt1.S:52
   0:	08 01       	movw	r0, r16
   2:	00 00       	nop
../../../../crt1/gcrt1.S:53
   4:	02 00       	.word	0x0002	; ????
   6:	18 00       	.word	0x0018	; ????
../../../../crt1/gcrt1.S:54
   8:	00 00       	nop
   a:	01 01       	movw	r0, r2
../../../../crt1/gcrt1.S:55
   c:	fb 0e       	add	r15, r27
   e:	0a 00       	.word	0x000a	; ????
../../../../crt1/gcrt1.S:56
  10:	01 01       	movw	r0, r2
  12:	01 01       	movw	r0, r2
../../../../crt1/gcrt1.S:57
  14:	00 00       	nop
  16:	00 01       	movw	r0, r0
../../../../crt1/gcrt1.S:58
  18:	00 75       	andi	r16, 0x50	; 80
  1a:	64 2e       	mov	r6, r20
../../../../crt1/gcrt1.S:59
  1c:	63 00       	.word	0x0063	; ????
  1e:	00 00       	nop
../../../../crt1/gcrt1.S:60
  20:	00 00       	nop
  22:	00 05       	cpc	r16, r0
../../../../crt1/gcrt1.S:61
  24:	02 b4       	in	r0, 0x22	; 34
  26:	00 00       	nop
../../../../crt1/gcrt1.S:62
  28:	00 03       	mulsu	r16, r16
  2a:	db 00       	.word	0x00db	; ????
../../../../crt1/gcrt1.S:63
  2c:	01 08       	sbc	r0, r1
  2e:	3a f5       	brpl	.+78     	; 0x7e <__SREG__+0x3f>
../../../../crt1/gcrt1.S:64
  30:	65 80       	ldd	r6, Z+5	; 0x05
  32:	65 02       	muls	r22, r21
../../../../crt1/gcrt1.S:65
  34:	4a 10       	cpse	r4, r10
  36:	f0 02       	muls	r31, r16
../../../../crt1/gcrt1.S:66
  38:	84 01       	movw	r16, r8
  3a:	10 02       	muls	r17, r16
../../../../crt1/gcrt1.S:67
  3c:	46 0a       	sbc	r4, r22
  3e:	00 02       	muls	r16, r16
../../../../crt1/gcrt1.S:68
  40:	04 01       	movw	r0, r8
  42:	06 9b       	sbis	0x00, 6	; 0
../../../../crt1/gcrt1.S:69
  44:	06 f6       	brtc	.-128    	; 0xffffffc6 <__eeprom_end+0xff7effc6>
  46:	03 76       	andi	r16, 0x63	; 99
../../../../crt1/gcrt1.S:70
  48:	02 24       	eor	r0, r2
  4a:	01 00       	.word	0x0001	; ????
../../../../crt1/gcrt1.S:71
  4c:	02 04       	cpc	r0, r2
  4e:	01 06       	cpc	r0, r17
../../../../crt1/gcrt1.S:72
  50:	9b 06       	cpc	r9, r27
  52:	03 0e       	add	r0, r19
../../../../crt1/gcrt1.S:73
  54:	ef 08       	sbc	r14, r15
  56:	1e 08       	sbc	r1, r14
../../../../crt1/gcrt1.S:74
  58:	20 02       	muls	r18, r16
  5a:	36 14       	cp	r3, r6
../../../../crt1/gcrt1.S:75
  5c:	66 b9       	out	0x06, r22	; 6
  5e:	02 36       	cpi	r16, 0x62	; 98
../../../../crt1/gcrt1.S:76
  60:	10 9e       	mul	r1, r16
  62:	00 02       	muls	r16, r16
../../../../crt1/gcrt1.S:77
  64:	04 02       	muls	r16, r20
  66:	64 00       	.word	0x0064	; ????
../../../../crt1/gcrt1.S:78
  68:	02 04       	cpc	r0, r2
  6a:	02 02       	muls	r16, r18
../../../../crt1/gcrt1.S:79
  6c:	88 01       	movw	r16, r16
  6e:	0e 00       	.word	0x000e	; ????
../../../../crt1/gcrt1.S:80
  70:	02 04       	cpc	r0, r2
  72:	01 06       	cpc	r0, r17
../../../../crt1/gcrt1.S:81
  74:	9b 06       	cpc	r9, r27
  76:	f1 03       	fmuls	r23, r17
../../../../crt1/gcrt1.S:82
  78:	78 02       	muls	r23, r24
  7a:	60 01       	movw	r12, r0
../../../../crt1/gcrt1.S:83
  7c:	00 02       	muls	r16, r16
  7e:	04 01       	movw	r0, r8
../../../../crt1/gcrt1.S:84
  80:	06 9b       	sbis	0x00, 6	; 0
  82:	06 03       	mulsu	r16, r22
../../../../crt1/gcrt1.S:85
  84:	0a 08       	sbc	r0, r10
  86:	71 b9       	out	0x01, r23	; 1
../../../../crt1/gcrt1.S:86
  88:	02 38       	cpi	r16, 0x82	; 130
  8a:	10 00       	.word	0x0010	; ????
../../../../crt1/gcrt1.S:179
  8c:	02 04       	cpc	r0, r2
  8e:	02 64       	ori	r16, 0x42	; 66
  90:	00 02       	muls	r16, r16
  92:	04 02       	muls	r16, r20
  94:	02 8a       	std	Z+18, r0	; 0x12
  96:	01 0e       	add	r0, r17
  98:	00 02       	muls	r16, r16
  9a:	04 01       	movw	r0, r8
  9c:	06 9b       	sbis	0x00, 6	; 0
  9e:	06 f1       	brts	.+64     	; 0xe0 <main+0x2c>
  a0:	02 3a       	cpi	r16, 0xA2	; 162
  a2:	0a 00       	.word	0x000a	; ????
  a4:	02 04       	cpc	r0, r2
  a6:	01 06       	cpc	r0, r17
  a8:	9b 06       	cpc	r9, r27
  aa:	03 73       	andi	r16, 0x33	; 51
  ac:	08 71       	andi	r16, 0x18	; 24
  ae:	00 02       	muls	r16, r16
__bad_interrupt():
../../../../crt1/gcrt1.S:195
  b0:	04 01       	movw	r0, r8
  b2:	06 9b       	sbis	0x00, 6	; 0
main():
/home/becker/async/autosafe/trunk/tum/wcet-cbmc/benchmarks/ud/ud.c:92
  b4:	06 03       	mulsu	r16, r22
  b6:	15 08       	sbc	r1, r5
  b8:	71 08       	sbc	r7, r1
  ba:	72 9d       	mul	r23, r2
  bc:	08 fe       	.word	0xfe08	; ????
  be:	00 02       	muls	r16, r16
  c0:	04 02       	muls	r16, r20
  c2:	64 00       	.word	0x0064	; ????
  c4:	02 04       	cpc	r0, r2
  c6:	02 02       	muls	r16, r18
/home/becker/async/autosafe/trunk/tum/wcet-cbmc/benchmarks/ud/ud.c:93
  c8:	7c 0e       	add	r7, r28
  ca:	00 02       	muls	r16, r16
  cc:	04 01       	movw	r0, r8
  ce:	06 9b       	sbis	0x00, 6	; 0
  d0:	06 f1       	brts	.+64     	; 0x112 <main+0x5e>
  d2:	02 2e       	mov	r0, r18
  d4:	0a 00       	.word	0x000a	; ????
  d6:	02 04       	cpc	r0, r2
/home/becker/async/autosafe/trunk/tum/wcet-cbmc/benchmarks/ud/ud.c:99
  d8:	01 06       	cpc	r0, r17
  da:	9b 06       	cpc	r9, r27
  dc:	08 78       	andi	r16, 0x88	; 136
/home/becker/async/autosafe/trunk/tum/wcet-cbmc/benchmarks/ud/ud.c:101
  de:	02 7e       	andi	r16, 0xE2	; 226
  e0:	10 08       	sbc	r1, r0
  e2:	3b 02       	muls	r19, r27
  e4:	2a 10       	cpse	r2, r10
/home/becker/async/autosafe/trunk/tum/wcet-cbmc/benchmarks/ud/ud.c:102
  e6:	00 02       	muls	r16, r16
  e8:	04 02       	muls	r16, r20
  ea:	b8 00       	.word	0x00b8	; ????
/home/becker/async/autosafe/trunk/tum/wcet-cbmc/benchmarks/ud/ud.c:104
  ec:	02 04       	cpc	r0, r2
  ee:	02 02       	muls	r16, r18
  f0:	74 0e       	add	r7, r20
  f2:	00 02       	muls	r16, r16
  f4:	04 01       	movw	r0, r8
  f6:	06 9b       	sbis	0x00, 6	; 0
  f8:	06 08       	sbc	r0, r6
  fa:	73 02       	muls	r23, r19
  fc:	4c 0a       	sbc	r4, r28
  fe:	00 02       	muls	r16, r16
 100:	04 01       	movw	r0, r8
 102:	06 9b       	sbis	0x00, 6	; 0
 104:	06 a2       	std	Z+38, r0	; 0x26
 106:	48 02       	muls	r20, r24
 108:	1c 00       	.word	0x001c	; ????
 10a:	01 01       	movw	r0, r2

Disassembly of section .debug_frame:

00000000 <.debug_frame>:
__vectors():
../../../../crt1/gcrt1.S:52
   0:	10 00       	.word	0x0010	; ????
   2:	00 00       	nop
../../../../crt1/gcrt1.S:53
   4:	ff ff       	.word	0xffff	; ????
   6:	ff ff       	.word	0xffff	; ????
../../../../crt1/gcrt1.S:54
   8:	01 00       	.word	0x0001	; ????
   a:	01 7f       	andi	r16, 0xF1	; 241
../../../../crt1/gcrt1.S:55
   c:	24 0c       	add	r2, r4
   e:	20 02       	muls	r18, r16
../../../../crt1/gcrt1.S:56
  10:	a4 01       	movw	r20, r8
  12:	00 00       	nop
../../../../crt1/gcrt1.S:57
  14:	1c 00       	.word	0x001c	; ????
  16:	00 00       	nop
../../../../crt1/gcrt1.S:58
  18:	00 00       	nop
  1a:	00 00       	nop
../../../../crt1/gcrt1.S:59
  1c:	b4 00       	.word	0x00b4	; ????
  1e:	00 00       	nop
../../../../crt1/gcrt1.S:60
  20:	d8 01       	movw	r26, r16
  22:	00 00       	nop
../../../../crt1/gcrt1.S:61
  24:	42 0e       	add	r4, r18
  26:	03 9c       	mul	r0, r3
../../../../crt1/gcrt1.S:62
  28:	02 42       	sbci	r16, 0x22	; 34
  2a:	0e 04       	cpc	r0, r14
../../../../crt1/gcrt1.S:63
  2c:	9d 03       	fmulsu	r17, r21
  2e:	44 0d       	add	r20, r4
../../../../crt1/gcrt1.S:64
  30:	1c 42       	sbci	r17, 0x2C	; 44
  32:	0e 12       	cpse	r0, r30
../../../../crt1/gcrt1.S:65
  34:	34 00       	.word	0x0034	; ????
  36:	00 00       	nop
../../../../crt1/gcrt1.S:66
  38:	00 00       	nop
  3a:	00 00       	nop
../../../../crt1/gcrt1.S:67
  3c:	8c 02       	muls	r24, r28
  3e:	00 00       	nop
../../../../crt1/gcrt1.S:68
  40:	2c 06       	cpc	r2, r28
  42:	00 00       	nop
../../../../crt1/gcrt1.S:69
  44:	42 0e       	add	r4, r18
  46:	03 8e       	std	Z+27, r0	; 0x1b
../../../../crt1/gcrt1.S:70
  48:	02 42       	sbci	r16, 0x22	; 34
  4a:	0e 04       	cpc	r0, r14
../../../../crt1/gcrt1.S:71
  4c:	8f 03       	fmulsu	r16, r23
  4e:	42 0e       	add	r4, r18
../../../../crt1/gcrt1.S:72
  50:	05 90       	lpm	r0, Z+
  52:	04 42       	sbci	r16, 0x24	; 36
../../../../crt1/gcrt1.S:73
  54:	0e 06       	cpc	r0, r30
  56:	91 05       	cpc	r25, r1
../../../../crt1/gcrt1.S:74
  58:	42 0e       	add	r4, r18
  5a:	07 9c       	mul	r0, r7
../../../../crt1/gcrt1.S:75
  5c:	06 42       	sbci	r16, 0x26	; 38
  5e:	0e 08       	sbc	r0, r14
../../../../crt1/gcrt1.S:76
  60:	9d 07       	cpc	r25, r29
  62:	44 0d       	add	r20, r4
../../../../crt1/gcrt1.S:77
  64:	1c 44       	sbci	r17, 0x4C	; 76
  66:	0e a6       	std	Y+46, r0	; 0x2e
../../../../crt1/gcrt1.S:78
  68:	03 00       	.word	0x0003	; ????
	...

Disassembly of section .debug_str:

00000000 <.debug_str>:
../../../../crt1/gcrt1.S:52
   0:	63 68       	ori	r22, 0x83	; 131
   2:	6b 65       	ori	r22, 0x5B	; 91
../../../../crt1/gcrt1.S:53
   4:	72 72       	andi	r23, 0x22	; 34
   6:	00 47       	sbci	r16, 0x70	; 112
../../../../crt1/gcrt1.S:54
   8:	4e 55       	subi	r20, 0x5E	; 94
   a:	20 43       	sbci	r18, 0x30	; 48
../../../../crt1/gcrt1.S:55
   c:	20 34       	cpi	r18, 0x40	; 64
   e:	2e 37       	cpi	r18, 0x7E	; 126
../../../../crt1/gcrt1.S:56
  10:	2e 32       	cpi	r18, 0x2E	; 46
  12:	00 75       	andi	r16, 0x50	; 80
../../../../crt1/gcrt1.S:57
  14:	64 2e       	mov	r6, r20
  16:	63 00       	.word	0x0063	; ????
../../../../crt1/gcrt1.S:58
  18:	6e 6d       	ori	r22, 0xDE	; 222
  1a:	61 78       	andi	r22, 0x81	; 129
../../../../crt1/gcrt1.S:59
  1c:	00 6c       	ori	r16, 0xC0	; 192
  1e:	75 64       	ori	r23, 0x45	; 69
../../../../crt1/gcrt1.S:60
  20:	63 6d       	ori	r22, 0xD3	; 211
  22:	70 00       	.word	0x0070	; ????
../../../../crt1/gcrt1.S:61
  24:	2f 68       	ori	r18, 0x8F	; 143
  26:	6f 6d       	ori	r22, 0xDF	; 223
../../../../crt1/gcrt1.S:62
  28:	65 2f       	mov	r22, r21
  2a:	62 65       	ori	r22, 0x52	; 82
../../../../crt1/gcrt1.S:63
  2c:	63 6b       	ori	r22, 0xB3	; 179
  2e:	65 72       	andi	r22, 0x25	; 37
../../../../crt1/gcrt1.S:64
  30:	2f 61       	ori	r18, 0x1F	; 31
  32:	73 79       	andi	r23, 0x93	; 147
../../../../crt1/gcrt1.S:65
  34:	6e 63       	ori	r22, 0x3E	; 62
  36:	2f 61       	ori	r18, 0x1F	; 31
../../../../crt1/gcrt1.S:66
  38:	75 74       	andi	r23, 0x45	; 69
  3a:	6f 73       	andi	r22, 0x3F	; 63
../../../../crt1/gcrt1.S:67
  3c:	61 66       	ori	r22, 0x61	; 97
  3e:	65 2f       	mov	r22, r21
../../../../crt1/gcrt1.S:68
  40:	74 72       	andi	r23, 0x24	; 36
  42:	75 6e       	ori	r23, 0xE5	; 229
../../../../crt1/gcrt1.S:69
  44:	6b 2f       	mov	r22, r27
  46:	74 75       	andi	r23, 0x54	; 84
../../../../crt1/gcrt1.S:70
  48:	6d 2f       	mov	r22, r29
  4a:	77 63       	ori	r23, 0x37	; 55
../../../../crt1/gcrt1.S:71
  4c:	65 74       	andi	r22, 0x45	; 69
  4e:	2d 63       	ori	r18, 0x3D	; 61
../../../../crt1/gcrt1.S:72
  50:	62 6d       	ori	r22, 0xD2	; 210
  52:	63 2f       	mov	r22, r19
../../../../crt1/gcrt1.S:73
  54:	62 65       	ori	r22, 0x52	; 82
  56:	6e 63       	ori	r22, 0x3E	; 62
../../../../crt1/gcrt1.S:74
  58:	68 6d       	ori	r22, 0xD8	; 216
  5a:	61 72       	andi	r22, 0x21	; 33
../../../../crt1/gcrt1.S:75
  5c:	6b 73       	andi	r22, 0x3B	; 59
  5e:	2f 75       	andi	r18, 0x5F	; 95
../../../../crt1/gcrt1.S:76
  60:	64 00       	.word	0x0064	; ????
  62:	6c 6f       	ori	r22, 0xFC	; 252
../../../../crt1/gcrt1.S:77
  64:	6e 67       	ori	r22, 0x7E	; 126
  66:	20 69       	ori	r18, 0x90	; 144
../../../../crt1/gcrt1.S:78
  68:	6e 74       	andi	r22, 0x4E	; 78
  6a:	00 73       	andi	r16, 0x30	; 48
../../../../crt1/gcrt1.S:79
  6c:	69 7a       	andi	r22, 0xA9	; 169
  6e:	65 74       	andi	r22, 0x45	; 69
../../../../crt1/gcrt1.S:80
  70:	79 70       	andi	r23, 0x09	; 9
  72:	65 00       	.word	0x0065	; ????
../../../../crt1/gcrt1.S:81
  74:	6d 61       	ori	r22, 0x1D	; 29
  76:	69 6e       	ori	r22, 0xE9	; 233
	...

Disassembly of section .debug_loc:

00000000 <.debug_loc>:
../../../../crt1/gcrt1.S:52
   0:	00 00       	nop
   2:	00 00       	nop
../../../../crt1/gcrt1.S:53
   4:	02 00       	.word	0x0002	; ????
   6:	00 00       	nop
../../../../crt1/gcrt1.S:54
   8:	03 00       	.word	0x0003	; ????
   a:	92 20       	and	r9, r2
../../../../crt1/gcrt1.S:55
   c:	02 02       	muls	r16, r18
   e:	00 00       	nop
../../../../crt1/gcrt1.S:56
  10:	00 04       	cpc	r0, r0
  12:	00 00       	nop
../../../../crt1/gcrt1.S:57
  14:	00 03       	mulsu	r16, r16
  16:	00 92 20 03 	sts	0x0320, r0
../../../../crt1/gcrt1.S:58
  1a:	04 00       	.word	0x0004	; ????
../../../../crt1/gcrt1.S:59
  1c:	00 00       	nop
  1e:	08 00       	.word	0x0008	; ????
../../../../crt1/gcrt1.S:60
  20:	00 00       	nop
  22:	03 00       	.word	0x0003	; ????
../../../../crt1/gcrt1.S:61
  24:	92 20       	and	r9, r2
  26:	04 08       	sbc	r0, r4
../../../../crt1/gcrt1.S:62
  28:	00 00       	nop
  2a:	00 0a       	sbc	r0, r16
../../../../crt1/gcrt1.S:63
  2c:	00 00       	nop
  2e:	00 02       	muls	r16, r16
../../../../crt1/gcrt1.S:64
  30:	00 8c       	ldd	r0, Z+24	; 0x18
  32:	04 0a       	sbc	r0, r20
../../../../crt1/gcrt1.S:65
  34:	00 00       	nop
  36:	00 d8       	rcall	.-4096   	; 0xfffff038 <__eeprom_end+0xff7ef038>
../../../../crt1/gcrt1.S:66
  38:	01 00       	.word	0x0001	; ????
  3a:	00 02       	muls	r16, r16
../../../../crt1/gcrt1.S:67
  3c:	00 8c       	ldd	r0, Z+24	; 0x18
  3e:	12 00       	.word	0x0012	; ????
../../../../crt1/gcrt1.S:68
  40:	00 00       	nop
  42:	00 00       	nop
../../../../crt1/gcrt1.S:69
  44:	00 00       	nop
  46:	00 d8       	rcall	.-4096   	; 0xfffff048 <__eeprom_end+0xff7ef048>
../../../../crt1/gcrt1.S:70
  48:	01 00       	.word	0x0001	; ????
  4a:	00 da       	rcall	.-3072   	; 0xfffff44c <__eeprom_end+0xff7ef44c>
../../../../crt1/gcrt1.S:71
  4c:	01 00       	.word	0x0001	; ????
  4e:	00 03       	mulsu	r16, r16
../../../../crt1/gcrt1.S:72
  50:	00 92 20 02 	sts	0x0220, r0
../../../../crt1/gcrt1.S:73
  54:	da 01       	movw	r26, r20
  56:	00 00       	nop
../../../../crt1/gcrt1.S:74
  58:	dc 01       	movw	r26, r24
  5a:	00 00       	nop
../../../../crt1/gcrt1.S:75
  5c:	03 00       	.word	0x0003	; ????
  5e:	92 20       	and	r9, r2
../../../../crt1/gcrt1.S:76
  60:	03 dc       	rcall	.-2042   	; 0xfffff868 <__eeprom_end+0xff7ef868>
  62:	01 00       	.word	0x0001	; ????
../../../../crt1/gcrt1.S:77
  64:	00 de       	rcall	.-1024   	; 0xfffffc66 <__eeprom_end+0xff7efc66>
  66:	01 00       	.word	0x0001	; ????
../../../../crt1/gcrt1.S:78
  68:	00 03       	mulsu	r16, r16
  6a:	00 92 20 04 	sts	0x0420, r0
../../../../crt1/gcrt1.S:79
  6e:	de 01       	movw	r26, r28
../../../../crt1/gcrt1.S:80
  70:	00 00       	nop
  72:	e0 01       	movw	r28, r0
../../../../crt1/gcrt1.S:81
  74:	00 00       	nop
  76:	03 00       	.word	0x0003	; ????
../../../../crt1/gcrt1.S:82
  78:	92 20       	and	r9, r2
  7a:	05 e0       	ldi	r16, 0x05	; 5
../../../../crt1/gcrt1.S:83
  7c:	01 00       	.word	0x0001	; ????
  7e:	00 e2       	ldi	r16, 0x20	; 32
../../../../crt1/gcrt1.S:84
  80:	01 00       	.word	0x0001	; ????
  82:	00 03       	mulsu	r16, r16
../../../../crt1/gcrt1.S:85
  84:	00 92 20 06 	sts	0x0620, r0
../../../../crt1/gcrt1.S:86
  88:	e2 01       	movw	r28, r4
  8a:	00 00       	nop
../../../../crt1/gcrt1.S:179
  8c:	e4 01       	movw	r28, r8
  8e:	00 00       	nop
  90:	03 00       	.word	0x0003	; ????
  92:	92 20       	and	r9, r2
  94:	07 e4       	ldi	r16, 0x47	; 71
  96:	01 00       	.word	0x0001	; ????
  98:	00 e8       	ldi	r16, 0x80	; 128
  9a:	01 00       	.word	0x0001	; ????
  9c:	00 03       	mulsu	r16, r16
  9e:	00 92 20 08 	sts	0x0820, r0
  a2:	e8 01       	movw	r28, r16
  a4:	00 00       	nop
  a6:	ec 01       	movw	r28, r24
  a8:	00 00       	nop
  aa:	02 00       	.word	0x0002	; ????
  ac:	8c 08       	sbc	r8, r12
  ae:	ec 01       	movw	r28, r24
__bad_interrupt():
../../../../crt1/gcrt1.S:195
  b0:	00 00       	nop
  b2:	04 08       	sbc	r0, r4
main():
/home/becker/async/autosafe/trunk/tum/wcet-cbmc/benchmarks/ud/ud.c:92
  b4:	00 00       	nop
  b6:	03 00       	.word	0x0003	; ????
  b8:	8c a6       	std	Y+44, r8	; 0x2c
  ba:	03 00       	.word	0x0003	; ????
  bc:	00 00       	nop
  be:	00 00       	nop
  c0:	00 00       	nop
	...
