
autopilot.elf:     file format elf32-avr


Disassembly of section .text:

00000000 <__vectors>:
__vectors():
       0:	0c 94 6c 00 	jmp	0xd8	; 0xd8 <__ctors_end>
       4:	0c 94 8b 00 	jmp	0x116	; 0x116 <__bad_interrupt>
       8:	0c 94 8b 00 	jmp	0x116	; 0x116 <__bad_interrupt>
       c:	0c 94 8b 00 	jmp	0x116	; 0x116 <__bad_interrupt>
      10:	0c 94 8b 00 	jmp	0x116	; 0x116 <__bad_interrupt>
      14:	0c 94 80 31 	jmp	0x6300	; 0x6300 <__vector_5>
      18:	0c 94 8b 00 	jmp	0x116	; 0x116 <__bad_interrupt>
      1c:	0c 94 8b 00 	jmp	0x116	; 0x116 <__bad_interrupt>
      20:	0c 94 8b 00 	jmp	0x116	; 0x116 <__bad_interrupt>
      24:	0c 94 8b 00 	jmp	0x116	; 0x116 <__bad_interrupt>
      28:	0c 94 8b 00 	jmp	0x116	; 0x116 <__bad_interrupt>
      2c:	0c 94 8b 00 	jmp	0x116	; 0x116 <__bad_interrupt>
      30:	0c 94 8e 32 	jmp	0x651c	; 0x651c <__vector_12>
      34:	0c 94 8b 00 	jmp	0x116	; 0x116 <__bad_interrupt>
      38:	0c 94 8b 00 	jmp	0x116	; 0x116 <__bad_interrupt>
      3c:	0c 94 8b 00 	jmp	0x116	; 0x116 <__bad_interrupt>
      40:	0c 94 8b 00 	jmp	0x116	; 0x116 <__bad_interrupt>
      44:	0c 94 6c 33 	jmp	0x66d8	; 0x66d8 <__vector_17>
      48:	0c 94 8b 00 	jmp	0x116	; 0x116 <__bad_interrupt>
      4c:	0c 94 8b 00 	jmp	0x116	; 0x116 <__bad_interrupt>
      50:	0c 94 a2 54 	jmp	0xa944	; 0xa944 <__vector_20>
      54:	0c 94 f9 33 	jmp	0x67f2	; 0x67f2 <__vector_21>
      58:	0c 94 8b 00 	jmp	0x116	; 0x116 <__bad_interrupt>
      5c:	0c 94 8b 00 	jmp	0x116	; 0x116 <__bad_interrupt>
      60:	0c 94 8b 00 	jmp	0x116	; 0x116 <__bad_interrupt>
      64:	0c 94 8b 00 	jmp	0x116	; 0x116 <__bad_interrupt>
      68:	0c 94 8b 00 	jmp	0x116	; 0x116 <__bad_interrupt>
      6c:	0c 94 8b 00 	jmp	0x116	; 0x116 <__bad_interrupt>
      70:	0c 94 8b 00 	jmp	0x116	; 0x116 <__bad_interrupt>
      74:	0c 94 8b 00 	jmp	0x116	; 0x116 <__bad_interrupt>
      78:	0c 94 e7 36 	jmp	0x6dce	; 0x6dce <__vector_30>
      7c:	0c 94 8b 00 	jmp	0x116	; 0x116 <__bad_interrupt>
      80:	0c 94 e7 54 	jmp	0xa9ce	; 0xa9ce <__vector_32>
      84:	0c 94 8b 00 	jmp	0x116	; 0x116 <__bad_interrupt>
      88:	0c 94 8b 00 	jmp	0x116	; 0x116 <__bad_interrupt>
      8c:	08 4a       	sbci	r16, 0xA8	; 168
      8e:	d7 3b       	cpi	r29, 0xB7	; 183
      90:	3b ce       	rjmp	.-906    	; 0xfffffd08 <__eeprom_end+0xff7efd08>
      92:	01 6e       	ori	r16, 0xE1	; 225
      94:	84 bc       	out	0x24, r8	; 36
      96:	bf fd       	.word	0xfdbf	; ????
      98:	c1 2f       	mov	r28, r17
      9a:	3d 6c       	ori	r19, 0xCD	; 205
      9c:	74 31       	cpi	r23, 0x14	; 20
      9e:	9a bd       	out	0x2a, r25	; 42
      a0:	56 83       	std	Z+6, r21	; 0x06
      a2:	3d da       	rcall	.-2950   	; 0xfffff51e <__eeprom_end+0xff7ef51e>
      a4:	3d 00       	.word	0x003d	; ????
      a6:	c7 7f       	andi	r28, 0xF7	; 247
      a8:	11 be       	out	0x31, r1	; 49
      aa:	d9 e4       	ldi	r29, 0x49	; 73
      ac:	bb 4c       	sbci	r27, 0xCB	; 203
      ae:	3e 91       	ld	r19, -X
      b0:	6b aa       	std	Y+51, r6	; 0x33
      b2:	aa be       	out	0x3a, r10	; 58
      b4:	00 00       	nop
      b6:	00 80       	ld	r0, Z
      b8:	3f 05       	cpc	r19, r15
      ba:	a8 4c       	sbci	r26, 0xC8	; 200
      bc:	cd b2       	in	r12, 0x1d	; 29
      be:	d4 4e       	sbci	r29, 0xE4	; 228
      c0:	b9 38       	cpi	r27, 0x89	; 137
      c2:	36 a9       	ldd	r19, Z+54	; 0x36
      c4:	02 0c       	add	r0, r2
      c6:	50 b9       	out	0x00, r21	; 0
      c8:	91 86       	std	Z+9, r9	; 0x09
      ca:	88 08       	sbc	r8, r8
      cc:	3c a6       	std	Y+44, r3	; 0x2c
      ce:	aa aa       	std	Y+50, r10	; 0x32
      d0:	2a be       	out	0x3a, r2	; 58
      d2:	00 00       	nop
      d4:	00 80       	ld	r0, Z
      d6:	3f 00       	.word	0x003f	; ????

000000d8 <__ctors_end>:
__trampolines_start():
      d8:	11 24       	eor	r1, r1
      da:	1f be       	out	0x3f, r1	; 63
      dc:	cf ef       	ldi	r28, 0xFF	; 255
      de:	d0 e1       	ldi	r29, 0x10	; 16
      e0:	de bf       	out	0x3e, r29	; 62
      e2:	cd bf       	out	0x3d, r28	; 61

000000e4 <__do_copy_data>:
__do_copy_data():
      e4:	11 e0       	ldi	r17, 0x01	; 1
      e6:	a0 e0       	ldi	r26, 0x00	; 0
      e8:	b1 e0       	ldi	r27, 0x01	; 1
      ea:	e4 e3       	ldi	r30, 0x34	; 52
      ec:	fe eb       	ldi	r31, 0xBE	; 190
      ee:	00 e0       	ldi	r16, 0x00	; 0
      f0:	0b bf       	out	0x3b, r16	; 59
      f2:	02 c0       	rjmp	.+4      	; 0xf8 <__do_copy_data+0x14>
      f4:	07 90       	elpm	r0, Z+
      f6:	0d 92       	st	X+, r0
      f8:	a8 3c       	cpi	r26, 0xC8	; 200
      fa:	b1 07       	cpc	r27, r17
      fc:	d9 f7       	brne	.-10     	; 0xf4 <__do_copy_data+0x10>

000000fe <__do_clear_bss>:
__do_clear_bss():
      fe:	27 e0       	ldi	r18, 0x07	; 7
     100:	a8 ec       	ldi	r26, 0xC8	; 200
     102:	b1 e0       	ldi	r27, 0x01	; 1
     104:	01 c0       	rjmp	.+2      	; 0x108 <.do_clear_bss_start>

00000106 <.do_clear_bss_loop>:
     106:	1d 92       	st	X+, r1

00000108 <.do_clear_bss_start>:
     108:	a2 3e       	cpi	r26, 0xE2	; 226
     10a:	b2 07       	cpc	r27, r18
     10c:	e1 f7       	brne	.-8      	; 0x106 <.do_clear_bss_loop>
.do_clear_bss_start():
     10e:	0e 94 40 5b 	call	0xb680	; 0xb680 <main>
     112:	0c 94 18 5f 	jmp	0xbe30	; 0xbe30 <_exit>

00000116 <__bad_interrupt>:
__vector_22():
     116:	0c 94 00 00 	jmp	0	; 0x0 <__vectors>

0000011a <ground_calibrate>:
ground_calibrate():
/home/becker/async/wcet-benchmarks/benchmarks/PapaBench-0.2m/sw/airborne/autopilot_simulate/main.c:95
     11a:	cf 93       	push	r28
     11c:	df 93       	push	r29
     11e:	cd b7       	in	r28, 0x3d	; 61
     120:	de b7       	in	r29, 0x3e	; 62
/home/becker/async/wcet-benchmarks/benchmarks/PapaBench-0.2m/sw/airborne/autopilot_simulate/main.c:97
     122:	80 91 d3 01 	lds	r24, 0x01D3
     126:	88 2f       	mov	r24, r24
     128:	90 e0       	ldi	r25, 0x00	; 0
     12a:	81 30       	cpi	r24, 0x01	; 1
     12c:	91 05       	cpc	r25, r1
     12e:	09 f4       	brne	.+2      	; 0x132 <ground_calibrate+0x18>
     130:	d8 c0       	rjmp	.+432    	; 0x2e2 <ground_calibrate+0x1c8>
     132:	82 30       	cpi	r24, 0x02	; 2
     134:	91 05       	cpc	r25, r1
     136:	09 f4       	brne	.+2      	; 0x13a <ground_calibrate+0x20>
     138:	20 c5       	rjmp	.+2624   	; 0xb7a <ground_calibrate+0xa60>
     13a:	00 97       	sbiw	r24, 0x00	; 0
     13c:	09 f0       	breq	.+2      	; 0x140 <ground_calibrate+0x26>
     13e:	1e c5       	rjmp	.+2620   	; 0xb7c <ground_calibrate+0xa62>
/home/becker/async/wcet-benchmarks/benchmarks/PapaBench-0.2m/sw/airborne/autopilot_simulate/main.c:99
     140:	80 91 ce 01 	lds	r24, 0x01CE
     144:	90 91 cf 01 	lds	r25, 0x01CF
     148:	8a 30       	cpi	r24, 0x0A	; 10
     14a:	91 05       	cpc	r25, r1
     14c:	08 f0       	brcs	.+2      	; 0x150 <ground_calibrate+0x36>
     14e:	c8 c0       	rjmp	.+400    	; 0x2e0 <ground_calibrate+0x1c6>
/home/becker/async/wcet-benchmarks/benchmarks/PapaBench-0.2m/sw/airborne/autopilot_simulate/main.c:99 (discriminator 1)
     150:	80 91 c9 01 	lds	r24, 0x01C9
     154:	81 30       	cpi	r24, 0x01	; 1
     156:	09 f0       	breq	.+2      	; 0x15a <ground_calibrate+0x40>
     158:	c3 c0       	rjmp	.+390    	; 0x2e0 <ground_calibrate+0x1c6>
/home/becker/async/wcet-benchmarks/benchmarks/PapaBench-0.2m/sw/airborne/autopilot_simulate/main.c:100
     15a:	81 e0       	ldi	r24, 0x01	; 1
     15c:	80 93 d3 01 	sts	0x01D3, r24
/home/becker/async/wcet-benchmarks/benchmarks/PapaBench-0.2m/sw/airborne/autopilot_simulate/main.c:101
     160:	90 91 fd 05 	lds	r25, 0x05FD
     164:	80 91 fe 05 	lds	r24, 0x05FE
     168:	98 17       	cp	r25, r24
     16a:	a0 f0       	brcs	.+40     	; 0x194 <ground_calibrate+0x7a>
/home/becker/async/wcet-benchmarks/benchmarks/PapaBench-0.2m/sw/airborne/autopilot_simulate/main.c:101 (discriminator 1)
     16c:	80 91 fe 05 	lds	r24, 0x05FE
     170:	28 2f       	mov	r18, r24
     172:	30 e0       	ldi	r19, 0x00	; 0
     174:	80 91 fd 05 	lds	r24, 0x05FD
     178:	88 2f       	mov	r24, r24
     17a:	90 e0       	ldi	r25, 0x00	; 0
     17c:	a9 01       	movw	r20, r18
     17e:	48 1b       	sub	r20, r24
     180:	59 0b       	sbc	r21, r25
     182:	ca 01       	movw	r24, r20
     184:	81 50       	subi	r24, 0x01	; 1
     186:	9f 4f       	sbci	r25, 0xFF	; 255
     188:	21 e0       	ldi	r18, 0x01	; 1
     18a:	85 30       	cpi	r24, 0x05	; 5
     18c:	91 05       	cpc	r25, r1
     18e:	9c f4       	brge	.+38     	; 0x1b6 <ground_calibrate+0x9c>
     190:	20 e0       	ldi	r18, 0x00	; 0
     192:	11 c0       	rjmp	.+34     	; 0x1b6 <ground_calibrate+0x9c>
/home/becker/async/wcet-benchmarks/benchmarks/PapaBench-0.2m/sw/airborne/autopilot_simulate/main.c:101 (discriminator 2)
     194:	80 91 fe 05 	lds	r24, 0x05FE
     198:	28 2f       	mov	r18, r24
     19a:	30 e0       	ldi	r19, 0x00	; 0
     19c:	80 91 fd 05 	lds	r24, 0x05FD
     1a0:	88 2f       	mov	r24, r24
     1a2:	90 e0       	ldi	r25, 0x00	; 0
     1a4:	f9 01       	movw	r30, r18
     1a6:	e8 1b       	sub	r30, r24
     1a8:	f9 0b       	sbc	r31, r25
     1aa:	cf 01       	movw	r24, r30
     1ac:	21 e0       	ldi	r18, 0x01	; 1
     1ae:	85 30       	cpi	r24, 0x05	; 5
     1b0:	91 05       	cpc	r25, r1
     1b2:	0c f4       	brge	.+2      	; 0x1b6 <ground_calibrate+0x9c>
     1b4:	20 e0       	ldi	r18, 0x00	; 0
/home/becker/async/wcet-benchmarks/benchmarks/PapaBench-0.2m/sw/airborne/autopilot_simulate/main.c:101 (discriminator 3)
     1b6:	22 23       	and	r18, r18
     1b8:	09 f4       	brne	.+2      	; 0x1bc <ground_calibrate+0xa2>
     1ba:	8c c0       	rjmp	.+280    	; 0x2d4 <ground_calibrate+0x1ba>
/home/becker/async/wcet-benchmarks/benchmarks/PapaBench-0.2m/sw/airborne/autopilot_simulate/main.c:101 (discriminator 1)
     1bc:	80 91 fd 05 	lds	r24, 0x05FD
     1c0:	88 2f       	mov	r24, r24
     1c2:	90 e0       	ldi	r25, 0x00	; 0
     1c4:	80 50       	subi	r24, 0x00	; 0
     1c6:	9a 4f       	sbci	r25, 0xFA	; 250
     1c8:	25 e0       	ldi	r18, 0x05	; 5
     1ca:	fc 01       	movw	r30, r24
     1cc:	20 83       	st	Z, r18
     1ce:	80 91 fd 05 	lds	r24, 0x05FD
     1d2:	8f 5f       	subi	r24, 0xFF	; 255
     1d4:	80 93 fd 05 	sts	0x05FD, r24
     1d8:	80 91 fd 05 	lds	r24, 0x05FD
     1dc:	8f 3f       	cpi	r24, 0xFF	; 255
     1de:	11 f4       	brne	.+4      	; 0x1e4 <ground_calibrate+0xca>
     1e0:	10 92 fd 05 	sts	0x05FD, r1
/home/becker/async/wcet-benchmarks/benchmarks/PapaBench-0.2m/sw/airborne/autopilot_simulate/main.c:101 (discriminator 2)
     1e4:	80 91 fd 05 	lds	r24, 0x05FD
     1e8:	88 2f       	mov	r24, r24
     1ea:	90 e0       	ldi	r25, 0x00	; 0
     1ec:	80 50       	subi	r24, 0x00	; 0
     1ee:	9a 4f       	sbci	r25, 0xFA	; 250
     1f0:	22 e0       	ldi	r18, 0x02	; 2
     1f2:	fc 01       	movw	r30, r24
     1f4:	20 83       	st	Z, r18
     1f6:	80 91 fd 05 	lds	r24, 0x05FD
     1fa:	8f 5f       	subi	r24, 0xFF	; 255
     1fc:	80 93 fd 05 	sts	0x05FD, r24
     200:	80 91 fd 05 	lds	r24, 0x05FD
     204:	8f 3f       	cpi	r24, 0xFF	; 255
     206:	11 f4       	brne	.+4      	; 0x20c <ground_calibrate+0xf2>
/home/becker/async/wcet-benchmarks/benchmarks/PapaBench-0.2m/sw/airborne/autopilot_simulate/main.c:101 (discriminator 1)
     208:	10 92 fd 05 	sts	0x05FD, r1
/home/becker/async/wcet-benchmarks/benchmarks/PapaBench-0.2m/sw/airborne/autopilot_simulate/main.c:101 (discriminator 2)
     20c:	82 e0       	ldi	r24, 0x02	; 2
     20e:	80 93 ff 06 	sts	0x06FF, r24
     212:	82 e0       	ldi	r24, 0x02	; 2
     214:	80 93 fa 05 	sts	0x05FA, r24
     218:	80 91 fd 05 	lds	r24, 0x05FD
     21c:	88 2f       	mov	r24, r24
     21e:	90 e0       	ldi	r25, 0x00	; 0
     220:	20 91 ff 06 	lds	r18, 0x06FF
     224:	80 50       	subi	r24, 0x00	; 0
     226:	9a 4f       	sbci	r25, 0xFA	; 250
     228:	fc 01       	movw	r30, r24
     22a:	20 83       	st	Z, r18
     22c:	80 91 fd 05 	lds	r24, 0x05FD
     230:	8f 5f       	subi	r24, 0xFF	; 255
     232:	80 93 fd 05 	sts	0x05FD, r24
     236:	80 91 fd 05 	lds	r24, 0x05FD
     23a:	8f 3f       	cpi	r24, 0xFF	; 255
     23c:	11 f4       	brne	.+4      	; 0x242 <ground_calibrate+0x128>
/home/becker/async/wcet-benchmarks/benchmarks/PapaBench-0.2m/sw/airborne/autopilot_simulate/main.c:101 (discriminator 1)
     23e:	10 92 fd 05 	sts	0x05FD, r1
/home/becker/async/wcet-benchmarks/benchmarks/PapaBench-0.2m/sw/airborne/autopilot_simulate/main.c:101 (discriminator 2)
     242:	80 91 fd 05 	lds	r24, 0x05FD
     246:	88 2f       	mov	r24, r24
     248:	90 e0       	ldi	r25, 0x00	; 0
     24a:	20 91 fa 05 	lds	r18, 0x05FA
     24e:	80 50       	subi	r24, 0x00	; 0
     250:	9a 4f       	sbci	r25, 0xFA	; 250
     252:	fc 01       	movw	r30, r24
     254:	20 83       	st	Z, r18
     256:	80 91 fd 05 	lds	r24, 0x05FD
     25a:	8f 5f       	subi	r24, 0xFF	; 255
     25c:	80 93 fd 05 	sts	0x05FD, r24
     260:	80 91 fd 05 	lds	r24, 0x05FD
     264:	8f 3f       	cpi	r24, 0xFF	; 255
     266:	11 f4       	brne	.+4      	; 0x26c <ground_calibrate+0x152>
/home/becker/async/wcet-benchmarks/benchmarks/PapaBench-0.2m/sw/airborne/autopilot_simulate/main.c:101 (discriminator 1)
     268:	10 92 fd 05 	sts	0x05FD, r1
/home/becker/async/wcet-benchmarks/benchmarks/PapaBench-0.2m/sw/airborne/autopilot_simulate/main.c:101 (discriminator 2)
     26c:	89 e5       	ldi	r24, 0x59	; 89
     26e:	90 e0       	ldi	r25, 0x00	; 0
     270:	fc 01       	movw	r30, r24
     272:	80 81       	ld	r24, Z
     274:	88 2f       	mov	r24, r24
     276:	90 e0       	ldi	r25, 0x00	; 0
     278:	80 71       	andi	r24, 0x10	; 16
     27a:	99 27       	eor	r25, r25
     27c:	00 97       	sbiw	r24, 0x00	; 0
     27e:	81 f5       	brne	.+96     	; 0x2e0 <ground_calibrate+0x1c6>
/home/becker/async/wcet-benchmarks/benchmarks/PapaBench-0.2m/sw/airborne/autopilot_simulate/main.c:101 (discriminator 1)
     280:	80 91 fe 05 	lds	r24, 0x05FE
     284:	88 2f       	mov	r24, r24
     286:	90 e0       	ldi	r25, 0x00	; 0
     288:	80 50       	subi	r24, 0x00	; 0
     28a:	9a 4f       	sbci	r25, 0xFA	; 250
     28c:	fc 01       	movw	r30, r24
     28e:	80 81       	ld	r24, Z
     290:	80 93 fc 05 	sts	0x05FC, r24
     294:	10 92 ff 05 	sts	0x05FF, r1
     298:	80 91 fe 05 	lds	r24, 0x05FE
     29c:	8f 5f       	subi	r24, 0xFF	; 255
     29e:	80 93 fe 05 	sts	0x05FE, r24
     2a2:	80 91 fe 05 	lds	r24, 0x05FE
     2a6:	8f 3f       	cpi	r24, 0xFF	; 255
     2a8:	11 f4       	brne	.+4      	; 0x2ae <ground_calibrate+0x194>
     2aa:	10 92 fe 05 	sts	0x05FE, r1
/home/becker/async/wcet-benchmarks/benchmarks/PapaBench-0.2m/sw/airborne/autopilot_simulate/main.c:101 (discriminator 2)
     2ae:	88 e5       	ldi	r24, 0x58	; 88
     2b0:	90 e0       	ldi	r25, 0x00	; 0
     2b2:	28 e5       	ldi	r18, 0x58	; 88
     2b4:	30 e0       	ldi	r19, 0x00	; 0
     2b6:	f9 01       	movw	r30, r18
     2b8:	20 81       	ld	r18, Z
     2ba:	21 60       	ori	r18, 0x01	; 1
     2bc:	fc 01       	movw	r30, r24
     2be:	20 83       	st	Z, r18
     2c0:	89 e5       	ldi	r24, 0x59	; 89
     2c2:	90 e0       	ldi	r25, 0x00	; 0
     2c4:	29 e5       	ldi	r18, 0x59	; 89
     2c6:	30 e0       	ldi	r19, 0x00	; 0
     2c8:	f9 01       	movw	r30, r18
     2ca:	20 81       	ld	r18, Z
     2cc:	20 61       	ori	r18, 0x10	; 16
     2ce:	fc 01       	movw	r30, r24
     2d0:	20 83       	st	Z, r18
/home/becker/async/wcet-benchmarks/benchmarks/PapaBench-0.2m/sw/airborne/autopilot_simulate/main.c:103 (discriminator 2)
     2d2:	54 c4       	rjmp	.+2216   	; 0xb7c <ground_calibrate+0xa62>
/home/becker/async/wcet-benchmarks/benchmarks/PapaBench-0.2m/sw/airborne/autopilot_simulate/main.c:101 (discriminator 2)
     2d4:	80 91 fb 05 	lds	r24, 0x05FB
     2d8:	8f 5f       	subi	r24, 0xFF	; 255
     2da:	80 93 fb 05 	sts	0x05FB, r24
/home/becker/async/wcet-benchmarks/benchmarks/PapaBench-0.2m/sw/airborne/autopilot_simulate/main.c:103 (discriminator 2)
     2de:	4e c4       	rjmp	.+2204   	; 0xb7c <ground_calibrate+0xa62>
/home/becker/async/wcet-benchmarks/benchmarks/PapaBench-0.2m/sw/airborne/autopilot_simulate/main.c:103
     2e0:	4d c4       	rjmp	.+2202   	; 0xb7c <ground_calibrate+0xa62>
/home/becker/async/wcet-benchmarks/benchmarks/PapaBench-0.2m/sw/airborne/autopilot_simulate/main.c:105
     2e2:	80 91 18 07 	lds	r24, 0x0718
     2e6:	90 91 19 07 	lds	r25, 0x0719
     2ea:	80 34       	cpi	r24, 0x40	; 64
     2ec:	fd ee       	ldi	r31, 0xED	; 237
     2ee:	9f 07       	cpc	r25, r31
     2f0:	4c f0       	brlt	.+18     	; 0x304 <ground_calibrate+0x1ea>
/home/becker/async/wcet-benchmarks/benchmarks/PapaBench-0.2m/sw/airborne/autopilot_simulate/main.c:105 (discriminator 1)
     2f2:	80 91 18 07 	lds	r24, 0x0718
     2f6:	90 91 19 07 	lds	r25, 0x0719
     2fa:	81 38       	cpi	r24, 0x81	; 129
     2fc:	2c e0       	ldi	r18, 0x0C	; 12
     2fe:	92 07       	cpc	r25, r18
     300:	0c f4       	brge	.+2      	; 0x304 <ground_calibrate+0x1ea>
     302:	3a c4       	rjmp	.+2164   	; 0xb78 <ground_calibrate+0xa5e>
/home/becker/async/wcet-benchmarks/benchmarks/PapaBench-0.2m/sw/airborne/autopilot_simulate/main.c:106
     304:	0e 94 8f 37 	call	0x6f1e	; 0x6f1e <ir_gain_calib>
/home/becker/async/wcet-benchmarks/benchmarks/PapaBench-0.2m/sw/airborne/autopilot_simulate/main.c:107
     308:	80 91 09 01 	lds	r24, 0x0109
     30c:	90 91 0a 01 	lds	r25, 0x010A
     310:	a0 91 0b 01 	lds	r26, 0x010B
     314:	b0 91 0c 01 	lds	r27, 0x010C
     318:	80 93 ae 07 	sts	0x07AE, r24
     31c:	90 93 af 07 	sts	0x07AF, r25
     320:	a0 93 b0 07 	sts	0x07B0, r26
     324:	b0 93 b1 07 	sts	0x07B1, r27
/home/becker/async/wcet-benchmarks/benchmarks/PapaBench-0.2m/sw/airborne/autopilot_simulate/main.c:108
     328:	90 91 fd 05 	lds	r25, 0x05FD
     32c:	80 91 fe 05 	lds	r24, 0x05FE
     330:	98 17       	cp	r25, r24
     332:	a0 f0       	brcs	.+40     	; 0x35c <ground_calibrate+0x242>
/home/becker/async/wcet-benchmarks/benchmarks/PapaBench-0.2m/sw/airborne/autopilot_simulate/main.c:108 (discriminator 1)
     334:	80 91 fe 05 	lds	r24, 0x05FE
     338:	28 2f       	mov	r18, r24
     33a:	30 e0       	ldi	r19, 0x00	; 0
     33c:	80 91 fd 05 	lds	r24, 0x05FD
     340:	88 2f       	mov	r24, r24
     342:	90 e0       	ldi	r25, 0x00	; 0
     344:	a9 01       	movw	r20, r18
     346:	48 1b       	sub	r20, r24
     348:	59 0b       	sbc	r21, r25
     34a:	ca 01       	movw	r24, r20
     34c:	81 50       	subi	r24, 0x01	; 1
     34e:	9f 4f       	sbci	r25, 0xFF	; 255
     350:	21 e0       	ldi	r18, 0x01	; 1
     352:	85 31       	cpi	r24, 0x15	; 21
     354:	91 05       	cpc	r25, r1
     356:	9c f4       	brge	.+38     	; 0x37e <ground_calibrate+0x264>
     358:	20 e0       	ldi	r18, 0x00	; 0
     35a:	11 c0       	rjmp	.+34     	; 0x37e <ground_calibrate+0x264>
/home/becker/async/wcet-benchmarks/benchmarks/PapaBench-0.2m/sw/airborne/autopilot_simulate/main.c:108 (discriminator 2)
     35c:	80 91 fe 05 	lds	r24, 0x05FE
     360:	28 2f       	mov	r18, r24
     362:	30 e0       	ldi	r19, 0x00	; 0
     364:	80 91 fd 05 	lds	r24, 0x05FD
     368:	88 2f       	mov	r24, r24
     36a:	90 e0       	ldi	r25, 0x00	; 0
     36c:	f9 01       	movw	r30, r18
     36e:	e8 1b       	sub	r30, r24
     370:	f9 0b       	sbc	r31, r25
     372:	cf 01       	movw	r24, r30
     374:	21 e0       	ldi	r18, 0x01	; 1
     376:	85 31       	cpi	r24, 0x15	; 21
     378:	91 05       	cpc	r25, r1
     37a:	0c f4       	brge	.+2      	; 0x37e <ground_calibrate+0x264>
     37c:	20 e0       	ldi	r18, 0x00	; 0
/home/becker/async/wcet-benchmarks/benchmarks/PapaBench-0.2m/sw/airborne/autopilot_simulate/main.c:108 (discriminator 3)
     37e:	22 23       	and	r18, r18
     380:	09 f4       	brne	.+2      	; 0x384 <ground_calibrate+0x26a>
     382:	e6 c2       	rjmp	.+1484   	; 0x950 <ground_calibrate+0x836>
/home/becker/async/wcet-benchmarks/benchmarks/PapaBench-0.2m/sw/airborne/autopilot_simulate/main.c:108 (discriminator 1)
     384:	80 91 fd 05 	lds	r24, 0x05FD
     388:	88 2f       	mov	r24, r24
     38a:	90 e0       	ldi	r25, 0x00	; 0
     38c:	80 50       	subi	r24, 0x00	; 0
     38e:	9a 4f       	sbci	r25, 0xFA	; 250
     390:	25 e0       	ldi	r18, 0x05	; 5
     392:	fc 01       	movw	r30, r24
     394:	20 83       	st	Z, r18
     396:	80 91 fd 05 	lds	r24, 0x05FD
     39a:	8f 5f       	subi	r24, 0xFF	; 255
     39c:	80 93 fd 05 	sts	0x05FD, r24
     3a0:	80 91 fd 05 	lds	r24, 0x05FD
     3a4:	8f 3f       	cpi	r24, 0xFF	; 255
     3a6:	11 f4       	brne	.+4      	; 0x3ac <ground_calibrate+0x292>
     3a8:	10 92 fd 05 	sts	0x05FD, r1
/home/becker/async/wcet-benchmarks/benchmarks/PapaBench-0.2m/sw/airborne/autopilot_simulate/main.c:108 (discriminator 2)
     3ac:	80 91 fd 05 	lds	r24, 0x05FD
     3b0:	88 2f       	mov	r24, r24
     3b2:	90 e0       	ldi	r25, 0x00	; 0
     3b4:	80 50       	subi	r24, 0x00	; 0
     3b6:	9a 4f       	sbci	r25, 0xFA	; 250
     3b8:	25 e0       	ldi	r18, 0x05	; 5
     3ba:	fc 01       	movw	r30, r24
     3bc:	20 83       	st	Z, r18
     3be:	80 91 fd 05 	lds	r24, 0x05FD
     3c2:	8f 5f       	subi	r24, 0xFF	; 255
     3c4:	80 93 fd 05 	sts	0x05FD, r24
     3c8:	80 91 fd 05 	lds	r24, 0x05FD
     3cc:	8f 3f       	cpi	r24, 0xFF	; 255
     3ce:	11 f4       	brne	.+4      	; 0x3d4 <ground_calibrate+0x2ba>
/home/becker/async/wcet-benchmarks/benchmarks/PapaBench-0.2m/sw/airborne/autopilot_simulate/main.c:108 (discriminator 1)
     3d0:	10 92 fd 05 	sts	0x05FD, r1
/home/becker/async/wcet-benchmarks/benchmarks/PapaBench-0.2m/sw/airborne/autopilot_simulate/main.c:108 (discriminator 2)
     3d4:	85 e0       	ldi	r24, 0x05	; 5
     3d6:	80 93 ff 06 	sts	0x06FF, r24
     3da:	85 e0       	ldi	r24, 0x05	; 5
     3dc:	80 93 fa 05 	sts	0x05FA, r24
     3e0:	80 91 fd 05 	lds	r24, 0x05FD
     3e4:	88 2f       	mov	r24, r24
     3e6:	90 e0       	ldi	r25, 0x00	; 0
     3e8:	26 eb       	ldi	r18, 0xB6	; 182
     3ea:	37 e0       	ldi	r19, 0x07	; 7
     3ec:	f9 01       	movw	r30, r18
     3ee:	20 81       	ld	r18, Z
     3f0:	80 50       	subi	r24, 0x00	; 0
     3f2:	9a 4f       	sbci	r25, 0xFA	; 250
     3f4:	fc 01       	movw	r30, r24
     3f6:	20 83       	st	Z, r18
     3f8:	86 eb       	ldi	r24, 0xB6	; 182
     3fa:	97 e0       	ldi	r25, 0x07	; 7
     3fc:	fc 01       	movw	r30, r24
     3fe:	90 81       	ld	r25, Z
     400:	80 91 ff 06 	lds	r24, 0x06FF
     404:	89 0f       	add	r24, r25
     406:	80 93 ff 06 	sts	0x06FF, r24
     40a:	90 91 fa 05 	lds	r25, 0x05FA
     40e:	80 91 ff 06 	lds	r24, 0x06FF
     412:	89 0f       	add	r24, r25
     414:	80 93 fa 05 	sts	0x05FA, r24
     418:	80 91 fd 05 	lds	r24, 0x05FD
     41c:	8f 5f       	subi	r24, 0xFF	; 255
     41e:	80 93 fd 05 	sts	0x05FD, r24
     422:	80 91 fd 05 	lds	r24, 0x05FD
     426:	8f 3f       	cpi	r24, 0xFF	; 255
     428:	11 f4       	brne	.+4      	; 0x42e <ground_calibrate+0x314>
/home/becker/async/wcet-benchmarks/benchmarks/PapaBench-0.2m/sw/airborne/autopilot_simulate/main.c:108 (discriminator 1)
     42a:	10 92 fd 05 	sts	0x05FD, r1
/home/becker/async/wcet-benchmarks/benchmarks/PapaBench-0.2m/sw/airborne/autopilot_simulate/main.c:108 (discriminator 2)
     42e:	80 91 fd 05 	lds	r24, 0x05FD
     432:	88 2f       	mov	r24, r24
     434:	90 e0       	ldi	r25, 0x00	; 0
     436:	20 91 b7 07 	lds	r18, 0x07B7
     43a:	80 50       	subi	r24, 0x00	; 0
     43c:	9a 4f       	sbci	r25, 0xFA	; 250
     43e:	fc 01       	movw	r30, r24
     440:	20 83       	st	Z, r18
     442:	87 eb       	ldi	r24, 0xB7	; 183
     444:	97 e0       	ldi	r25, 0x07	; 7
     446:	fc 01       	movw	r30, r24
     448:	90 81       	ld	r25, Z
     44a:	80 91 ff 06 	lds	r24, 0x06FF
     44e:	89 0f       	add	r24, r25
     450:	80 93 ff 06 	sts	0x06FF, r24
     454:	90 91 fa 05 	lds	r25, 0x05FA
     458:	80 91 ff 06 	lds	r24, 0x06FF
     45c:	89 0f       	add	r24, r25
     45e:	80 93 fa 05 	sts	0x05FA, r24
     462:	80 91 fd 05 	lds	r24, 0x05FD
     466:	8f 5f       	subi	r24, 0xFF	; 255
     468:	80 93 fd 05 	sts	0x05FD, r24
     46c:	80 91 fd 05 	lds	r24, 0x05FD
     470:	8f 3f       	cpi	r24, 0xFF	; 255
     472:	11 f4       	brne	.+4      	; 0x478 <ground_calibrate+0x35e>
/home/becker/async/wcet-benchmarks/benchmarks/PapaBench-0.2m/sw/airborne/autopilot_simulate/main.c:108 (discriminator 1)
     474:	10 92 fd 05 	sts	0x05FD, r1
/home/becker/async/wcet-benchmarks/benchmarks/PapaBench-0.2m/sw/airborne/autopilot_simulate/main.c:108 (discriminator 2)
     478:	80 91 fd 05 	lds	r24, 0x05FD
     47c:	88 2f       	mov	r24, r24
     47e:	90 e0       	ldi	r25, 0x00	; 0
     480:	20 91 b8 07 	lds	r18, 0x07B8
     484:	80 50       	subi	r24, 0x00	; 0
     486:	9a 4f       	sbci	r25, 0xFA	; 250
     488:	fc 01       	movw	r30, r24
     48a:	20 83       	st	Z, r18
     48c:	88 eb       	ldi	r24, 0xB8	; 184
     48e:	97 e0       	ldi	r25, 0x07	; 7
     490:	fc 01       	movw	r30, r24
     492:	90 81       	ld	r25, Z
     494:	80 91 ff 06 	lds	r24, 0x06FF
     498:	89 0f       	add	r24, r25
     49a:	80 93 ff 06 	sts	0x06FF, r24
     49e:	90 91 fa 05 	lds	r25, 0x05FA
     4a2:	80 91 ff 06 	lds	r24, 0x06FF
     4a6:	89 0f       	add	r24, r25
     4a8:	80 93 fa 05 	sts	0x05FA, r24
     4ac:	80 91 fd 05 	lds	r24, 0x05FD
     4b0:	8f 5f       	subi	r24, 0xFF	; 255
     4b2:	80 93 fd 05 	sts	0x05FD, r24
     4b6:	80 91 fd 05 	lds	r24, 0x05FD
     4ba:	8f 3f       	cpi	r24, 0xFF	; 255
     4bc:	11 f4       	brne	.+4      	; 0x4c2 <ground_calibrate+0x3a8>
/home/becker/async/wcet-benchmarks/benchmarks/PapaBench-0.2m/sw/airborne/autopilot_simulate/main.c:108 (discriminator 1)
     4be:	10 92 fd 05 	sts	0x05FD, r1
/home/becker/async/wcet-benchmarks/benchmarks/PapaBench-0.2m/sw/airborne/autopilot_simulate/main.c:108 (discriminator 2)
     4c2:	80 91 fd 05 	lds	r24, 0x05FD
     4c6:	88 2f       	mov	r24, r24
     4c8:	90 e0       	ldi	r25, 0x00	; 0
     4ca:	20 91 b9 07 	lds	r18, 0x07B9
     4ce:	80 50       	subi	r24, 0x00	; 0
     4d0:	9a 4f       	sbci	r25, 0xFA	; 250
     4d2:	fc 01       	movw	r30, r24
     4d4:	20 83       	st	Z, r18
     4d6:	89 eb       	ldi	r24, 0xB9	; 185
     4d8:	97 e0       	ldi	r25, 0x07	; 7
     4da:	fc 01       	movw	r30, r24
     4dc:	90 81       	ld	r25, Z
     4de:	80 91 ff 06 	lds	r24, 0x06FF
     4e2:	89 0f       	add	r24, r25
     4e4:	80 93 ff 06 	sts	0x06FF, r24
     4e8:	90 91 fa 05 	lds	r25, 0x05FA
     4ec:	80 91 ff 06 	lds	r24, 0x06FF
     4f0:	89 0f       	add	r24, r25
     4f2:	80 93 fa 05 	sts	0x05FA, r24
     4f6:	80 91 fd 05 	lds	r24, 0x05FD
     4fa:	8f 5f       	subi	r24, 0xFF	; 255
     4fc:	80 93 fd 05 	sts	0x05FD, r24
     500:	80 91 fd 05 	lds	r24, 0x05FD
     504:	8f 3f       	cpi	r24, 0xFF	; 255
     506:	11 f4       	brne	.+4      	; 0x50c <ground_calibrate+0x3f2>
/home/becker/async/wcet-benchmarks/benchmarks/PapaBench-0.2m/sw/airborne/autopilot_simulate/main.c:108 (discriminator 1)
     508:	10 92 fd 05 	sts	0x05FD, r1
/home/becker/async/wcet-benchmarks/benchmarks/PapaBench-0.2m/sw/airborne/autopilot_simulate/main.c:108 (discriminator 2)
     50c:	80 91 fd 05 	lds	r24, 0x05FD
     510:	88 2f       	mov	r24, r24
     512:	90 e0       	ldi	r25, 0x00	; 0
     514:	2e ec       	ldi	r18, 0xCE	; 206
     516:	37 e0       	ldi	r19, 0x07	; 7
     518:	f9 01       	movw	r30, r18
     51a:	20 81       	ld	r18, Z
     51c:	80 50       	subi	r24, 0x00	; 0
     51e:	9a 4f       	sbci	r25, 0xFA	; 250
     520:	fc 01       	movw	r30, r24
     522:	20 83       	st	Z, r18
     524:	8e ec       	ldi	r24, 0xCE	; 206
     526:	97 e0       	ldi	r25, 0x07	; 7
     528:	fc 01       	movw	r30, r24
     52a:	90 81       	ld	r25, Z
     52c:	80 91 ff 06 	lds	r24, 0x06FF
     530:	89 0f       	add	r24, r25
     532:	80 93 ff 06 	sts	0x06FF, r24
     536:	90 91 fa 05 	lds	r25, 0x05FA
     53a:	80 91 ff 06 	lds	r24, 0x06FF
     53e:	89 0f       	add	r24, r25
     540:	80 93 fa 05 	sts	0x05FA, r24
     544:	80 91 fd 05 	lds	r24, 0x05FD
     548:	8f 5f       	subi	r24, 0xFF	; 255
     54a:	80 93 fd 05 	sts	0x05FD, r24
     54e:	80 91 fd 05 	lds	r24, 0x05FD
     552:	8f 3f       	cpi	r24, 0xFF	; 255
     554:	11 f4       	brne	.+4      	; 0x55a <ground_calibrate+0x440>
/home/becker/async/wcet-benchmarks/benchmarks/PapaBench-0.2m/sw/airborne/autopilot_simulate/main.c:108 (discriminator 1)
     556:	10 92 fd 05 	sts	0x05FD, r1
/home/becker/async/wcet-benchmarks/benchmarks/PapaBench-0.2m/sw/airborne/autopilot_simulate/main.c:108 (discriminator 2)
     55a:	80 91 fd 05 	lds	r24, 0x05FD
     55e:	88 2f       	mov	r24, r24
     560:	90 e0       	ldi	r25, 0x00	; 0
     562:	20 91 cf 07 	lds	r18, 0x07CF
     566:	80 50       	subi	r24, 0x00	; 0
     568:	9a 4f       	sbci	r25, 0xFA	; 250
     56a:	fc 01       	movw	r30, r24
     56c:	20 83       	st	Z, r18
     56e:	8f ec       	ldi	r24, 0xCF	; 207
     570:	97 e0       	ldi	r25, 0x07	; 7
     572:	fc 01       	movw	r30, r24
     574:	90 81       	ld	r25, Z
     576:	80 91 ff 06 	lds	r24, 0x06FF
     57a:	89 0f       	add	r24, r25
     57c:	80 93 ff 06 	sts	0x06FF, r24
     580:	90 91 fa 05 	lds	r25, 0x05FA
     584:	80 91 ff 06 	lds	r24, 0x06FF
     588:	89 0f       	add	r24, r25
     58a:	80 93 fa 05 	sts	0x05FA, r24
     58e:	80 91 fd 05 	lds	r24, 0x05FD
     592:	8f 5f       	subi	r24, 0xFF	; 255
     594:	80 93 fd 05 	sts	0x05FD, r24
     598:	80 91 fd 05 	lds	r24, 0x05FD
     59c:	8f 3f       	cpi	r24, 0xFF	; 255
     59e:	11 f4       	brne	.+4      	; 0x5a4 <ground_calibrate+0x48a>
/home/becker/async/wcet-benchmarks/benchmarks/PapaBench-0.2m/sw/airborne/autopilot_simulate/main.c:108 (discriminator 1)
     5a0:	10 92 fd 05 	sts	0x05FD, r1
/home/becker/async/wcet-benchmarks/benchmarks/PapaBench-0.2m/sw/airborne/autopilot_simulate/main.c:108 (discriminator 2)
     5a4:	80 91 fd 05 	lds	r24, 0x05FD
     5a8:	88 2f       	mov	r24, r24
     5aa:	90 e0       	ldi	r25, 0x00	; 0
     5ac:	20 91 d0 07 	lds	r18, 0x07D0
     5b0:	80 50       	subi	r24, 0x00	; 0
     5b2:	9a 4f       	sbci	r25, 0xFA	; 250
     5b4:	fc 01       	movw	r30, r24
     5b6:	20 83       	st	Z, r18
     5b8:	80 ed       	ldi	r24, 0xD0	; 208
     5ba:	97 e0       	ldi	r25, 0x07	; 7
     5bc:	fc 01       	movw	r30, r24
     5be:	90 81       	ld	r25, Z
     5c0:	80 91 ff 06 	lds	r24, 0x06FF
     5c4:	89 0f       	add	r24, r25
     5c6:	80 93 ff 06 	sts	0x06FF, r24
     5ca:	90 91 fa 05 	lds	r25, 0x05FA
     5ce:	80 91 ff 06 	lds	r24, 0x06FF
     5d2:	89 0f       	add	r24, r25
     5d4:	80 93 fa 05 	sts	0x05FA, r24
     5d8:	80 91 fd 05 	lds	r24, 0x05FD
     5dc:	8f 5f       	subi	r24, 0xFF	; 255
     5de:	80 93 fd 05 	sts	0x05FD, r24
     5e2:	80 91 fd 05 	lds	r24, 0x05FD
     5e6:	8f 3f       	cpi	r24, 0xFF	; 255
     5e8:	11 f4       	brne	.+4      	; 0x5ee <ground_calibrate+0x4d4>
/home/becker/async/wcet-benchmarks/benchmarks/PapaBench-0.2m/sw/airborne/autopilot_simulate/main.c:108 (discriminator 1)
     5ea:	10 92 fd 05 	sts	0x05FD, r1
/home/becker/async/wcet-benchmarks/benchmarks/PapaBench-0.2m/sw/airborne/autopilot_simulate/main.c:108 (discriminator 2)
     5ee:	80 91 fd 05 	lds	r24, 0x05FD
     5f2:	88 2f       	mov	r24, r24
     5f4:	90 e0       	ldi	r25, 0x00	; 0
     5f6:	20 91 d1 07 	lds	r18, 0x07D1
     5fa:	80 50       	subi	r24, 0x00	; 0
     5fc:	9a 4f       	sbci	r25, 0xFA	; 250
     5fe:	fc 01       	movw	r30, r24
     600:	20 83       	st	Z, r18
     602:	81 ed       	ldi	r24, 0xD1	; 209
     604:	97 e0       	ldi	r25, 0x07	; 7
     606:	fc 01       	movw	r30, r24
     608:	90 81       	ld	r25, Z
     60a:	80 91 ff 06 	lds	r24, 0x06FF
     60e:	89 0f       	add	r24, r25
     610:	80 93 ff 06 	sts	0x06FF, r24
     614:	90 91 fa 05 	lds	r25, 0x05FA
     618:	80 91 ff 06 	lds	r24, 0x06FF
     61c:	89 0f       	add	r24, r25
     61e:	80 93 fa 05 	sts	0x05FA, r24
     622:	80 91 fd 05 	lds	r24, 0x05FD
     626:	8f 5f       	subi	r24, 0xFF	; 255
     628:	80 93 fd 05 	sts	0x05FD, r24
     62c:	80 91 fd 05 	lds	r24, 0x05FD
     630:	8f 3f       	cpi	r24, 0xFF	; 255
     632:	11 f4       	brne	.+4      	; 0x638 <ground_calibrate+0x51e>
/home/becker/async/wcet-benchmarks/benchmarks/PapaBench-0.2m/sw/airborne/autopilot_simulate/main.c:108 (discriminator 1)
     634:	10 92 fd 05 	sts	0x05FD, r1
/home/becker/async/wcet-benchmarks/benchmarks/PapaBench-0.2m/sw/airborne/autopilot_simulate/main.c:108 (discriminator 2)
     638:	80 91 fd 05 	lds	r24, 0x05FD
     63c:	88 2f       	mov	r24, r24
     63e:	90 e0       	ldi	r25, 0x00	; 0
     640:	2e ea       	ldi	r18, 0xAE	; 174
     642:	37 e0       	ldi	r19, 0x07	; 7
     644:	f9 01       	movw	r30, r18
     646:	20 81       	ld	r18, Z
     648:	80 50       	subi	r24, 0x00	; 0
     64a:	9a 4f       	sbci	r25, 0xFA	; 250
     64c:	fc 01       	movw	r30, r24
     64e:	20 83       	st	Z, r18
     650:	8e ea       	ldi	r24, 0xAE	; 174
     652:	97 e0       	ldi	r25, 0x07	; 7
     654:	fc 01       	movw	r30, r24
     656:	90 81       	ld	r25, Z
     658:	80 91 ff 06 	lds	r24, 0x06FF
     65c:	89 0f       	add	r24, r25
     65e:	80 93 ff 06 	sts	0x06FF, r24
     662:	90 91 fa 05 	lds	r25, 0x05FA
     666:	80 91 ff 06 	lds	r24, 0x06FF
     66a:	89 0f       	add	r24, r25
     66c:	80 93 fa 05 	sts	0x05FA, r24
     670:	80 91 fd 05 	lds	r24, 0x05FD
     674:	8f 5f       	subi	r24, 0xFF	; 255
     676:	80 93 fd 05 	sts	0x05FD, r24
     67a:	80 91 fd 05 	lds	r24, 0x05FD
     67e:	8f 3f       	cpi	r24, 0xFF	; 255
     680:	11 f4       	brne	.+4      	; 0x686 <ground_calibrate+0x56c>
/home/becker/async/wcet-benchmarks/benchmarks/PapaBench-0.2m/sw/airborne/autopilot_simulate/main.c:108 (discriminator 1)
     682:	10 92 fd 05 	sts	0x05FD, r1
/home/becker/async/wcet-benchmarks/benchmarks/PapaBench-0.2m/sw/airborne/autopilot_simulate/main.c:108 (discriminator 2)
     686:	80 91 fd 05 	lds	r24, 0x05FD
     68a:	88 2f       	mov	r24, r24
     68c:	90 e0       	ldi	r25, 0x00	; 0
     68e:	20 91 af 07 	lds	r18, 0x07AF
     692:	80 50       	subi	r24, 0x00	; 0
     694:	9a 4f       	sbci	r25, 0xFA	; 250
     696:	fc 01       	movw	r30, r24
     698:	20 83       	st	Z, r18
     69a:	8f ea       	ldi	r24, 0xAF	; 175
     69c:	97 e0       	ldi	r25, 0x07	; 7
     69e:	fc 01       	movw	r30, r24
     6a0:	90 81       	ld	r25, Z
     6a2:	80 91 ff 06 	lds	r24, 0x06FF
     6a6:	89 0f       	add	r24, r25
     6a8:	80 93 ff 06 	sts	0x06FF, r24
     6ac:	90 91 fa 05 	lds	r25, 0x05FA
     6b0:	80 91 ff 06 	lds	r24, 0x06FF
     6b4:	89 0f       	add	r24, r25
     6b6:	80 93 fa 05 	sts	0x05FA, r24
     6ba:	80 91 fd 05 	lds	r24, 0x05FD
     6be:	8f 5f       	subi	r24, 0xFF	; 255
     6c0:	80 93 fd 05 	sts	0x05FD, r24
     6c4:	80 91 fd 05 	lds	r24, 0x05FD
     6c8:	8f 3f       	cpi	r24, 0xFF	; 255
     6ca:	11 f4       	brne	.+4      	; 0x6d0 <ground_calibrate+0x5b6>
/home/becker/async/wcet-benchmarks/benchmarks/PapaBench-0.2m/sw/airborne/autopilot_simulate/main.c:108 (discriminator 1)
     6cc:	10 92 fd 05 	sts	0x05FD, r1
/home/becker/async/wcet-benchmarks/benchmarks/PapaBench-0.2m/sw/airborne/autopilot_simulate/main.c:108 (discriminator 2)
     6d0:	80 91 fd 05 	lds	r24, 0x05FD
     6d4:	88 2f       	mov	r24, r24
     6d6:	90 e0       	ldi	r25, 0x00	; 0
     6d8:	20 91 b0 07 	lds	r18, 0x07B0
     6dc:	80 50       	subi	r24, 0x00	; 0
     6de:	9a 4f       	sbci	r25, 0xFA	; 250
     6e0:	fc 01       	movw	r30, r24
     6e2:	20 83       	st	Z, r18
     6e4:	80 eb       	ldi	r24, 0xB0	; 176
     6e6:	97 e0       	ldi	r25, 0x07	; 7
     6e8:	fc 01       	movw	r30, r24
     6ea:	90 81       	ld	r25, Z
     6ec:	80 91 ff 06 	lds	r24, 0x06FF
     6f0:	89 0f       	add	r24, r25
     6f2:	80 93 ff 06 	sts	0x06FF, r24
     6f6:	90 91 fa 05 	lds	r25, 0x05FA
     6fa:	80 91 ff 06 	lds	r24, 0x06FF
     6fe:	89 0f       	add	r24, r25
     700:	80 93 fa 05 	sts	0x05FA, r24
     704:	80 91 fd 05 	lds	r24, 0x05FD
     708:	8f 5f       	subi	r24, 0xFF	; 255
     70a:	80 93 fd 05 	sts	0x05FD, r24
     70e:	80 91 fd 05 	lds	r24, 0x05FD
     712:	8f 3f       	cpi	r24, 0xFF	; 255
     714:	11 f4       	brne	.+4      	; 0x71a <ground_calibrate+0x600>
/home/becker/async/wcet-benchmarks/benchmarks/PapaBench-0.2m/sw/airborne/autopilot_simulate/main.c:108 (discriminator 1)
     716:	10 92 fd 05 	sts	0x05FD, r1
/home/becker/async/wcet-benchmarks/benchmarks/PapaBench-0.2m/sw/airborne/autopilot_simulate/main.c:108 (discriminator 2)
     71a:	80 91 fd 05 	lds	r24, 0x05FD
     71e:	88 2f       	mov	r24, r24
     720:	90 e0       	ldi	r25, 0x00	; 0
     722:	20 91 b1 07 	lds	r18, 0x07B1
     726:	80 50       	subi	r24, 0x00	; 0
     728:	9a 4f       	sbci	r25, 0xFA	; 250
     72a:	fc 01       	movw	r30, r24
     72c:	20 83       	st	Z, r18
     72e:	81 eb       	ldi	r24, 0xB1	; 177
     730:	97 e0       	ldi	r25, 0x07	; 7
     732:	fc 01       	movw	r30, r24
     734:	90 81       	ld	r25, Z
     736:	80 91 ff 06 	lds	r24, 0x06FF
     73a:	89 0f       	add	r24, r25
     73c:	80 93 ff 06 	sts	0x06FF, r24
     740:	90 91 fa 05 	lds	r25, 0x05FA
     744:	80 91 ff 06 	lds	r24, 0x06FF
     748:	89 0f       	add	r24, r25
     74a:	80 93 fa 05 	sts	0x05FA, r24
     74e:	80 91 fd 05 	lds	r24, 0x05FD
     752:	8f 5f       	subi	r24, 0xFF	; 255
     754:	80 93 fd 05 	sts	0x05FD, r24
     758:	80 91 fd 05 	lds	r24, 0x05FD
     75c:	8f 3f       	cpi	r24, 0xFF	; 255
     75e:	11 f4       	brne	.+4      	; 0x764 <ground_calibrate+0x64a>
/home/becker/async/wcet-benchmarks/benchmarks/PapaBench-0.2m/sw/airborne/autopilot_simulate/main.c:108 (discriminator 1)
     760:	10 92 fd 05 	sts	0x05FD, r1
/home/becker/async/wcet-benchmarks/benchmarks/PapaBench-0.2m/sw/airborne/autopilot_simulate/main.c:108 (discriminator 2)
     764:	80 91 fd 05 	lds	r24, 0x05FD
     768:	88 2f       	mov	r24, r24
     76a:	90 e0       	ldi	r25, 0x00	; 0
     76c:	25 e0       	ldi	r18, 0x05	; 5
     76e:	31 e0       	ldi	r19, 0x01	; 1
     770:	f9 01       	movw	r30, r18
     772:	20 81       	ld	r18, Z
     774:	80 50       	subi	r24, 0x00	; 0
     776:	9a 4f       	sbci	r25, 0xFA	; 250
     778:	fc 01       	movw	r30, r24
     77a:	20 83       	st	Z, r18
     77c:	85 e0       	ldi	r24, 0x05	; 5
     77e:	91 e0       	ldi	r25, 0x01	; 1
     780:	fc 01       	movw	r30, r24
     782:	90 81       	ld	r25, Z
     784:	80 91 ff 06 	lds	r24, 0x06FF
     788:	89 0f       	add	r24, r25
     78a:	80 93 ff 06 	sts	0x06FF, r24
     78e:	90 91 fa 05 	lds	r25, 0x05FA
     792:	80 91 ff 06 	lds	r24, 0x06FF
     796:	89 0f       	add	r24, r25
     798:	80 93 fa 05 	sts	0x05FA, r24
     79c:	80 91 fd 05 	lds	r24, 0x05FD
     7a0:	8f 5f       	subi	r24, 0xFF	; 255
     7a2:	80 93 fd 05 	sts	0x05FD, r24
     7a6:	80 91 fd 05 	lds	r24, 0x05FD
     7aa:	8f 3f       	cpi	r24, 0xFF	; 255
     7ac:	11 f4       	brne	.+4      	; 0x7b2 <ground_calibrate+0x698>
/home/becker/async/wcet-benchmarks/benchmarks/PapaBench-0.2m/sw/airborne/autopilot_simulate/main.c:108 (discriminator 1)
     7ae:	10 92 fd 05 	sts	0x05FD, r1
/home/becker/async/wcet-benchmarks/benchmarks/PapaBench-0.2m/sw/airborne/autopilot_simulate/main.c:108 (discriminator 2)
     7b2:	80 91 fd 05 	lds	r24, 0x05FD
     7b6:	88 2f       	mov	r24, r24
     7b8:	90 e0       	ldi	r25, 0x00	; 0
     7ba:	20 91 06 01 	lds	r18, 0x0106
     7be:	80 50       	subi	r24, 0x00	; 0
     7c0:	9a 4f       	sbci	r25, 0xFA	; 250
     7c2:	fc 01       	movw	r30, r24
     7c4:	20 83       	st	Z, r18
     7c6:	86 e0       	ldi	r24, 0x06	; 6
     7c8:	91 e0       	ldi	r25, 0x01	; 1
     7ca:	fc 01       	movw	r30, r24
     7cc:	90 81       	ld	r25, Z
     7ce:	80 91 ff 06 	lds	r24, 0x06FF
     7d2:	89 0f       	add	r24, r25
     7d4:	80 93 ff 06 	sts	0x06FF, r24
     7d8:	90 91 fa 05 	lds	r25, 0x05FA
     7dc:	80 91 ff 06 	lds	r24, 0x06FF
     7e0:	89 0f       	add	r24, r25
     7e2:	80 93 fa 05 	sts	0x05FA, r24
     7e6:	80 91 fd 05 	lds	r24, 0x05FD
     7ea:	8f 5f       	subi	r24, 0xFF	; 255
     7ec:	80 93 fd 05 	sts	0x05FD, r24
     7f0:	80 91 fd 05 	lds	r24, 0x05FD
     7f4:	8f 3f       	cpi	r24, 0xFF	; 255
     7f6:	11 f4       	brne	.+4      	; 0x7fc <ground_calibrate+0x6e2>
/home/becker/async/wcet-benchmarks/benchmarks/PapaBench-0.2m/sw/airborne/autopilot_simulate/main.c:108 (discriminator 1)
     7f8:	10 92 fd 05 	sts	0x05FD, r1
/home/becker/async/wcet-benchmarks/benchmarks/PapaBench-0.2m/sw/airborne/autopilot_simulate/main.c:108 (discriminator 2)
     7fc:	80 91 fd 05 	lds	r24, 0x05FD
     800:	88 2f       	mov	r24, r24
     802:	90 e0       	ldi	r25, 0x00	; 0
     804:	27 e0       	ldi	r18, 0x07	; 7
     806:	31 e0       	ldi	r19, 0x01	; 1
     808:	f9 01       	movw	r30, r18
     80a:	20 81       	ld	r18, Z
     80c:	80 50       	subi	r24, 0x00	; 0
     80e:	9a 4f       	sbci	r25, 0xFA	; 250
     810:	fc 01       	movw	r30, r24
     812:	20 83       	st	Z, r18
     814:	87 e0       	ldi	r24, 0x07	; 7
     816:	91 e0       	ldi	r25, 0x01	; 1
     818:	fc 01       	movw	r30, r24
     81a:	90 81       	ld	r25, Z
     81c:	80 91 ff 06 	lds	r24, 0x06FF
     820:	89 0f       	add	r24, r25
     822:	80 93 ff 06 	sts	0x06FF, r24
     826:	90 91 fa 05 	lds	r25, 0x05FA
     82a:	80 91 ff 06 	lds	r24, 0x06FF
     82e:	89 0f       	add	r24, r25
     830:	80 93 fa 05 	sts	0x05FA, r24
     834:	80 91 fd 05 	lds	r24, 0x05FD
     838:	8f 5f       	subi	r24, 0xFF	; 255
     83a:	80 93 fd 05 	sts	0x05FD, r24
     83e:	80 91 fd 05 	lds	r24, 0x05FD
     842:	8f 3f       	cpi	r24, 0xFF	; 255
     844:	11 f4       	brne	.+4      	; 0x84a <ground_calibrate+0x730>
/home/becker/async/wcet-benchmarks/benchmarks/PapaBench-0.2m/sw/airborne/autopilot_simulate/main.c:108 (discriminator 1)
     846:	10 92 fd 05 	sts	0x05FD, r1
/home/becker/async/wcet-benchmarks/benchmarks/PapaBench-0.2m/sw/airborne/autopilot_simulate/main.c:108 (discriminator 2)
     84a:	80 91 fd 05 	lds	r24, 0x05FD
     84e:	88 2f       	mov	r24, r24
     850:	90 e0       	ldi	r25, 0x00	; 0
     852:	20 91 08 01 	lds	r18, 0x0108
     856:	80 50       	subi	r24, 0x00	; 0
     858:	9a 4f       	sbci	r25, 0xFA	; 250
     85a:	fc 01       	movw	r30, r24
     85c:	20 83       	st	Z, r18
     85e:	88 e0       	ldi	r24, 0x08	; 8
     860:	91 e0       	ldi	r25, 0x01	; 1
     862:	fc 01       	movw	r30, r24
     864:	90 81       	ld	r25, Z
     866:	80 91 ff 06 	lds	r24, 0x06FF
     86a:	89 0f       	add	r24, r25
     86c:	80 93 ff 06 	sts	0x06FF, r24
     870:	90 91 fa 05 	lds	r25, 0x05FA
     874:	80 91 ff 06 	lds	r24, 0x06FF
     878:	89 0f       	add	r24, r25
     87a:	80 93 fa 05 	sts	0x05FA, r24
     87e:	80 91 fd 05 	lds	r24, 0x05FD
     882:	8f 5f       	subi	r24, 0xFF	; 255
     884:	80 93 fd 05 	sts	0x05FD, r24
     888:	80 91 fd 05 	lds	r24, 0x05FD
     88c:	8f 3f       	cpi	r24, 0xFF	; 255
     88e:	11 f4       	brne	.+4      	; 0x894 <ground_calibrate+0x77a>
/home/becker/async/wcet-benchmarks/benchmarks/PapaBench-0.2m/sw/airborne/autopilot_simulate/main.c:108 (discriminator 1)
     890:	10 92 fd 05 	sts	0x05FD, r1
/home/becker/async/wcet-benchmarks/benchmarks/PapaBench-0.2m/sw/airborne/autopilot_simulate/main.c:108 (discriminator 2)
     894:	80 91 fd 05 	lds	r24, 0x05FD
     898:	88 2f       	mov	r24, r24
     89a:	90 e0       	ldi	r25, 0x00	; 0
     89c:	20 91 ff 06 	lds	r18, 0x06FF
     8a0:	80 50       	subi	r24, 0x00	; 0
     8a2:	9a 4f       	sbci	r25, 0xFA	; 250
     8a4:	fc 01       	movw	r30, r24
     8a6:	20 83       	st	Z, r18
     8a8:	80 91 fd 05 	lds	r24, 0x05FD
     8ac:	8f 5f       	subi	r24, 0xFF	; 255
     8ae:	80 93 fd 05 	sts	0x05FD, r24
     8b2:	80 91 fd 05 	lds	r24, 0x05FD
     8b6:	8f 3f       	cpi	r24, 0xFF	; 255
     8b8:	11 f4       	brne	.+4      	; 0x8be <ground_calibrate+0x7a4>
/home/becker/async/wcet-benchmarks/benchmarks/PapaBench-0.2m/sw/airborne/autopilot_simulate/main.c:108 (discriminator 1)
     8ba:	10 92 fd 05 	sts	0x05FD, r1
/home/becker/async/wcet-benchmarks/benchmarks/PapaBench-0.2m/sw/airborne/autopilot_simulate/main.c:108 (discriminator 2)
     8be:	80 91 fd 05 	lds	r24, 0x05FD
     8c2:	88 2f       	mov	r24, r24
     8c4:	90 e0       	ldi	r25, 0x00	; 0
     8c6:	20 91 fa 05 	lds	r18, 0x05FA
     8ca:	80 50       	subi	r24, 0x00	; 0
     8cc:	9a 4f       	sbci	r25, 0xFA	; 250
     8ce:	fc 01       	movw	r30, r24
     8d0:	20 83       	st	Z, r18
     8d2:	80 91 fd 05 	lds	r24, 0x05FD
     8d6:	8f 5f       	subi	r24, 0xFF	; 255
     8d8:	80 93 fd 05 	sts	0x05FD, r24
     8dc:	80 91 fd 05 	lds	r24, 0x05FD
     8e0:	8f 3f       	cpi	r24, 0xFF	; 255
     8e2:	11 f4       	brne	.+4      	; 0x8e8 <ground_calibrate+0x7ce>
/home/becker/async/wcet-benchmarks/benchmarks/PapaBench-0.2m/sw/airborne/autopilot_simulate/main.c:108 (discriminator 1)
     8e4:	10 92 fd 05 	sts	0x05FD, r1
/home/becker/async/wcet-benchmarks/benchmarks/PapaBench-0.2m/sw/airborne/autopilot_simulate/main.c:108 (discriminator 2)
     8e8:	89 e5       	ldi	r24, 0x59	; 89
     8ea:	90 e0       	ldi	r25, 0x00	; 0
     8ec:	fc 01       	movw	r30, r24
     8ee:	80 81       	ld	r24, Z
     8f0:	88 2f       	mov	r24, r24
     8f2:	90 e0       	ldi	r25, 0x00	; 0
     8f4:	80 71       	andi	r24, 0x10	; 16
     8f6:	99 27       	eor	r25, r25
     8f8:	00 97       	sbiw	r24, 0x00	; 0
     8fa:	79 f5       	brne	.+94     	; 0x95a <ground_calibrate+0x840>
/home/becker/async/wcet-benchmarks/benchmarks/PapaBench-0.2m/sw/airborne/autopilot_simulate/main.c:108 (discriminator 1)
     8fc:	80 91 fe 05 	lds	r24, 0x05FE
     900:	88 2f       	mov	r24, r24
     902:	90 e0       	ldi	r25, 0x00	; 0
     904:	80 50       	subi	r24, 0x00	; 0
     906:	9a 4f       	sbci	r25, 0xFA	; 250
     908:	fc 01       	movw	r30, r24
     90a:	80 81       	ld	r24, Z
     90c:	80 93 fc 05 	sts	0x05FC, r24
     910:	10 92 ff 05 	sts	0x05FF, r1
     914:	80 91 fe 05 	lds	r24, 0x05FE
     918:	8f 5f       	subi	r24, 0xFF	; 255
     91a:	80 93 fe 05 	sts	0x05FE, r24
     91e:	80 91 fe 05 	lds	r24, 0x05FE
     922:	8f 3f       	cpi	r24, 0xFF	; 255
     924:	11 f4       	brne	.+4      	; 0x92a <ground_calibrate+0x810>
     926:	10 92 fe 05 	sts	0x05FE, r1
/home/becker/async/wcet-benchmarks/benchmarks/PapaBench-0.2m/sw/airborne/autopilot_simulate/main.c:108 (discriminator 2)
     92a:	88 e5       	ldi	r24, 0x58	; 88
     92c:	90 e0       	ldi	r25, 0x00	; 0
     92e:	28 e5       	ldi	r18, 0x58	; 88
     930:	30 e0       	ldi	r19, 0x00	; 0
     932:	f9 01       	movw	r30, r18
     934:	20 81       	ld	r18, Z
     936:	21 60       	ori	r18, 0x01	; 1
     938:	fc 01       	movw	r30, r24
     93a:	20 83       	st	Z, r18
     93c:	89 e5       	ldi	r24, 0x59	; 89
     93e:	90 e0       	ldi	r25, 0x00	; 0
     940:	29 e5       	ldi	r18, 0x59	; 89
     942:	30 e0       	ldi	r19, 0x00	; 0
     944:	f9 01       	movw	r30, r18
     946:	20 81       	ld	r18, Z
     948:	20 61       	ori	r18, 0x10	; 16
     94a:	fc 01       	movw	r30, r24
     94c:	20 83       	st	Z, r18
     94e:	05 c0       	rjmp	.+10     	; 0x95a <ground_calibrate+0x840>
     950:	80 91 fb 05 	lds	r24, 0x05FB
     954:	8f 5f       	subi	r24, 0xFF	; 255
     956:	80 93 fb 05 	sts	0x05FB, r24
/home/becker/async/wcet-benchmarks/benchmarks/PapaBench-0.2m/sw/airborne/autopilot_simulate/main.c:109
     95a:	82 e0       	ldi	r24, 0x02	; 2
     95c:	80 93 d3 01 	sts	0x01D3, r24
/home/becker/async/wcet-benchmarks/benchmarks/PapaBench-0.2m/sw/airborne/autopilot_simulate/main.c:110
     960:	90 91 fd 05 	lds	r25, 0x05FD
     964:	80 91 fe 05 	lds	r24, 0x05FE
     968:	98 17       	cp	r25, r24
     96a:	a0 f0       	brcs	.+40     	; 0x994 <ground_calibrate+0x87a>
/home/becker/async/wcet-benchmarks/benchmarks/PapaBench-0.2m/sw/airborne/autopilot_simulate/main.c:110 (discriminator 1)
     96c:	80 91 fe 05 	lds	r24, 0x05FE
     970:	28 2f       	mov	r18, r24
     972:	30 e0       	ldi	r19, 0x00	; 0
     974:	80 91 fd 05 	lds	r24, 0x05FD
     978:	88 2f       	mov	r24, r24
     97a:	90 e0       	ldi	r25, 0x00	; 0
     97c:	a9 01       	movw	r20, r18
     97e:	48 1b       	sub	r20, r24
     980:	59 0b       	sbc	r21, r25
     982:	ca 01       	movw	r24, r20
     984:	81 50       	subi	r24, 0x01	; 1
     986:	9f 4f       	sbci	r25, 0xFF	; 255
     988:	21 e0       	ldi	r18, 0x01	; 1
     98a:	87 30       	cpi	r24, 0x07	; 7
     98c:	91 05       	cpc	r25, r1
     98e:	9c f4       	brge	.+38     	; 0x9b6 <ground_calibrate+0x89c>
     990:	20 e0       	ldi	r18, 0x00	; 0
     992:	11 c0       	rjmp	.+34     	; 0x9b6 <ground_calibrate+0x89c>
/home/becker/async/wcet-benchmarks/benchmarks/PapaBench-0.2m/sw/airborne/autopilot_simulate/main.c:110 (discriminator 2)
     994:	80 91 fe 05 	lds	r24, 0x05FE
     998:	28 2f       	mov	r18, r24
     99a:	30 e0       	ldi	r19, 0x00	; 0
     99c:	80 91 fd 05 	lds	r24, 0x05FD
     9a0:	88 2f       	mov	r24, r24
     9a2:	90 e0       	ldi	r25, 0x00	; 0
     9a4:	f9 01       	movw	r30, r18
     9a6:	e8 1b       	sub	r30, r24
     9a8:	f9 0b       	sbc	r31, r25
     9aa:	cf 01       	movw	r24, r30
     9ac:	21 e0       	ldi	r18, 0x01	; 1
     9ae:	87 30       	cpi	r24, 0x07	; 7
     9b0:	91 05       	cpc	r25, r1
     9b2:	0c f4       	brge	.+2      	; 0x9b6 <ground_calibrate+0x89c>
     9b4:	20 e0       	ldi	r18, 0x00	; 0
/home/becker/async/wcet-benchmarks/benchmarks/PapaBench-0.2m/sw/airborne/autopilot_simulate/main.c:110 (discriminator 3)
     9b6:	22 23       	and	r18, r18
     9b8:	09 f4       	brne	.+2      	; 0x9bc <ground_calibrate+0x8a2>
     9ba:	d8 c0       	rjmp	.+432    	; 0xb6c <ground_calibrate+0xa52>
/home/becker/async/wcet-benchmarks/benchmarks/PapaBench-0.2m/sw/airborne/autopilot_simulate/main.c:110 (discriminator 1)
     9bc:	80 91 fd 05 	lds	r24, 0x05FD
     9c0:	88 2f       	mov	r24, r24
     9c2:	90 e0       	ldi	r25, 0x00	; 0
     9c4:	80 50       	subi	r24, 0x00	; 0
     9c6:	9a 4f       	sbci	r25, 0xFA	; 250
     9c8:	25 e0       	ldi	r18, 0x05	; 5
     9ca:	fc 01       	movw	r30, r24
     9cc:	20 83       	st	Z, r18
     9ce:	80 91 fd 05 	lds	r24, 0x05FD
     9d2:	8f 5f       	subi	r24, 0xFF	; 255
     9d4:	80 93 fd 05 	sts	0x05FD, r24
     9d8:	80 91 fd 05 	lds	r24, 0x05FD
     9dc:	8f 3f       	cpi	r24, 0xFF	; 255
     9de:	11 f4       	brne	.+4      	; 0x9e4 <ground_calibrate+0x8ca>
     9e0:	10 92 fd 05 	sts	0x05FD, r1
/home/becker/async/wcet-benchmarks/benchmarks/PapaBench-0.2m/sw/airborne/autopilot_simulate/main.c:110 (discriminator 2)
     9e4:	80 91 fd 05 	lds	r24, 0x05FD
     9e8:	88 2f       	mov	r24, r24
     9ea:	90 e0       	ldi	r25, 0x00	; 0
     9ec:	80 50       	subi	r24, 0x00	; 0
     9ee:	9a 4f       	sbci	r25, 0xFA	; 250
     9f0:	23 e0       	ldi	r18, 0x03	; 3
     9f2:	fc 01       	movw	r30, r24
     9f4:	20 83       	st	Z, r18
     9f6:	80 91 fd 05 	lds	r24, 0x05FD
     9fa:	8f 5f       	subi	r24, 0xFF	; 255
     9fc:	80 93 fd 05 	sts	0x05FD, r24
     a00:	80 91 fd 05 	lds	r24, 0x05FD
     a04:	8f 3f       	cpi	r24, 0xFF	; 255
     a06:	11 f4       	brne	.+4      	; 0xa0c <ground_calibrate+0x8f2>
/home/becker/async/wcet-benchmarks/benchmarks/PapaBench-0.2m/sw/airborne/autopilot_simulate/main.c:110 (discriminator 1)
     a08:	10 92 fd 05 	sts	0x05FD, r1
/home/becker/async/wcet-benchmarks/benchmarks/PapaBench-0.2m/sw/airborne/autopilot_simulate/main.c:110 (discriminator 2)
     a0c:	83 e0       	ldi	r24, 0x03	; 3
     a0e:	80 93 ff 06 	sts	0x06FF, r24
     a12:	83 e0       	ldi	r24, 0x03	; 3
     a14:	80 93 fa 05 	sts	0x05FA, r24
     a18:	80 91 fd 05 	lds	r24, 0x05FD
     a1c:	88 2f       	mov	r24, r24
     a1e:	90 e0       	ldi	r25, 0x00	; 0
     a20:	23 e0       	ldi	r18, 0x03	; 3
     a22:	31 e0       	ldi	r19, 0x01	; 1
     a24:	f9 01       	movw	r30, r18
     a26:	20 81       	ld	r18, Z
     a28:	80 50       	subi	r24, 0x00	; 0
     a2a:	9a 4f       	sbci	r25, 0xFA	; 250
     a2c:	fc 01       	movw	r30, r24
     a2e:	20 83       	st	Z, r18
     a30:	83 e0       	ldi	r24, 0x03	; 3
     a32:	91 e0       	ldi	r25, 0x01	; 1
     a34:	fc 01       	movw	r30, r24
     a36:	90 81       	ld	r25, Z
     a38:	80 91 ff 06 	lds	r24, 0x06FF
     a3c:	89 0f       	add	r24, r25
     a3e:	80 93 ff 06 	sts	0x06FF, r24
     a42:	90 91 fa 05 	lds	r25, 0x05FA
     a46:	80 91 ff 06 	lds	r24, 0x06FF
     a4a:	89 0f       	add	r24, r25
     a4c:	80 93 fa 05 	sts	0x05FA, r24
     a50:	80 91 fd 05 	lds	r24, 0x05FD
     a54:	8f 5f       	subi	r24, 0xFF	; 255
     a56:	80 93 fd 05 	sts	0x05FD, r24
     a5a:	80 91 fd 05 	lds	r24, 0x05FD
     a5e:	8f 3f       	cpi	r24, 0xFF	; 255
     a60:	11 f4       	brne	.+4      	; 0xa66 <ground_calibrate+0x94c>
/home/becker/async/wcet-benchmarks/benchmarks/PapaBench-0.2m/sw/airborne/autopilot_simulate/main.c:110 (discriminator 1)
     a62:	10 92 fd 05 	sts	0x05FD, r1
/home/becker/async/wcet-benchmarks/benchmarks/PapaBench-0.2m/sw/airborne/autopilot_simulate/main.c:110 (discriminator 2)
     a66:	80 91 fd 05 	lds	r24, 0x05FD
     a6a:	88 2f       	mov	r24, r24
     a6c:	90 e0       	ldi	r25, 0x00	; 0
     a6e:	20 91 04 01 	lds	r18, 0x0104
     a72:	80 50       	subi	r24, 0x00	; 0
     a74:	9a 4f       	sbci	r25, 0xFA	; 250
     a76:	fc 01       	movw	r30, r24
     a78:	20 83       	st	Z, r18
     a7a:	84 e0       	ldi	r24, 0x04	; 4
     a7c:	91 e0       	ldi	r25, 0x01	; 1
     a7e:	fc 01       	movw	r30, r24
     a80:	90 81       	ld	r25, Z
     a82:	80 91 ff 06 	lds	r24, 0x06FF
     a86:	89 0f       	add	r24, r25
     a88:	80 93 ff 06 	sts	0x06FF, r24
     a8c:	90 91 fa 05 	lds	r25, 0x05FA
     a90:	80 91 ff 06 	lds	r24, 0x06FF
     a94:	89 0f       	add	r24, r25
     a96:	80 93 fa 05 	sts	0x05FA, r24
     a9a:	80 91 fd 05 	lds	r24, 0x05FD
     a9e:	8f 5f       	subi	r24, 0xFF	; 255
     aa0:	80 93 fd 05 	sts	0x05FD, r24
     aa4:	80 91 fd 05 	lds	r24, 0x05FD
     aa8:	8f 3f       	cpi	r24, 0xFF	; 255
     aaa:	11 f4       	brne	.+4      	; 0xab0 <ground_calibrate+0x996>
/home/becker/async/wcet-benchmarks/benchmarks/PapaBench-0.2m/sw/airborne/autopilot_simulate/main.c:110 (discriminator 1)
     aac:	10 92 fd 05 	sts	0x05FD, r1
/home/becker/async/wcet-benchmarks/benchmarks/PapaBench-0.2m/sw/airborne/autopilot_simulate/main.c:110 (discriminator 2)
     ab0:	80 91 fd 05 	lds	r24, 0x05FD
     ab4:	88 2f       	mov	r24, r24
     ab6:	90 e0       	ldi	r25, 0x00	; 0
     ab8:	20 91 ff 06 	lds	r18, 0x06FF
     abc:	80 50       	subi	r24, 0x00	; 0
     abe:	9a 4f       	sbci	r25, 0xFA	; 250
     ac0:	fc 01       	movw	r30, r24
     ac2:	20 83       	st	Z, r18
     ac4:	80 91 fd 05 	lds	r24, 0x05FD
     ac8:	8f 5f       	subi	r24, 0xFF	; 255
     aca:	80 93 fd 05 	sts	0x05FD, r24
     ace:	80 91 fd 05 	lds	r24, 0x05FD
     ad2:	8f 3f       	cpi	r24, 0xFF	; 255
     ad4:	11 f4       	brne	.+4      	; 0xada <ground_calibrate+0x9c0>
/home/becker/async/wcet-benchmarks/benchmarks/PapaBench-0.2m/sw/airborne/autopilot_simulate/main.c:110 (discriminator 1)
     ad6:	10 92 fd 05 	sts	0x05FD, r1
/home/becker/async/wcet-benchmarks/benchmarks/PapaBench-0.2m/sw/airborne/autopilot_simulate/main.c:110 (discriminator 2)
     ada:	80 91 fd 05 	lds	r24, 0x05FD
     ade:	88 2f       	mov	r24, r24
     ae0:	90 e0       	ldi	r25, 0x00	; 0
     ae2:	20 91 fa 05 	lds	r18, 0x05FA
     ae6:	80 50       	subi	r24, 0x00	; 0
     ae8:	9a 4f       	sbci	r25, 0xFA	; 250
     aea:	fc 01       	movw	r30, r24
     aec:	20 83       	st	Z, r18
     aee:	80 91 fd 05 	lds	r24, 0x05FD
     af2:	8f 5f       	subi	r24, 0xFF	; 255
     af4:	80 93 fd 05 	sts	0x05FD, r24
     af8:	80 91 fd 05 	lds	r24, 0x05FD
     afc:	8f 3f       	cpi	r24, 0xFF	; 255
     afe:	11 f4       	brne	.+4      	; 0xb04 <ground_calibrate+0x9ea>
/home/becker/async/wcet-benchmarks/benchmarks/PapaBench-0.2m/sw/airborne/autopilot_simulate/main.c:110 (discriminator 1)
     b00:	10 92 fd 05 	sts	0x05FD, r1
/home/becker/async/wcet-benchmarks/benchmarks/PapaBench-0.2m/sw/airborne/autopilot_simulate/main.c:110 (discriminator 2)
     b04:	89 e5       	ldi	r24, 0x59	; 89
     b06:	90 e0       	ldi	r25, 0x00	; 0
     b08:	fc 01       	movw	r30, r24
     b0a:	80 81       	ld	r24, Z
     b0c:	88 2f       	mov	r24, r24
     b0e:	90 e0       	ldi	r25, 0x00	; 0
     b10:	80 71       	andi	r24, 0x10	; 16
     b12:	99 27       	eor	r25, r25
     b14:	00 97       	sbiw	r24, 0x00	; 0
     b16:	81 f5       	brne	.+96     	; 0xb78 <ground_calibrate+0xa5e>
/home/becker/async/wcet-benchmarks/benchmarks/PapaBench-0.2m/sw/airborne/autopilot_simulate/main.c:110 (discriminator 1)
     b18:	80 91 fe 05 	lds	r24, 0x05FE
     b1c:	88 2f       	mov	r24, r24
     b1e:	90 e0       	ldi	r25, 0x00	; 0
     b20:	80 50       	subi	r24, 0x00	; 0
     b22:	9a 4f       	sbci	r25, 0xFA	; 250
     b24:	fc 01       	movw	r30, r24
     b26:	80 81       	ld	r24, Z
     b28:	80 93 fc 05 	sts	0x05FC, r24
     b2c:	10 92 ff 05 	sts	0x05FF, r1
     b30:	80 91 fe 05 	lds	r24, 0x05FE
     b34:	8f 5f       	subi	r24, 0xFF	; 255
     b36:	80 93 fe 05 	sts	0x05FE, r24
     b3a:	80 91 fe 05 	lds	r24, 0x05FE
     b3e:	8f 3f       	cpi	r24, 0xFF	; 255
     b40:	11 f4       	brne	.+4      	; 0xb46 <ground_calibrate+0xa2c>
     b42:	10 92 fe 05 	sts	0x05FE, r1
/home/becker/async/wcet-benchmarks/benchmarks/PapaBench-0.2m/sw/airborne/autopilot_simulate/main.c:110 (discriminator 2)
     b46:	88 e5       	ldi	r24, 0x58	; 88
     b48:	90 e0       	ldi	r25, 0x00	; 0
     b4a:	28 e5       	ldi	r18, 0x58	; 88
     b4c:	30 e0       	ldi	r19, 0x00	; 0
     b4e:	f9 01       	movw	r30, r18
     b50:	20 81       	ld	r18, Z
     b52:	21 60       	ori	r18, 0x01	; 1
     b54:	fc 01       	movw	r30, r24
     b56:	20 83       	st	Z, r18
     b58:	89 e5       	ldi	r24, 0x59	; 89
     b5a:	90 e0       	ldi	r25, 0x00	; 0
     b5c:	29 e5       	ldi	r18, 0x59	; 89
     b5e:	30 e0       	ldi	r19, 0x00	; 0
     b60:	f9 01       	movw	r30, r18
     b62:	20 81       	ld	r18, Z
     b64:	20 61       	ori	r18, 0x10	; 16
     b66:	fc 01       	movw	r30, r24
     b68:	20 83       	st	Z, r18
/home/becker/async/wcet-benchmarks/benchmarks/PapaBench-0.2m/sw/airborne/autopilot_simulate/main.c:112 (discriminator 2)
     b6a:	08 c0       	rjmp	.+16     	; 0xb7c <ground_calibrate+0xa62>
/home/becker/async/wcet-benchmarks/benchmarks/PapaBench-0.2m/sw/airborne/autopilot_simulate/main.c:110 (discriminator 2)
     b6c:	80 91 fb 05 	lds	r24, 0x05FB
     b70:	8f 5f       	subi	r24, 0xFF	; 255
     b72:	80 93 fb 05 	sts	0x05FB, r24
/home/becker/async/wcet-benchmarks/benchmarks/PapaBench-0.2m/sw/airborne/autopilot_simulate/main.c:112 (discriminator 2)
     b76:	02 c0       	rjmp	.+4      	; 0xb7c <ground_calibrate+0xa62>
/home/becker/async/wcet-benchmarks/benchmarks/PapaBench-0.2m/sw/airborne/autopilot_simulate/main.c:112
     b78:	01 c0       	rjmp	.+2      	; 0xb7c <ground_calibrate+0xa62>
/home/becker/async/wcet-benchmarks/benchmarks/PapaBench-0.2m/sw/airborne/autopilot_simulate/main.c:114
     b7a:	00 00       	nop
/home/becker/async/wcet-benchmarks/benchmarks/PapaBench-0.2m/sw/airborne/autopilot_simulate/main.c:116
     b7c:	df 91       	pop	r29
     b7e:	cf 91       	pop	r28
     b80:	08 95       	ret

00000b82 <pprz_mode_update>:
pprz_mode_update():
/home/becker/async/wcet-benchmarks/benchmarks/PapaBench-0.2m/sw/airborne/autopilot_simulate/main.c:122
     b82:	cf 93       	push	r28
     b84:	df 93       	push	r29
     b86:	1f 92       	push	r1
     b88:	cd b7       	in	r28, 0x3d	; 61
     b8a:	de b7       	in	r29, 0x3e	; 62
/home/becker/async/wcet-benchmarks/benchmarks/PapaBench-0.2m/sw/airborne/autopilot_simulate/main.c:124
     b8c:	80 91 c9 01 	lds	r24, 0x01C9
     b90:	83 30       	cpi	r24, 0x03	; 3
     b92:	31 f4       	brne	.+12     	; 0xba0 <pprz_mode_update+0x1e>
/home/becker/async/wcet-benchmarks/benchmarks/PapaBench-0.2m/sw/airborne/autopilot_simulate/main.c:124 (discriminator 1)
     b94:	80 91 ef 05 	lds	r24, 0x05EF
     b98:	88 23       	and	r24, r24
     b9a:	21 f1       	breq	.+72     	; 0xbe4 <pprz_mode_update+0x62>
/home/becker/async/wcet-benchmarks/benchmarks/PapaBench-0.2m/sw/airborne/autopilot_simulate/main.c:124 (discriminator 2)
     b9c:	10 92 ef 05 	sts	0x05EF, r1
/home/becker/async/wcet-benchmarks/benchmarks/PapaBench-0.2m/sw/airborne/autopilot_simulate/main.c:125
     ba0:	80 91 1e 07 	lds	r24, 0x071E
     ba4:	90 91 1f 07 	lds	r25, 0x071F
     ba8:	81 38       	cpi	r24, 0x81	; 129
     baa:	2c e0       	ldi	r18, 0x0C	; 12
     bac:	92 07       	cpc	r25, r18
     bae:	64 f4       	brge	.+24     	; 0xbc8 <pprz_mode_update+0x46>
/home/becker/async/wcet-benchmarks/benchmarks/PapaBench-0.2m/sw/airborne/autopilot_simulate/main.c:125 (discriminator 1)
     bb0:	80 91 1e 07 	lds	r24, 0x071E
     bb4:	90 91 1f 07 	lds	r25, 0x071F
     bb8:	21 e0       	ldi	r18, 0x01	; 1
     bba:	81 34       	cpi	r24, 0x41	; 65
     bbc:	3d ee       	ldi	r19, 0xED	; 237
     bbe:	93 07       	cpc	r25, r19
     bc0:	0c f4       	brge	.+2      	; 0xbc4 <pprz_mode_update+0x42>
     bc2:	20 e0       	ldi	r18, 0x00	; 0
     bc4:	82 2f       	mov	r24, r18
     bc6:	01 c0       	rjmp	.+2      	; 0xbca <pprz_mode_update+0x48>
/home/becker/async/wcet-benchmarks/benchmarks/PapaBench-0.2m/sw/airborne/autopilot_simulate/main.c:125 (discriminator 2)
     bc8:	82 e0       	ldi	r24, 0x02	; 2
/home/becker/async/wcet-benchmarks/benchmarks/PapaBench-0.2m/sw/airborne/autopilot_simulate/main.c:125 (discriminator 3)
     bca:	89 83       	std	Y+1, r24	; 0x01
     bcc:	90 91 c9 01 	lds	r25, 0x01C9
     bd0:	89 81       	ldd	r24, Y+1	; 0x01
     bd2:	98 17       	cp	r25, r24
     bd4:	29 f0       	breq	.+10     	; 0xbe0 <pprz_mode_update+0x5e>
/home/becker/async/wcet-benchmarks/benchmarks/PapaBench-0.2m/sw/airborne/autopilot_simulate/main.c:125 (discriminator 1)
     bd6:	89 81       	ldd	r24, Y+1	; 0x01
     bd8:	80 93 c9 01 	sts	0x01C9, r24
     bdc:	81 e0       	ldi	r24, 0x01	; 1
     bde:	03 c0       	rjmp	.+6      	; 0xbe6 <pprz_mode_update+0x64>
/home/becker/async/wcet-benchmarks/benchmarks/PapaBench-0.2m/sw/airborne/autopilot_simulate/main.c:125 (discriminator 2)
     be0:	80 e0       	ldi	r24, 0x00	; 0
     be2:	01 c0       	rjmp	.+2      	; 0xbe6 <pprz_mode_update+0x64>
/home/becker/async/wcet-benchmarks/benchmarks/PapaBench-0.2m/sw/airborne/autopilot_simulate/main.c:127
     be4:	80 e0       	ldi	r24, 0x00	; 0
/home/becker/async/wcet-benchmarks/benchmarks/PapaBench-0.2m/sw/airborne/autopilot_simulate/main.c:128
     be6:	0f 90       	pop	r0
     be8:	df 91       	pop	r29
     bea:	cf 91       	pop	r28
     bec:	08 95       	ret

00000bee <ir_estim_mode_update>:
ir_estim_mode_update():
/home/becker/async/wcet-benchmarks/benchmarks/PapaBench-0.2m/sw/airborne/autopilot_simulate/main.c:134
     bee:	cf 93       	push	r28
     bf0:	df 93       	push	r29
     bf2:	1f 92       	push	r1
     bf4:	cd b7       	in	r28, 0x3d	; 61
     bf6:	de b7       	in	r29, 0x3e	; 62
/home/becker/async/wcet-benchmarks/benchmarks/PapaBench-0.2m/sw/airborne/autopilot_simulate/main.c:135
     bf8:	80 91 24 07 	lds	r24, 0x0724
     bfc:	90 91 25 07 	lds	r25, 0x0725
     c00:	21 e0       	ldi	r18, 0x01	; 1
     c02:	80 38       	cpi	r24, 0x80	; 128
     c04:	3c e0       	ldi	r19, 0x0C	; 12
     c06:	93 07       	cpc	r25, r19
     c08:	0c f4       	brge	.+2      	; 0xc0c <ir_estim_mode_update+0x1e>
     c0a:	20 e0       	ldi	r18, 0x00	; 0
     c0c:	29 83       	std	Y+1, r18	; 0x01
     c0e:	90 91 00 01 	lds	r25, 0x0100
     c12:	89 81       	ldd	r24, Y+1	; 0x01
     c14:	98 17       	cp	r25, r24
     c16:	29 f0       	breq	.+10     	; 0xc22 <ir_estim_mode_update+0x34>
/home/becker/async/wcet-benchmarks/benchmarks/PapaBench-0.2m/sw/airborne/autopilot_simulate/main.c:135 (discriminator 1)
     c18:	89 81       	ldd	r24, Y+1	; 0x01
     c1a:	80 93 00 01 	sts	0x0100, r24
     c1e:	81 e0       	ldi	r24, 0x01	; 1
     c20:	01 c0       	rjmp	.+2      	; 0xc24 <ir_estim_mode_update+0x36>
/home/becker/async/wcet-benchmarks/benchmarks/PapaBench-0.2m/sw/airborne/autopilot_simulate/main.c:135 (discriminator 2)
     c22:	80 e0       	ldi	r24, 0x00	; 0
/home/becker/async/wcet-benchmarks/benchmarks/PapaBench-0.2m/sw/airborne/autopilot_simulate/main.c:136
     c24:	0f 90       	pop	r0
     c26:	df 91       	pop	r29
     c28:	cf 91       	pop	r28
     c2a:	08 95       	ret

00000c2c <mcu1_status_update>:
mcu1_status_update():
/home/becker/async/wcet-benchmarks/benchmarks/PapaBench-0.2m/sw/airborne/autopilot_simulate/main.c:143
     c2c:	cf 93       	push	r28
     c2e:	df 93       	push	r29
     c30:	00 d0       	rcall	.+0      	; 0xc32 <mcu1_status_update+0x6>
     c32:	cd b7       	in	r28, 0x3d	; 61
     c34:	de b7       	in	r29, 0x3e	; 62
/home/becker/async/wcet-benchmarks/benchmarks/PapaBench-0.2m/sw/airborne/autopilot_simulate/main.c:144
     c36:	80 91 29 07 	lds	r24, 0x0729
     c3a:	89 83       	std	Y+1, r24	; 0x01
/home/becker/async/wcet-benchmarks/benchmarks/PapaBench-0.2m/sw/airborne/autopilot_simulate/main.c:145
     c3c:	90 91 d0 01 	lds	r25, 0x01D0
     c40:	89 81       	ldd	r24, Y+1	; 0x01
     c42:	98 17       	cp	r25, r24
     c44:	a9 f0       	breq	.+42     	; 0xc70 <mcu1_status_update+0x44>
/home/becker/async/wcet-benchmarks/benchmarks/PapaBench-0.2m/sw/airborne/autopilot_simulate/main.c:146
     c46:	80 91 d0 01 	lds	r24, 0x01D0
     c4a:	28 2f       	mov	r18, r24
     c4c:	30 e0       	ldi	r19, 0x00	; 0
     c4e:	89 81       	ldd	r24, Y+1	; 0x01
     c50:	88 2f       	mov	r24, r24
     c52:	90 e0       	ldi	r25, 0x00	; 0
     c54:	82 27       	eor	r24, r18
     c56:	93 27       	eor	r25, r19
     c58:	83 70       	andi	r24, 0x03	; 3
     c5a:	99 27       	eor	r25, r25
     c5c:	21 e0       	ldi	r18, 0x01	; 1
     c5e:	00 97       	sbiw	r24, 0x00	; 0
     c60:	09 f4       	brne	.+2      	; 0xc64 <mcu1_status_update+0x38>
     c62:	20 e0       	ldi	r18, 0x00	; 0
     c64:	2a 83       	std	Y+2, r18	; 0x02
/home/becker/async/wcet-benchmarks/benchmarks/PapaBench-0.2m/sw/airborne/autopilot_simulate/main.c:147
     c66:	89 81       	ldd	r24, Y+1	; 0x01
     c68:	80 93 d0 01 	sts	0x01D0, r24
/home/becker/async/wcet-benchmarks/benchmarks/PapaBench-0.2m/sw/airborne/autopilot_simulate/main.c:148
     c6c:	8a 81       	ldd	r24, Y+2	; 0x02
     c6e:	01 c0       	rjmp	.+2      	; 0xc72 <mcu1_status_update+0x46>
/home/becker/async/wcet-benchmarks/benchmarks/PapaBench-0.2m/sw/airborne/autopilot_simulate/main.c:150
     c70:	80 e0       	ldi	r24, 0x00	; 0
/home/becker/async/wcet-benchmarks/benchmarks/PapaBench-0.2m/sw/airborne/autopilot_simulate/main.c:151
     c72:	0f 90       	pop	r0
     c74:	0f 90       	pop	r0
     c76:	df 91       	pop	r29
     c78:	cf 91       	pop	r28
     c7a:	08 95       	ret

00000c7c <events_update>:
events_update():
/home/becker/async/wcet-benchmarks/benchmarks/PapaBench-0.2m/sw/airborne/autopilot_simulate/main.c:185
     c7c:	cf 93       	push	r28
     c7e:	df 93       	push	r29
     c80:	cd b7       	in	r28, 0x3d	; 61
     c82:	de b7       	in	r29, 0x3e	; 62
/home/becker/async/wcet-benchmarks/benchmarks/PapaBench-0.2m/sw/airborne/autopilot_simulate/main.c:188
     c84:	80 91 de 05 	lds	r24, 0x05DE
     c88:	88 23       	and	r24, r24
     c8a:	21 f5       	brne	.+72     	; 0xcd4 <events_update+0x58>
/home/becker/async/wcet-benchmarks/benchmarks/PapaBench-0.2m/sw/airborne/autopilot_simulate/main.c:188 (discriminator 1)
     c8c:	80 91 20 07 	lds	r24, 0x0720
     c90:	90 91 21 07 	lds	r25, 0x0721
     c94:	81 32       	cpi	r24, 0x21	; 33
     c96:	2c e1       	ldi	r18, 0x1C	; 28
     c98:	92 07       	cpc	r25, r18
     c9a:	e4 f0       	brlt	.+56     	; 0xcd4 <events_update+0x58>
     c9c:	80 91 d5 01 	lds	r24, 0x01D5
     ca0:	90 91 d6 01 	lds	r25, 0x01D6
     ca4:	84 31       	cpi	r24, 0x14	; 20
     ca6:	91 05       	cpc	r25, r1
     ca8:	a0 f4       	brcc	.+40     	; 0xcd2 <events_update+0x56>
     caa:	80 91 d5 01 	lds	r24, 0x01D5
     cae:	90 91 d6 01 	lds	r25, 0x01D6
     cb2:	01 96       	adiw	r24, 0x01	; 1
     cb4:	90 93 d6 01 	sts	0x01D6, r25
     cb8:	80 93 d5 01 	sts	0x01D5, r24
     cbc:	80 91 d5 01 	lds	r24, 0x01D5
     cc0:	90 91 d6 01 	lds	r25, 0x01D6
     cc4:	84 31       	cpi	r24, 0x14	; 20
     cc6:	91 05       	cpc	r25, r1
     cc8:	21 f4       	brne	.+8      	; 0xcd2 <events_update+0x56>
     cca:	81 e0       	ldi	r24, 0x01	; 1
     ccc:	80 93 ef 05 	sts	0x05EF, r24
     cd0:	07 c0       	rjmp	.+14     	; 0xce0 <events_update+0x64>
/home/becker/async/wcet-benchmarks/benchmarks/PapaBench-0.2m/sw/airborne/autopilot_simulate/main.c:188 (discriminator 2)
     cd2:	06 c0       	rjmp	.+12     	; 0xce0 <events_update+0x64>
     cd4:	10 92 d6 01 	sts	0x01D6, r1
     cd8:	10 92 d5 01 	sts	0x01D5, r1
     cdc:	10 92 ef 05 	sts	0x05EF, r1
/home/becker/async/wcet-benchmarks/benchmarks/PapaBench-0.2m/sw/airborne/autopilot_simulate/main.c:189
     ce0:	80 91 de 05 	lds	r24, 0x05DE
     ce4:	88 23       	and	r24, r24
     ce6:	21 f5       	brne	.+72     	; 0xd30 <events_update+0xb4>
/home/becker/async/wcet-benchmarks/benchmarks/PapaBench-0.2m/sw/airborne/autopilot_simulate/main.c:189 (discriminator 1)
     ce8:	80 91 20 07 	lds	r24, 0x0720
     cec:	90 91 21 07 	lds	r25, 0x0721
     cf0:	80 3e       	cpi	r24, 0xE0	; 224
     cf2:	23 ee       	ldi	r18, 0xE3	; 227
     cf4:	92 07       	cpc	r25, r18
     cf6:	e4 f4       	brge	.+56     	; 0xd30 <events_update+0xb4>
     cf8:	80 91 d7 01 	lds	r24, 0x01D7
     cfc:	90 91 d8 01 	lds	r25, 0x01D8
     d00:	84 31       	cpi	r24, 0x14	; 20
     d02:	91 05       	cpc	r25, r1
     d04:	a0 f4       	brcc	.+40     	; 0xd2e <events_update+0xb2>
     d06:	80 91 d7 01 	lds	r24, 0x01D7
     d0a:	90 91 d8 01 	lds	r25, 0x01D8
     d0e:	01 96       	adiw	r24, 0x01	; 1
     d10:	90 93 d8 01 	sts	0x01D8, r25
     d14:	80 93 d7 01 	sts	0x01D7, r24
     d18:	80 91 d7 01 	lds	r24, 0x01D7
     d1c:	90 91 d8 01 	lds	r25, 0x01D8
     d20:	84 31       	cpi	r24, 0x14	; 20
     d22:	91 05       	cpc	r25, r1
     d24:	21 f4       	brne	.+8      	; 0xd2e <events_update+0xb2>
     d26:	81 e0       	ldi	r24, 0x01	; 1
     d28:	80 93 f8 05 	sts	0x05F8, r24
     d2c:	07 c0       	rjmp	.+14     	; 0xd3c <events_update+0xc0>
/home/becker/async/wcet-benchmarks/benchmarks/PapaBench-0.2m/sw/airborne/autopilot_simulate/main.c:189 (discriminator 2)
     d2e:	06 c0       	rjmp	.+12     	; 0xd3c <events_update+0xc0>
     d30:	10 92 d8 01 	sts	0x01D8, r1
     d34:	10 92 d7 01 	sts	0x01D7, r1
     d38:	10 92 f8 05 	sts	0x05F8, r1
/home/becker/async/wcet-benchmarks/benchmarks/PapaBench-0.2m/sw/airborne/autopilot_simulate/main.c:190
     d3c:	df 91       	pop	r29
     d3e:	cf 91       	pop	r28
     d40:	08 95       	ret

00000d42 <copy_from_to_fbw>:
copy_from_to_fbw():
/home/becker/async/wcet-benchmarks/benchmarks/PapaBench-0.2m/sw/airborne/autopilot_simulate/main.c:196
     d42:	cf 93       	push	r28
     d44:	df 93       	push	r29
     d46:	cd b7       	in	r28, 0x3d	; 61
     d48:	de b7       	in	r29, 0x3e	; 62
/home/becker/async/wcet-benchmarks/benchmarks/PapaBench-0.2m/sw/airborne/autopilot_simulate/main.c:197
     d4a:	80 91 1c 07 	lds	r24, 0x071C
     d4e:	90 91 1d 07 	lds	r25, 0x071D
     d52:	90 93 07 07 	sts	0x0707, r25
     d56:	80 93 06 07 	sts	0x0706, r24
/home/becker/async/wcet-benchmarks/benchmarks/PapaBench-0.2m/sw/airborne/autopilot_simulate/main.c:201
     d5a:	10 92 13 07 	sts	0x0713, r1
/home/becker/async/wcet-benchmarks/benchmarks/PapaBench-0.2m/sw/airborne/autopilot_simulate/main.c:202
     d5e:	df 91       	pop	r29
     d60:	cf 91       	pop	r28
     d62:	08 95       	ret

00000d64 <reporting_task>:
reporting_task():
/home/becker/async/wcet-benchmarks/benchmarks/PapaBench-0.2m/sw/airborne/autopilot_simulate/main.c:263
     d64:	cf 93       	push	r28
     d66:	df 93       	push	r29
     d68:	cd b7       	in	r28, 0x3d	; 61
     d6a:	de b7       	in	r29, 0x3e	; 62
/home/becker/async/wcet-benchmarks/benchmarks/PapaBench-0.2m/sw/airborne/autopilot_simulate/main.c:267
     d6c:	80 91 01 01 	lds	r24, 0x0101
     d70:	88 23       	and	r24, r24
     d72:	09 f4       	brne	.+2      	; 0xd76 <reporting_task+0x12>
     d74:	28 c4       	rjmp	.+2128   	; 0x15c6 <__stack+0x4c7>
/home/becker/async/wcet-benchmarks/benchmarks/PapaBench-0.2m/sw/airborne/autopilot_simulate/main.c:268
     d76:	90 91 fd 05 	lds	r25, 0x05FD
     d7a:	80 91 fe 05 	lds	r24, 0x05FE
     d7e:	98 17       	cp	r25, r24
     d80:	a0 f0       	brcs	.+40     	; 0xdaa <reporting_task+0x46>
/home/becker/async/wcet-benchmarks/benchmarks/PapaBench-0.2m/sw/airborne/autopilot_simulate/main.c:268 (discriminator 1)
     d82:	80 91 fe 05 	lds	r24, 0x05FE
     d86:	28 2f       	mov	r18, r24
     d88:	30 e0       	ldi	r19, 0x00	; 0
     d8a:	80 91 fd 05 	lds	r24, 0x05FD
     d8e:	88 2f       	mov	r24, r24
     d90:	90 e0       	ldi	r25, 0x00	; 0
     d92:	a9 01       	movw	r20, r18
     d94:	48 1b       	sub	r20, r24
     d96:	59 0b       	sbc	r21, r25
     d98:	ca 01       	movw	r24, r20
     d9a:	81 50       	subi	r24, 0x01	; 1
     d9c:	9f 4f       	sbci	r25, 0xFF	; 255
     d9e:	21 e0       	ldi	r18, 0x01	; 1
     da0:	87 30       	cpi	r24, 0x07	; 7
     da2:	91 05       	cpc	r25, r1
     da4:	9c f4       	brge	.+38     	; 0xdcc <reporting_task+0x68>
     da6:	20 e0       	ldi	r18, 0x00	; 0
     da8:	11 c0       	rjmp	.+34     	; 0xdcc <reporting_task+0x68>
/home/becker/async/wcet-benchmarks/benchmarks/PapaBench-0.2m/sw/airborne/autopilot_simulate/main.c:268 (discriminator 2)
     daa:	80 91 fe 05 	lds	r24, 0x05FE
     dae:	28 2f       	mov	r18, r24
     db0:	30 e0       	ldi	r19, 0x00	; 0
     db2:	80 91 fd 05 	lds	r24, 0x05FD
     db6:	88 2f       	mov	r24, r24
     db8:	90 e0       	ldi	r25, 0x00	; 0
     dba:	f9 01       	movw	r30, r18
     dbc:	e8 1b       	sub	r30, r24
     dbe:	f9 0b       	sbc	r31, r25
     dc0:	cf 01       	movw	r24, r30
     dc2:	21 e0       	ldi	r18, 0x01	; 1
     dc4:	87 30       	cpi	r24, 0x07	; 7
     dc6:	91 05       	cpc	r25, r1
     dc8:	0c f4       	brge	.+2      	; 0xdcc <reporting_task+0x68>
     dca:	20 e0       	ldi	r18, 0x00	; 0
/home/becker/async/wcet-benchmarks/benchmarks/PapaBench-0.2m/sw/airborne/autopilot_simulate/main.c:268 (discriminator 3)
     dcc:	22 23       	and	r18, r18
     dce:	09 f4       	brne	.+2      	; 0xdd2 <reporting_task+0x6e>
     dd0:	d8 c0       	rjmp	.+432    	; 0xf82 <reporting_task+0x21e>
/home/becker/async/wcet-benchmarks/benchmarks/PapaBench-0.2m/sw/airborne/autopilot_simulate/main.c:268 (discriminator 1)
     dd2:	80 91 fd 05 	lds	r24, 0x05FD
     dd6:	88 2f       	mov	r24, r24
     dd8:	90 e0       	ldi	r25, 0x00	; 0
     dda:	80 50       	subi	r24, 0x00	; 0
     ddc:	9a 4f       	sbci	r25, 0xFA	; 250
     dde:	25 e0       	ldi	r18, 0x05	; 5
     de0:	fc 01       	movw	r30, r24
     de2:	20 83       	st	Z, r18
     de4:	80 91 fd 05 	lds	r24, 0x05FD
     de8:	8f 5f       	subi	r24, 0xFF	; 255
     dea:	80 93 fd 05 	sts	0x05FD, r24
     dee:	80 91 fd 05 	lds	r24, 0x05FD
     df2:	8f 3f       	cpi	r24, 0xFF	; 255
     df4:	11 f4       	brne	.+4      	; 0xdfa <reporting_task+0x96>
     df6:	10 92 fd 05 	sts	0x05FD, r1
/home/becker/async/wcet-benchmarks/benchmarks/PapaBench-0.2m/sw/airborne/autopilot_simulate/main.c:268 (discriminator 2)
     dfa:	80 91 fd 05 	lds	r24, 0x05FD
     dfe:	88 2f       	mov	r24, r24
     e00:	90 e0       	ldi	r25, 0x00	; 0
     e02:	80 50       	subi	r24, 0x00	; 0
     e04:	9a 4f       	sbci	r25, 0xFA	; 250
     e06:	21 e0       	ldi	r18, 0x01	; 1
     e08:	fc 01       	movw	r30, r24
     e0a:	20 83       	st	Z, r18
     e0c:	80 91 fd 05 	lds	r24, 0x05FD
     e10:	8f 5f       	subi	r24, 0xFF	; 255
     e12:	80 93 fd 05 	sts	0x05FD, r24
     e16:	80 91 fd 05 	lds	r24, 0x05FD
     e1a:	8f 3f       	cpi	r24, 0xFF	; 255
     e1c:	11 f4       	brne	.+4      	; 0xe22 <reporting_task+0xbe>
/home/becker/async/wcet-benchmarks/benchmarks/PapaBench-0.2m/sw/airborne/autopilot_simulate/main.c:268 (discriminator 1)
     e1e:	10 92 fd 05 	sts	0x05FD, r1
/home/becker/async/wcet-benchmarks/benchmarks/PapaBench-0.2m/sw/airborne/autopilot_simulate/main.c:268 (discriminator 2)
     e22:	81 e0       	ldi	r24, 0x01	; 1
     e24:	80 93 ff 06 	sts	0x06FF, r24
     e28:	81 e0       	ldi	r24, 0x01	; 1
     e2a:	80 93 fa 05 	sts	0x05FA, r24
     e2e:	80 91 fd 05 	lds	r24, 0x05FD
     e32:	88 2f       	mov	r24, r24
     e34:	90 e0       	ldi	r25, 0x00	; 0
     e36:	29 e9       	ldi	r18, 0x99	; 153
     e38:	31 e0       	ldi	r19, 0x01	; 1
     e3a:	f9 01       	movw	r30, r18
     e3c:	20 81       	ld	r18, Z
     e3e:	80 50       	subi	r24, 0x00	; 0
     e40:	9a 4f       	sbci	r25, 0xFA	; 250
     e42:	fc 01       	movw	r30, r24
     e44:	20 83       	st	Z, r18
     e46:	89 e9       	ldi	r24, 0x99	; 153
     e48:	91 e0       	ldi	r25, 0x01	; 1
     e4a:	fc 01       	movw	r30, r24
     e4c:	90 81       	ld	r25, Z
     e4e:	80 91 ff 06 	lds	r24, 0x06FF
     e52:	89 0f       	add	r24, r25
     e54:	80 93 ff 06 	sts	0x06FF, r24
     e58:	90 91 fa 05 	lds	r25, 0x05FA
     e5c:	80 91 ff 06 	lds	r24, 0x06FF
     e60:	89 0f       	add	r24, r25
     e62:	80 93 fa 05 	sts	0x05FA, r24
     e66:	80 91 fd 05 	lds	r24, 0x05FD
     e6a:	8f 5f       	subi	r24, 0xFF	; 255
     e6c:	80 93 fd 05 	sts	0x05FD, r24
     e70:	80 91 fd 05 	lds	r24, 0x05FD
     e74:	8f 3f       	cpi	r24, 0xFF	; 255
     e76:	11 f4       	brne	.+4      	; 0xe7c <reporting_task+0x118>
/home/becker/async/wcet-benchmarks/benchmarks/PapaBench-0.2m/sw/airborne/autopilot_simulate/main.c:268 (discriminator 1)
     e78:	10 92 fd 05 	sts	0x05FD, r1
/home/becker/async/wcet-benchmarks/benchmarks/PapaBench-0.2m/sw/airborne/autopilot_simulate/main.c:268 (discriminator 2)
     e7c:	80 91 fd 05 	lds	r24, 0x05FD
     e80:	88 2f       	mov	r24, r24
     e82:	90 e0       	ldi	r25, 0x00	; 0
     e84:	20 91 9a 01 	lds	r18, 0x019A
     e88:	80 50       	subi	r24, 0x00	; 0
     e8a:	9a 4f       	sbci	r25, 0xFA	; 250
     e8c:	fc 01       	movw	r30, r24
     e8e:	20 83       	st	Z, r18
     e90:	8a e9       	ldi	r24, 0x9A	; 154
     e92:	91 e0       	ldi	r25, 0x01	; 1
     e94:	fc 01       	movw	r30, r24
     e96:	90 81       	ld	r25, Z
     e98:	80 91 ff 06 	lds	r24, 0x06FF
     e9c:	89 0f       	add	r24, r25
     e9e:	80 93 ff 06 	sts	0x06FF, r24
     ea2:	90 91 fa 05 	lds	r25, 0x05FA
     ea6:	80 91 ff 06 	lds	r24, 0x06FF
     eaa:	89 0f       	add	r24, r25
     eac:	80 93 fa 05 	sts	0x05FA, r24
     eb0:	80 91 fd 05 	lds	r24, 0x05FD
     eb4:	8f 5f       	subi	r24, 0xFF	; 255
     eb6:	80 93 fd 05 	sts	0x05FD, r24
     eba:	80 91 fd 05 	lds	r24, 0x05FD
     ebe:	8f 3f       	cpi	r24, 0xFF	; 255
     ec0:	11 f4       	brne	.+4      	; 0xec6 <reporting_task+0x162>
/home/becker/async/wcet-benchmarks/benchmarks/PapaBench-0.2m/sw/airborne/autopilot_simulate/main.c:268 (discriminator 1)
     ec2:	10 92 fd 05 	sts	0x05FD, r1
/home/becker/async/wcet-benchmarks/benchmarks/PapaBench-0.2m/sw/airborne/autopilot_simulate/main.c:268 (discriminator 2)
     ec6:	80 91 fd 05 	lds	r24, 0x05FD
     eca:	88 2f       	mov	r24, r24
     ecc:	90 e0       	ldi	r25, 0x00	; 0
     ece:	20 91 ff 06 	lds	r18, 0x06FF
     ed2:	80 50       	subi	r24, 0x00	; 0
     ed4:	9a 4f       	sbci	r25, 0xFA	; 250
     ed6:	fc 01       	movw	r30, r24
     ed8:	20 83       	st	Z, r18
     eda:	80 91 fd 05 	lds	r24, 0x05FD
     ede:	8f 5f       	subi	r24, 0xFF	; 255
     ee0:	80 93 fd 05 	sts	0x05FD, r24
     ee4:	80 91 fd 05 	lds	r24, 0x05FD
     ee8:	8f 3f       	cpi	r24, 0xFF	; 255
     eea:	11 f4       	brne	.+4      	; 0xef0 <reporting_task+0x18c>
/home/becker/async/wcet-benchmarks/benchmarks/PapaBench-0.2m/sw/airborne/autopilot_simulate/main.c:268 (discriminator 1)
     eec:	10 92 fd 05 	sts	0x05FD, r1
/home/becker/async/wcet-benchmarks/benchmarks/PapaBench-0.2m/sw/airborne/autopilot_simulate/main.c:268 (discriminator 2)
     ef0:	80 91 fd 05 	lds	r24, 0x05FD
     ef4:	88 2f       	mov	r24, r24
     ef6:	90 e0       	ldi	r25, 0x00	; 0
     ef8:	20 91 fa 05 	lds	r18, 0x05FA
     efc:	80 50       	subi	r24, 0x00	; 0
     efe:	9a 4f       	sbci	r25, 0xFA	; 250
     f00:	fc 01       	movw	r30, r24
     f02:	20 83       	st	Z, r18
     f04:	80 91 fd 05 	lds	r24, 0x05FD
     f08:	8f 5f       	subi	r24, 0xFF	; 255
     f0a:	80 93 fd 05 	sts	0x05FD, r24
     f0e:	80 91 fd 05 	lds	r24, 0x05FD
     f12:	8f 3f       	cpi	r24, 0xFF	; 255
     f14:	11 f4       	brne	.+4      	; 0xf1a <reporting_task+0x1b6>
/home/becker/async/wcet-benchmarks/benchmarks/PapaBench-0.2m/sw/airborne/autopilot_simulate/main.c:268 (discriminator 1)
     f16:	10 92 fd 05 	sts	0x05FD, r1
/home/becker/async/wcet-benchmarks/benchmarks/PapaBench-0.2m/sw/airborne/autopilot_simulate/main.c:268 (discriminator 2)
     f1a:	89 e5       	ldi	r24, 0x59	; 89
     f1c:	90 e0       	ldi	r25, 0x00	; 0
     f1e:	fc 01       	movw	r30, r24
     f20:	80 81       	ld	r24, Z
     f22:	88 2f       	mov	r24, r24
     f24:	90 e0       	ldi	r25, 0x00	; 0
     f26:	80 71       	andi	r24, 0x10	; 16
     f28:	99 27       	eor	r25, r25
     f2a:	00 97       	sbiw	r24, 0x00	; 0
     f2c:	79 f5       	brne	.+94     	; 0xf8c <reporting_task+0x228>
/home/becker/async/wcet-benchmarks/benchmarks/PapaBench-0.2m/sw/airborne/autopilot_simulate/main.c:268 (discriminator 1)
     f2e:	80 91 fe 05 	lds	r24, 0x05FE
     f32:	88 2f       	mov	r24, r24
     f34:	90 e0       	ldi	r25, 0x00	; 0
     f36:	80 50       	subi	r24, 0x00	; 0
     f38:	9a 4f       	sbci	r25, 0xFA	; 250
     f3a:	fc 01       	movw	r30, r24
     f3c:	80 81       	ld	r24, Z
     f3e:	80 93 fc 05 	sts	0x05FC, r24
     f42:	10 92 ff 05 	sts	0x05FF, r1
     f46:	80 91 fe 05 	lds	r24, 0x05FE
     f4a:	8f 5f       	subi	r24, 0xFF	; 255
     f4c:	80 93 fe 05 	sts	0x05FE, r24
     f50:	80 91 fe 05 	lds	r24, 0x05FE
     f54:	8f 3f       	cpi	r24, 0xFF	; 255
     f56:	11 f4       	brne	.+4      	; 0xf5c <reporting_task+0x1f8>
     f58:	10 92 fe 05 	sts	0x05FE, r1
/home/becker/async/wcet-benchmarks/benchmarks/PapaBench-0.2m/sw/airborne/autopilot_simulate/main.c:268 (discriminator 2)
     f5c:	88 e5       	ldi	r24, 0x58	; 88
     f5e:	90 e0       	ldi	r25, 0x00	; 0
     f60:	28 e5       	ldi	r18, 0x58	; 88
     f62:	30 e0       	ldi	r19, 0x00	; 0
     f64:	f9 01       	movw	r30, r18
     f66:	20 81       	ld	r18, Z
     f68:	21 60       	ori	r18, 0x01	; 1
     f6a:	fc 01       	movw	r30, r24
     f6c:	20 83       	st	Z, r18
     f6e:	89 e5       	ldi	r24, 0x59	; 89
     f70:	90 e0       	ldi	r25, 0x00	; 0
     f72:	29 e5       	ldi	r18, 0x59	; 89
     f74:	30 e0       	ldi	r19, 0x00	; 0
     f76:	f9 01       	movw	r30, r18
     f78:	20 81       	ld	r18, Z
     f7a:	20 61       	ori	r18, 0x10	; 16
     f7c:	fc 01       	movw	r30, r24
     f7e:	20 83       	st	Z, r18
     f80:	05 c0       	rjmp	.+10     	; 0xf8c <reporting_task+0x228>
     f82:	80 91 fb 05 	lds	r24, 0x05FB
     f86:	8f 5f       	subi	r24, 0xFF	; 255
     f88:	80 93 fb 05 	sts	0x05FB, r24
/home/becker/async/wcet-benchmarks/benchmarks/PapaBench-0.2m/sw/airborne/autopilot_simulate/main.c:269
     f8c:	90 91 fd 05 	lds	r25, 0x05FD
     f90:	80 91 fe 05 	lds	r24, 0x05FE
     f94:	98 17       	cp	r25, r24
     f96:	a0 f0       	brcs	.+40     	; 0xfc0 <reporting_task+0x25c>
/home/becker/async/wcet-benchmarks/benchmarks/PapaBench-0.2m/sw/airborne/autopilot_simulate/main.c:269 (discriminator 1)
     f98:	80 91 fe 05 	lds	r24, 0x05FE
     f9c:	28 2f       	mov	r18, r24
     f9e:	30 e0       	ldi	r19, 0x00	; 0
     fa0:	80 91 fd 05 	lds	r24, 0x05FD
     fa4:	88 2f       	mov	r24, r24
     fa6:	90 e0       	ldi	r25, 0x00	; 0
     fa8:	a9 01       	movw	r20, r18
     faa:	48 1b       	sub	r20, r24
     fac:	59 0b       	sbc	r21, r25
     fae:	ca 01       	movw	r24, r20
     fb0:	81 50       	subi	r24, 0x01	; 1
     fb2:	9f 4f       	sbci	r25, 0xFF	; 255
     fb4:	21 e0       	ldi	r18, 0x01	; 1
     fb6:	85 31       	cpi	r24, 0x15	; 21
     fb8:	91 05       	cpc	r25, r1
     fba:	9c f4       	brge	.+38     	; 0xfe2 <reporting_task+0x27e>
     fbc:	20 e0       	ldi	r18, 0x00	; 0
     fbe:	11 c0       	rjmp	.+34     	; 0xfe2 <reporting_task+0x27e>
/home/becker/async/wcet-benchmarks/benchmarks/PapaBench-0.2m/sw/airborne/autopilot_simulate/main.c:269 (discriminator 2)
     fc0:	80 91 fe 05 	lds	r24, 0x05FE
     fc4:	28 2f       	mov	r18, r24
     fc6:	30 e0       	ldi	r19, 0x00	; 0
     fc8:	80 91 fd 05 	lds	r24, 0x05FD
     fcc:	88 2f       	mov	r24, r24
     fce:	90 e0       	ldi	r25, 0x00	; 0
     fd0:	f9 01       	movw	r30, r18
     fd2:	e8 1b       	sub	r30, r24
     fd4:	f9 0b       	sbc	r31, r25
     fd6:	cf 01       	movw	r24, r30
     fd8:	21 e0       	ldi	r18, 0x01	; 1
     fda:	85 31       	cpi	r24, 0x15	; 21
     fdc:	91 05       	cpc	r25, r1
     fde:	0c f4       	brge	.+2      	; 0xfe2 <reporting_task+0x27e>
     fe0:	20 e0       	ldi	r18, 0x00	; 0
/home/becker/async/wcet-benchmarks/benchmarks/PapaBench-0.2m/sw/airborne/autopilot_simulate/main.c:269 (discriminator 3)
     fe2:	22 23       	and	r18, r18
     fe4:	09 f4       	brne	.+2      	; 0xfe8 <reporting_task+0x284>
     fe6:	e6 c2       	rjmp	.+1484   	; 0x15b4 <__stack+0x4b5>
/home/becker/async/wcet-benchmarks/benchmarks/PapaBench-0.2m/sw/airborne/autopilot_simulate/main.c:269 (discriminator 1)
     fe8:	80 91 fd 05 	lds	r24, 0x05FD
     fec:	88 2f       	mov	r24, r24
     fee:	90 e0       	ldi	r25, 0x00	; 0
     ff0:	80 50       	subi	r24, 0x00	; 0
     ff2:	9a 4f       	sbci	r25, 0xFA	; 250
     ff4:	25 e0       	ldi	r18, 0x05	; 5
     ff6:	fc 01       	movw	r30, r24
     ff8:	20 83       	st	Z, r18
     ffa:	80 91 fd 05 	lds	r24, 0x05FD
     ffe:	8f 5f       	subi	r24, 0xFF	; 255
    1000:	80 93 fd 05 	sts	0x05FD, r24
    1004:	80 91 fd 05 	lds	r24, 0x05FD
    1008:	8f 3f       	cpi	r24, 0xFF	; 255
    100a:	11 f4       	brne	.+4      	; 0x1010 <reporting_task+0x2ac>
    100c:	10 92 fd 05 	sts	0x05FD, r1
/home/becker/async/wcet-benchmarks/benchmarks/PapaBench-0.2m/sw/airborne/autopilot_simulate/main.c:269 (discriminator 2)
    1010:	80 91 fd 05 	lds	r24, 0x05FD
    1014:	88 2f       	mov	r24, r24
    1016:	90 e0       	ldi	r25, 0x00	; 0
    1018:	80 50       	subi	r24, 0x00	; 0
    101a:	9a 4f       	sbci	r25, 0xFA	; 250
    101c:	25 e0       	ldi	r18, 0x05	; 5
    101e:	fc 01       	movw	r30, r24
    1020:	20 83       	st	Z, r18
    1022:	80 91 fd 05 	lds	r24, 0x05FD
    1026:	8f 5f       	subi	r24, 0xFF	; 255
    1028:	80 93 fd 05 	sts	0x05FD, r24
    102c:	80 91 fd 05 	lds	r24, 0x05FD
    1030:	8f 3f       	cpi	r24, 0xFF	; 255
    1032:	11 f4       	brne	.+4      	; 0x1038 <reporting_task+0x2d4>
/home/becker/async/wcet-benchmarks/benchmarks/PapaBench-0.2m/sw/airborne/autopilot_simulate/main.c:269 (discriminator 1)
    1034:	10 92 fd 05 	sts	0x05FD, r1
/home/becker/async/wcet-benchmarks/benchmarks/PapaBench-0.2m/sw/airborne/autopilot_simulate/main.c:269 (discriminator 2)
    1038:	85 e0       	ldi	r24, 0x05	; 5
    103a:	80 93 ff 06 	sts	0x06FF, r24
    103e:	85 e0       	ldi	r24, 0x05	; 5
    1040:	80 93 fa 05 	sts	0x05FA, r24
    1044:	80 91 fd 05 	lds	r24, 0x05FD
    1048:	88 2f       	mov	r24, r24
    104a:	90 e0       	ldi	r25, 0x00	; 0
    104c:	26 eb       	ldi	r18, 0xB6	; 182
    104e:	37 e0       	ldi	r19, 0x07	; 7
    1050:	f9 01       	movw	r30, r18
    1052:	20 81       	ld	r18, Z
    1054:	80 50       	subi	r24, 0x00	; 0
    1056:	9a 4f       	sbci	r25, 0xFA	; 250
    1058:	fc 01       	movw	r30, r24
    105a:	20 83       	st	Z, r18
    105c:	86 eb       	ldi	r24, 0xB6	; 182
    105e:	97 e0       	ldi	r25, 0x07	; 7
    1060:	fc 01       	movw	r30, r24
    1062:	90 81       	ld	r25, Z
    1064:	80 91 ff 06 	lds	r24, 0x06FF
    1068:	89 0f       	add	r24, r25
    106a:	80 93 ff 06 	sts	0x06FF, r24
    106e:	90 91 fa 05 	lds	r25, 0x05FA
    1072:	80 91 ff 06 	lds	r24, 0x06FF
    1076:	89 0f       	add	r24, r25
    1078:	80 93 fa 05 	sts	0x05FA, r24
    107c:	80 91 fd 05 	lds	r24, 0x05FD
    1080:	8f 5f       	subi	r24, 0xFF	; 255
    1082:	80 93 fd 05 	sts	0x05FD, r24
    1086:	80 91 fd 05 	lds	r24, 0x05FD
    108a:	8f 3f       	cpi	r24, 0xFF	; 255
    108c:	11 f4       	brne	.+4      	; 0x1092 <reporting_task+0x32e>
/home/becker/async/wcet-benchmarks/benchmarks/PapaBench-0.2m/sw/airborne/autopilot_simulate/main.c:269 (discriminator 1)
    108e:	10 92 fd 05 	sts	0x05FD, r1
/home/becker/async/wcet-benchmarks/benchmarks/PapaBench-0.2m/sw/airborne/autopilot_simulate/main.c:269 (discriminator 2)
    1092:	80 91 fd 05 	lds	r24, 0x05FD
    1096:	88 2f       	mov	r24, r24
    1098:	90 e0       	ldi	r25, 0x00	; 0
    109a:	20 91 b7 07 	lds	r18, 0x07B7
    109e:	80 50       	subi	r24, 0x00	; 0
    10a0:	9a 4f       	sbci	r25, 0xFA	; 250
    10a2:	fc 01       	movw	r30, r24
    10a4:	20 83       	st	Z, r18
    10a6:	87 eb       	ldi	r24, 0xB7	; 183
    10a8:	97 e0       	ldi	r25, 0x07	; 7
    10aa:	fc 01       	movw	r30, r24
    10ac:	90 81       	ld	r25, Z
    10ae:	80 91 ff 06 	lds	r24, 0x06FF
    10b2:	89 0f       	add	r24, r25
    10b4:	80 93 ff 06 	sts	0x06FF, r24
    10b8:	90 91 fa 05 	lds	r25, 0x05FA
    10bc:	80 91 ff 06 	lds	r24, 0x06FF
    10c0:	89 0f       	add	r24, r25
    10c2:	80 93 fa 05 	sts	0x05FA, r24
    10c6:	80 91 fd 05 	lds	r24, 0x05FD
    10ca:	8f 5f       	subi	r24, 0xFF	; 255
    10cc:	80 93 fd 05 	sts	0x05FD, r24
    10d0:	80 91 fd 05 	lds	r24, 0x05FD
    10d4:	8f 3f       	cpi	r24, 0xFF	; 255
    10d6:	11 f4       	brne	.+4      	; 0x10dc <reporting_task+0x378>
/home/becker/async/wcet-benchmarks/benchmarks/PapaBench-0.2m/sw/airborne/autopilot_simulate/main.c:269 (discriminator 1)
    10d8:	10 92 fd 05 	sts	0x05FD, r1
/home/becker/async/wcet-benchmarks/benchmarks/PapaBench-0.2m/sw/airborne/autopilot_simulate/main.c:269 (discriminator 2)
    10dc:	80 91 fd 05 	lds	r24, 0x05FD
    10e0:	88 2f       	mov	r24, r24
    10e2:	90 e0       	ldi	r25, 0x00	; 0
    10e4:	20 91 b8 07 	lds	r18, 0x07B8
    10e8:	80 50       	subi	r24, 0x00	; 0
    10ea:	9a 4f       	sbci	r25, 0xFA	; 250
    10ec:	fc 01       	movw	r30, r24
    10ee:	20 83       	st	Z, r18
    10f0:	88 eb       	ldi	r24, 0xB8	; 184
    10f2:	97 e0       	ldi	r25, 0x07	; 7
    10f4:	fc 01       	movw	r30, r24
    10f6:	90 81       	ld	r25, Z
    10f8:	80 91 ff 06 	lds	r24, 0x06FF
    10fc:	89 0f       	add	r24, r25
    10fe:	80 93 ff 06 	sts	0x06FF, r24
    1102:	90 91 fa 05 	lds	r25, 0x05FA
    1106:	80 91 ff 06 	lds	r24, 0x06FF
    110a:	89 0f       	add	r24, r25
    110c:	80 93 fa 05 	sts	0x05FA, r24
    1110:	80 91 fd 05 	lds	r24, 0x05FD
    1114:	8f 5f       	subi	r24, 0xFF	; 255
    1116:	80 93 fd 05 	sts	0x05FD, r24
    111a:	80 91 fd 05 	lds	r24, 0x05FD
    111e:	8f 3f       	cpi	r24, 0xFF	; 255
    1120:	11 f4       	brne	.+4      	; 0x1126 <__stack+0x27>
/home/becker/async/wcet-benchmarks/benchmarks/PapaBench-0.2m/sw/airborne/autopilot_simulate/main.c:269 (discriminator 1)
    1122:	10 92 fd 05 	sts	0x05FD, r1
/home/becker/async/wcet-benchmarks/benchmarks/PapaBench-0.2m/sw/airborne/autopilot_simulate/main.c:269 (discriminator 2)
    1126:	80 91 fd 05 	lds	r24, 0x05FD
    112a:	88 2f       	mov	r24, r24
    112c:	90 e0       	ldi	r25, 0x00	; 0
    112e:	20 91 b9 07 	lds	r18, 0x07B9
    1132:	80 50       	subi	r24, 0x00	; 0
    1134:	9a 4f       	sbci	r25, 0xFA	; 250
    1136:	fc 01       	movw	r30, r24
    1138:	20 83       	st	Z, r18
    113a:	89 eb       	ldi	r24, 0xB9	; 185
    113c:	97 e0       	ldi	r25, 0x07	; 7
    113e:	fc 01       	movw	r30, r24
    1140:	90 81       	ld	r25, Z
    1142:	80 91 ff 06 	lds	r24, 0x06FF
    1146:	89 0f       	add	r24, r25
    1148:	80 93 ff 06 	sts	0x06FF, r24
    114c:	90 91 fa 05 	lds	r25, 0x05FA
    1150:	80 91 ff 06 	lds	r24, 0x06FF
    1154:	89 0f       	add	r24, r25
    1156:	80 93 fa 05 	sts	0x05FA, r24
    115a:	80 91 fd 05 	lds	r24, 0x05FD
    115e:	8f 5f       	subi	r24, 0xFF	; 255
    1160:	80 93 fd 05 	sts	0x05FD, r24
    1164:	80 91 fd 05 	lds	r24, 0x05FD
    1168:	8f 3f       	cpi	r24, 0xFF	; 255
    116a:	11 f4       	brne	.+4      	; 0x1170 <__stack+0x71>
/home/becker/async/wcet-benchmarks/benchmarks/PapaBench-0.2m/sw/airborne/autopilot_simulate/main.c:269 (discriminator 1)
    116c:	10 92 fd 05 	sts	0x05FD, r1
/home/becker/async/wcet-benchmarks/benchmarks/PapaBench-0.2m/sw/airborne/autopilot_simulate/main.c:269 (discriminator 2)
    1170:	80 91 fd 05 	lds	r24, 0x05FD
    1174:	88 2f       	mov	r24, r24
    1176:	90 e0       	ldi	r25, 0x00	; 0
    1178:	2e ec       	ldi	r18, 0xCE	; 206
    117a:	37 e0       	ldi	r19, 0x07	; 7
    117c:	f9 01       	movw	r30, r18
    117e:	20 81       	ld	r18, Z
    1180:	80 50       	subi	r24, 0x00	; 0
    1182:	9a 4f       	sbci	r25, 0xFA	; 250
    1184:	fc 01       	movw	r30, r24
    1186:	20 83       	st	Z, r18
    1188:	8e ec       	ldi	r24, 0xCE	; 206
    118a:	97 e0       	ldi	r25, 0x07	; 7
    118c:	fc 01       	movw	r30, r24
    118e:	90 81       	ld	r25, Z
    1190:	80 91 ff 06 	lds	r24, 0x06FF
    1194:	89 0f       	add	r24, r25
    1196:	80 93 ff 06 	sts	0x06FF, r24
    119a:	90 91 fa 05 	lds	r25, 0x05FA
    119e:	80 91 ff 06 	lds	r24, 0x06FF
    11a2:	89 0f       	add	r24, r25
    11a4:	80 93 fa 05 	sts	0x05FA, r24
    11a8:	80 91 fd 05 	lds	r24, 0x05FD
    11ac:	8f 5f       	subi	r24, 0xFF	; 255
    11ae:	80 93 fd 05 	sts	0x05FD, r24
    11b2:	80 91 fd 05 	lds	r24, 0x05FD
    11b6:	8f 3f       	cpi	r24, 0xFF	; 255
    11b8:	11 f4       	brne	.+4      	; 0x11be <__stack+0xbf>
/home/becker/async/wcet-benchmarks/benchmarks/PapaBench-0.2m/sw/airborne/autopilot_simulate/main.c:269 (discriminator 1)
    11ba:	10 92 fd 05 	sts	0x05FD, r1
/home/becker/async/wcet-benchmarks/benchmarks/PapaBench-0.2m/sw/airborne/autopilot_simulate/main.c:269 (discriminator 2)
    11be:	80 91 fd 05 	lds	r24, 0x05FD
    11c2:	88 2f       	mov	r24, r24
    11c4:	90 e0       	ldi	r25, 0x00	; 0
    11c6:	20 91 cf 07 	lds	r18, 0x07CF
    11ca:	80 50       	subi	r24, 0x00	; 0
    11cc:	9a 4f       	sbci	r25, 0xFA	; 250
    11ce:	fc 01       	movw	r30, r24
    11d0:	20 83       	st	Z, r18
    11d2:	8f ec       	ldi	r24, 0xCF	; 207
    11d4:	97 e0       	ldi	r25, 0x07	; 7
    11d6:	fc 01       	movw	r30, r24
    11d8:	90 81       	ld	r25, Z
    11da:	80 91 ff 06 	lds	r24, 0x06FF
    11de:	89 0f       	add	r24, r25
    11e0:	80 93 ff 06 	sts	0x06FF, r24
    11e4:	90 91 fa 05 	lds	r25, 0x05FA
    11e8:	80 91 ff 06 	lds	r24, 0x06FF
    11ec:	89 0f       	add	r24, r25
    11ee:	80 93 fa 05 	sts	0x05FA, r24
    11f2:	80 91 fd 05 	lds	r24, 0x05FD
    11f6:	8f 5f       	subi	r24, 0xFF	; 255
    11f8:	80 93 fd 05 	sts	0x05FD, r24
    11fc:	80 91 fd 05 	lds	r24, 0x05FD
    1200:	8f 3f       	cpi	r24, 0xFF	; 255
    1202:	11 f4       	brne	.+4      	; 0x1208 <__stack+0x109>
/home/becker/async/wcet-benchmarks/benchmarks/PapaBench-0.2m/sw/airborne/autopilot_simulate/main.c:269 (discriminator 1)
    1204:	10 92 fd 05 	sts	0x05FD, r1
/home/becker/async/wcet-benchmarks/benchmarks/PapaBench-0.2m/sw/airborne/autopilot_simulate/main.c:269 (discriminator 2)
    1208:	80 91 fd 05 	lds	r24, 0x05FD
    120c:	88 2f       	mov	r24, r24
    120e:	90 e0       	ldi	r25, 0x00	; 0
    1210:	20 91 d0 07 	lds	r18, 0x07D0
    1214:	80 50       	subi	r24, 0x00	; 0
    1216:	9a 4f       	sbci	r25, 0xFA	; 250
    1218:	fc 01       	movw	r30, r24
    121a:	20 83       	st	Z, r18
    121c:	80 ed       	ldi	r24, 0xD0	; 208
    121e:	97 e0       	ldi	r25, 0x07	; 7
    1220:	fc 01       	movw	r30, r24
    1222:	90 81       	ld	r25, Z
    1224:	80 91 ff 06 	lds	r24, 0x06FF
    1228:	89 0f       	add	r24, r25
    122a:	80 93 ff 06 	sts	0x06FF, r24
    122e:	90 91 fa 05 	lds	r25, 0x05FA
    1232:	80 91 ff 06 	lds	r24, 0x06FF
    1236:	89 0f       	add	r24, r25
    1238:	80 93 fa 05 	sts	0x05FA, r24
    123c:	80 91 fd 05 	lds	r24, 0x05FD
    1240:	8f 5f       	subi	r24, 0xFF	; 255
    1242:	80 93 fd 05 	sts	0x05FD, r24
    1246:	80 91 fd 05 	lds	r24, 0x05FD
    124a:	8f 3f       	cpi	r24, 0xFF	; 255
    124c:	11 f4       	brne	.+4      	; 0x1252 <__stack+0x153>
/home/becker/async/wcet-benchmarks/benchmarks/PapaBench-0.2m/sw/airborne/autopilot_simulate/main.c:269 (discriminator 1)
    124e:	10 92 fd 05 	sts	0x05FD, r1
/home/becker/async/wcet-benchmarks/benchmarks/PapaBench-0.2m/sw/airborne/autopilot_simulate/main.c:269 (discriminator 2)
    1252:	80 91 fd 05 	lds	r24, 0x05FD
    1256:	88 2f       	mov	r24, r24
    1258:	90 e0       	ldi	r25, 0x00	; 0
    125a:	20 91 d1 07 	lds	r18, 0x07D1
    125e:	80 50       	subi	r24, 0x00	; 0
    1260:	9a 4f       	sbci	r25, 0xFA	; 250
    1262:	fc 01       	movw	r30, r24
    1264:	20 83       	st	Z, r18
    1266:	81 ed       	ldi	r24, 0xD1	; 209
    1268:	97 e0       	ldi	r25, 0x07	; 7
    126a:	fc 01       	movw	r30, r24
    126c:	90 81       	ld	r25, Z
    126e:	80 91 ff 06 	lds	r24, 0x06FF
    1272:	89 0f       	add	r24, r25
    1274:	80 93 ff 06 	sts	0x06FF, r24
    1278:	90 91 fa 05 	lds	r25, 0x05FA
    127c:	80 91 ff 06 	lds	r24, 0x06FF
    1280:	89 0f       	add	r24, r25
    1282:	80 93 fa 05 	sts	0x05FA, r24
    1286:	80 91 fd 05 	lds	r24, 0x05FD
    128a:	8f 5f       	subi	r24, 0xFF	; 255
    128c:	80 93 fd 05 	sts	0x05FD, r24
    1290:	80 91 fd 05 	lds	r24, 0x05FD
    1294:	8f 3f       	cpi	r24, 0xFF	; 255
    1296:	11 f4       	brne	.+4      	; 0x129c <__stack+0x19d>
/home/becker/async/wcet-benchmarks/benchmarks/PapaBench-0.2m/sw/airborne/autopilot_simulate/main.c:269 (discriminator 1)
    1298:	10 92 fd 05 	sts	0x05FD, r1
/home/becker/async/wcet-benchmarks/benchmarks/PapaBench-0.2m/sw/airborne/autopilot_simulate/main.c:269 (discriminator 2)
    129c:	80 91 fd 05 	lds	r24, 0x05FD
    12a0:	88 2f       	mov	r24, r24
    12a2:	90 e0       	ldi	r25, 0x00	; 0
    12a4:	2e ea       	ldi	r18, 0xAE	; 174
    12a6:	37 e0       	ldi	r19, 0x07	; 7
    12a8:	f9 01       	movw	r30, r18
    12aa:	20 81       	ld	r18, Z
    12ac:	80 50       	subi	r24, 0x00	; 0
    12ae:	9a 4f       	sbci	r25, 0xFA	; 250
    12b0:	fc 01       	movw	r30, r24
    12b2:	20 83       	st	Z, r18
    12b4:	8e ea       	ldi	r24, 0xAE	; 174
    12b6:	97 e0       	ldi	r25, 0x07	; 7
    12b8:	fc 01       	movw	r30, r24
    12ba:	90 81       	ld	r25, Z
    12bc:	80 91 ff 06 	lds	r24, 0x06FF
    12c0:	89 0f       	add	r24, r25
    12c2:	80 93 ff 06 	sts	0x06FF, r24
    12c6:	90 91 fa 05 	lds	r25, 0x05FA
    12ca:	80 91 ff 06 	lds	r24, 0x06FF
    12ce:	89 0f       	add	r24, r25
    12d0:	80 93 fa 05 	sts	0x05FA, r24
    12d4:	80 91 fd 05 	lds	r24, 0x05FD
    12d8:	8f 5f       	subi	r24, 0xFF	; 255
    12da:	80 93 fd 05 	sts	0x05FD, r24
    12de:	80 91 fd 05 	lds	r24, 0x05FD
    12e2:	8f 3f       	cpi	r24, 0xFF	; 255
    12e4:	11 f4       	brne	.+4      	; 0x12ea <__stack+0x1eb>
/home/becker/async/wcet-benchmarks/benchmarks/PapaBench-0.2m/sw/airborne/autopilot_simulate/main.c:269 (discriminator 1)
    12e6:	10 92 fd 05 	sts	0x05FD, r1
/home/becker/async/wcet-benchmarks/benchmarks/PapaBench-0.2m/sw/airborne/autopilot_simulate/main.c:269 (discriminator 2)
    12ea:	80 91 fd 05 	lds	r24, 0x05FD
    12ee:	88 2f       	mov	r24, r24
    12f0:	90 e0       	ldi	r25, 0x00	; 0
    12f2:	20 91 af 07 	lds	r18, 0x07AF
    12f6:	80 50       	subi	r24, 0x00	; 0
    12f8:	9a 4f       	sbci	r25, 0xFA	; 250
    12fa:	fc 01       	movw	r30, r24
    12fc:	20 83       	st	Z, r18
    12fe:	8f ea       	ldi	r24, 0xAF	; 175
    1300:	97 e0       	ldi	r25, 0x07	; 7
    1302:	fc 01       	movw	r30, r24
    1304:	90 81       	ld	r25, Z
    1306:	80 91 ff 06 	lds	r24, 0x06FF
    130a:	89 0f       	add	r24, r25
    130c:	80 93 ff 06 	sts	0x06FF, r24
    1310:	90 91 fa 05 	lds	r25, 0x05FA
    1314:	80 91 ff 06 	lds	r24, 0x06FF
    1318:	89 0f       	add	r24, r25
    131a:	80 93 fa 05 	sts	0x05FA, r24
    131e:	80 91 fd 05 	lds	r24, 0x05FD
    1322:	8f 5f       	subi	r24, 0xFF	; 255
    1324:	80 93 fd 05 	sts	0x05FD, r24
    1328:	80 91 fd 05 	lds	r24, 0x05FD
    132c:	8f 3f       	cpi	r24, 0xFF	; 255
    132e:	11 f4       	brne	.+4      	; 0x1334 <__stack+0x235>
/home/becker/async/wcet-benchmarks/benchmarks/PapaBench-0.2m/sw/airborne/autopilot_simulate/main.c:269 (discriminator 1)
    1330:	10 92 fd 05 	sts	0x05FD, r1
/home/becker/async/wcet-benchmarks/benchmarks/PapaBench-0.2m/sw/airborne/autopilot_simulate/main.c:269 (discriminator 2)
    1334:	80 91 fd 05 	lds	r24, 0x05FD
    1338:	88 2f       	mov	r24, r24
    133a:	90 e0       	ldi	r25, 0x00	; 0
    133c:	20 91 b0 07 	lds	r18, 0x07B0
    1340:	80 50       	subi	r24, 0x00	; 0
    1342:	9a 4f       	sbci	r25, 0xFA	; 250
    1344:	fc 01       	movw	r30, r24
    1346:	20 83       	st	Z, r18
    1348:	80 eb       	ldi	r24, 0xB0	; 176
    134a:	97 e0       	ldi	r25, 0x07	; 7
    134c:	fc 01       	movw	r30, r24
    134e:	90 81       	ld	r25, Z
    1350:	80 91 ff 06 	lds	r24, 0x06FF
    1354:	89 0f       	add	r24, r25
    1356:	80 93 ff 06 	sts	0x06FF, r24
    135a:	90 91 fa 05 	lds	r25, 0x05FA
    135e:	80 91 ff 06 	lds	r24, 0x06FF
    1362:	89 0f       	add	r24, r25
    1364:	80 93 fa 05 	sts	0x05FA, r24
    1368:	80 91 fd 05 	lds	r24, 0x05FD
    136c:	8f 5f       	subi	r24, 0xFF	; 255
    136e:	80 93 fd 05 	sts	0x05FD, r24
    1372:	80 91 fd 05 	lds	r24, 0x05FD
    1376:	8f 3f       	cpi	r24, 0xFF	; 255
    1378:	11 f4       	brne	.+4      	; 0x137e <__stack+0x27f>
/home/becker/async/wcet-benchmarks/benchmarks/PapaBench-0.2m/sw/airborne/autopilot_simulate/main.c:269 (discriminator 1)
    137a:	10 92 fd 05 	sts	0x05FD, r1
/home/becker/async/wcet-benchmarks/benchmarks/PapaBench-0.2m/sw/airborne/autopilot_simulate/main.c:269 (discriminator 2)
    137e:	80 91 fd 05 	lds	r24, 0x05FD
    1382:	88 2f       	mov	r24, r24
    1384:	90 e0       	ldi	r25, 0x00	; 0
    1386:	20 91 b1 07 	lds	r18, 0x07B1
    138a:	80 50       	subi	r24, 0x00	; 0
    138c:	9a 4f       	sbci	r25, 0xFA	; 250
    138e:	fc 01       	movw	r30, r24
    1390:	20 83       	st	Z, r18
    1392:	81 eb       	ldi	r24, 0xB1	; 177
    1394:	97 e0       	ldi	r25, 0x07	; 7
    1396:	fc 01       	movw	r30, r24
    1398:	90 81       	ld	r25, Z
    139a:	80 91 ff 06 	lds	r24, 0x06FF
    139e:	89 0f       	add	r24, r25
    13a0:	80 93 ff 06 	sts	0x06FF, r24
    13a4:	90 91 fa 05 	lds	r25, 0x05FA
    13a8:	80 91 ff 06 	lds	r24, 0x06FF
    13ac:	89 0f       	add	r24, r25
    13ae:	80 93 fa 05 	sts	0x05FA, r24
    13b2:	80 91 fd 05 	lds	r24, 0x05FD
    13b6:	8f 5f       	subi	r24, 0xFF	; 255
    13b8:	80 93 fd 05 	sts	0x05FD, r24
    13bc:	80 91 fd 05 	lds	r24, 0x05FD
    13c0:	8f 3f       	cpi	r24, 0xFF	; 255
    13c2:	11 f4       	brne	.+4      	; 0x13c8 <__stack+0x2c9>
/home/becker/async/wcet-benchmarks/benchmarks/PapaBench-0.2m/sw/airborne/autopilot_simulate/main.c:269 (discriminator 1)
    13c4:	10 92 fd 05 	sts	0x05FD, r1
/home/becker/async/wcet-benchmarks/benchmarks/PapaBench-0.2m/sw/airborne/autopilot_simulate/main.c:269 (discriminator 2)
    13c8:	80 91 fd 05 	lds	r24, 0x05FD
    13cc:	88 2f       	mov	r24, r24
    13ce:	90 e0       	ldi	r25, 0x00	; 0
    13d0:	25 e0       	ldi	r18, 0x05	; 5
    13d2:	31 e0       	ldi	r19, 0x01	; 1
    13d4:	f9 01       	movw	r30, r18
    13d6:	20 81       	ld	r18, Z
    13d8:	80 50       	subi	r24, 0x00	; 0
    13da:	9a 4f       	sbci	r25, 0xFA	; 250
    13dc:	fc 01       	movw	r30, r24
    13de:	20 83       	st	Z, r18
    13e0:	85 e0       	ldi	r24, 0x05	; 5
    13e2:	91 e0       	ldi	r25, 0x01	; 1
    13e4:	fc 01       	movw	r30, r24
    13e6:	90 81       	ld	r25, Z
    13e8:	80 91 ff 06 	lds	r24, 0x06FF
    13ec:	89 0f       	add	r24, r25
    13ee:	80 93 ff 06 	sts	0x06FF, r24
    13f2:	90 91 fa 05 	lds	r25, 0x05FA
    13f6:	80 91 ff 06 	lds	r24, 0x06FF
    13fa:	89 0f       	add	r24, r25
    13fc:	80 93 fa 05 	sts	0x05FA, r24
    1400:	80 91 fd 05 	lds	r24, 0x05FD
    1404:	8f 5f       	subi	r24, 0xFF	; 255
    1406:	80 93 fd 05 	sts	0x05FD, r24
    140a:	80 91 fd 05 	lds	r24, 0x05FD
    140e:	8f 3f       	cpi	r24, 0xFF	; 255
    1410:	11 f4       	brne	.+4      	; 0x1416 <__stack+0x317>
/home/becker/async/wcet-benchmarks/benchmarks/PapaBench-0.2m/sw/airborne/autopilot_simulate/main.c:269 (discriminator 1)
    1412:	10 92 fd 05 	sts	0x05FD, r1
/home/becker/async/wcet-benchmarks/benchmarks/PapaBench-0.2m/sw/airborne/autopilot_simulate/main.c:269 (discriminator 2)
    1416:	80 91 fd 05 	lds	r24, 0x05FD
    141a:	88 2f       	mov	r24, r24
    141c:	90 e0       	ldi	r25, 0x00	; 0
    141e:	20 91 06 01 	lds	r18, 0x0106
    1422:	80 50       	subi	r24, 0x00	; 0
    1424:	9a 4f       	sbci	r25, 0xFA	; 250
    1426:	fc 01       	movw	r30, r24
    1428:	20 83       	st	Z, r18
    142a:	86 e0       	ldi	r24, 0x06	; 6
    142c:	91 e0       	ldi	r25, 0x01	; 1
    142e:	fc 01       	movw	r30, r24
    1430:	90 81       	ld	r25, Z
    1432:	80 91 ff 06 	lds	r24, 0x06FF
    1436:	89 0f       	add	r24, r25
    1438:	80 93 ff 06 	sts	0x06FF, r24
    143c:	90 91 fa 05 	lds	r25, 0x05FA
    1440:	80 91 ff 06 	lds	r24, 0x06FF
    1444:	89 0f       	add	r24, r25
    1446:	80 93 fa 05 	sts	0x05FA, r24
    144a:	80 91 fd 05 	lds	r24, 0x05FD
    144e:	8f 5f       	subi	r24, 0xFF	; 255
    1450:	80 93 fd 05 	sts	0x05FD, r24
    1454:	80 91 fd 05 	lds	r24, 0x05FD
    1458:	8f 3f       	cpi	r24, 0xFF	; 255
    145a:	11 f4       	brne	.+4      	; 0x1460 <__stack+0x361>
/home/becker/async/wcet-benchmarks/benchmarks/PapaBench-0.2m/sw/airborne/autopilot_simulate/main.c:269 (discriminator 1)
    145c:	10 92 fd 05 	sts	0x05FD, r1
/home/becker/async/wcet-benchmarks/benchmarks/PapaBench-0.2m/sw/airborne/autopilot_simulate/main.c:269 (discriminator 2)
    1460:	80 91 fd 05 	lds	r24, 0x05FD
    1464:	88 2f       	mov	r24, r24
    1466:	90 e0       	ldi	r25, 0x00	; 0
    1468:	27 e0       	ldi	r18, 0x07	; 7
    146a:	31 e0       	ldi	r19, 0x01	; 1
    146c:	f9 01       	movw	r30, r18
    146e:	20 81       	ld	r18, Z
    1470:	80 50       	subi	r24, 0x00	; 0
    1472:	9a 4f       	sbci	r25, 0xFA	; 250
    1474:	fc 01       	movw	r30, r24
    1476:	20 83       	st	Z, r18
    1478:	87 e0       	ldi	r24, 0x07	; 7
    147a:	91 e0       	ldi	r25, 0x01	; 1
    147c:	fc 01       	movw	r30, r24
    147e:	90 81       	ld	r25, Z
    1480:	80 91 ff 06 	lds	r24, 0x06FF
    1484:	89 0f       	add	r24, r25
    1486:	80 93 ff 06 	sts	0x06FF, r24
    148a:	90 91 fa 05 	lds	r25, 0x05FA
    148e:	80 91 ff 06 	lds	r24, 0x06FF
    1492:	89 0f       	add	r24, r25
    1494:	80 93 fa 05 	sts	0x05FA, r24
    1498:	80 91 fd 05 	lds	r24, 0x05FD
    149c:	8f 5f       	subi	r24, 0xFF	; 255
    149e:	80 93 fd 05 	sts	0x05FD, r24
    14a2:	80 91 fd 05 	lds	r24, 0x05FD
    14a6:	8f 3f       	cpi	r24, 0xFF	; 255
    14a8:	11 f4       	brne	.+4      	; 0x14ae <__stack+0x3af>
/home/becker/async/wcet-benchmarks/benchmarks/PapaBench-0.2m/sw/airborne/autopilot_simulate/main.c:269 (discriminator 1)
    14aa:	10 92 fd 05 	sts	0x05FD, r1
/home/becker/async/wcet-benchmarks/benchmarks/PapaBench-0.2m/sw/airborne/autopilot_simulate/main.c:269 (discriminator 2)
    14ae:	80 91 fd 05 	lds	r24, 0x05FD
    14b2:	88 2f       	mov	r24, r24
    14b4:	90 e0       	ldi	r25, 0x00	; 0
    14b6:	20 91 08 01 	lds	r18, 0x0108
    14ba:	80 50       	subi	r24, 0x00	; 0
    14bc:	9a 4f       	sbci	r25, 0xFA	; 250
    14be:	fc 01       	movw	r30, r24
    14c0:	20 83       	st	Z, r18
    14c2:	88 e0       	ldi	r24, 0x08	; 8
    14c4:	91 e0       	ldi	r25, 0x01	; 1
    14c6:	fc 01       	movw	r30, r24
    14c8:	90 81       	ld	r25, Z
    14ca:	80 91 ff 06 	lds	r24, 0x06FF
    14ce:	89 0f       	add	r24, r25
    14d0:	80 93 ff 06 	sts	0x06FF, r24
    14d4:	90 91 fa 05 	lds	r25, 0x05FA
    14d8:	80 91 ff 06 	lds	r24, 0x06FF
    14dc:	89 0f       	add	r24, r25
    14de:	80 93 fa 05 	sts	0x05FA, r24
    14e2:	80 91 fd 05 	lds	r24, 0x05FD
    14e6:	8f 5f       	subi	r24, 0xFF	; 255
    14e8:	80 93 fd 05 	sts	0x05FD, r24
    14ec:	80 91 fd 05 	lds	r24, 0x05FD
    14f0:	8f 3f       	cpi	r24, 0xFF	; 255
    14f2:	11 f4       	brne	.+4      	; 0x14f8 <__stack+0x3f9>
/home/becker/async/wcet-benchmarks/benchmarks/PapaBench-0.2m/sw/airborne/autopilot_simulate/main.c:269 (discriminator 1)
    14f4:	10 92 fd 05 	sts	0x05FD, r1
/home/becker/async/wcet-benchmarks/benchmarks/PapaBench-0.2m/sw/airborne/autopilot_simulate/main.c:269 (discriminator 2)
    14f8:	80 91 fd 05 	lds	r24, 0x05FD
    14fc:	88 2f       	mov	r24, r24
    14fe:	90 e0       	ldi	r25, 0x00	; 0
    1500:	20 91 ff 06 	lds	r18, 0x06FF
    1504:	80 50       	subi	r24, 0x00	; 0
    1506:	9a 4f       	sbci	r25, 0xFA	; 250
    1508:	fc 01       	movw	r30, r24
    150a:	20 83       	st	Z, r18
    150c:	80 91 fd 05 	lds	r24, 0x05FD
    1510:	8f 5f       	subi	r24, 0xFF	; 255
    1512:	80 93 fd 05 	sts	0x05FD, r24
    1516:	80 91 fd 05 	lds	r24, 0x05FD
    151a:	8f 3f       	cpi	r24, 0xFF	; 255
    151c:	11 f4       	brne	.+4      	; 0x1522 <__stack+0x423>
/home/becker/async/wcet-benchmarks/benchmarks/PapaBench-0.2m/sw/airborne/autopilot_simulate/main.c:269 (discriminator 1)
    151e:	10 92 fd 05 	sts	0x05FD, r1
/home/becker/async/wcet-benchmarks/benchmarks/PapaBench-0.2m/sw/airborne/autopilot_simulate/main.c:269 (discriminator 2)
    1522:	80 91 fd 05 	lds	r24, 0x05FD
    1526:	88 2f       	mov	r24, r24
    1528:	90 e0       	ldi	r25, 0x00	; 0
    152a:	20 91 fa 05 	lds	r18, 0x05FA
    152e:	80 50       	subi	r24, 0x00	; 0
    1530:	9a 4f       	sbci	r25, 0xFA	; 250
    1532:	fc 01       	movw	r30, r24
    1534:	20 83       	st	Z, r18
    1536:	80 91 fd 05 	lds	r24, 0x05FD
    153a:	8f 5f       	subi	r24, 0xFF	; 255
    153c:	80 93 fd 05 	sts	0x05FD, r24
    1540:	80 91 fd 05 	lds	r24, 0x05FD
    1544:	8f 3f       	cpi	r24, 0xFF	; 255
    1546:	11 f4       	brne	.+4      	; 0x154c <__stack+0x44d>
/home/becker/async/wcet-benchmarks/benchmarks/PapaBench-0.2m/sw/airborne/autopilot_simulate/main.c:269 (discriminator 1)
    1548:	10 92 fd 05 	sts	0x05FD, r1
/home/becker/async/wcet-benchmarks/benchmarks/PapaBench-0.2m/sw/airborne/autopilot_simulate/main.c:269 (discriminator 2)
    154c:	89 e5       	ldi	r24, 0x59	; 89
    154e:	90 e0       	ldi	r25, 0x00	; 0
    1550:	fc 01       	movw	r30, r24
    1552:	80 81       	ld	r24, Z
    1554:	88 2f       	mov	r24, r24
    1556:	90 e0       	ldi	r25, 0x00	; 0
    1558:	80 71       	andi	r24, 0x10	; 16
    155a:	99 27       	eor	r25, r25
    155c:	00 97       	sbiw	r24, 0x00	; 0
    155e:	79 f5       	brne	.+94     	; 0x15be <__stack+0x4bf>
/home/becker/async/wcet-benchmarks/benchmarks/PapaBench-0.2m/sw/airborne/autopilot_simulate/main.c:269 (discriminator 1)
    1560:	80 91 fe 05 	lds	r24, 0x05FE
    1564:	88 2f       	mov	r24, r24
    1566:	90 e0       	ldi	r25, 0x00	; 0
    1568:	80 50       	subi	r24, 0x00	; 0
    156a:	9a 4f       	sbci	r25, 0xFA	; 250
    156c:	fc 01       	movw	r30, r24
    156e:	80 81       	ld	r24, Z
    1570:	80 93 fc 05 	sts	0x05FC, r24
    1574:	10 92 ff 05 	sts	0x05FF, r1
    1578:	80 91 fe 05 	lds	r24, 0x05FE
    157c:	8f 5f       	subi	r24, 0xFF	; 255
    157e:	80 93 fe 05 	sts	0x05FE, r24
    1582:	80 91 fe 05 	lds	r24, 0x05FE
    1586:	8f 3f       	cpi	r24, 0xFF	; 255
    1588:	11 f4       	brne	.+4      	; 0x158e <__stack+0x48f>
    158a:	10 92 fe 05 	sts	0x05FE, r1
/home/becker/async/wcet-benchmarks/benchmarks/PapaBench-0.2m/sw/airborne/autopilot_simulate/main.c:269 (discriminator 2)
    158e:	88 e5       	ldi	r24, 0x58	; 88
    1590:	90 e0       	ldi	r25, 0x00	; 0
    1592:	28 e5       	ldi	r18, 0x58	; 88
    1594:	30 e0       	ldi	r19, 0x00	; 0
    1596:	f9 01       	movw	r30, r18
    1598:	20 81       	ld	r18, Z
    159a:	21 60       	ori	r18, 0x01	; 1
    159c:	fc 01       	movw	r30, r24
    159e:	20 83       	st	Z, r18
    15a0:	89 e5       	ldi	r24, 0x59	; 89
    15a2:	90 e0       	ldi	r25, 0x00	; 0
    15a4:	29 e5       	ldi	r18, 0x59	; 89
    15a6:	30 e0       	ldi	r19, 0x00	; 0
    15a8:	f9 01       	movw	r30, r18
    15aa:	20 81       	ld	r18, Z
    15ac:	20 61       	ori	r18, 0x10	; 16
    15ae:	fc 01       	movw	r30, r24
    15b0:	20 83       	st	Z, r18
    15b2:	05 c0       	rjmp	.+10     	; 0x15be <__stack+0x4bf>
    15b4:	80 91 fb 05 	lds	r24, 0x05FB
    15b8:	8f 5f       	subi	r24, 0xFF	; 255
    15ba:	80 93 fb 05 	sts	0x05FB, r24
/home/becker/async/wcet-benchmarks/benchmarks/PapaBench-0.2m/sw/airborne/autopilot_simulate/main.c:270 (discriminator 1)
    15be:	10 92 01 01 	sts	0x0101, r1
    15c2:	0c 94 b1 1e 	jmp	0x3d62	; 0x3d62 <__stack+0x2c63>
/home/becker/async/wcet-benchmarks/benchmarks/PapaBench-0.2m/sw/airborne/autopilot_simulate/main.c:274
    15c6:	80 91 d4 01 	lds	r24, 0x01D4
    15ca:	8f 5f       	subi	r24, 0xFF	; 255
    15cc:	80 93 d4 01 	sts	0x01D4, r24
    15d0:	80 91 d4 01 	lds	r24, 0x01D4
    15d4:	8a 3f       	cpi	r24, 0xFA	; 250
    15d6:	11 f4       	brne	.+4      	; 0x15dc <__stack+0x4dd>
/home/becker/async/wcet-benchmarks/benchmarks/PapaBench-0.2m/sw/airborne/autopilot_simulate/main.c:274 (discriminator 1)
    15d8:	10 92 d4 01 	sts	0x01D4, r1
/home/becker/async/wcet-benchmarks/benchmarks/PapaBench-0.2m/sw/airborne/autopilot_simulate/main.c:274 (discriminator 2)
    15dc:	20 91 d4 01 	lds	r18, 0x01D4
    15e0:	8d ec       	ldi	r24, 0xCD	; 205
    15e2:	28 9f       	mul	r18, r24
    15e4:	81 2d       	mov	r24, r1
    15e6:	11 24       	eor	r1, r1
    15e8:	98 2f       	mov	r25, r24
    15ea:	96 95       	lsr	r25
    15ec:	96 95       	lsr	r25
    15ee:	89 2f       	mov	r24, r25
    15f0:	88 0f       	add	r24, r24
    15f2:	88 0f       	add	r24, r24
    15f4:	89 0f       	add	r24, r25
    15f6:	92 2f       	mov	r25, r18
    15f8:	98 1b       	sub	r25, r24
    15fa:	99 23       	and	r25, r25
    15fc:	09 f0       	breq	.+2      	; 0x1600 <__stack+0x501>
    15fe:	81 c2       	rjmp	.+1282   	; 0x1b02 <__stack+0xa03>
/home/becker/async/wcet-benchmarks/benchmarks/PapaBench-0.2m/sw/airborne/autopilot_simulate/main.c:274 (discriminator 1)
    1600:	90 91 fd 05 	lds	r25, 0x05FD
    1604:	80 91 fe 05 	lds	r24, 0x05FE
    1608:	98 17       	cp	r25, r24
    160a:	a0 f0       	brcs	.+40     	; 0x1634 <__stack+0x535>
    160c:	80 91 fe 05 	lds	r24, 0x05FE
    1610:	28 2f       	mov	r18, r24
    1612:	30 e0       	ldi	r19, 0x00	; 0
    1614:	80 91 fd 05 	lds	r24, 0x05FD
    1618:	88 2f       	mov	r24, r24
    161a:	90 e0       	ldi	r25, 0x00	; 0
    161c:	a9 01       	movw	r20, r18
    161e:	48 1b       	sub	r20, r24
    1620:	59 0b       	sbc	r21, r25
    1622:	ca 01       	movw	r24, r20
    1624:	81 50       	subi	r24, 0x01	; 1
    1626:	9f 4f       	sbci	r25, 0xFF	; 255
    1628:	21 e0       	ldi	r18, 0x01	; 1
    162a:	81 31       	cpi	r24, 0x11	; 17
    162c:	91 05       	cpc	r25, r1
    162e:	9c f4       	brge	.+38     	; 0x1656 <__stack+0x557>
    1630:	20 e0       	ldi	r18, 0x00	; 0
    1632:	11 c0       	rjmp	.+34     	; 0x1656 <__stack+0x557>
/home/becker/async/wcet-benchmarks/benchmarks/PapaBench-0.2m/sw/airborne/autopilot_simulate/main.c:274 (discriminator 2)
    1634:	80 91 fe 05 	lds	r24, 0x05FE
    1638:	28 2f       	mov	r18, r24
    163a:	30 e0       	ldi	r19, 0x00	; 0
    163c:	80 91 fd 05 	lds	r24, 0x05FD
    1640:	88 2f       	mov	r24, r24
    1642:	90 e0       	ldi	r25, 0x00	; 0
    1644:	f9 01       	movw	r30, r18
    1646:	e8 1b       	sub	r30, r24
    1648:	f9 0b       	sbc	r31, r25
    164a:	cf 01       	movw	r24, r30
    164c:	21 e0       	ldi	r18, 0x01	; 1
    164e:	81 31       	cpi	r24, 0x11	; 17
    1650:	91 05       	cpc	r25, r1
    1652:	0c f4       	brge	.+2      	; 0x1656 <__stack+0x557>
    1654:	20 e0       	ldi	r18, 0x00	; 0
/home/becker/async/wcet-benchmarks/benchmarks/PapaBench-0.2m/sw/airborne/autopilot_simulate/main.c:274 (discriminator 3)
    1656:	22 23       	and	r18, r18
    1658:	09 f4       	brne	.+2      	; 0x165c <__stack+0x55d>
    165a:	4e c2       	rjmp	.+1180   	; 0x1af8 <__stack+0x9f9>
/home/becker/async/wcet-benchmarks/benchmarks/PapaBench-0.2m/sw/airborne/autopilot_simulate/main.c:274 (discriminator 1)
    165c:	80 91 fd 05 	lds	r24, 0x05FD
    1660:	88 2f       	mov	r24, r24
    1662:	90 e0       	ldi	r25, 0x00	; 0
    1664:	80 50       	subi	r24, 0x00	; 0
    1666:	9a 4f       	sbci	r25, 0xFA	; 250
    1668:	25 e0       	ldi	r18, 0x05	; 5
    166a:	fc 01       	movw	r30, r24
    166c:	20 83       	st	Z, r18
    166e:	80 91 fd 05 	lds	r24, 0x05FD
    1672:	8f 5f       	subi	r24, 0xFF	; 255
    1674:	80 93 fd 05 	sts	0x05FD, r24
    1678:	80 91 fd 05 	lds	r24, 0x05FD
    167c:	8f 3f       	cpi	r24, 0xFF	; 255
    167e:	11 f4       	brne	.+4      	; 0x1684 <__stack+0x585>
    1680:	10 92 fd 05 	sts	0x05FD, r1
/home/becker/async/wcet-benchmarks/benchmarks/PapaBench-0.2m/sw/airborne/autopilot_simulate/main.c:274 (discriminator 2)
    1684:	80 91 fd 05 	lds	r24, 0x05FD
    1688:	88 2f       	mov	r24, r24
    168a:	90 e0       	ldi	r25, 0x00	; 0
    168c:	80 50       	subi	r24, 0x00	; 0
    168e:	9a 4f       	sbci	r25, 0xFA	; 250
    1690:	26 e0       	ldi	r18, 0x06	; 6
    1692:	fc 01       	movw	r30, r24
    1694:	20 83       	st	Z, r18
    1696:	80 91 fd 05 	lds	r24, 0x05FD
    169a:	8f 5f       	subi	r24, 0xFF	; 255
    169c:	80 93 fd 05 	sts	0x05FD, r24
    16a0:	80 91 fd 05 	lds	r24, 0x05FD
    16a4:	8f 3f       	cpi	r24, 0xFF	; 255
    16a6:	11 f4       	brne	.+4      	; 0x16ac <__stack+0x5ad>
/home/becker/async/wcet-benchmarks/benchmarks/PapaBench-0.2m/sw/airborne/autopilot_simulate/main.c:274 (discriminator 1)
    16a8:	10 92 fd 05 	sts	0x05FD, r1
/home/becker/async/wcet-benchmarks/benchmarks/PapaBench-0.2m/sw/airborne/autopilot_simulate/main.c:274 (discriminator 2)
    16ac:	86 e0       	ldi	r24, 0x06	; 6
    16ae:	80 93 ff 06 	sts	0x06FF, r24
    16b2:	86 e0       	ldi	r24, 0x06	; 6
    16b4:	80 93 fa 05 	sts	0x05FA, r24
    16b8:	80 91 fd 05 	lds	r24, 0x05FD
    16bc:	88 2f       	mov	r24, r24
    16be:	90 e0       	ldi	r25, 0x00	; 0
    16c0:	2e eb       	ldi	r18, 0xBE	; 190
    16c2:	37 e0       	ldi	r19, 0x07	; 7
    16c4:	f9 01       	movw	r30, r18
    16c6:	20 81       	ld	r18, Z
    16c8:	80 50       	subi	r24, 0x00	; 0
    16ca:	9a 4f       	sbci	r25, 0xFA	; 250
    16cc:	fc 01       	movw	r30, r24
    16ce:	20 83       	st	Z, r18
    16d0:	8e eb       	ldi	r24, 0xBE	; 190
    16d2:	97 e0       	ldi	r25, 0x07	; 7
    16d4:	fc 01       	movw	r30, r24
    16d6:	90 81       	ld	r25, Z
    16d8:	80 91 ff 06 	lds	r24, 0x06FF
    16dc:	89 0f       	add	r24, r25
    16de:	80 93 ff 06 	sts	0x06FF, r24
    16e2:	90 91 fa 05 	lds	r25, 0x05FA
    16e6:	80 91 ff 06 	lds	r24, 0x06FF
    16ea:	89 0f       	add	r24, r25
    16ec:	80 93 fa 05 	sts	0x05FA, r24
    16f0:	80 91 fd 05 	lds	r24, 0x05FD
    16f4:	8f 5f       	subi	r24, 0xFF	; 255
    16f6:	80 93 fd 05 	sts	0x05FD, r24
    16fa:	80 91 fd 05 	lds	r24, 0x05FD
    16fe:	8f 3f       	cpi	r24, 0xFF	; 255
    1700:	11 f4       	brne	.+4      	; 0x1706 <__stack+0x607>
/home/becker/async/wcet-benchmarks/benchmarks/PapaBench-0.2m/sw/airborne/autopilot_simulate/main.c:274 (discriminator 1)
    1702:	10 92 fd 05 	sts	0x05FD, r1
/home/becker/async/wcet-benchmarks/benchmarks/PapaBench-0.2m/sw/airborne/autopilot_simulate/main.c:274 (discriminator 2)
    1706:	80 91 fd 05 	lds	r24, 0x05FD
    170a:	88 2f       	mov	r24, r24
    170c:	90 e0       	ldi	r25, 0x00	; 0
    170e:	20 91 bf 07 	lds	r18, 0x07BF
    1712:	80 50       	subi	r24, 0x00	; 0
    1714:	9a 4f       	sbci	r25, 0xFA	; 250
    1716:	fc 01       	movw	r30, r24
    1718:	20 83       	st	Z, r18
    171a:	8f eb       	ldi	r24, 0xBF	; 191
    171c:	97 e0       	ldi	r25, 0x07	; 7
    171e:	fc 01       	movw	r30, r24
    1720:	90 81       	ld	r25, Z
    1722:	80 91 ff 06 	lds	r24, 0x06FF
    1726:	89 0f       	add	r24, r25
    1728:	80 93 ff 06 	sts	0x06FF, r24
    172c:	90 91 fa 05 	lds	r25, 0x05FA
    1730:	80 91 ff 06 	lds	r24, 0x06FF
    1734:	89 0f       	add	r24, r25
    1736:	80 93 fa 05 	sts	0x05FA, r24
    173a:	80 91 fd 05 	lds	r24, 0x05FD
    173e:	8f 5f       	subi	r24, 0xFF	; 255
    1740:	80 93 fd 05 	sts	0x05FD, r24
    1744:	80 91 fd 05 	lds	r24, 0x05FD
    1748:	8f 3f       	cpi	r24, 0xFF	; 255
    174a:	11 f4       	brne	.+4      	; 0x1750 <__stack+0x651>
/home/becker/async/wcet-benchmarks/benchmarks/PapaBench-0.2m/sw/airborne/autopilot_simulate/main.c:274 (discriminator 1)
    174c:	10 92 fd 05 	sts	0x05FD, r1
/home/becker/async/wcet-benchmarks/benchmarks/PapaBench-0.2m/sw/airborne/autopilot_simulate/main.c:274 (discriminator 2)
    1750:	80 91 fd 05 	lds	r24, 0x05FD
    1754:	88 2f       	mov	r24, r24
    1756:	90 e0       	ldi	r25, 0x00	; 0
    1758:	20 91 c0 07 	lds	r18, 0x07C0
    175c:	80 50       	subi	r24, 0x00	; 0
    175e:	9a 4f       	sbci	r25, 0xFA	; 250
    1760:	fc 01       	movw	r30, r24
    1762:	20 83       	st	Z, r18
    1764:	80 ec       	ldi	r24, 0xC0	; 192
    1766:	97 e0       	ldi	r25, 0x07	; 7
    1768:	fc 01       	movw	r30, r24
    176a:	90 81       	ld	r25, Z
    176c:	80 91 ff 06 	lds	r24, 0x06FF
    1770:	89 0f       	add	r24, r25
    1772:	80 93 ff 06 	sts	0x06FF, r24
    1776:	90 91 fa 05 	lds	r25, 0x05FA
    177a:	80 91 ff 06 	lds	r24, 0x06FF
    177e:	89 0f       	add	r24, r25
    1780:	80 93 fa 05 	sts	0x05FA, r24
    1784:	80 91 fd 05 	lds	r24, 0x05FD
    1788:	8f 5f       	subi	r24, 0xFF	; 255
    178a:	80 93 fd 05 	sts	0x05FD, r24
    178e:	80 91 fd 05 	lds	r24, 0x05FD
    1792:	8f 3f       	cpi	r24, 0xFF	; 255
    1794:	11 f4       	brne	.+4      	; 0x179a <__stack+0x69b>
/home/becker/async/wcet-benchmarks/benchmarks/PapaBench-0.2m/sw/airborne/autopilot_simulate/main.c:274 (discriminator 1)
    1796:	10 92 fd 05 	sts	0x05FD, r1
/home/becker/async/wcet-benchmarks/benchmarks/PapaBench-0.2m/sw/airborne/autopilot_simulate/main.c:274 (discriminator 2)
    179a:	80 91 fd 05 	lds	r24, 0x05FD
    179e:	88 2f       	mov	r24, r24
    17a0:	90 e0       	ldi	r25, 0x00	; 0
    17a2:	20 91 c1 07 	lds	r18, 0x07C1
    17a6:	80 50       	subi	r24, 0x00	; 0
    17a8:	9a 4f       	sbci	r25, 0xFA	; 250
    17aa:	fc 01       	movw	r30, r24
    17ac:	20 83       	st	Z, r18
    17ae:	81 ec       	ldi	r24, 0xC1	; 193
    17b0:	97 e0       	ldi	r25, 0x07	; 7
    17b2:	fc 01       	movw	r30, r24
    17b4:	90 81       	ld	r25, Z
    17b6:	80 91 ff 06 	lds	r24, 0x06FF
    17ba:	89 0f       	add	r24, r25
    17bc:	80 93 ff 06 	sts	0x06FF, r24
    17c0:	90 91 fa 05 	lds	r25, 0x05FA
    17c4:	80 91 ff 06 	lds	r24, 0x06FF
    17c8:	89 0f       	add	r24, r25
    17ca:	80 93 fa 05 	sts	0x05FA, r24
    17ce:	80 91 fd 05 	lds	r24, 0x05FD
    17d2:	8f 5f       	subi	r24, 0xFF	; 255
    17d4:	80 93 fd 05 	sts	0x05FD, r24
    17d8:	80 91 fd 05 	lds	r24, 0x05FD
    17dc:	8f 3f       	cpi	r24, 0xFF	; 255
    17de:	11 f4       	brne	.+4      	; 0x17e4 <__stack+0x6e5>
/home/becker/async/wcet-benchmarks/benchmarks/PapaBench-0.2m/sw/airborne/autopilot_simulate/main.c:274 (discriminator 1)
    17e0:	10 92 fd 05 	sts	0x05FD, r1
/home/becker/async/wcet-benchmarks/benchmarks/PapaBench-0.2m/sw/airborne/autopilot_simulate/main.c:274 (discriminator 2)
    17e4:	80 91 fd 05 	lds	r24, 0x05FD
    17e8:	88 2f       	mov	r24, r24
    17ea:	90 e0       	ldi	r25, 0x00	; 0
    17ec:	22 ea       	ldi	r18, 0xA2	; 162
    17ee:	37 e0       	ldi	r19, 0x07	; 7
    17f0:	f9 01       	movw	r30, r18
    17f2:	20 81       	ld	r18, Z
    17f4:	80 50       	subi	r24, 0x00	; 0
    17f6:	9a 4f       	sbci	r25, 0xFA	; 250
    17f8:	fc 01       	movw	r30, r24
    17fa:	20 83       	st	Z, r18
    17fc:	82 ea       	ldi	r24, 0xA2	; 162
    17fe:	97 e0       	ldi	r25, 0x07	; 7
    1800:	fc 01       	movw	r30, r24
    1802:	90 81       	ld	r25, Z
    1804:	80 91 ff 06 	lds	r24, 0x06FF
    1808:	89 0f       	add	r24, r25
    180a:	80 93 ff 06 	sts	0x06FF, r24
    180e:	90 91 fa 05 	lds	r25, 0x05FA
    1812:	80 91 ff 06 	lds	r24, 0x06FF
    1816:	89 0f       	add	r24, r25
    1818:	80 93 fa 05 	sts	0x05FA, r24
    181c:	80 91 fd 05 	lds	r24, 0x05FD
    1820:	8f 5f       	subi	r24, 0xFF	; 255
    1822:	80 93 fd 05 	sts	0x05FD, r24
    1826:	80 91 fd 05 	lds	r24, 0x05FD
    182a:	8f 3f       	cpi	r24, 0xFF	; 255
    182c:	11 f4       	brne	.+4      	; 0x1832 <__stack+0x733>
/home/becker/async/wcet-benchmarks/benchmarks/PapaBench-0.2m/sw/airborne/autopilot_simulate/main.c:274 (discriminator 1)
    182e:	10 92 fd 05 	sts	0x05FD, r1
/home/becker/async/wcet-benchmarks/benchmarks/PapaBench-0.2m/sw/airborne/autopilot_simulate/main.c:274 (discriminator 2)
    1832:	80 91 fd 05 	lds	r24, 0x05FD
    1836:	88 2f       	mov	r24, r24
    1838:	90 e0       	ldi	r25, 0x00	; 0
    183a:	20 91 a3 07 	lds	r18, 0x07A3
    183e:	80 50       	subi	r24, 0x00	; 0
    1840:	9a 4f       	sbci	r25, 0xFA	; 250
    1842:	fc 01       	movw	r30, r24
    1844:	20 83       	st	Z, r18
    1846:	83 ea       	ldi	r24, 0xA3	; 163
    1848:	97 e0       	ldi	r25, 0x07	; 7
    184a:	fc 01       	movw	r30, r24
    184c:	90 81       	ld	r25, Z
    184e:	80 91 ff 06 	lds	r24, 0x06FF
    1852:	89 0f       	add	r24, r25
    1854:	80 93 ff 06 	sts	0x06FF, r24
    1858:	90 91 fa 05 	lds	r25, 0x05FA
    185c:	80 91 ff 06 	lds	r24, 0x06FF
    1860:	89 0f       	add	r24, r25
    1862:	80 93 fa 05 	sts	0x05FA, r24
    1866:	80 91 fd 05 	lds	r24, 0x05FD
    186a:	8f 5f       	subi	r24, 0xFF	; 255
    186c:	80 93 fd 05 	sts	0x05FD, r24
    1870:	80 91 fd 05 	lds	r24, 0x05FD
    1874:	8f 3f       	cpi	r24, 0xFF	; 255
    1876:	11 f4       	brne	.+4      	; 0x187c <__stack+0x77d>
/home/becker/async/wcet-benchmarks/benchmarks/PapaBench-0.2m/sw/airborne/autopilot_simulate/main.c:274 (discriminator 1)
    1878:	10 92 fd 05 	sts	0x05FD, r1
/home/becker/async/wcet-benchmarks/benchmarks/PapaBench-0.2m/sw/airborne/autopilot_simulate/main.c:274 (discriminator 2)
    187c:	80 91 fd 05 	lds	r24, 0x05FD
    1880:	88 2f       	mov	r24, r24
    1882:	90 e0       	ldi	r25, 0x00	; 0
    1884:	20 91 a4 07 	lds	r18, 0x07A4
    1888:	80 50       	subi	r24, 0x00	; 0
    188a:	9a 4f       	sbci	r25, 0xFA	; 250
    188c:	fc 01       	movw	r30, r24
    188e:	20 83       	st	Z, r18
    1890:	84 ea       	ldi	r24, 0xA4	; 164
    1892:	97 e0       	ldi	r25, 0x07	; 7
    1894:	fc 01       	movw	r30, r24
    1896:	90 81       	ld	r25, Z
    1898:	80 91 ff 06 	lds	r24, 0x06FF
    189c:	89 0f       	add	r24, r25
    189e:	80 93 ff 06 	sts	0x06FF, r24
    18a2:	90 91 fa 05 	lds	r25, 0x05FA
    18a6:	80 91 ff 06 	lds	r24, 0x06FF
    18aa:	89 0f       	add	r24, r25
    18ac:	80 93 fa 05 	sts	0x05FA, r24
    18b0:	80 91 fd 05 	lds	r24, 0x05FD
    18b4:	8f 5f       	subi	r24, 0xFF	; 255
    18b6:	80 93 fd 05 	sts	0x05FD, r24
    18ba:	80 91 fd 05 	lds	r24, 0x05FD
    18be:	8f 3f       	cpi	r24, 0xFF	; 255
    18c0:	11 f4       	brne	.+4      	; 0x18c6 <__stack+0x7c7>
/home/becker/async/wcet-benchmarks/benchmarks/PapaBench-0.2m/sw/airborne/autopilot_simulate/main.c:274 (discriminator 1)
    18c2:	10 92 fd 05 	sts	0x05FD, r1
/home/becker/async/wcet-benchmarks/benchmarks/PapaBench-0.2m/sw/airborne/autopilot_simulate/main.c:274 (discriminator 2)
    18c6:	80 91 fd 05 	lds	r24, 0x05FD
    18ca:	88 2f       	mov	r24, r24
    18cc:	90 e0       	ldi	r25, 0x00	; 0
    18ce:	20 91 a5 07 	lds	r18, 0x07A5
    18d2:	80 50       	subi	r24, 0x00	; 0
    18d4:	9a 4f       	sbci	r25, 0xFA	; 250
    18d6:	fc 01       	movw	r30, r24
    18d8:	20 83       	st	Z, r18
    18da:	85 ea       	ldi	r24, 0xA5	; 165
    18dc:	97 e0       	ldi	r25, 0x07	; 7
    18de:	fc 01       	movw	r30, r24
    18e0:	90 81       	ld	r25, Z
    18e2:	80 91 ff 06 	lds	r24, 0x06FF
    18e6:	89 0f       	add	r24, r25
    18e8:	80 93 ff 06 	sts	0x06FF, r24
    18ec:	90 91 fa 05 	lds	r25, 0x05FA
    18f0:	80 91 ff 06 	lds	r24, 0x06FF
    18f4:	89 0f       	add	r24, r25
    18f6:	80 93 fa 05 	sts	0x05FA, r24
    18fa:	80 91 fd 05 	lds	r24, 0x05FD
    18fe:	8f 5f       	subi	r24, 0xFF	; 255
    1900:	80 93 fd 05 	sts	0x05FD, r24
    1904:	80 91 fd 05 	lds	r24, 0x05FD
    1908:	8f 3f       	cpi	r24, 0xFF	; 255
    190a:	11 f4       	brne	.+4      	; 0x1910 <__stack+0x811>
/home/becker/async/wcet-benchmarks/benchmarks/PapaBench-0.2m/sw/airborne/autopilot_simulate/main.c:274 (discriminator 1)
    190c:	10 92 fd 05 	sts	0x05FD, r1
/home/becker/async/wcet-benchmarks/benchmarks/PapaBench-0.2m/sw/airborne/autopilot_simulate/main.c:274 (discriminator 2)
    1910:	80 91 fd 05 	lds	r24, 0x05FD
    1914:	88 2f       	mov	r24, r24
    1916:	90 e0       	ldi	r25, 0x00	; 0
    1918:	22 eb       	ldi	r18, 0xB2	; 178
    191a:	37 e0       	ldi	r19, 0x07	; 7
    191c:	f9 01       	movw	r30, r18
    191e:	20 81       	ld	r18, Z
    1920:	80 50       	subi	r24, 0x00	; 0
    1922:	9a 4f       	sbci	r25, 0xFA	; 250
    1924:	fc 01       	movw	r30, r24
    1926:	20 83       	st	Z, r18
    1928:	82 eb       	ldi	r24, 0xB2	; 178
    192a:	97 e0       	ldi	r25, 0x07	; 7
    192c:	fc 01       	movw	r30, r24
    192e:	90 81       	ld	r25, Z
    1930:	80 91 ff 06 	lds	r24, 0x06FF
    1934:	89 0f       	add	r24, r25
    1936:	80 93 ff 06 	sts	0x06FF, r24
    193a:	90 91 fa 05 	lds	r25, 0x05FA
    193e:	80 91 ff 06 	lds	r24, 0x06FF
    1942:	89 0f       	add	r24, r25
    1944:	80 93 fa 05 	sts	0x05FA, r24
    1948:	80 91 fd 05 	lds	r24, 0x05FD
    194c:	8f 5f       	subi	r24, 0xFF	; 255
    194e:	80 93 fd 05 	sts	0x05FD, r24
    1952:	80 91 fd 05 	lds	r24, 0x05FD
    1956:	8f 3f       	cpi	r24, 0xFF	; 255
    1958:	11 f4       	brne	.+4      	; 0x195e <__stack+0x85f>
/home/becker/async/wcet-benchmarks/benchmarks/PapaBench-0.2m/sw/airborne/autopilot_simulate/main.c:274 (discriminator 1)
    195a:	10 92 fd 05 	sts	0x05FD, r1
/home/becker/async/wcet-benchmarks/benchmarks/PapaBench-0.2m/sw/airborne/autopilot_simulate/main.c:274 (discriminator 2)
    195e:	80 91 fd 05 	lds	r24, 0x05FD
    1962:	88 2f       	mov	r24, r24
    1964:	90 e0       	ldi	r25, 0x00	; 0
    1966:	20 91 b3 07 	lds	r18, 0x07B3
    196a:	80 50       	subi	r24, 0x00	; 0
    196c:	9a 4f       	sbci	r25, 0xFA	; 250
    196e:	fc 01       	movw	r30, r24
    1970:	20 83       	st	Z, r18
    1972:	83 eb       	ldi	r24, 0xB3	; 179
    1974:	97 e0       	ldi	r25, 0x07	; 7
    1976:	fc 01       	movw	r30, r24
    1978:	90 81       	ld	r25, Z
    197a:	80 91 ff 06 	lds	r24, 0x06FF
    197e:	89 0f       	add	r24, r25
    1980:	80 93 ff 06 	sts	0x06FF, r24
    1984:	90 91 fa 05 	lds	r25, 0x05FA
    1988:	80 91 ff 06 	lds	r24, 0x06FF
    198c:	89 0f       	add	r24, r25
    198e:	80 93 fa 05 	sts	0x05FA, r24
    1992:	80 91 fd 05 	lds	r24, 0x05FD
    1996:	8f 5f       	subi	r24, 0xFF	; 255
    1998:	80 93 fd 05 	sts	0x05FD, r24
    199c:	80 91 fd 05 	lds	r24, 0x05FD
    19a0:	8f 3f       	cpi	r24, 0xFF	; 255
    19a2:	11 f4       	brne	.+4      	; 0x19a8 <__stack+0x8a9>
/home/becker/async/wcet-benchmarks/benchmarks/PapaBench-0.2m/sw/airborne/autopilot_simulate/main.c:274 (discriminator 1)
    19a4:	10 92 fd 05 	sts	0x05FD, r1
/home/becker/async/wcet-benchmarks/benchmarks/PapaBench-0.2m/sw/airborne/autopilot_simulate/main.c:274 (discriminator 2)
    19a8:	80 91 fd 05 	lds	r24, 0x05FD
    19ac:	88 2f       	mov	r24, r24
    19ae:	90 e0       	ldi	r25, 0x00	; 0
    19b0:	20 91 b4 07 	lds	r18, 0x07B4
    19b4:	80 50       	subi	r24, 0x00	; 0
    19b6:	9a 4f       	sbci	r25, 0xFA	; 250
    19b8:	fc 01       	movw	r30, r24
    19ba:	20 83       	st	Z, r18
    19bc:	84 eb       	ldi	r24, 0xB4	; 180
    19be:	97 e0       	ldi	r25, 0x07	; 7
    19c0:	fc 01       	movw	r30, r24
    19c2:	90 81       	ld	r25, Z
    19c4:	80 91 ff 06 	lds	r24, 0x06FF
    19c8:	89 0f       	add	r24, r25
    19ca:	80 93 ff 06 	sts	0x06FF, r24
    19ce:	90 91 fa 05 	lds	r25, 0x05FA
    19d2:	80 91 ff 06 	lds	r24, 0x06FF
    19d6:	89 0f       	add	r24, r25
    19d8:	80 93 fa 05 	sts	0x05FA, r24
    19dc:	80 91 fd 05 	lds	r24, 0x05FD
    19e0:	8f 5f       	subi	r24, 0xFF	; 255
    19e2:	80 93 fd 05 	sts	0x05FD, r24
    19e6:	80 91 fd 05 	lds	r24, 0x05FD
    19ea:	8f 3f       	cpi	r24, 0xFF	; 255
    19ec:	11 f4       	brne	.+4      	; 0x19f2 <__stack+0x8f3>
/home/becker/async/wcet-benchmarks/benchmarks/PapaBench-0.2m/sw/airborne/autopilot_simulate/main.c:274 (discriminator 1)
    19ee:	10 92 fd 05 	sts	0x05FD, r1
/home/becker/async/wcet-benchmarks/benchmarks/PapaBench-0.2m/sw/airborne/autopilot_simulate/main.c:274 (discriminator 2)
    19f2:	80 91 fd 05 	lds	r24, 0x05FD
    19f6:	88 2f       	mov	r24, r24
    19f8:	90 e0       	ldi	r25, 0x00	; 0
    19fa:	20 91 b5 07 	lds	r18, 0x07B5
    19fe:	80 50       	subi	r24, 0x00	; 0
    1a00:	9a 4f       	sbci	r25, 0xFA	; 250
    1a02:	fc 01       	movw	r30, r24
    1a04:	20 83       	st	Z, r18
    1a06:	85 eb       	ldi	r24, 0xB5	; 181
    1a08:	97 e0       	ldi	r25, 0x07	; 7
    1a0a:	fc 01       	movw	r30, r24
    1a0c:	90 81       	ld	r25, Z
    1a0e:	80 91 ff 06 	lds	r24, 0x06FF
    1a12:	89 0f       	add	r24, r25
    1a14:	80 93 ff 06 	sts	0x06FF, r24
    1a18:	90 91 fa 05 	lds	r25, 0x05FA
    1a1c:	80 91 ff 06 	lds	r24, 0x06FF
    1a20:	89 0f       	add	r24, r25
    1a22:	80 93 fa 05 	sts	0x05FA, r24
    1a26:	80 91 fd 05 	lds	r24, 0x05FD
    1a2a:	8f 5f       	subi	r24, 0xFF	; 255
    1a2c:	80 93 fd 05 	sts	0x05FD, r24
    1a30:	80 91 fd 05 	lds	r24, 0x05FD
    1a34:	8f 3f       	cpi	r24, 0xFF	; 255
    1a36:	11 f4       	brne	.+4      	; 0x1a3c <__stack+0x93d>
/home/becker/async/wcet-benchmarks/benchmarks/PapaBench-0.2m/sw/airborne/autopilot_simulate/main.c:274 (discriminator 1)
    1a38:	10 92 fd 05 	sts	0x05FD, r1
/home/becker/async/wcet-benchmarks/benchmarks/PapaBench-0.2m/sw/airborne/autopilot_simulate/main.c:274 (discriminator 2)
    1a3c:	80 91 fd 05 	lds	r24, 0x05FD
    1a40:	88 2f       	mov	r24, r24
    1a42:	90 e0       	ldi	r25, 0x00	; 0
    1a44:	20 91 ff 06 	lds	r18, 0x06FF
    1a48:	80 50       	subi	r24, 0x00	; 0
    1a4a:	9a 4f       	sbci	r25, 0xFA	; 250
    1a4c:	fc 01       	movw	r30, r24
    1a4e:	20 83       	st	Z, r18
    1a50:	80 91 fd 05 	lds	r24, 0x05FD
    1a54:	8f 5f       	subi	r24, 0xFF	; 255
    1a56:	80 93 fd 05 	sts	0x05FD, r24
    1a5a:	80 91 fd 05 	lds	r24, 0x05FD
    1a5e:	8f 3f       	cpi	r24, 0xFF	; 255
    1a60:	11 f4       	brne	.+4      	; 0x1a66 <__stack+0x967>
/home/becker/async/wcet-benchmarks/benchmarks/PapaBench-0.2m/sw/airborne/autopilot_simulate/main.c:274 (discriminator 1)
    1a62:	10 92 fd 05 	sts	0x05FD, r1
/home/becker/async/wcet-benchmarks/benchmarks/PapaBench-0.2m/sw/airborne/autopilot_simulate/main.c:274 (discriminator 2)
    1a66:	80 91 fd 05 	lds	r24, 0x05FD
    1a6a:	88 2f       	mov	r24, r24
    1a6c:	90 e0       	ldi	r25, 0x00	; 0
    1a6e:	20 91 fa 05 	lds	r18, 0x05FA
    1a72:	80 50       	subi	r24, 0x00	; 0
    1a74:	9a 4f       	sbci	r25, 0xFA	; 250
    1a76:	fc 01       	movw	r30, r24
    1a78:	20 83       	st	Z, r18
    1a7a:	80 91 fd 05 	lds	r24, 0x05FD
    1a7e:	8f 5f       	subi	r24, 0xFF	; 255
    1a80:	80 93 fd 05 	sts	0x05FD, r24
    1a84:	80 91 fd 05 	lds	r24, 0x05FD
    1a88:	8f 3f       	cpi	r24, 0xFF	; 255
    1a8a:	11 f4       	brne	.+4      	; 0x1a90 <__stack+0x991>
/home/becker/async/wcet-benchmarks/benchmarks/PapaBench-0.2m/sw/airborne/autopilot_simulate/main.c:274 (discriminator 1)
    1a8c:	10 92 fd 05 	sts	0x05FD, r1
/home/becker/async/wcet-benchmarks/benchmarks/PapaBench-0.2m/sw/airborne/autopilot_simulate/main.c:274 (discriminator 2)
    1a90:	89 e5       	ldi	r24, 0x59	; 89
    1a92:	90 e0       	ldi	r25, 0x00	; 0
    1a94:	fc 01       	movw	r30, r24
    1a96:	80 81       	ld	r24, Z
    1a98:	88 2f       	mov	r24, r24
    1a9a:	90 e0       	ldi	r25, 0x00	; 0
    1a9c:	80 71       	andi	r24, 0x10	; 16
    1a9e:	99 27       	eor	r25, r25
    1aa0:	00 97       	sbiw	r24, 0x00	; 0
    1aa2:	79 f5       	brne	.+94     	; 0x1b02 <__stack+0xa03>
/home/becker/async/wcet-benchmarks/benchmarks/PapaBench-0.2m/sw/airborne/autopilot_simulate/main.c:274 (discriminator 1)
    1aa4:	80 91 fe 05 	lds	r24, 0x05FE
    1aa8:	88 2f       	mov	r24, r24
    1aaa:	90 e0       	ldi	r25, 0x00	; 0
    1aac:	80 50       	subi	r24, 0x00	; 0
    1aae:	9a 4f       	sbci	r25, 0xFA	; 250
    1ab0:	fc 01       	movw	r30, r24
    1ab2:	80 81       	ld	r24, Z
    1ab4:	80 93 fc 05 	sts	0x05FC, r24
    1ab8:	10 92 ff 05 	sts	0x05FF, r1
    1abc:	80 91 fe 05 	lds	r24, 0x05FE
    1ac0:	8f 5f       	subi	r24, 0xFF	; 255
    1ac2:	80 93 fe 05 	sts	0x05FE, r24
    1ac6:	80 91 fe 05 	lds	r24, 0x05FE
    1aca:	8f 3f       	cpi	r24, 0xFF	; 255
    1acc:	11 f4       	brne	.+4      	; 0x1ad2 <__stack+0x9d3>
    1ace:	10 92 fe 05 	sts	0x05FE, r1
/home/becker/async/wcet-benchmarks/benchmarks/PapaBench-0.2m/sw/airborne/autopilot_simulate/main.c:274 (discriminator 2)
    1ad2:	88 e5       	ldi	r24, 0x58	; 88
    1ad4:	90 e0       	ldi	r25, 0x00	; 0
    1ad6:	28 e5       	ldi	r18, 0x58	; 88
    1ad8:	30 e0       	ldi	r19, 0x00	; 0
    1ada:	f9 01       	movw	r30, r18
    1adc:	20 81       	ld	r18, Z
    1ade:	21 60       	ori	r18, 0x01	; 1
    1ae0:	fc 01       	movw	r30, r24
    1ae2:	20 83       	st	Z, r18
    1ae4:	89 e5       	ldi	r24, 0x59	; 89
    1ae6:	90 e0       	ldi	r25, 0x00	; 0
    1ae8:	29 e5       	ldi	r18, 0x59	; 89
    1aea:	30 e0       	ldi	r19, 0x00	; 0
    1aec:	f9 01       	movw	r30, r18
    1aee:	20 81       	ld	r18, Z
    1af0:	20 61       	ori	r18, 0x10	; 16
    1af2:	fc 01       	movw	r30, r24
    1af4:	20 83       	st	Z, r18
    1af6:	05 c0       	rjmp	.+10     	; 0x1b02 <__stack+0xa03>
    1af8:	80 91 fb 05 	lds	r24, 0x05FB
    1afc:	8f 5f       	subi	r24, 0xFF	; 255
    1afe:	80 93 fb 05 	sts	0x05FB, r24
    1b02:	20 91 d4 01 	lds	r18, 0x01D4
    1b06:	8d ec       	ldi	r24, 0xCD	; 205
    1b08:	28 9f       	mul	r18, r24
    1b0a:	81 2d       	mov	r24, r1
    1b0c:	11 24       	eor	r1, r1
    1b0e:	98 2f       	mov	r25, r24
    1b10:	96 95       	lsr	r25
    1b12:	96 95       	lsr	r25
    1b14:	89 2f       	mov	r24, r25
    1b16:	88 0f       	add	r24, r24
    1b18:	88 0f       	add	r24, r24
    1b1a:	89 0f       	add	r24, r25
    1b1c:	92 2f       	mov	r25, r18
    1b1e:	98 1b       	sub	r25, r24
    1b20:	91 30       	cpi	r25, 0x01	; 1
    1b22:	09 f0       	breq	.+2      	; 0x1b26 <__stack+0xa27>
    1b24:	57 c1       	rjmp	.+686    	; 0x1dd4 <__stack+0xcd5>
/home/becker/async/wcet-benchmarks/benchmarks/PapaBench-0.2m/sw/airborne/autopilot_simulate/main.c:274 (discriminator 1)
    1b26:	90 91 fd 05 	lds	r25, 0x05FD
    1b2a:	80 91 fe 05 	lds	r24, 0x05FE
    1b2e:	98 17       	cp	r25, r24
    1b30:	a0 f0       	brcs	.+40     	; 0x1b5a <__stack+0xa5b>
    1b32:	80 91 fe 05 	lds	r24, 0x05FE
    1b36:	28 2f       	mov	r18, r24
    1b38:	30 e0       	ldi	r19, 0x00	; 0
    1b3a:	80 91 fd 05 	lds	r24, 0x05FD
    1b3e:	88 2f       	mov	r24, r24
    1b40:	90 e0       	ldi	r25, 0x00	; 0
    1b42:	a9 01       	movw	r20, r18
    1b44:	48 1b       	sub	r20, r24
    1b46:	59 0b       	sbc	r21, r25
    1b48:	ca 01       	movw	r24, r20
    1b4a:	81 50       	subi	r24, 0x01	; 1
    1b4c:	9f 4f       	sbci	r25, 0xFF	; 255
    1b4e:	21 e0       	ldi	r18, 0x01	; 1
    1b50:	89 30       	cpi	r24, 0x09	; 9
    1b52:	91 05       	cpc	r25, r1
    1b54:	9c f4       	brge	.+38     	; 0x1b7c <__stack+0xa7d>
    1b56:	20 e0       	ldi	r18, 0x00	; 0
    1b58:	11 c0       	rjmp	.+34     	; 0x1b7c <__stack+0xa7d>
/home/becker/async/wcet-benchmarks/benchmarks/PapaBench-0.2m/sw/airborne/autopilot_simulate/main.c:274 (discriminator 2)
    1b5a:	80 91 fe 05 	lds	r24, 0x05FE
    1b5e:	28 2f       	mov	r18, r24
    1b60:	30 e0       	ldi	r19, 0x00	; 0
    1b62:	80 91 fd 05 	lds	r24, 0x05FD
    1b66:	88 2f       	mov	r24, r24
    1b68:	90 e0       	ldi	r25, 0x00	; 0
    1b6a:	f9 01       	movw	r30, r18
    1b6c:	e8 1b       	sub	r30, r24
    1b6e:	f9 0b       	sbc	r31, r25
    1b70:	cf 01       	movw	r24, r30
    1b72:	21 e0       	ldi	r18, 0x01	; 1
    1b74:	89 30       	cpi	r24, 0x09	; 9
    1b76:	91 05       	cpc	r25, r1
    1b78:	0c f4       	brge	.+2      	; 0x1b7c <__stack+0xa7d>
    1b7a:	20 e0       	ldi	r18, 0x00	; 0
/home/becker/async/wcet-benchmarks/benchmarks/PapaBench-0.2m/sw/airborne/autopilot_simulate/main.c:274 (discriminator 3)
    1b7c:	22 23       	and	r18, r18
    1b7e:	09 f4       	brne	.+2      	; 0x1b82 <__stack+0xa83>
    1b80:	24 c1       	rjmp	.+584    	; 0x1dca <__stack+0xccb>
/home/becker/async/wcet-benchmarks/benchmarks/PapaBench-0.2m/sw/airborne/autopilot_simulate/main.c:274 (discriminator 1)
    1b82:	80 91 fd 05 	lds	r24, 0x05FD
    1b86:	88 2f       	mov	r24, r24
    1b88:	90 e0       	ldi	r25, 0x00	; 0
    1b8a:	80 50       	subi	r24, 0x00	; 0
    1b8c:	9a 4f       	sbci	r25, 0xFA	; 250
    1b8e:	25 e0       	ldi	r18, 0x05	; 5
    1b90:	fc 01       	movw	r30, r24
    1b92:	20 83       	st	Z, r18
    1b94:	80 91 fd 05 	lds	r24, 0x05FD
    1b98:	8f 5f       	subi	r24, 0xFF	; 255
    1b9a:	80 93 fd 05 	sts	0x05FD, r24
    1b9e:	80 91 fd 05 	lds	r24, 0x05FD
    1ba2:	8f 3f       	cpi	r24, 0xFF	; 255
    1ba4:	11 f4       	brne	.+4      	; 0x1baa <__stack+0xaab>
    1ba6:	10 92 fd 05 	sts	0x05FD, r1
/home/becker/async/wcet-benchmarks/benchmarks/PapaBench-0.2m/sw/airborne/autopilot_simulate/main.c:274 (discriminator 2)
    1baa:	80 91 fd 05 	lds	r24, 0x05FD
    1bae:	88 2f       	mov	r24, r24
    1bb0:	90 e0       	ldi	r25, 0x00	; 0
    1bb2:	80 50       	subi	r24, 0x00	; 0
    1bb4:	9a 4f       	sbci	r25, 0xFA	; 250
    1bb6:	27 e0       	ldi	r18, 0x07	; 7
    1bb8:	fc 01       	movw	r30, r24
    1bba:	20 83       	st	Z, r18
    1bbc:	80 91 fd 05 	lds	r24, 0x05FD
    1bc0:	8f 5f       	subi	r24, 0xFF	; 255
    1bc2:	80 93 fd 05 	sts	0x05FD, r24
    1bc6:	80 91 fd 05 	lds	r24, 0x05FD
    1bca:	8f 3f       	cpi	r24, 0xFF	; 255
    1bcc:	11 f4       	brne	.+4      	; 0x1bd2 <__stack+0xad3>
/home/becker/async/wcet-benchmarks/benchmarks/PapaBench-0.2m/sw/airborne/autopilot_simulate/main.c:274 (discriminator 1)
    1bce:	10 92 fd 05 	sts	0x05FD, r1
/home/becker/async/wcet-benchmarks/benchmarks/PapaBench-0.2m/sw/airborne/autopilot_simulate/main.c:274 (discriminator 2)
    1bd2:	87 e0       	ldi	r24, 0x07	; 7
    1bd4:	80 93 ff 06 	sts	0x06FF, r24
    1bd8:	87 e0       	ldi	r24, 0x07	; 7
    1bda:	80 93 fa 05 	sts	0x05FA, r24
    1bde:	80 91 fd 05 	lds	r24, 0x05FD
    1be2:	88 2f       	mov	r24, r24
    1be4:	90 e0       	ldi	r25, 0x00	; 0
    1be6:	2a e6       	ldi	r18, 0x6A	; 106
    1be8:	37 e0       	ldi	r19, 0x07	; 7
    1bea:	f9 01       	movw	r30, r18
    1bec:	20 81       	ld	r18, Z
    1bee:	80 50       	subi	r24, 0x00	; 0
    1bf0:	9a 4f       	sbci	r25, 0xFA	; 250
    1bf2:	fc 01       	movw	r30, r24
    1bf4:	20 83       	st	Z, r18
    1bf6:	8a e6       	ldi	r24, 0x6A	; 106
    1bf8:	97 e0       	ldi	r25, 0x07	; 7
    1bfa:	fc 01       	movw	r30, r24
    1bfc:	90 81       	ld	r25, Z
    1bfe:	80 91 ff 06 	lds	r24, 0x06FF
    1c02:	89 0f       	add	r24, r25
    1c04:	80 93 ff 06 	sts	0x06FF, r24
    1c08:	90 91 fa 05 	lds	r25, 0x05FA
    1c0c:	80 91 ff 06 	lds	r24, 0x06FF
    1c10:	89 0f       	add	r24, r25
    1c12:	80 93 fa 05 	sts	0x05FA, r24
    1c16:	80 91 fd 05 	lds	r24, 0x05FD
    1c1a:	8f 5f       	subi	r24, 0xFF	; 255
    1c1c:	80 93 fd 05 	sts	0x05FD, r24
    1c20:	80 91 fd 05 	lds	r24, 0x05FD
    1c24:	8f 3f       	cpi	r24, 0xFF	; 255
    1c26:	11 f4       	brne	.+4      	; 0x1c2c <__stack+0xb2d>
/home/becker/async/wcet-benchmarks/benchmarks/PapaBench-0.2m/sw/airborne/autopilot_simulate/main.c:274 (discriminator 1)
    1c28:	10 92 fd 05 	sts	0x05FD, r1
/home/becker/async/wcet-benchmarks/benchmarks/PapaBench-0.2m/sw/airborne/autopilot_simulate/main.c:274 (discriminator 2)
    1c2c:	80 91 fd 05 	lds	r24, 0x05FD
    1c30:	88 2f       	mov	r24, r24
    1c32:	90 e0       	ldi	r25, 0x00	; 0
    1c34:	20 91 6b 07 	lds	r18, 0x076B
    1c38:	80 50       	subi	r24, 0x00	; 0
    1c3a:	9a 4f       	sbci	r25, 0xFA	; 250
    1c3c:	fc 01       	movw	r30, r24
    1c3e:	20 83       	st	Z, r18
    1c40:	8b e6       	ldi	r24, 0x6B	; 107
    1c42:	97 e0       	ldi	r25, 0x07	; 7
    1c44:	fc 01       	movw	r30, r24
    1c46:	90 81       	ld	r25, Z
    1c48:	80 91 ff 06 	lds	r24, 0x06FF
    1c4c:	89 0f       	add	r24, r25
    1c4e:	80 93 ff 06 	sts	0x06FF, r24
    1c52:	90 91 fa 05 	lds	r25, 0x05FA
    1c56:	80 91 ff 06 	lds	r24, 0x06FF
    1c5a:	89 0f       	add	r24, r25
    1c5c:	80 93 fa 05 	sts	0x05FA, r24
    1c60:	80 91 fd 05 	lds	r24, 0x05FD
    1c64:	8f 5f       	subi	r24, 0xFF	; 255
    1c66:	80 93 fd 05 	sts	0x05FD, r24
    1c6a:	80 91 fd 05 	lds	r24, 0x05FD
    1c6e:	8f 3f       	cpi	r24, 0xFF	; 255
    1c70:	11 f4       	brne	.+4      	; 0x1c76 <__stack+0xb77>
/home/becker/async/wcet-benchmarks/benchmarks/PapaBench-0.2m/sw/airborne/autopilot_simulate/main.c:274 (discriminator 1)
    1c72:	10 92 fd 05 	sts	0x05FD, r1
/home/becker/async/wcet-benchmarks/benchmarks/PapaBench-0.2m/sw/airborne/autopilot_simulate/main.c:274 (discriminator 2)
    1c76:	80 91 fd 05 	lds	r24, 0x05FD
    1c7a:	88 2f       	mov	r24, r24
    1c7c:	90 e0       	ldi	r25, 0x00	; 0
    1c7e:	28 e6       	ldi	r18, 0x68	; 104
    1c80:	37 e0       	ldi	r19, 0x07	; 7
    1c82:	f9 01       	movw	r30, r18
    1c84:	20 81       	ld	r18, Z
    1c86:	80 50       	subi	r24, 0x00	; 0
    1c88:	9a 4f       	sbci	r25, 0xFA	; 250
    1c8a:	fc 01       	movw	r30, r24
    1c8c:	20 83       	st	Z, r18
    1c8e:	88 e6       	ldi	r24, 0x68	; 104
    1c90:	97 e0       	ldi	r25, 0x07	; 7
    1c92:	fc 01       	movw	r30, r24
    1c94:	90 81       	ld	r25, Z
    1c96:	80 91 ff 06 	lds	r24, 0x06FF
    1c9a:	89 0f       	add	r24, r25
    1c9c:	80 93 ff 06 	sts	0x06FF, r24
    1ca0:	90 91 fa 05 	lds	r25, 0x05FA
    1ca4:	80 91 ff 06 	lds	r24, 0x06FF
    1ca8:	89 0f       	add	r24, r25
    1caa:	80 93 fa 05 	sts	0x05FA, r24
    1cae:	80 91 fd 05 	lds	r24, 0x05FD
    1cb2:	8f 5f       	subi	r24, 0xFF	; 255
    1cb4:	80 93 fd 05 	sts	0x05FD, r24
    1cb8:	80 91 fd 05 	lds	r24, 0x05FD
    1cbc:	8f 3f       	cpi	r24, 0xFF	; 255
    1cbe:	11 f4       	brne	.+4      	; 0x1cc4 <__stack+0xbc5>
/home/becker/async/wcet-benchmarks/benchmarks/PapaBench-0.2m/sw/airborne/autopilot_simulate/main.c:274 (discriminator 1)
    1cc0:	10 92 fd 05 	sts	0x05FD, r1
/home/becker/async/wcet-benchmarks/benchmarks/PapaBench-0.2m/sw/airborne/autopilot_simulate/main.c:274 (discriminator 2)
    1cc4:	80 91 fd 05 	lds	r24, 0x05FD
    1cc8:	88 2f       	mov	r24, r24
    1cca:	90 e0       	ldi	r25, 0x00	; 0
    1ccc:	20 91 69 07 	lds	r18, 0x0769
    1cd0:	80 50       	subi	r24, 0x00	; 0
    1cd2:	9a 4f       	sbci	r25, 0xFA	; 250
    1cd4:	fc 01       	movw	r30, r24
    1cd6:	20 83       	st	Z, r18
    1cd8:	89 e6       	ldi	r24, 0x69	; 105
    1cda:	97 e0       	ldi	r25, 0x07	; 7
    1cdc:	fc 01       	movw	r30, r24
    1cde:	90 81       	ld	r25, Z
    1ce0:	80 91 ff 06 	lds	r24, 0x06FF
    1ce4:	89 0f       	add	r24, r25
    1ce6:	80 93 ff 06 	sts	0x06FF, r24
    1cea:	90 91 fa 05 	lds	r25, 0x05FA
    1cee:	80 91 ff 06 	lds	r24, 0x06FF
    1cf2:	89 0f       	add	r24, r25
    1cf4:	80 93 fa 05 	sts	0x05FA, r24
    1cf8:	80 91 fd 05 	lds	r24, 0x05FD
    1cfc:	8f 5f       	subi	r24, 0xFF	; 255
    1cfe:	80 93 fd 05 	sts	0x05FD, r24
    1d02:	80 91 fd 05 	lds	r24, 0x05FD
    1d06:	8f 3f       	cpi	r24, 0xFF	; 255
    1d08:	11 f4       	brne	.+4      	; 0x1d0e <__stack+0xc0f>
/home/becker/async/wcet-benchmarks/benchmarks/PapaBench-0.2m/sw/airborne/autopilot_simulate/main.c:274 (discriminator 1)
    1d0a:	10 92 fd 05 	sts	0x05FD, r1
/home/becker/async/wcet-benchmarks/benchmarks/PapaBench-0.2m/sw/airborne/autopilot_simulate/main.c:274 (discriminator 2)
    1d0e:	80 91 fd 05 	lds	r24, 0x05FD
    1d12:	88 2f       	mov	r24, r24
    1d14:	90 e0       	ldi	r25, 0x00	; 0
    1d16:	20 91 ff 06 	lds	r18, 0x06FF
    1d1a:	80 50       	subi	r24, 0x00	; 0
    1d1c:	9a 4f       	sbci	r25, 0xFA	; 250
    1d1e:	fc 01       	movw	r30, r24
    1d20:	20 83       	st	Z, r18
    1d22:	80 91 fd 05 	lds	r24, 0x05FD
    1d26:	8f 5f       	subi	r24, 0xFF	; 255
    1d28:	80 93 fd 05 	sts	0x05FD, r24
    1d2c:	80 91 fd 05 	lds	r24, 0x05FD
    1d30:	8f 3f       	cpi	r24, 0xFF	; 255
    1d32:	11 f4       	brne	.+4      	; 0x1d38 <__stack+0xc39>
/home/becker/async/wcet-benchmarks/benchmarks/PapaBench-0.2m/sw/airborne/autopilot_simulate/main.c:274 (discriminator 1)
    1d34:	10 92 fd 05 	sts	0x05FD, r1
/home/becker/async/wcet-benchmarks/benchmarks/PapaBench-0.2m/sw/airborne/autopilot_simulate/main.c:274 (discriminator 2)
    1d38:	80 91 fd 05 	lds	r24, 0x05FD
    1d3c:	88 2f       	mov	r24, r24
    1d3e:	90 e0       	ldi	r25, 0x00	; 0
    1d40:	20 91 fa 05 	lds	r18, 0x05FA
    1d44:	80 50       	subi	r24, 0x00	; 0
    1d46:	9a 4f       	sbci	r25, 0xFA	; 250
    1d48:	fc 01       	movw	r30, r24
    1d4a:	20 83       	st	Z, r18
    1d4c:	80 91 fd 05 	lds	r24, 0x05FD
    1d50:	8f 5f       	subi	r24, 0xFF	; 255
    1d52:	80 93 fd 05 	sts	0x05FD, r24
    1d56:	80 91 fd 05 	lds	r24, 0x05FD
    1d5a:	8f 3f       	cpi	r24, 0xFF	; 255
    1d5c:	11 f4       	brne	.+4      	; 0x1d62 <__stack+0xc63>
/home/becker/async/wcet-benchmarks/benchmarks/PapaBench-0.2m/sw/airborne/autopilot_simulate/main.c:274 (discriminator 1)
    1d5e:	10 92 fd 05 	sts	0x05FD, r1
/home/becker/async/wcet-benchmarks/benchmarks/PapaBench-0.2m/sw/airborne/autopilot_simulate/main.c:274 (discriminator 2)
    1d62:	89 e5       	ldi	r24, 0x59	; 89
    1d64:	90 e0       	ldi	r25, 0x00	; 0
    1d66:	fc 01       	movw	r30, r24
    1d68:	80 81       	ld	r24, Z
    1d6a:	88 2f       	mov	r24, r24
    1d6c:	90 e0       	ldi	r25, 0x00	; 0
    1d6e:	80 71       	andi	r24, 0x10	; 16
    1d70:	99 27       	eor	r25, r25
    1d72:	00 97       	sbiw	r24, 0x00	; 0
    1d74:	79 f5       	brne	.+94     	; 0x1dd4 <__stack+0xcd5>
/home/becker/async/wcet-benchmarks/benchmarks/PapaBench-0.2m/sw/airborne/autopilot_simulate/main.c:274 (discriminator 1)
    1d76:	80 91 fe 05 	lds	r24, 0x05FE
    1d7a:	88 2f       	mov	r24, r24
    1d7c:	90 e0       	ldi	r25, 0x00	; 0
    1d7e:	80 50       	subi	r24, 0x00	; 0
    1d80:	9a 4f       	sbci	r25, 0xFA	; 250
    1d82:	fc 01       	movw	r30, r24
    1d84:	80 81       	ld	r24, Z
    1d86:	80 93 fc 05 	sts	0x05FC, r24
    1d8a:	10 92 ff 05 	sts	0x05FF, r1
    1d8e:	80 91 fe 05 	lds	r24, 0x05FE
    1d92:	8f 5f       	subi	r24, 0xFF	; 255
    1d94:	80 93 fe 05 	sts	0x05FE, r24
    1d98:	80 91 fe 05 	lds	r24, 0x05FE
    1d9c:	8f 3f       	cpi	r24, 0xFF	; 255
    1d9e:	11 f4       	brne	.+4      	; 0x1da4 <__stack+0xca5>
    1da0:	10 92 fe 05 	sts	0x05FE, r1
/home/becker/async/wcet-benchmarks/benchmarks/PapaBench-0.2m/sw/airborne/autopilot_simulate/main.c:274 (discriminator 2)
    1da4:	88 e5       	ldi	r24, 0x58	; 88
    1da6:	90 e0       	ldi	r25, 0x00	; 0
    1da8:	28 e5       	ldi	r18, 0x58	; 88
    1daa:	30 e0       	ldi	r19, 0x00	; 0
    1dac:	f9 01       	movw	r30, r18
    1dae:	20 81       	ld	r18, Z
    1db0:	21 60       	ori	r18, 0x01	; 1
    1db2:	fc 01       	movw	r30, r24
    1db4:	20 83       	st	Z, r18
    1db6:	89 e5       	ldi	r24, 0x59	; 89
    1db8:	90 e0       	ldi	r25, 0x00	; 0
    1dba:	29 e5       	ldi	r18, 0x59	; 89
    1dbc:	30 e0       	ldi	r19, 0x00	; 0
    1dbe:	f9 01       	movw	r30, r18
    1dc0:	20 81       	ld	r18, Z
    1dc2:	20 61       	ori	r18, 0x10	; 16
    1dc4:	fc 01       	movw	r30, r24
    1dc6:	20 83       	st	Z, r18
    1dc8:	05 c0       	rjmp	.+10     	; 0x1dd4 <__stack+0xcd5>
    1dca:	80 91 fb 05 	lds	r24, 0x05FB
    1dce:	8f 5f       	subi	r24, 0xFF	; 255
    1dd0:	80 93 fb 05 	sts	0x05FB, r24
    1dd4:	20 91 d4 01 	lds	r18, 0x01D4
    1dd8:	8d ec       	ldi	r24, 0xCD	; 205
    1dda:	28 9f       	mul	r18, r24
    1ddc:	81 2d       	mov	r24, r1
    1dde:	11 24       	eor	r1, r1
    1de0:	98 2f       	mov	r25, r24
    1de2:	96 95       	lsr	r25
    1de4:	96 95       	lsr	r25
    1de6:	89 2f       	mov	r24, r25
    1de8:	88 0f       	add	r24, r24
    1dea:	88 0f       	add	r24, r24
    1dec:	89 0f       	add	r24, r25
    1dee:	92 2f       	mov	r25, r18
    1df0:	98 1b       	sub	r25, r24
    1df2:	92 30       	cpi	r25, 0x02	; 2
    1df4:	09 f0       	breq	.+2      	; 0x1df8 <__stack+0xcf9>
    1df6:	13 c2       	rjmp	.+1062   	; 0x221e <__stack+0x111f>
/home/becker/async/wcet-benchmarks/benchmarks/PapaBench-0.2m/sw/airborne/autopilot_simulate/main.c:274 (discriminator 1)
    1df8:	80 91 de 05 	lds	r24, 0x05DE
    1dfc:	88 23       	and	r24, r24
    1dfe:	09 f4       	brne	.+2      	; 0x1e02 <__stack+0xd03>
    1e00:	0e c2       	rjmp	.+1052   	; 0x221e <__stack+0x111f>
    1e02:	90 91 fd 05 	lds	r25, 0x05FD
    1e06:	80 91 fe 05 	lds	r24, 0x05FE
    1e0a:	98 17       	cp	r25, r24
    1e0c:	a0 f0       	brcs	.+40     	; 0x1e36 <__stack+0xd37>
    1e0e:	80 91 fe 05 	lds	r24, 0x05FE
    1e12:	28 2f       	mov	r18, r24
    1e14:	30 e0       	ldi	r19, 0x00	; 0
    1e16:	80 91 fd 05 	lds	r24, 0x05FD
    1e1a:	88 2f       	mov	r24, r24
    1e1c:	90 e0       	ldi	r25, 0x00	; 0
    1e1e:	a9 01       	movw	r20, r18
    1e20:	48 1b       	sub	r20, r24
    1e22:	59 0b       	sbc	r21, r25
    1e24:	ca 01       	movw	r24, r20
    1e26:	81 50       	subi	r24, 0x01	; 1
    1e28:	9f 4f       	sbci	r25, 0xFF	; 255
    1e2a:	21 e0       	ldi	r18, 0x01	; 1
    1e2c:	8e 30       	cpi	r24, 0x0E	; 14
    1e2e:	91 05       	cpc	r25, r1
    1e30:	9c f4       	brge	.+38     	; 0x1e58 <__stack+0xd59>
    1e32:	20 e0       	ldi	r18, 0x00	; 0
    1e34:	11 c0       	rjmp	.+34     	; 0x1e58 <__stack+0xd59>
/home/becker/async/wcet-benchmarks/benchmarks/PapaBench-0.2m/sw/airborne/autopilot_simulate/main.c:274 (discriminator 2)
    1e36:	80 91 fe 05 	lds	r24, 0x05FE
    1e3a:	28 2f       	mov	r18, r24
    1e3c:	30 e0       	ldi	r19, 0x00	; 0
    1e3e:	80 91 fd 05 	lds	r24, 0x05FD
    1e42:	88 2f       	mov	r24, r24
    1e44:	90 e0       	ldi	r25, 0x00	; 0
    1e46:	f9 01       	movw	r30, r18
    1e48:	e8 1b       	sub	r30, r24
    1e4a:	f9 0b       	sbc	r31, r25
    1e4c:	cf 01       	movw	r24, r30
    1e4e:	21 e0       	ldi	r18, 0x01	; 1
    1e50:	8e 30       	cpi	r24, 0x0E	; 14
    1e52:	91 05       	cpc	r25, r1
    1e54:	0c f4       	brge	.+2      	; 0x1e58 <__stack+0xd59>
    1e56:	20 e0       	ldi	r18, 0x00	; 0
/home/becker/async/wcet-benchmarks/benchmarks/PapaBench-0.2m/sw/airborne/autopilot_simulate/main.c:274 (discriminator 3)
    1e58:	22 23       	and	r18, r18
    1e5a:	09 f4       	brne	.+2      	; 0x1e5e <__stack+0xd5f>
    1e5c:	db c1       	rjmp	.+950    	; 0x2214 <__stack+0x1115>
/home/becker/async/wcet-benchmarks/benchmarks/PapaBench-0.2m/sw/airborne/autopilot_simulate/main.c:274 (discriminator 1)
    1e5e:	80 91 fd 05 	lds	r24, 0x05FD
    1e62:	88 2f       	mov	r24, r24
    1e64:	90 e0       	ldi	r25, 0x00	; 0
    1e66:	80 50       	subi	r24, 0x00	; 0
    1e68:	9a 4f       	sbci	r25, 0xFA	; 250
    1e6a:	25 e0       	ldi	r18, 0x05	; 5
    1e6c:	fc 01       	movw	r30, r24
    1e6e:	20 83       	st	Z, r18
    1e70:	80 91 fd 05 	lds	r24, 0x05FD
    1e74:	8f 5f       	subi	r24, 0xFF	; 255
    1e76:	80 93 fd 05 	sts	0x05FD, r24
    1e7a:	80 91 fd 05 	lds	r24, 0x05FD
    1e7e:	8f 3f       	cpi	r24, 0xFF	; 255
    1e80:	11 f4       	brne	.+4      	; 0x1e86 <__stack+0xd87>
    1e82:	10 92 fd 05 	sts	0x05FD, r1
/home/becker/async/wcet-benchmarks/benchmarks/PapaBench-0.2m/sw/airborne/autopilot_simulate/main.c:274 (discriminator 2)
    1e86:	80 91 fd 05 	lds	r24, 0x05FD
    1e8a:	88 2f       	mov	r24, r24
    1e8c:	90 e0       	ldi	r25, 0x00	; 0
    1e8e:	80 50       	subi	r24, 0x00	; 0
    1e90:	9a 4f       	sbci	r25, 0xFA	; 250
    1e92:	21 e1       	ldi	r18, 0x11	; 17
    1e94:	fc 01       	movw	r30, r24
    1e96:	20 83       	st	Z, r18
    1e98:	80 91 fd 05 	lds	r24, 0x05FD
    1e9c:	8f 5f       	subi	r24, 0xFF	; 255
    1e9e:	80 93 fd 05 	sts	0x05FD, r24
    1ea2:	80 91 fd 05 	lds	r24, 0x05FD
    1ea6:	8f 3f       	cpi	r24, 0xFF	; 255
    1ea8:	11 f4       	brne	.+4      	; 0x1eae <__stack+0xdaf>
/home/becker/async/wcet-benchmarks/benchmarks/PapaBench-0.2m/sw/airborne/autopilot_simulate/main.c:274 (discriminator 1)
    1eaa:	10 92 fd 05 	sts	0x05FD, r1
/home/becker/async/wcet-benchmarks/benchmarks/PapaBench-0.2m/sw/airborne/autopilot_simulate/main.c:274 (discriminator 2)
    1eae:	81 e1       	ldi	r24, 0x11	; 17
    1eb0:	80 93 ff 06 	sts	0x06FF, r24
    1eb4:	81 e1       	ldi	r24, 0x11	; 17
    1eb6:	80 93 fa 05 	sts	0x05FA, r24
    1eba:	80 91 fd 05 	lds	r24, 0x05FD
    1ebe:	88 2f       	mov	r24, r24
    1ec0:	90 e0       	ldi	r25, 0x00	; 0
    1ec2:	20 91 de 05 	lds	r18, 0x05DE
    1ec6:	80 50       	subi	r24, 0x00	; 0
    1ec8:	9a 4f       	sbci	r25, 0xFA	; 250
    1eca:	fc 01       	movw	r30, r24
    1ecc:	20 83       	st	Z, r18
    1ece:	90 91 ff 06 	lds	r25, 0x06FF
    1ed2:	80 91 de 05 	lds	r24, 0x05DE
    1ed6:	89 0f       	add	r24, r25
    1ed8:	80 93 ff 06 	sts	0x06FF, r24
    1edc:	90 91 fa 05 	lds	r25, 0x05FA
    1ee0:	80 91 ff 06 	lds	r24, 0x06FF
    1ee4:	89 0f       	add	r24, r25
    1ee6:	80 93 fa 05 	sts	0x05FA, r24
    1eea:	80 91 fd 05 	lds	r24, 0x05FD
    1eee:	8f 5f       	subi	r24, 0xFF	; 255
    1ef0:	80 93 fd 05 	sts	0x05FD, r24
    1ef4:	80 91 fd 05 	lds	r24, 0x05FD
    1ef8:	8f 3f       	cpi	r24, 0xFF	; 255
    1efa:	11 f4       	brne	.+4      	; 0x1f00 <__stack+0xe01>
/home/becker/async/wcet-benchmarks/benchmarks/PapaBench-0.2m/sw/airborne/autopilot_simulate/main.c:274 (discriminator 1)
    1efc:	10 92 fd 05 	sts	0x05FD, r1
/home/becker/async/wcet-benchmarks/benchmarks/PapaBench-0.2m/sw/airborne/autopilot_simulate/main.c:274 (discriminator 2)
    1f00:	80 91 fd 05 	lds	r24, 0x05FD
    1f04:	88 2f       	mov	r24, r24
    1f06:	90 e0       	ldi	r25, 0x00	; 0
    1f08:	24 ef       	ldi	r18, 0xF4	; 244
    1f0a:	35 e0       	ldi	r19, 0x05	; 5
    1f0c:	f9 01       	movw	r30, r18
    1f0e:	20 81       	ld	r18, Z
    1f10:	80 50       	subi	r24, 0x00	; 0
    1f12:	9a 4f       	sbci	r25, 0xFA	; 250
    1f14:	fc 01       	movw	r30, r24
    1f16:	20 83       	st	Z, r18
    1f18:	84 ef       	ldi	r24, 0xF4	; 244
    1f1a:	95 e0       	ldi	r25, 0x05	; 5
    1f1c:	fc 01       	movw	r30, r24
    1f1e:	90 81       	ld	r25, Z
    1f20:	80 91 ff 06 	lds	r24, 0x06FF
    1f24:	89 0f       	add	r24, r25
    1f26:	80 93 ff 06 	sts	0x06FF, r24
    1f2a:	90 91 fa 05 	lds	r25, 0x05FA
    1f2e:	80 91 ff 06 	lds	r24, 0x06FF
    1f32:	89 0f       	add	r24, r25
    1f34:	80 93 fa 05 	sts	0x05FA, r24
    1f38:	80 91 fd 05 	lds	r24, 0x05FD
    1f3c:	8f 5f       	subi	r24, 0xFF	; 255
    1f3e:	80 93 fd 05 	sts	0x05FD, r24
    1f42:	80 91 fd 05 	lds	r24, 0x05FD
    1f46:	8f 3f       	cpi	r24, 0xFF	; 255
    1f48:	11 f4       	brne	.+4      	; 0x1f4e <__stack+0xe4f>
/home/becker/async/wcet-benchmarks/benchmarks/PapaBench-0.2m/sw/airborne/autopilot_simulate/main.c:274 (discriminator 1)
    1f4a:	10 92 fd 05 	sts	0x05FD, r1
/home/becker/async/wcet-benchmarks/benchmarks/PapaBench-0.2m/sw/airborne/autopilot_simulate/main.c:274 (discriminator 2)
    1f4e:	80 91 fd 05 	lds	r24, 0x05FD
    1f52:	88 2f       	mov	r24, r24
    1f54:	90 e0       	ldi	r25, 0x00	; 0
    1f56:	20 91 f5 05 	lds	r18, 0x05F5
    1f5a:	80 50       	subi	r24, 0x00	; 0
    1f5c:	9a 4f       	sbci	r25, 0xFA	; 250
    1f5e:	fc 01       	movw	r30, r24
    1f60:	20 83       	st	Z, r18
    1f62:	85 ef       	ldi	r24, 0xF5	; 245
    1f64:	95 e0       	ldi	r25, 0x05	; 5
    1f66:	fc 01       	movw	r30, r24
    1f68:	90 81       	ld	r25, Z
    1f6a:	80 91 ff 06 	lds	r24, 0x06FF
    1f6e:	89 0f       	add	r24, r25
    1f70:	80 93 ff 06 	sts	0x06FF, r24
    1f74:	90 91 fa 05 	lds	r25, 0x05FA
    1f78:	80 91 ff 06 	lds	r24, 0x06FF
    1f7c:	89 0f       	add	r24, r25
    1f7e:	80 93 fa 05 	sts	0x05FA, r24
    1f82:	80 91 fd 05 	lds	r24, 0x05FD
    1f86:	8f 5f       	subi	r24, 0xFF	; 255
    1f88:	80 93 fd 05 	sts	0x05FD, r24
    1f8c:	80 91 fd 05 	lds	r24, 0x05FD
    1f90:	8f 3f       	cpi	r24, 0xFF	; 255
    1f92:	11 f4       	brne	.+4      	; 0x1f98 <__stack+0xe99>
/home/becker/async/wcet-benchmarks/benchmarks/PapaBench-0.2m/sw/airborne/autopilot_simulate/main.c:274 (discriminator 1)
    1f94:	10 92 fd 05 	sts	0x05FD, r1
/home/becker/async/wcet-benchmarks/benchmarks/PapaBench-0.2m/sw/airborne/autopilot_simulate/main.c:274 (discriminator 2)
    1f98:	80 91 fd 05 	lds	r24, 0x05FD
    1f9c:	88 2f       	mov	r24, r24
    1f9e:	90 e0       	ldi	r25, 0x00	; 0
    1fa0:	20 91 f6 05 	lds	r18, 0x05F6
    1fa4:	80 50       	subi	r24, 0x00	; 0
    1fa6:	9a 4f       	sbci	r25, 0xFA	; 250
    1fa8:	fc 01       	movw	r30, r24
    1faa:	20 83       	st	Z, r18
    1fac:	86 ef       	ldi	r24, 0xF6	; 246
    1fae:	95 e0       	ldi	r25, 0x05	; 5
    1fb0:	fc 01       	movw	r30, r24
    1fb2:	90 81       	ld	r25, Z
    1fb4:	80 91 ff 06 	lds	r24, 0x06FF
    1fb8:	89 0f       	add	r24, r25
    1fba:	80 93 ff 06 	sts	0x06FF, r24
    1fbe:	90 91 fa 05 	lds	r25, 0x05FA
    1fc2:	80 91 ff 06 	lds	r24, 0x06FF
    1fc6:	89 0f       	add	r24, r25
    1fc8:	80 93 fa 05 	sts	0x05FA, r24
    1fcc:	80 91 fd 05 	lds	r24, 0x05FD
    1fd0:	8f 5f       	subi	r24, 0xFF	; 255
    1fd2:	80 93 fd 05 	sts	0x05FD, r24
    1fd6:	80 91 fd 05 	lds	r24, 0x05FD
    1fda:	8f 3f       	cpi	r24, 0xFF	; 255
    1fdc:	11 f4       	brne	.+4      	; 0x1fe2 <__stack+0xee3>
/home/becker/async/wcet-benchmarks/benchmarks/PapaBench-0.2m/sw/airborne/autopilot_simulate/main.c:274 (discriminator 1)
    1fde:	10 92 fd 05 	sts	0x05FD, r1
/home/becker/async/wcet-benchmarks/benchmarks/PapaBench-0.2m/sw/airborne/autopilot_simulate/main.c:274 (discriminator 2)
    1fe2:	80 91 fd 05 	lds	r24, 0x05FD
    1fe6:	88 2f       	mov	r24, r24
    1fe8:	90 e0       	ldi	r25, 0x00	; 0
    1fea:	20 91 f7 05 	lds	r18, 0x05F7
    1fee:	80 50       	subi	r24, 0x00	; 0
    1ff0:	9a 4f       	sbci	r25, 0xFA	; 250
    1ff2:	fc 01       	movw	r30, r24
    1ff4:	20 83       	st	Z, r18
    1ff6:	87 ef       	ldi	r24, 0xF7	; 247
    1ff8:	95 e0       	ldi	r25, 0x05	; 5
    1ffa:	fc 01       	movw	r30, r24
    1ffc:	90 81       	ld	r25, Z
    1ffe:	80 91 ff 06 	lds	r24, 0x06FF
    2002:	89 0f       	add	r24, r25
    2004:	80 93 ff 06 	sts	0x06FF, r24
    2008:	90 91 fa 05 	lds	r25, 0x05FA
    200c:	80 91 ff 06 	lds	r24, 0x06FF
    2010:	89 0f       	add	r24, r25
    2012:	80 93 fa 05 	sts	0x05FA, r24
    2016:	80 91 fd 05 	lds	r24, 0x05FD
    201a:	8f 5f       	subi	r24, 0xFF	; 255
    201c:	80 93 fd 05 	sts	0x05FD, r24
    2020:	80 91 fd 05 	lds	r24, 0x05FD
    2024:	8f 3f       	cpi	r24, 0xFF	; 255
    2026:	11 f4       	brne	.+4      	; 0x202c <__stack+0xf2d>
/home/becker/async/wcet-benchmarks/benchmarks/PapaBench-0.2m/sw/airborne/autopilot_simulate/main.c:274 (discriminator 1)
    2028:	10 92 fd 05 	sts	0x05FD, r1
/home/becker/async/wcet-benchmarks/benchmarks/PapaBench-0.2m/sw/airborne/autopilot_simulate/main.c:274 (discriminator 2)
    202c:	80 91 fd 05 	lds	r24, 0x05FD
    2030:	88 2f       	mov	r24, r24
    2032:	90 e0       	ldi	r25, 0x00	; 0
    2034:	20 ef       	ldi	r18, 0xF0	; 240
    2036:	35 e0       	ldi	r19, 0x05	; 5
    2038:	f9 01       	movw	r30, r18
    203a:	20 81       	ld	r18, Z
    203c:	80 50       	subi	r24, 0x00	; 0
    203e:	9a 4f       	sbci	r25, 0xFA	; 250
    2040:	fc 01       	movw	r30, r24
    2042:	20 83       	st	Z, r18
    2044:	80 ef       	ldi	r24, 0xF0	; 240
    2046:	95 e0       	ldi	r25, 0x05	; 5
    2048:	fc 01       	movw	r30, r24
    204a:	90 81       	ld	r25, Z
    204c:	80 91 ff 06 	lds	r24, 0x06FF
    2050:	89 0f       	add	r24, r25
    2052:	80 93 ff 06 	sts	0x06FF, r24
    2056:	90 91 fa 05 	lds	r25, 0x05FA
    205a:	80 91 ff 06 	lds	r24, 0x06FF
    205e:	89 0f       	add	r24, r25
    2060:	80 93 fa 05 	sts	0x05FA, r24
    2064:	80 91 fd 05 	lds	r24, 0x05FD
    2068:	8f 5f       	subi	r24, 0xFF	; 255
    206a:	80 93 fd 05 	sts	0x05FD, r24
    206e:	80 91 fd 05 	lds	r24, 0x05FD
    2072:	8f 3f       	cpi	r24, 0xFF	; 255
    2074:	11 f4       	brne	.+4      	; 0x207a <__stack+0xf7b>
/home/becker/async/wcet-benchmarks/benchmarks/PapaBench-0.2m/sw/airborne/autopilot_simulate/main.c:274 (discriminator 1)
    2076:	10 92 fd 05 	sts	0x05FD, r1
/home/becker/async/wcet-benchmarks/benchmarks/PapaBench-0.2m/sw/airborne/autopilot_simulate/main.c:274 (discriminator 2)
    207a:	80 91 fd 05 	lds	r24, 0x05FD
    207e:	88 2f       	mov	r24, r24
    2080:	90 e0       	ldi	r25, 0x00	; 0
    2082:	20 91 f1 05 	lds	r18, 0x05F1
    2086:	80 50       	subi	r24, 0x00	; 0
    2088:	9a 4f       	sbci	r25, 0xFA	; 250
    208a:	fc 01       	movw	r30, r24
    208c:	20 83       	st	Z, r18
    208e:	81 ef       	ldi	r24, 0xF1	; 241
    2090:	95 e0       	ldi	r25, 0x05	; 5
    2092:	fc 01       	movw	r30, r24
    2094:	90 81       	ld	r25, Z
    2096:	80 91 ff 06 	lds	r24, 0x06FF
    209a:	89 0f       	add	r24, r25
    209c:	80 93 ff 06 	sts	0x06FF, r24
    20a0:	90 91 fa 05 	lds	r25, 0x05FA
    20a4:	80 91 ff 06 	lds	r24, 0x06FF
    20a8:	89 0f       	add	r24, r25
    20aa:	80 93 fa 05 	sts	0x05FA, r24
    20ae:	80 91 fd 05 	lds	r24, 0x05FD
    20b2:	8f 5f       	subi	r24, 0xFF	; 255
    20b4:	80 93 fd 05 	sts	0x05FD, r24
    20b8:	80 91 fd 05 	lds	r24, 0x05FD
    20bc:	8f 3f       	cpi	r24, 0xFF	; 255
    20be:	11 f4       	brne	.+4      	; 0x20c4 <__stack+0xfc5>
/home/becker/async/wcet-benchmarks/benchmarks/PapaBench-0.2m/sw/airborne/autopilot_simulate/main.c:274 (discriminator 1)
    20c0:	10 92 fd 05 	sts	0x05FD, r1
/home/becker/async/wcet-benchmarks/benchmarks/PapaBench-0.2m/sw/airborne/autopilot_simulate/main.c:274 (discriminator 2)
    20c4:	80 91 fd 05 	lds	r24, 0x05FD
    20c8:	88 2f       	mov	r24, r24
    20ca:	90 e0       	ldi	r25, 0x00	; 0
    20cc:	20 91 f2 05 	lds	r18, 0x05F2
    20d0:	80 50       	subi	r24, 0x00	; 0
    20d2:	9a 4f       	sbci	r25, 0xFA	; 250
    20d4:	fc 01       	movw	r30, r24
    20d6:	20 83       	st	Z, r18
    20d8:	82 ef       	ldi	r24, 0xF2	; 242
    20da:	95 e0       	ldi	r25, 0x05	; 5
    20dc:	fc 01       	movw	r30, r24
    20de:	90 81       	ld	r25, Z
    20e0:	80 91 ff 06 	lds	r24, 0x06FF
    20e4:	89 0f       	add	r24, r25
    20e6:	80 93 ff 06 	sts	0x06FF, r24
    20ea:	90 91 fa 05 	lds	r25, 0x05FA
    20ee:	80 91 ff 06 	lds	r24, 0x06FF
    20f2:	89 0f       	add	r24, r25
    20f4:	80 93 fa 05 	sts	0x05FA, r24
    20f8:	80 91 fd 05 	lds	r24, 0x05FD
    20fc:	8f 5f       	subi	r24, 0xFF	; 255
    20fe:	80 93 fd 05 	sts	0x05FD, r24
    2102:	80 91 fd 05 	lds	r24, 0x05FD
    2106:	8f 3f       	cpi	r24, 0xFF	; 255
    2108:	11 f4       	brne	.+4      	; 0x210e <__stack+0x100f>
/home/becker/async/wcet-benchmarks/benchmarks/PapaBench-0.2m/sw/airborne/autopilot_simulate/main.c:274 (discriminator 1)
    210a:	10 92 fd 05 	sts	0x05FD, r1
/home/becker/async/wcet-benchmarks/benchmarks/PapaBench-0.2m/sw/airborne/autopilot_simulate/main.c:274 (discriminator 2)
    210e:	80 91 fd 05 	lds	r24, 0x05FD
    2112:	88 2f       	mov	r24, r24
    2114:	90 e0       	ldi	r25, 0x00	; 0
    2116:	20 91 f3 05 	lds	r18, 0x05F3
    211a:	80 50       	subi	r24, 0x00	; 0
    211c:	9a 4f       	sbci	r25, 0xFA	; 250
    211e:	fc 01       	movw	r30, r24
    2120:	20 83       	st	Z, r18
    2122:	83 ef       	ldi	r24, 0xF3	; 243
    2124:	95 e0       	ldi	r25, 0x05	; 5
    2126:	fc 01       	movw	r30, r24
    2128:	90 81       	ld	r25, Z
    212a:	80 91 ff 06 	lds	r24, 0x06FF
    212e:	89 0f       	add	r24, r25
    2130:	80 93 ff 06 	sts	0x06FF, r24
    2134:	90 91 fa 05 	lds	r25, 0x05FA
    2138:	80 91 ff 06 	lds	r24, 0x06FF
    213c:	89 0f       	add	r24, r25
    213e:	80 93 fa 05 	sts	0x05FA, r24
    2142:	80 91 fd 05 	lds	r24, 0x05FD
    2146:	8f 5f       	subi	r24, 0xFF	; 255
    2148:	80 93 fd 05 	sts	0x05FD, r24
    214c:	80 91 fd 05 	lds	r24, 0x05FD
    2150:	8f 3f       	cpi	r24, 0xFF	; 255
    2152:	11 f4       	brne	.+4      	; 0x2158 <__stack+0x1059>
/home/becker/async/wcet-benchmarks/benchmarks/PapaBench-0.2m/sw/airborne/autopilot_simulate/main.c:274 (discriminator 1)
    2154:	10 92 fd 05 	sts	0x05FD, r1
/home/becker/async/wcet-benchmarks/benchmarks/PapaBench-0.2m/sw/airborne/autopilot_simulate/main.c:274 (discriminator 2)
    2158:	80 91 fd 05 	lds	r24, 0x05FD
    215c:	88 2f       	mov	r24, r24
    215e:	90 e0       	ldi	r25, 0x00	; 0
    2160:	20 91 ff 06 	lds	r18, 0x06FF
    2164:	80 50       	subi	r24, 0x00	; 0
    2166:	9a 4f       	sbci	r25, 0xFA	; 250
    2168:	fc 01       	movw	r30, r24
    216a:	20 83       	st	Z, r18
    216c:	80 91 fd 05 	lds	r24, 0x05FD
    2170:	8f 5f       	subi	r24, 0xFF	; 255
    2172:	80 93 fd 05 	sts	0x05FD, r24
    2176:	80 91 fd 05 	lds	r24, 0x05FD
    217a:	8f 3f       	cpi	r24, 0xFF	; 255
    217c:	11 f4       	brne	.+4      	; 0x2182 <__stack+0x1083>
/home/becker/async/wcet-benchmarks/benchmarks/PapaBench-0.2m/sw/airborne/autopilot_simulate/main.c:274 (discriminator 1)
    217e:	10 92 fd 05 	sts	0x05FD, r1
/home/becker/async/wcet-benchmarks/benchmarks/PapaBench-0.2m/sw/airborne/autopilot_simulate/main.c:274 (discriminator 2)
    2182:	80 91 fd 05 	lds	r24, 0x05FD
    2186:	88 2f       	mov	r24, r24
    2188:	90 e0       	ldi	r25, 0x00	; 0
    218a:	20 91 fa 05 	lds	r18, 0x05FA
    218e:	80 50       	subi	r24, 0x00	; 0
    2190:	9a 4f       	sbci	r25, 0xFA	; 250
    2192:	fc 01       	movw	r30, r24
    2194:	20 83       	st	Z, r18
    2196:	80 91 fd 05 	lds	r24, 0x05FD
    219a:	8f 5f       	subi	r24, 0xFF	; 255
    219c:	80 93 fd 05 	sts	0x05FD, r24
    21a0:	80 91 fd 05 	lds	r24, 0x05FD
    21a4:	8f 3f       	cpi	r24, 0xFF	; 255
    21a6:	11 f4       	brne	.+4      	; 0x21ac <__stack+0x10ad>
/home/becker/async/wcet-benchmarks/benchmarks/PapaBench-0.2m/sw/airborne/autopilot_simulate/main.c:274 (discriminator 1)
    21a8:	10 92 fd 05 	sts	0x05FD, r1
/home/becker/async/wcet-benchmarks/benchmarks/PapaBench-0.2m/sw/airborne/autopilot_simulate/main.c:274 (discriminator 2)
    21ac:	89 e5       	ldi	r24, 0x59	; 89
    21ae:	90 e0       	ldi	r25, 0x00	; 0
    21b0:	fc 01       	movw	r30, r24
    21b2:	80 81       	ld	r24, Z
    21b4:	88 2f       	mov	r24, r24
    21b6:	90 e0       	ldi	r25, 0x00	; 0
    21b8:	80 71       	andi	r24, 0x10	; 16
    21ba:	99 27       	eor	r25, r25
    21bc:	00 97       	sbiw	r24, 0x00	; 0
    21be:	79 f5       	brne	.+94     	; 0x221e <__stack+0x111f>
/home/becker/async/wcet-benchmarks/benchmarks/PapaBench-0.2m/sw/airborne/autopilot_simulate/main.c:274 (discriminator 1)
    21c0:	80 91 fe 05 	lds	r24, 0x05FE
    21c4:	88 2f       	mov	r24, r24
    21c6:	90 e0       	ldi	r25, 0x00	; 0
    21c8:	80 50       	subi	r24, 0x00	; 0
    21ca:	9a 4f       	sbci	r25, 0xFA	; 250
    21cc:	fc 01       	movw	r30, r24
    21ce:	80 81       	ld	r24, Z
    21d0:	80 93 fc 05 	sts	0x05FC, r24
    21d4:	10 92 ff 05 	sts	0x05FF, r1
    21d8:	80 91 fe 05 	lds	r24, 0x05FE
    21dc:	8f 5f       	subi	r24, 0xFF	; 255
    21de:	80 93 fe 05 	sts	0x05FE, r24
    21e2:	80 91 fe 05 	lds	r24, 0x05FE
    21e6:	8f 3f       	cpi	r24, 0xFF	; 255
    21e8:	11 f4       	brne	.+4      	; 0x21ee <__stack+0x10ef>
    21ea:	10 92 fe 05 	sts	0x05FE, r1
/home/becker/async/wcet-benchmarks/benchmarks/PapaBench-0.2m/sw/airborne/autopilot_simulate/main.c:274 (discriminator 2)
    21ee:	88 e5       	ldi	r24, 0x58	; 88
    21f0:	90 e0       	ldi	r25, 0x00	; 0
    21f2:	28 e5       	ldi	r18, 0x58	; 88
    21f4:	30 e0       	ldi	r19, 0x00	; 0
    21f6:	f9 01       	movw	r30, r18
    21f8:	20 81       	ld	r18, Z
    21fa:	21 60       	ori	r18, 0x01	; 1
    21fc:	fc 01       	movw	r30, r24
    21fe:	20 83       	st	Z, r18
    2200:	89 e5       	ldi	r24, 0x59	; 89
    2202:	90 e0       	ldi	r25, 0x00	; 0
    2204:	29 e5       	ldi	r18, 0x59	; 89
    2206:	30 e0       	ldi	r19, 0x00	; 0
    2208:	f9 01       	movw	r30, r18
    220a:	20 81       	ld	r18, Z
    220c:	20 61       	ori	r18, 0x10	; 16
    220e:	fc 01       	movw	r30, r24
    2210:	20 83       	st	Z, r18
    2212:	05 c0       	rjmp	.+10     	; 0x221e <__stack+0x111f>
    2214:	80 91 fb 05 	lds	r24, 0x05FB
    2218:	8f 5f       	subi	r24, 0xFF	; 255
    221a:	80 93 fb 05 	sts	0x05FB, r24
    221e:	90 91 d4 01 	lds	r25, 0x01D4
    2222:	8d ec       	ldi	r24, 0xCD	; 205
    2224:	98 9f       	mul	r25, r24
    2226:	81 2d       	mov	r24, r1
    2228:	11 24       	eor	r1, r1
    222a:	86 95       	lsr	r24
    222c:	86 95       	lsr	r24
    222e:	86 95       	lsr	r24
    2230:	88 0f       	add	r24, r24
    2232:	28 2f       	mov	r18, r24
    2234:	22 0f       	add	r18, r18
    2236:	22 0f       	add	r18, r18
    2238:	82 0f       	add	r24, r18
    223a:	f9 2f       	mov	r31, r25
    223c:	f8 1b       	sub	r31, r24
    223e:	8f 2f       	mov	r24, r31
    2240:	83 30       	cpi	r24, 0x03	; 3
    2242:	09 f0       	breq	.+2      	; 0x2246 <__stack+0x1147>
    2244:	ad c3       	rjmp	.+1882   	; 0x29a0 <__stack+0x18a1>
/home/becker/async/wcet-benchmarks/benchmarks/PapaBench-0.2m/sw/airborne/autopilot_simulate/main.c:274 (discriminator 1)
    2246:	90 91 fd 05 	lds	r25, 0x05FD
    224a:	80 91 fe 05 	lds	r24, 0x05FE
    224e:	98 17       	cp	r25, r24
    2250:	a0 f0       	brcs	.+40     	; 0x227a <__stack+0x117b>
    2252:	80 91 fe 05 	lds	r24, 0x05FE
    2256:	28 2f       	mov	r18, r24
    2258:	30 e0       	ldi	r19, 0x00	; 0
    225a:	80 91 fd 05 	lds	r24, 0x05FD
    225e:	88 2f       	mov	r24, r24
    2260:	90 e0       	ldi	r25, 0x00	; 0
    2262:	a9 01       	movw	r20, r18
    2264:	48 1b       	sub	r20, r24
    2266:	59 0b       	sbc	r21, r25
    2268:	ca 01       	movw	r24, r20
    226a:	81 50       	subi	r24, 0x01	; 1
    226c:	9f 4f       	sbci	r25, 0xFF	; 255
    226e:	21 e0       	ldi	r18, 0x01	; 1
    2270:	89 31       	cpi	r24, 0x19	; 25
    2272:	91 05       	cpc	r25, r1
    2274:	9c f4       	brge	.+38     	; 0x229c <__stack+0x119d>
    2276:	20 e0       	ldi	r18, 0x00	; 0
    2278:	11 c0       	rjmp	.+34     	; 0x229c <__stack+0x119d>
/home/becker/async/wcet-benchmarks/benchmarks/PapaBench-0.2m/sw/airborne/autopilot_simulate/main.c:274 (discriminator 2)
    227a:	80 91 fe 05 	lds	r24, 0x05FE
    227e:	28 2f       	mov	r18, r24
    2280:	30 e0       	ldi	r19, 0x00	; 0
    2282:	80 91 fd 05 	lds	r24, 0x05FD
    2286:	88 2f       	mov	r24, r24
    2288:	90 e0       	ldi	r25, 0x00	; 0
    228a:	f9 01       	movw	r30, r18
    228c:	e8 1b       	sub	r30, r24
    228e:	f9 0b       	sbc	r31, r25
    2290:	cf 01       	movw	r24, r30
    2292:	21 e0       	ldi	r18, 0x01	; 1
    2294:	89 31       	cpi	r24, 0x19	; 25
    2296:	91 05       	cpc	r25, r1
    2298:	0c f4       	brge	.+2      	; 0x229c <__stack+0x119d>
    229a:	20 e0       	ldi	r18, 0x00	; 0
/home/becker/async/wcet-benchmarks/benchmarks/PapaBench-0.2m/sw/airborne/autopilot_simulate/main.c:274 (discriminator 3)
    229c:	22 23       	and	r18, r18
    229e:	09 f4       	brne	.+2      	; 0x22a2 <__stack+0x11a3>
    22a0:	7a c3       	rjmp	.+1780   	; 0x2996 <__stack+0x1897>
/home/becker/async/wcet-benchmarks/benchmarks/PapaBench-0.2m/sw/airborne/autopilot_simulate/main.c:274 (discriminator 1)
    22a2:	80 91 fd 05 	lds	r24, 0x05FD
    22a6:	88 2f       	mov	r24, r24
    22a8:	90 e0       	ldi	r25, 0x00	; 0
    22aa:	80 50       	subi	r24, 0x00	; 0
    22ac:	9a 4f       	sbci	r25, 0xFA	; 250
    22ae:	25 e0       	ldi	r18, 0x05	; 5
    22b0:	fc 01       	movw	r30, r24
    22b2:	20 83       	st	Z, r18
    22b4:	80 91 fd 05 	lds	r24, 0x05FD
    22b8:	8f 5f       	subi	r24, 0xFF	; 255
    22ba:	80 93 fd 05 	sts	0x05FD, r24
    22be:	80 91 fd 05 	lds	r24, 0x05FD
    22c2:	8f 3f       	cpi	r24, 0xFF	; 255
    22c4:	11 f4       	brne	.+4      	; 0x22ca <__stack+0x11cb>
    22c6:	10 92 fd 05 	sts	0x05FD, r1
/home/becker/async/wcet-benchmarks/benchmarks/PapaBench-0.2m/sw/airborne/autopilot_simulate/main.c:274 (discriminator 2)
    22ca:	80 91 fd 05 	lds	r24, 0x05FD
    22ce:	88 2f       	mov	r24, r24
    22d0:	90 e0       	ldi	r25, 0x00	; 0
    22d2:	80 50       	subi	r24, 0x00	; 0
    22d4:	9a 4f       	sbci	r25, 0xFA	; 250
    22d6:	22 e1       	ldi	r18, 0x12	; 18
    22d8:	fc 01       	movw	r30, r24
    22da:	20 83       	st	Z, r18
    22dc:	80 91 fd 05 	lds	r24, 0x05FD
    22e0:	8f 5f       	subi	r24, 0xFF	; 255
    22e2:	80 93 fd 05 	sts	0x05FD, r24
    22e6:	80 91 fd 05 	lds	r24, 0x05FD
    22ea:	8f 3f       	cpi	r24, 0xFF	; 255
    22ec:	11 f4       	brne	.+4      	; 0x22f2 <__stack+0x11f3>
/home/becker/async/wcet-benchmarks/benchmarks/PapaBench-0.2m/sw/airborne/autopilot_simulate/main.c:274 (discriminator 1)
    22ee:	10 92 fd 05 	sts	0x05FD, r1
/home/becker/async/wcet-benchmarks/benchmarks/PapaBench-0.2m/sw/airborne/autopilot_simulate/main.c:274 (discriminator 2)
    22f2:	82 e1       	ldi	r24, 0x12	; 18
    22f4:	80 93 ff 06 	sts	0x06FF, r24
    22f8:	82 e1       	ldi	r24, 0x12	; 18
    22fa:	80 93 fa 05 	sts	0x05FA, r24
    22fe:	80 91 fd 05 	lds	r24, 0x05FD
    2302:	88 2f       	mov	r24, r24
    2304:	90 e0       	ldi	r25, 0x00	; 0
    2306:	20 e8       	ldi	r18, 0x80	; 128
    2308:	33 e0       	ldi	r19, 0x03	; 3
    230a:	f9 01       	movw	r30, r18
    230c:	20 81       	ld	r18, Z
    230e:	80 50       	subi	r24, 0x00	; 0
    2310:	9a 4f       	sbci	r25, 0xFA	; 250
    2312:	fc 01       	movw	r30, r24
    2314:	20 83       	st	Z, r18
    2316:	80 e8       	ldi	r24, 0x80	; 128
    2318:	93 e0       	ldi	r25, 0x03	; 3
    231a:	fc 01       	movw	r30, r24
    231c:	90 81       	ld	r25, Z
    231e:	80 91 ff 06 	lds	r24, 0x06FF
    2322:	89 0f       	add	r24, r25
    2324:	80 93 ff 06 	sts	0x06FF, r24
    2328:	90 91 fa 05 	lds	r25, 0x05FA
    232c:	80 91 ff 06 	lds	r24, 0x06FF
    2330:	89 0f       	add	r24, r25
    2332:	80 93 fa 05 	sts	0x05FA, r24
    2336:	80 91 fd 05 	lds	r24, 0x05FD
    233a:	8f 5f       	subi	r24, 0xFF	; 255
    233c:	80 93 fd 05 	sts	0x05FD, r24
    2340:	80 91 fd 05 	lds	r24, 0x05FD
    2344:	8f 3f       	cpi	r24, 0xFF	; 255
    2346:	11 f4       	brne	.+4      	; 0x234c <__stack+0x124d>
/home/becker/async/wcet-benchmarks/benchmarks/PapaBench-0.2m/sw/airborne/autopilot_simulate/main.c:274 (discriminator 1)
    2348:	10 92 fd 05 	sts	0x05FD, r1
/home/becker/async/wcet-benchmarks/benchmarks/PapaBench-0.2m/sw/airborne/autopilot_simulate/main.c:274 (discriminator 2)
    234c:	80 91 fd 05 	lds	r24, 0x05FD
    2350:	88 2f       	mov	r24, r24
    2352:	90 e0       	ldi	r25, 0x00	; 0
    2354:	20 91 81 03 	lds	r18, 0x0381
    2358:	80 50       	subi	r24, 0x00	; 0
    235a:	9a 4f       	sbci	r25, 0xFA	; 250
    235c:	fc 01       	movw	r30, r24
    235e:	20 83       	st	Z, r18
    2360:	81 e8       	ldi	r24, 0x81	; 129
    2362:	93 e0       	ldi	r25, 0x03	; 3
    2364:	fc 01       	movw	r30, r24
    2366:	90 81       	ld	r25, Z
    2368:	80 91 ff 06 	lds	r24, 0x06FF
    236c:	89 0f       	add	r24, r25
    236e:	80 93 ff 06 	sts	0x06FF, r24
    2372:	90 91 fa 05 	lds	r25, 0x05FA
    2376:	80 91 ff 06 	lds	r24, 0x06FF
    237a:	89 0f       	add	r24, r25
    237c:	80 93 fa 05 	sts	0x05FA, r24
    2380:	80 91 fd 05 	lds	r24, 0x05FD
    2384:	8f 5f       	subi	r24, 0xFF	; 255
    2386:	80 93 fd 05 	sts	0x05FD, r24
    238a:	80 91 fd 05 	lds	r24, 0x05FD
    238e:	8f 3f       	cpi	r24, 0xFF	; 255
    2390:	11 f4       	brne	.+4      	; 0x2396 <__stack+0x1297>
/home/becker/async/wcet-benchmarks/benchmarks/PapaBench-0.2m/sw/airborne/autopilot_simulate/main.c:274 (discriminator 1)
    2392:	10 92 fd 05 	sts	0x05FD, r1
/home/becker/async/wcet-benchmarks/benchmarks/PapaBench-0.2m/sw/airborne/autopilot_simulate/main.c:274 (discriminator 2)
    2396:	80 91 fd 05 	lds	r24, 0x05FD
    239a:	88 2f       	mov	r24, r24
    239c:	90 e0       	ldi	r25, 0x00	; 0
    239e:	20 91 82 03 	lds	r18, 0x0382
    23a2:	80 50       	subi	r24, 0x00	; 0
    23a4:	9a 4f       	sbci	r25, 0xFA	; 250
    23a6:	fc 01       	movw	r30, r24
    23a8:	20 83       	st	Z, r18
    23aa:	82 e8       	ldi	r24, 0x82	; 130
    23ac:	93 e0       	ldi	r25, 0x03	; 3
    23ae:	fc 01       	movw	r30, r24
    23b0:	90 81       	ld	r25, Z
    23b2:	80 91 ff 06 	lds	r24, 0x06FF
    23b6:	89 0f       	add	r24, r25
    23b8:	80 93 ff 06 	sts	0x06FF, r24
    23bc:	90 91 fa 05 	lds	r25, 0x05FA
    23c0:	80 91 ff 06 	lds	r24, 0x06FF
    23c4:	89 0f       	add	r24, r25
    23c6:	80 93 fa 05 	sts	0x05FA, r24
    23ca:	80 91 fd 05 	lds	r24, 0x05FD
    23ce:	8f 5f       	subi	r24, 0xFF	; 255
    23d0:	80 93 fd 05 	sts	0x05FD, r24
    23d4:	80 91 fd 05 	lds	r24, 0x05FD
    23d8:	8f 3f       	cpi	r24, 0xFF	; 255
    23da:	11 f4       	brne	.+4      	; 0x23e0 <__stack+0x12e1>
/home/becker/async/wcet-benchmarks/benchmarks/PapaBench-0.2m/sw/airborne/autopilot_simulate/main.c:274 (discriminator 1)
    23dc:	10 92 fd 05 	sts	0x05FD, r1
/home/becker/async/wcet-benchmarks/benchmarks/PapaBench-0.2m/sw/airborne/autopilot_simulate/main.c:274 (discriminator 2)
    23e0:	80 91 fd 05 	lds	r24, 0x05FD
    23e4:	88 2f       	mov	r24, r24
    23e6:	90 e0       	ldi	r25, 0x00	; 0
    23e8:	20 91 83 03 	lds	r18, 0x0383
    23ec:	80 50       	subi	r24, 0x00	; 0
    23ee:	9a 4f       	sbci	r25, 0xFA	; 250
    23f0:	fc 01       	movw	r30, r24
    23f2:	20 83       	st	Z, r18
    23f4:	83 e8       	ldi	r24, 0x83	; 131
    23f6:	93 e0       	ldi	r25, 0x03	; 3
    23f8:	fc 01       	movw	r30, r24
    23fa:	90 81       	ld	r25, Z
    23fc:	80 91 ff 06 	lds	r24, 0x06FF
    2400:	89 0f       	add	r24, r25
    2402:	80 93 ff 06 	sts	0x06FF, r24
    2406:	90 91 fa 05 	lds	r25, 0x05FA
    240a:	80 91 ff 06 	lds	r24, 0x06FF
    240e:	89 0f       	add	r24, r25
    2410:	80 93 fa 05 	sts	0x05FA, r24
    2414:	80 91 fd 05 	lds	r24, 0x05FD
    2418:	8f 5f       	subi	r24, 0xFF	; 255
    241a:	80 93 fd 05 	sts	0x05FD, r24
    241e:	80 91 fd 05 	lds	r24, 0x05FD
    2422:	8f 3f       	cpi	r24, 0xFF	; 255
    2424:	11 f4       	brne	.+4      	; 0x242a <__stack+0x132b>
/home/becker/async/wcet-benchmarks/benchmarks/PapaBench-0.2m/sw/airborne/autopilot_simulate/main.c:274 (discriminator 1)
    2426:	10 92 fd 05 	sts	0x05FD, r1
/home/becker/async/wcet-benchmarks/benchmarks/PapaBench-0.2m/sw/airborne/autopilot_simulate/main.c:274 (discriminator 2)
    242a:	80 91 fd 05 	lds	r24, 0x05FD
    242e:	88 2f       	mov	r24, r24
    2430:	90 e0       	ldi	r25, 0x00	; 0
    2432:	24 e8       	ldi	r18, 0x84	; 132
    2434:	33 e0       	ldi	r19, 0x03	; 3
    2436:	f9 01       	movw	r30, r18
    2438:	20 81       	ld	r18, Z
    243a:	80 50       	subi	r24, 0x00	; 0
    243c:	9a 4f       	sbci	r25, 0xFA	; 250
    243e:	fc 01       	movw	r30, r24
    2440:	20 83       	st	Z, r18
    2442:	84 e8       	ldi	r24, 0x84	; 132
    2444:	93 e0       	ldi	r25, 0x03	; 3
    2446:	fc 01       	movw	r30, r24
    2448:	90 81       	ld	r25, Z
    244a:	80 91 ff 06 	lds	r24, 0x06FF
    244e:	89 0f       	add	r24, r25
    2450:	80 93 ff 06 	sts	0x06FF, r24
    2454:	90 91 fa 05 	lds	r25, 0x05FA
    2458:	80 91 ff 06 	lds	r24, 0x06FF
    245c:	89 0f       	add	r24, r25
    245e:	80 93 fa 05 	sts	0x05FA, r24
    2462:	80 91 fd 05 	lds	r24, 0x05FD
    2466:	8f 5f       	subi	r24, 0xFF	; 255
    2468:	80 93 fd 05 	sts	0x05FD, r24
    246c:	80 91 fd 05 	lds	r24, 0x05FD
    2470:	8f 3f       	cpi	r24, 0xFF	; 255
    2472:	11 f4       	brne	.+4      	; 0x2478 <__stack+0x1379>
/home/becker/async/wcet-benchmarks/benchmarks/PapaBench-0.2m/sw/airborne/autopilot_simulate/main.c:274 (discriminator 1)
    2474:	10 92 fd 05 	sts	0x05FD, r1
/home/becker/async/wcet-benchmarks/benchmarks/PapaBench-0.2m/sw/airborne/autopilot_simulate/main.c:274 (discriminator 2)
    2478:	80 91 fd 05 	lds	r24, 0x05FD
    247c:	88 2f       	mov	r24, r24
    247e:	90 e0       	ldi	r25, 0x00	; 0
    2480:	20 91 85 03 	lds	r18, 0x0385
    2484:	80 50       	subi	r24, 0x00	; 0
    2486:	9a 4f       	sbci	r25, 0xFA	; 250
    2488:	fc 01       	movw	r30, r24
    248a:	20 83       	st	Z, r18
    248c:	85 e8       	ldi	r24, 0x85	; 133
    248e:	93 e0       	ldi	r25, 0x03	; 3
    2490:	fc 01       	movw	r30, r24
    2492:	90 81       	ld	r25, Z
    2494:	80 91 ff 06 	lds	r24, 0x06FF
    2498:	89 0f       	add	r24, r25
    249a:	80 93 ff 06 	sts	0x06FF, r24
    249e:	90 91 fa 05 	lds	r25, 0x05FA
    24a2:	80 91 ff 06 	lds	r24, 0x06FF
    24a6:	89 0f       	add	r24, r25
    24a8:	80 93 fa 05 	sts	0x05FA, r24
    24ac:	80 91 fd 05 	lds	r24, 0x05FD
    24b0:	8f 5f       	subi	r24, 0xFF	; 255
    24b2:	80 93 fd 05 	sts	0x05FD, r24
    24b6:	80 91 fd 05 	lds	r24, 0x05FD
    24ba:	8f 3f       	cpi	r24, 0xFF	; 255
    24bc:	11 f4       	brne	.+4      	; 0x24c2 <__stack+0x13c3>
/home/becker/async/wcet-benchmarks/benchmarks/PapaBench-0.2m/sw/airborne/autopilot_simulate/main.c:274 (discriminator 1)
    24be:	10 92 fd 05 	sts	0x05FD, r1
/home/becker/async/wcet-benchmarks/benchmarks/PapaBench-0.2m/sw/airborne/autopilot_simulate/main.c:274 (discriminator 2)
    24c2:	80 91 fd 05 	lds	r24, 0x05FD
    24c6:	88 2f       	mov	r24, r24
    24c8:	90 e0       	ldi	r25, 0x00	; 0
    24ca:	20 91 86 03 	lds	r18, 0x0386
    24ce:	80 50       	subi	r24, 0x00	; 0
    24d0:	9a 4f       	sbci	r25, 0xFA	; 250
    24d2:	fc 01       	movw	r30, r24
    24d4:	20 83       	st	Z, r18
    24d6:	86 e8       	ldi	r24, 0x86	; 134
    24d8:	93 e0       	ldi	r25, 0x03	; 3
    24da:	fc 01       	movw	r30, r24
    24dc:	90 81       	ld	r25, Z
    24de:	80 91 ff 06 	lds	r24, 0x06FF
    24e2:	89 0f       	add	r24, r25
    24e4:	80 93 ff 06 	sts	0x06FF, r24
    24e8:	90 91 fa 05 	lds	r25, 0x05FA
    24ec:	80 91 ff 06 	lds	r24, 0x06FF
    24f0:	89 0f       	add	r24, r25
    24f2:	80 93 fa 05 	sts	0x05FA, r24
    24f6:	80 91 fd 05 	lds	r24, 0x05FD
    24fa:	8f 5f       	subi	r24, 0xFF	; 255
    24fc:	80 93 fd 05 	sts	0x05FD, r24
    2500:	80 91 fd 05 	lds	r24, 0x05FD
    2504:	8f 3f       	cpi	r24, 0xFF	; 255
    2506:	11 f4       	brne	.+4      	; 0x250c <__stack+0x140d>
/home/becker/async/wcet-benchmarks/benchmarks/PapaBench-0.2m/sw/airborne/autopilot_simulate/main.c:274 (discriminator 1)
    2508:	10 92 fd 05 	sts	0x05FD, r1
/home/becker/async/wcet-benchmarks/benchmarks/PapaBench-0.2m/sw/airborne/autopilot_simulate/main.c:274 (discriminator 2)
    250c:	80 91 fd 05 	lds	r24, 0x05FD
    2510:	88 2f       	mov	r24, r24
    2512:	90 e0       	ldi	r25, 0x00	; 0
    2514:	20 91 87 03 	lds	r18, 0x0387
    2518:	80 50       	subi	r24, 0x00	; 0
    251a:	9a 4f       	sbci	r25, 0xFA	; 250
    251c:	fc 01       	movw	r30, r24
    251e:	20 83       	st	Z, r18
    2520:	87 e8       	ldi	r24, 0x87	; 135
    2522:	93 e0       	ldi	r25, 0x03	; 3
    2524:	fc 01       	movw	r30, r24
    2526:	90 81       	ld	r25, Z
    2528:	80 91 ff 06 	lds	r24, 0x06FF
    252c:	89 0f       	add	r24, r25
    252e:	80 93 ff 06 	sts	0x06FF, r24
    2532:	90 91 fa 05 	lds	r25, 0x05FA
    2536:	80 91 ff 06 	lds	r24, 0x06FF
    253a:	89 0f       	add	r24, r25
    253c:	80 93 fa 05 	sts	0x05FA, r24
    2540:	80 91 fd 05 	lds	r24, 0x05FD
    2544:	8f 5f       	subi	r24, 0xFF	; 255
    2546:	80 93 fd 05 	sts	0x05FD, r24
    254a:	80 91 fd 05 	lds	r24, 0x05FD
    254e:	8f 3f       	cpi	r24, 0xFF	; 255
    2550:	11 f4       	brne	.+4      	; 0x2556 <__stack+0x1457>
/home/becker/async/wcet-benchmarks/benchmarks/PapaBench-0.2m/sw/airborne/autopilot_simulate/main.c:274 (discriminator 1)
    2552:	10 92 fd 05 	sts	0x05FD, r1
/home/becker/async/wcet-benchmarks/benchmarks/PapaBench-0.2m/sw/airborne/autopilot_simulate/main.c:274 (discriminator 2)
    2556:	80 91 fd 05 	lds	r24, 0x05FD
    255a:	88 2f       	mov	r24, r24
    255c:	90 e0       	ldi	r25, 0x00	; 0
    255e:	26 e7       	ldi	r18, 0x76	; 118
    2560:	37 e0       	ldi	r19, 0x07	; 7
    2562:	f9 01       	movw	r30, r18
    2564:	20 81       	ld	r18, Z
    2566:	80 50       	subi	r24, 0x00	; 0
    2568:	9a 4f       	sbci	r25, 0xFA	; 250
    256a:	fc 01       	movw	r30, r24
    256c:	20 83       	st	Z, r18
    256e:	86 e7       	ldi	r24, 0x76	; 118
    2570:	97 e0       	ldi	r25, 0x07	; 7
    2572:	fc 01       	movw	r30, r24
    2574:	90 81       	ld	r25, Z
    2576:	80 91 ff 06 	lds	r24, 0x06FF
    257a:	89 0f       	add	r24, r25
    257c:	80 93 ff 06 	sts	0x06FF, r24
    2580:	90 91 fa 05 	lds	r25, 0x05FA
    2584:	80 91 ff 06 	lds	r24, 0x06FF
    2588:	89 0f       	add	r24, r25
    258a:	80 93 fa 05 	sts	0x05FA, r24
    258e:	80 91 fd 05 	lds	r24, 0x05FD
    2592:	8f 5f       	subi	r24, 0xFF	; 255
    2594:	80 93 fd 05 	sts	0x05FD, r24
    2598:	80 91 fd 05 	lds	r24, 0x05FD
    259c:	8f 3f       	cpi	r24, 0xFF	; 255
    259e:	11 f4       	brne	.+4      	; 0x25a4 <__stack+0x14a5>
/home/becker/async/wcet-benchmarks/benchmarks/PapaBench-0.2m/sw/airborne/autopilot_simulate/main.c:274 (discriminator 1)
    25a0:	10 92 fd 05 	sts	0x05FD, r1
/home/becker/async/wcet-benchmarks/benchmarks/PapaBench-0.2m/sw/airborne/autopilot_simulate/main.c:274 (discriminator 2)
    25a4:	80 91 fd 05 	lds	r24, 0x05FD
    25a8:	88 2f       	mov	r24, r24
    25aa:	90 e0       	ldi	r25, 0x00	; 0
    25ac:	20 91 77 07 	lds	r18, 0x0777
    25b0:	80 50       	subi	r24, 0x00	; 0
    25b2:	9a 4f       	sbci	r25, 0xFA	; 250
    25b4:	fc 01       	movw	r30, r24
    25b6:	20 83       	st	Z, r18
    25b8:	87 e7       	ldi	r24, 0x77	; 119
    25ba:	97 e0       	ldi	r25, 0x07	; 7
    25bc:	fc 01       	movw	r30, r24
    25be:	90 81       	ld	r25, Z
    25c0:	80 91 ff 06 	lds	r24, 0x06FF
    25c4:	89 0f       	add	r24, r25
    25c6:	80 93 ff 06 	sts	0x06FF, r24
    25ca:	90 91 fa 05 	lds	r25, 0x05FA
    25ce:	80 91 ff 06 	lds	r24, 0x06FF
    25d2:	89 0f       	add	r24, r25
    25d4:	80 93 fa 05 	sts	0x05FA, r24
    25d8:	80 91 fd 05 	lds	r24, 0x05FD
    25dc:	8f 5f       	subi	r24, 0xFF	; 255
    25de:	80 93 fd 05 	sts	0x05FD, r24
    25e2:	80 91 fd 05 	lds	r24, 0x05FD
    25e6:	8f 3f       	cpi	r24, 0xFF	; 255
    25e8:	11 f4       	brne	.+4      	; 0x25ee <__stack+0x14ef>
/home/becker/async/wcet-benchmarks/benchmarks/PapaBench-0.2m/sw/airborne/autopilot_simulate/main.c:274 (discriminator 1)
    25ea:	10 92 fd 05 	sts	0x05FD, r1
/home/becker/async/wcet-benchmarks/benchmarks/PapaBench-0.2m/sw/airborne/autopilot_simulate/main.c:274 (discriminator 2)
    25ee:	80 91 fd 05 	lds	r24, 0x05FD
    25f2:	88 2f       	mov	r24, r24
    25f4:	90 e0       	ldi	r25, 0x00	; 0
    25f6:	20 91 78 07 	lds	r18, 0x0778
    25fa:	80 50       	subi	r24, 0x00	; 0
    25fc:	9a 4f       	sbci	r25, 0xFA	; 250
    25fe:	fc 01       	movw	r30, r24
    2600:	20 83       	st	Z, r18
    2602:	88 e7       	ldi	r24, 0x78	; 120
    2604:	97 e0       	ldi	r25, 0x07	; 7
    2606:	fc 01       	movw	r30, r24
    2608:	90 81       	ld	r25, Z
    260a:	80 91 ff 06 	lds	r24, 0x06FF
    260e:	89 0f       	add	r24, r25
    2610:	80 93 ff 06 	sts	0x06FF, r24
    2614:	90 91 fa 05 	lds	r25, 0x05FA
    2618:	80 91 ff 06 	lds	r24, 0x06FF
    261c:	89 0f       	add	r24, r25
    261e:	80 93 fa 05 	sts	0x05FA, r24
    2622:	80 91 fd 05 	lds	r24, 0x05FD
    2626:	8f 5f       	subi	r24, 0xFF	; 255
    2628:	80 93 fd 05 	sts	0x05FD, r24
    262c:	80 91 fd 05 	lds	r24, 0x05FD
    2630:	8f 3f       	cpi	r24, 0xFF	; 255
    2632:	11 f4       	brne	.+4      	; 0x2638 <__stack+0x1539>
/home/becker/async/wcet-benchmarks/benchmarks/PapaBench-0.2m/sw/airborne/autopilot_simulate/main.c:274 (discriminator 1)
    2634:	10 92 fd 05 	sts	0x05FD, r1
/home/becker/async/wcet-benchmarks/benchmarks/PapaBench-0.2m/sw/airborne/autopilot_simulate/main.c:274 (discriminator 2)
    2638:	80 91 fd 05 	lds	r24, 0x05FD
    263c:	88 2f       	mov	r24, r24
    263e:	90 e0       	ldi	r25, 0x00	; 0
    2640:	20 91 79 07 	lds	r18, 0x0779
    2644:	80 50       	subi	r24, 0x00	; 0
    2646:	9a 4f       	sbci	r25, 0xFA	; 250
    2648:	fc 01       	movw	r30, r24
    264a:	20 83       	st	Z, r18
    264c:	89 e7       	ldi	r24, 0x79	; 121
    264e:	97 e0       	ldi	r25, 0x07	; 7
    2650:	fc 01       	movw	r30, r24
    2652:	90 81       	ld	r25, Z
    2654:	80 91 ff 06 	lds	r24, 0x06FF
    2658:	89 0f       	add	r24, r25
    265a:	80 93 ff 06 	sts	0x06FF, r24
    265e:	90 91 fa 05 	lds	r25, 0x05FA
    2662:	80 91 ff 06 	lds	r24, 0x06FF
    2666:	89 0f       	add	r24, r25
    2668:	80 93 fa 05 	sts	0x05FA, r24
    266c:	80 91 fd 05 	lds	r24, 0x05FD
    2670:	8f 5f       	subi	r24, 0xFF	; 255
    2672:	80 93 fd 05 	sts	0x05FD, r24
    2676:	80 91 fd 05 	lds	r24, 0x05FD
    267a:	8f 3f       	cpi	r24, 0xFF	; 255
    267c:	11 f4       	brne	.+4      	; 0x2682 <__stack+0x1583>
/home/becker/async/wcet-benchmarks/benchmarks/PapaBench-0.2m/sw/airborne/autopilot_simulate/main.c:274 (discriminator 1)
    267e:	10 92 fd 05 	sts	0x05FD, r1
/home/becker/async/wcet-benchmarks/benchmarks/PapaBench-0.2m/sw/airborne/autopilot_simulate/main.c:274 (discriminator 2)
    2682:	80 91 fd 05 	lds	r24, 0x05FD
    2686:	88 2f       	mov	r24, r24
    2688:	90 e0       	ldi	r25, 0x00	; 0
    268a:	2e e7       	ldi	r18, 0x7E	; 126
    268c:	37 e0       	ldi	r19, 0x07	; 7
    268e:	f9 01       	movw	r30, r18
    2690:	20 81       	ld	r18, Z
    2692:	80 50       	subi	r24, 0x00	; 0
    2694:	9a 4f       	sbci	r25, 0xFA	; 250
    2696:	fc 01       	movw	r30, r24
    2698:	20 83       	st	Z, r18
    269a:	8e e7       	ldi	r24, 0x7E	; 126
    269c:	97 e0       	ldi	r25, 0x07	; 7
    269e:	fc 01       	movw	r30, r24
    26a0:	90 81       	ld	r25, Z
    26a2:	80 91 ff 06 	lds	r24, 0x06FF
    26a6:	89 0f       	add	r24, r25
    26a8:	80 93 ff 06 	sts	0x06FF, r24
    26ac:	90 91 fa 05 	lds	r25, 0x05FA
    26b0:	80 91 ff 06 	lds	r24, 0x06FF
    26b4:	89 0f       	add	r24, r25
    26b6:	80 93 fa 05 	sts	0x05FA, r24
    26ba:	80 91 fd 05 	lds	r24, 0x05FD
    26be:	8f 5f       	subi	r24, 0xFF	; 255
    26c0:	80 93 fd 05 	sts	0x05FD, r24
    26c4:	80 91 fd 05 	lds	r24, 0x05FD
    26c8:	8f 3f       	cpi	r24, 0xFF	; 255
    26ca:	11 f4       	brne	.+4      	; 0x26d0 <__stack+0x15d1>
/home/becker/async/wcet-benchmarks/benchmarks/PapaBench-0.2m/sw/airborne/autopilot_simulate/main.c:274 (discriminator 1)
    26cc:	10 92 fd 05 	sts	0x05FD, r1
/home/becker/async/wcet-benchmarks/benchmarks/PapaBench-0.2m/sw/airborne/autopilot_simulate/main.c:274 (discriminator 2)
    26d0:	80 91 fd 05 	lds	r24, 0x05FD
    26d4:	88 2f       	mov	r24, r24
    26d6:	90 e0       	ldi	r25, 0x00	; 0
    26d8:	20 91 7f 07 	lds	r18, 0x077F
    26dc:	80 50       	subi	r24, 0x00	; 0
    26de:	9a 4f       	sbci	r25, 0xFA	; 250
    26e0:	fc 01       	movw	r30, r24
    26e2:	20 83       	st	Z, r18
    26e4:	8f e7       	ldi	r24, 0x7F	; 127
    26e6:	97 e0       	ldi	r25, 0x07	; 7
    26e8:	fc 01       	movw	r30, r24
    26ea:	90 81       	ld	r25, Z
    26ec:	80 91 ff 06 	lds	r24, 0x06FF
    26f0:	89 0f       	add	r24, r25
    26f2:	80 93 ff 06 	sts	0x06FF, r24
    26f6:	90 91 fa 05 	lds	r25, 0x05FA
    26fa:	80 91 ff 06 	lds	r24, 0x06FF
    26fe:	89 0f       	add	r24, r25
    2700:	80 93 fa 05 	sts	0x05FA, r24
    2704:	80 91 fd 05 	lds	r24, 0x05FD
    2708:	8f 5f       	subi	r24, 0xFF	; 255
    270a:	80 93 fd 05 	sts	0x05FD, r24
    270e:	80 91 fd 05 	lds	r24, 0x05FD
    2712:	8f 3f       	cpi	r24, 0xFF	; 255
    2714:	11 f4       	brne	.+4      	; 0x271a <__stack+0x161b>
/home/becker/async/wcet-benchmarks/benchmarks/PapaBench-0.2m/sw/airborne/autopilot_simulate/main.c:274 (discriminator 1)
    2716:	10 92 fd 05 	sts	0x05FD, r1
/home/becker/async/wcet-benchmarks/benchmarks/PapaBench-0.2m/sw/airborne/autopilot_simulate/main.c:274 (discriminator 2)
    271a:	80 91 fd 05 	lds	r24, 0x05FD
    271e:	88 2f       	mov	r24, r24
    2720:	90 e0       	ldi	r25, 0x00	; 0
    2722:	20 91 80 07 	lds	r18, 0x0780
    2726:	80 50       	subi	r24, 0x00	; 0
    2728:	9a 4f       	sbci	r25, 0xFA	; 250
    272a:	fc 01       	movw	r30, r24
    272c:	20 83       	st	Z, r18
    272e:	80 e8       	ldi	r24, 0x80	; 128
    2730:	97 e0       	ldi	r25, 0x07	; 7
    2732:	fc 01       	movw	r30, r24
    2734:	90 81       	ld	r25, Z
    2736:	80 91 ff 06 	lds	r24, 0x06FF
    273a:	89 0f       	add	r24, r25
    273c:	80 93 ff 06 	sts	0x06FF, r24
    2740:	90 91 fa 05 	lds	r25, 0x05FA
    2744:	80 91 ff 06 	lds	r24, 0x06FF
    2748:	89 0f       	add	r24, r25
    274a:	80 93 fa 05 	sts	0x05FA, r24
    274e:	80 91 fd 05 	lds	r24, 0x05FD
    2752:	8f 5f       	subi	r24, 0xFF	; 255
    2754:	80 93 fd 05 	sts	0x05FD, r24
    2758:	80 91 fd 05 	lds	r24, 0x05FD
    275c:	8f 3f       	cpi	r24, 0xFF	; 255
    275e:	11 f4       	brne	.+4      	; 0x2764 <__stack+0x1665>
/home/becker/async/wcet-benchmarks/benchmarks/PapaBench-0.2m/sw/airborne/autopilot_simulate/main.c:274 (discriminator 1)
    2760:	10 92 fd 05 	sts	0x05FD, r1
/home/becker/async/wcet-benchmarks/benchmarks/PapaBench-0.2m/sw/airborne/autopilot_simulate/main.c:274 (discriminator 2)
    2764:	80 91 fd 05 	lds	r24, 0x05FD
    2768:	88 2f       	mov	r24, r24
    276a:	90 e0       	ldi	r25, 0x00	; 0
    276c:	20 91 81 07 	lds	r18, 0x0781
    2770:	80 50       	subi	r24, 0x00	; 0
    2772:	9a 4f       	sbci	r25, 0xFA	; 250
    2774:	fc 01       	movw	r30, r24
    2776:	20 83       	st	Z, r18
    2778:	81 e8       	ldi	r24, 0x81	; 129
    277a:	97 e0       	ldi	r25, 0x07	; 7
    277c:	fc 01       	movw	r30, r24
    277e:	90 81       	ld	r25, Z
    2780:	80 91 ff 06 	lds	r24, 0x06FF
    2784:	89 0f       	add	r24, r25
    2786:	80 93 ff 06 	sts	0x06FF, r24
    278a:	90 91 fa 05 	lds	r25, 0x05FA
    278e:	80 91 ff 06 	lds	r24, 0x06FF
    2792:	89 0f       	add	r24, r25
    2794:	80 93 fa 05 	sts	0x05FA, r24
    2798:	80 91 fd 05 	lds	r24, 0x05FD
    279c:	8f 5f       	subi	r24, 0xFF	; 255
    279e:	80 93 fd 05 	sts	0x05FD, r24
    27a2:	80 91 fd 05 	lds	r24, 0x05FD
    27a6:	8f 3f       	cpi	r24, 0xFF	; 255
    27a8:	11 f4       	brne	.+4      	; 0x27ae <__stack+0x16af>
/home/becker/async/wcet-benchmarks/benchmarks/PapaBench-0.2m/sw/airborne/autopilot_simulate/main.c:274 (discriminator 1)
    27aa:	10 92 fd 05 	sts	0x05FD, r1
/home/becker/async/wcet-benchmarks/benchmarks/PapaBench-0.2m/sw/airborne/autopilot_simulate/main.c:274 (discriminator 2)
    27ae:	80 91 fd 05 	lds	r24, 0x05FD
    27b2:	88 2f       	mov	r24, r24
    27b4:	90 e0       	ldi	r25, 0x00	; 0
    27b6:	25 e3       	ldi	r18, 0x35	; 53
    27b8:	31 e0       	ldi	r19, 0x01	; 1
    27ba:	f9 01       	movw	r30, r18
    27bc:	20 81       	ld	r18, Z
    27be:	80 50       	subi	r24, 0x00	; 0
    27c0:	9a 4f       	sbci	r25, 0xFA	; 250
    27c2:	fc 01       	movw	r30, r24
    27c4:	20 83       	st	Z, r18
    27c6:	85 e3       	ldi	r24, 0x35	; 53
    27c8:	91 e0       	ldi	r25, 0x01	; 1
    27ca:	fc 01       	movw	r30, r24
    27cc:	90 81       	ld	r25, Z
    27ce:	80 91 ff 06 	lds	r24, 0x06FF
    27d2:	89 0f       	add	r24, r25
    27d4:	80 93 ff 06 	sts	0x06FF, r24
    27d8:	90 91 fa 05 	lds	r25, 0x05FA
    27dc:	80 91 ff 06 	lds	r24, 0x06FF
    27e0:	89 0f       	add	r24, r25
    27e2:	80 93 fa 05 	sts	0x05FA, r24
    27e6:	80 91 fd 05 	lds	r24, 0x05FD
    27ea:	8f 5f       	subi	r24, 0xFF	; 255
    27ec:	80 93 fd 05 	sts	0x05FD, r24
    27f0:	80 91 fd 05 	lds	r24, 0x05FD
    27f4:	8f 3f       	cpi	r24, 0xFF	; 255
    27f6:	11 f4       	brne	.+4      	; 0x27fc <__stack+0x16fd>
/home/becker/async/wcet-benchmarks/benchmarks/PapaBench-0.2m/sw/airborne/autopilot_simulate/main.c:274 (discriminator 1)
    27f8:	10 92 fd 05 	sts	0x05FD, r1
/home/becker/async/wcet-benchmarks/benchmarks/PapaBench-0.2m/sw/airborne/autopilot_simulate/main.c:274 (discriminator 2)
    27fc:	80 91 fd 05 	lds	r24, 0x05FD
    2800:	88 2f       	mov	r24, r24
    2802:	90 e0       	ldi	r25, 0x00	; 0
    2804:	20 91 36 01 	lds	r18, 0x0136
    2808:	80 50       	subi	r24, 0x00	; 0
    280a:	9a 4f       	sbci	r25, 0xFA	; 250
    280c:	fc 01       	movw	r30, r24
    280e:	20 83       	st	Z, r18
    2810:	86 e3       	ldi	r24, 0x36	; 54
    2812:	91 e0       	ldi	r25, 0x01	; 1
    2814:	fc 01       	movw	r30, r24
    2816:	90 81       	ld	r25, Z
    2818:	80 91 ff 06 	lds	r24, 0x06FF
    281c:	89 0f       	add	r24, r25
    281e:	80 93 ff 06 	sts	0x06FF, r24
    2822:	90 91 fa 05 	lds	r25, 0x05FA
    2826:	80 91 ff 06 	lds	r24, 0x06FF
    282a:	89 0f       	add	r24, r25
    282c:	80 93 fa 05 	sts	0x05FA, r24
    2830:	80 91 fd 05 	lds	r24, 0x05FD
    2834:	8f 5f       	subi	r24, 0xFF	; 255
    2836:	80 93 fd 05 	sts	0x05FD, r24
    283a:	80 91 fd 05 	lds	r24, 0x05FD
    283e:	8f 3f       	cpi	r24, 0xFF	; 255
    2840:	11 f4       	brne	.+4      	; 0x2846 <__stack+0x1747>
/home/becker/async/wcet-benchmarks/benchmarks/PapaBench-0.2m/sw/airborne/autopilot_simulate/main.c:274 (discriminator 1)
    2842:	10 92 fd 05 	sts	0x05FD, r1
/home/becker/async/wcet-benchmarks/benchmarks/PapaBench-0.2m/sw/airborne/autopilot_simulate/main.c:274 (discriminator 2)
    2846:	80 91 fd 05 	lds	r24, 0x05FD
    284a:	88 2f       	mov	r24, r24
    284c:	90 e0       	ldi	r25, 0x00	; 0
    284e:	20 91 37 01 	lds	r18, 0x0137
    2852:	80 50       	subi	r24, 0x00	; 0
    2854:	9a 4f       	sbci	r25, 0xFA	; 250
    2856:	fc 01       	movw	r30, r24
    2858:	20 83       	st	Z, r18
    285a:	87 e3       	ldi	r24, 0x37	; 55
    285c:	91 e0       	ldi	r25, 0x01	; 1
    285e:	fc 01       	movw	r30, r24
    2860:	90 81       	ld	r25, Z
    2862:	80 91 ff 06 	lds	r24, 0x06FF
    2866:	89 0f       	add	r24, r25
    2868:	80 93 ff 06 	sts	0x06FF, r24
    286c:	90 91 fa 05 	lds	r25, 0x05FA
    2870:	80 91 ff 06 	lds	r24, 0x06FF
    2874:	89 0f       	add	r24, r25
    2876:	80 93 fa 05 	sts	0x05FA, r24
    287a:	80 91 fd 05 	lds	r24, 0x05FD
    287e:	8f 5f       	subi	r24, 0xFF	; 255
    2880:	80 93 fd 05 	sts	0x05FD, r24
    2884:	80 91 fd 05 	lds	r24, 0x05FD
    2888:	8f 3f       	cpi	r24, 0xFF	; 255
    288a:	11 f4       	brne	.+4      	; 0x2890 <__stack+0x1791>
/home/becker/async/wcet-benchmarks/benchmarks/PapaBench-0.2m/sw/airborne/autopilot_simulate/main.c:274 (discriminator 1)
    288c:	10 92 fd 05 	sts	0x05FD, r1
/home/becker/async/wcet-benchmarks/benchmarks/PapaBench-0.2m/sw/airborne/autopilot_simulate/main.c:274 (discriminator 2)
    2890:	80 91 fd 05 	lds	r24, 0x05FD
    2894:	88 2f       	mov	r24, r24
    2896:	90 e0       	ldi	r25, 0x00	; 0
    2898:	20 91 38 01 	lds	r18, 0x0138
    289c:	80 50       	subi	r24, 0x00	; 0
    289e:	9a 4f       	sbci	r25, 0xFA	; 250
    28a0:	fc 01       	movw	r30, r24
    28a2:	20 83       	st	Z, r18
    28a4:	88 e3       	ldi	r24, 0x38	; 56
    28a6:	91 e0       	ldi	r25, 0x01	; 1
    28a8:	fc 01       	movw	r30, r24
    28aa:	90 81       	ld	r25, Z
    28ac:	80 91 ff 06 	lds	r24, 0x06FF
    28b0:	89 0f       	add	r24, r25
    28b2:	80 93 ff 06 	sts	0x06FF, r24
    28b6:	90 91 fa 05 	lds	r25, 0x05FA
    28ba:	80 91 ff 06 	lds	r24, 0x06FF
    28be:	89 0f       	add	r24, r25
    28c0:	80 93 fa 05 	sts	0x05FA, r24
    28c4:	80 91 fd 05 	lds	r24, 0x05FD
    28c8:	8f 5f       	subi	r24, 0xFF	; 255
    28ca:	80 93 fd 05 	sts	0x05FD, r24
    28ce:	80 91 fd 05 	lds	r24, 0x05FD
    28d2:	8f 3f       	cpi	r24, 0xFF	; 255
    28d4:	11 f4       	brne	.+4      	; 0x28da <__stack+0x17db>
/home/becker/async/wcet-benchmarks/benchmarks/PapaBench-0.2m/sw/airborne/autopilot_simulate/main.c:274 (discriminator 1)
    28d6:	10 92 fd 05 	sts	0x05FD, r1
/home/becker/async/wcet-benchmarks/benchmarks/PapaBench-0.2m/sw/airborne/autopilot_simulate/main.c:274 (discriminator 2)
    28da:	80 91 fd 05 	lds	r24, 0x05FD
    28de:	88 2f       	mov	r24, r24
    28e0:	90 e0       	ldi	r25, 0x00	; 0
    28e2:	20 91 ff 06 	lds	r18, 0x06FF
    28e6:	80 50       	subi	r24, 0x00	; 0
    28e8:	9a 4f       	sbci	r25, 0xFA	; 250
    28ea:	fc 01       	movw	r30, r24
    28ec:	20 83       	st	Z, r18
    28ee:	80 91 fd 05 	lds	r24, 0x05FD
    28f2:	8f 5f       	subi	r24, 0xFF	; 255
    28f4:	80 93 fd 05 	sts	0x05FD, r24
    28f8:	80 91 fd 05 	lds	r24, 0x05FD
    28fc:	8f 3f       	cpi	r24, 0xFF	; 255
    28fe:	11 f4       	brne	.+4      	; 0x2904 <__stack+0x1805>
/home/becker/async/wcet-benchmarks/benchmarks/PapaBench-0.2m/sw/airborne/autopilot_simulate/main.c:274 (discriminator 1)
    2900:	10 92 fd 05 	sts	0x05FD, r1
/home/becker/async/wcet-benchmarks/benchmarks/PapaBench-0.2m/sw/airborne/autopilot_simulate/main.c:274 (discriminator 2)
    2904:	80 91 fd 05 	lds	r24, 0x05FD
    2908:	88 2f       	mov	r24, r24
    290a:	90 e0       	ldi	r25, 0x00	; 0
    290c:	20 91 fa 05 	lds	r18, 0x05FA
    2910:	80 50       	subi	r24, 0x00	; 0
    2912:	9a 4f       	sbci	r25, 0xFA	; 250
    2914:	fc 01       	movw	r30, r24
    2916:	20 83       	st	Z, r18
    2918:	80 91 fd 05 	lds	r24, 0x05FD
    291c:	8f 5f       	subi	r24, 0xFF	; 255
    291e:	80 93 fd 05 	sts	0x05FD, r24
    2922:	80 91 fd 05 	lds	r24, 0x05FD
    2926:	8f 3f       	cpi	r24, 0xFF	; 255
    2928:	11 f4       	brne	.+4      	; 0x292e <__stack+0x182f>
/home/becker/async/wcet-benchmarks/benchmarks/PapaBench-0.2m/sw/airborne/autopilot_simulate/main.c:274 (discriminator 1)
    292a:	10 92 fd 05 	sts	0x05FD, r1
/home/becker/async/wcet-benchmarks/benchmarks/PapaBench-0.2m/sw/airborne/autopilot_simulate/main.c:274 (discriminator 2)
    292e:	89 e5       	ldi	r24, 0x59	; 89
    2930:	90 e0       	ldi	r25, 0x00	; 0
    2932:	fc 01       	movw	r30, r24
    2934:	80 81       	ld	r24, Z
    2936:	88 2f       	mov	r24, r24
    2938:	90 e0       	ldi	r25, 0x00	; 0
    293a:	80 71       	andi	r24, 0x10	; 16
    293c:	99 27       	eor	r25, r25
    293e:	00 97       	sbiw	r24, 0x00	; 0
    2940:	79 f5       	brne	.+94     	; 0x29a0 <__stack+0x18a1>
/home/becker/async/wcet-benchmarks/benchmarks/PapaBench-0.2m/sw/airborne/autopilot_simulate/main.c:274 (discriminator 1)
    2942:	80 91 fe 05 	lds	r24, 0x05FE
    2946:	88 2f       	mov	r24, r24
    2948:	90 e0       	ldi	r25, 0x00	; 0
    294a:	80 50       	subi	r24, 0x00	; 0
    294c:	9a 4f       	sbci	r25, 0xFA	; 250
    294e:	fc 01       	movw	r30, r24
    2950:	80 81       	ld	r24, Z
    2952:	80 93 fc 05 	sts	0x05FC, r24
    2956:	10 92 ff 05 	sts	0x05FF, r1
    295a:	80 91 fe 05 	lds	r24, 0x05FE
    295e:	8f 5f       	subi	r24, 0xFF	; 255
    2960:	80 93 fe 05 	sts	0x05FE, r24
    2964:	80 91 fe 05 	lds	r24, 0x05FE
    2968:	8f 3f       	cpi	r24, 0xFF	; 255
    296a:	11 f4       	brne	.+4      	; 0x2970 <__stack+0x1871>
    296c:	10 92 fe 05 	sts	0x05FE, r1
/home/becker/async/wcet-benchmarks/benchmarks/PapaBench-0.2m/sw/airborne/autopilot_simulate/main.c:274 (discriminator 2)
    2970:	88 e5       	ldi	r24, 0x58	; 88
    2972:	90 e0       	ldi	r25, 0x00	; 0
    2974:	28 e5       	ldi	r18, 0x58	; 88
    2976:	30 e0       	ldi	r19, 0x00	; 0
    2978:	f9 01       	movw	r30, r18
    297a:	20 81       	ld	r18, Z
    297c:	21 60       	ori	r18, 0x01	; 1
    297e:	fc 01       	movw	r30, r24
    2980:	20 83       	st	Z, r18
    2982:	89 e5       	ldi	r24, 0x59	; 89
    2984:	90 e0       	ldi	r25, 0x00	; 0
    2986:	29 e5       	ldi	r18, 0x59	; 89
    2988:	30 e0       	ldi	r19, 0x00	; 0
    298a:	f9 01       	movw	r30, r18
    298c:	20 81       	ld	r18, Z
    298e:	20 61       	ori	r18, 0x10	; 16
    2990:	fc 01       	movw	r30, r24
    2992:	20 83       	st	Z, r18
    2994:	05 c0       	rjmp	.+10     	; 0x29a0 <__stack+0x18a1>
    2996:	80 91 fb 05 	lds	r24, 0x05FB
    299a:	8f 5f       	subi	r24, 0xFF	; 255
    299c:	80 93 fb 05 	sts	0x05FB, r24
    29a0:	90 91 d4 01 	lds	r25, 0x01D4
    29a4:	8d ec       	ldi	r24, 0xCD	; 205
    29a6:	98 9f       	mul	r25, r24
    29a8:	81 2d       	mov	r24, r1
    29aa:	11 24       	eor	r1, r1
    29ac:	82 95       	swap	r24
    29ae:	8f 70       	andi	r24, 0x0F	; 15
    29b0:	88 0f       	add	r24, r24
    29b2:	88 0f       	add	r24, r24
    29b4:	28 2f       	mov	r18, r24
    29b6:	22 0f       	add	r18, r18
    29b8:	22 0f       	add	r18, r18
    29ba:	82 0f       	add	r24, r18
    29bc:	f9 2f       	mov	r31, r25
    29be:	f8 1b       	sub	r31, r24
    29c0:	8f 2f       	mov	r24, r31
    29c2:	88 30       	cpi	r24, 0x08	; 8
    29c4:	09 f0       	breq	.+2      	; 0x29c8 <__stack+0x18c9>
    29c6:	eb c1       	rjmp	.+982    	; 0x2d9e <__stack+0x1c9f>
/home/becker/async/wcet-benchmarks/benchmarks/PapaBench-0.2m/sw/airborne/autopilot_simulate/main.c:274 (discriminator 1)
    29c8:	90 91 fd 05 	lds	r25, 0x05FD
    29cc:	80 91 fe 05 	lds	r24, 0x05FE
    29d0:	98 17       	cp	r25, r24
    29d2:	a0 f0       	brcs	.+40     	; 0x29fc <__stack+0x18fd>
    29d4:	80 91 fe 05 	lds	r24, 0x05FE
    29d8:	28 2f       	mov	r18, r24
    29da:	30 e0       	ldi	r19, 0x00	; 0
    29dc:	80 91 fd 05 	lds	r24, 0x05FD
    29e0:	88 2f       	mov	r24, r24
    29e2:	90 e0       	ldi	r25, 0x00	; 0
    29e4:	a9 01       	movw	r20, r18
    29e6:	48 1b       	sub	r20, r24
    29e8:	59 0b       	sbc	r21, r25
    29ea:	ca 01       	movw	r24, r20
    29ec:	81 50       	subi	r24, 0x01	; 1
    29ee:	9f 4f       	sbci	r25, 0xFF	; 255
    29f0:	21 e0       	ldi	r18, 0x01	; 1
    29f2:	8d 30       	cpi	r24, 0x0D	; 13
    29f4:	91 05       	cpc	r25, r1
    29f6:	9c f4       	brge	.+38     	; 0x2a1e <__stack+0x191f>
    29f8:	20 e0       	ldi	r18, 0x00	; 0
    29fa:	11 c0       	rjmp	.+34     	; 0x2a1e <__stack+0x191f>
/home/becker/async/wcet-benchmarks/benchmarks/PapaBench-0.2m/sw/airborne/autopilot_simulate/main.c:274 (discriminator 2)
    29fc:	80 91 fe 05 	lds	r24, 0x05FE
    2a00:	28 2f       	mov	r18, r24
    2a02:	30 e0       	ldi	r19, 0x00	; 0
    2a04:	80 91 fd 05 	lds	r24, 0x05FD
    2a08:	88 2f       	mov	r24, r24
    2a0a:	90 e0       	ldi	r25, 0x00	; 0
    2a0c:	f9 01       	movw	r30, r18
    2a0e:	e8 1b       	sub	r30, r24
    2a10:	f9 0b       	sbc	r31, r25
    2a12:	cf 01       	movw	r24, r30
    2a14:	21 e0       	ldi	r18, 0x01	; 1
    2a16:	8d 30       	cpi	r24, 0x0D	; 13
    2a18:	91 05       	cpc	r25, r1
    2a1a:	0c f4       	brge	.+2      	; 0x2a1e <__stack+0x191f>
    2a1c:	20 e0       	ldi	r18, 0x00	; 0
/home/becker/async/wcet-benchmarks/benchmarks/PapaBench-0.2m/sw/airborne/autopilot_simulate/main.c:274 (discriminator 3)
    2a1e:	22 23       	and	r18, r18
    2a20:	09 f4       	brne	.+2      	; 0x2a24 <__stack+0x1925>
    2a22:	b8 c1       	rjmp	.+880    	; 0x2d94 <__stack+0x1c95>
/home/becker/async/wcet-benchmarks/benchmarks/PapaBench-0.2m/sw/airborne/autopilot_simulate/main.c:274 (discriminator 1)
    2a24:	80 91 fd 05 	lds	r24, 0x05FD
    2a28:	88 2f       	mov	r24, r24
    2a2a:	90 e0       	ldi	r25, 0x00	; 0
    2a2c:	80 50       	subi	r24, 0x00	; 0
    2a2e:	9a 4f       	sbci	r25, 0xFA	; 250
    2a30:	25 e0       	ldi	r18, 0x05	; 5
    2a32:	fc 01       	movw	r30, r24
    2a34:	20 83       	st	Z, r18
    2a36:	80 91 fd 05 	lds	r24, 0x05FD
    2a3a:	8f 5f       	subi	r24, 0xFF	; 255
    2a3c:	80 93 fd 05 	sts	0x05FD, r24
    2a40:	80 91 fd 05 	lds	r24, 0x05FD
    2a44:	8f 3f       	cpi	r24, 0xFF	; 255
    2a46:	11 f4       	brne	.+4      	; 0x2a4c <__stack+0x194d>
    2a48:	10 92 fd 05 	sts	0x05FD, r1
/home/becker/async/wcet-benchmarks/benchmarks/PapaBench-0.2m/sw/airborne/autopilot_simulate/main.c:274 (discriminator 2)
    2a4c:	80 91 fd 05 	lds	r24, 0x05FD
    2a50:	88 2f       	mov	r24, r24
    2a52:	90 e0       	ldi	r25, 0x00	; 0
    2a54:	80 50       	subi	r24, 0x00	; 0
    2a56:	9a 4f       	sbci	r25, 0xFA	; 250
    2a58:	2c e0       	ldi	r18, 0x0C	; 12
    2a5a:	fc 01       	movw	r30, r24
    2a5c:	20 83       	st	Z, r18
    2a5e:	80 91 fd 05 	lds	r24, 0x05FD
    2a62:	8f 5f       	subi	r24, 0xFF	; 255
    2a64:	80 93 fd 05 	sts	0x05FD, r24
    2a68:	80 91 fd 05 	lds	r24, 0x05FD
    2a6c:	8f 3f       	cpi	r24, 0xFF	; 255
    2a6e:	11 f4       	brne	.+4      	; 0x2a74 <__stack+0x1975>
/home/becker/async/wcet-benchmarks/benchmarks/PapaBench-0.2m/sw/airborne/autopilot_simulate/main.c:274 (discriminator 1)
    2a70:	10 92 fd 05 	sts	0x05FD, r1
/home/becker/async/wcet-benchmarks/benchmarks/PapaBench-0.2m/sw/airborne/autopilot_simulate/main.c:274 (discriminator 2)
    2a74:	8c e0       	ldi	r24, 0x0C	; 12
    2a76:	80 93 ff 06 	sts	0x06FF, r24
    2a7a:	8c e0       	ldi	r24, 0x0C	; 12
    2a7c:	80 93 fa 05 	sts	0x05FA, r24
    2a80:	80 91 fd 05 	lds	r24, 0x05FD
    2a84:	88 2f       	mov	r24, r24
    2a86:	90 e0       	ldi	r25, 0x00	; 0
    2a88:	20 91 f9 05 	lds	r18, 0x05F9
    2a8c:	80 50       	subi	r24, 0x00	; 0
    2a8e:	9a 4f       	sbci	r25, 0xFA	; 250
    2a90:	fc 01       	movw	r30, r24
    2a92:	20 83       	st	Z, r18
    2a94:	90 91 ff 06 	lds	r25, 0x06FF
    2a98:	80 91 f9 05 	lds	r24, 0x05F9
    2a9c:	89 0f       	add	r24, r25
    2a9e:	80 93 ff 06 	sts	0x06FF, r24
    2aa2:	90 91 fa 05 	lds	r25, 0x05FA
    2aa6:	80 91 ff 06 	lds	r24, 0x06FF
    2aaa:	89 0f       	add	r24, r25
    2aac:	80 93 fa 05 	sts	0x05FA, r24
    2ab0:	80 91 fd 05 	lds	r24, 0x05FD
    2ab4:	8f 5f       	subi	r24, 0xFF	; 255
    2ab6:	80 93 fd 05 	sts	0x05FD, r24
    2aba:	80 91 fd 05 	lds	r24, 0x05FD
    2abe:	8f 3f       	cpi	r24, 0xFF	; 255
    2ac0:	11 f4       	brne	.+4      	; 0x2ac6 <__stack+0x19c7>
/home/becker/async/wcet-benchmarks/benchmarks/PapaBench-0.2m/sw/airborne/autopilot_simulate/main.c:274 (discriminator 1)
    2ac2:	10 92 fd 05 	sts	0x05FD, r1
/home/becker/async/wcet-benchmarks/benchmarks/PapaBench-0.2m/sw/airborne/autopilot_simulate/main.c:274 (discriminator 2)
    2ac6:	80 91 fd 05 	lds	r24, 0x05FD
    2aca:	88 2f       	mov	r24, r24
    2acc:	90 e0       	ldi	r25, 0x00	; 0
    2ace:	2c e9       	ldi	r18, 0x9C	; 156
    2ad0:	37 e0       	ldi	r19, 0x07	; 7
    2ad2:	f9 01       	movw	r30, r18
    2ad4:	20 81       	ld	r18, Z
    2ad6:	80 50       	subi	r24, 0x00	; 0
    2ad8:	9a 4f       	sbci	r25, 0xFA	; 250
    2ada:	fc 01       	movw	r30, r24
    2adc:	20 83       	st	Z, r18
    2ade:	8c e9       	ldi	r24, 0x9C	; 156
    2ae0:	97 e0       	ldi	r25, 0x07	; 7
    2ae2:	fc 01       	movw	r30, r24
    2ae4:	90 81       	ld	r25, Z
    2ae6:	80 91 ff 06 	lds	r24, 0x06FF
    2aea:	89 0f       	add	r24, r25
    2aec:	80 93 ff 06 	sts	0x06FF, r24
    2af0:	90 91 fa 05 	lds	r25, 0x05FA
    2af4:	80 91 ff 06 	lds	r24, 0x06FF
    2af8:	89 0f       	add	r24, r25
    2afa:	80 93 fa 05 	sts	0x05FA, r24
    2afe:	80 91 fd 05 	lds	r24, 0x05FD
    2b02:	8f 5f       	subi	r24, 0xFF	; 255
    2b04:	80 93 fd 05 	sts	0x05FD, r24
    2b08:	80 91 fd 05 	lds	r24, 0x05FD
    2b0c:	8f 3f       	cpi	r24, 0xFF	; 255
    2b0e:	11 f4       	brne	.+4      	; 0x2b14 <__stack+0x1a15>
/home/becker/async/wcet-benchmarks/benchmarks/PapaBench-0.2m/sw/airborne/autopilot_simulate/main.c:274 (discriminator 1)
    2b10:	10 92 fd 05 	sts	0x05FD, r1
/home/becker/async/wcet-benchmarks/benchmarks/PapaBench-0.2m/sw/airborne/autopilot_simulate/main.c:274 (discriminator 2)
    2b14:	80 91 fd 05 	lds	r24, 0x05FD
    2b18:	88 2f       	mov	r24, r24
    2b1a:	90 e0       	ldi	r25, 0x00	; 0
    2b1c:	20 91 9d 07 	lds	r18, 0x079D
    2b20:	80 50       	subi	r24, 0x00	; 0
    2b22:	9a 4f       	sbci	r25, 0xFA	; 250
    2b24:	fc 01       	movw	r30, r24
    2b26:	20 83       	st	Z, r18
    2b28:	8d e9       	ldi	r24, 0x9D	; 157
    2b2a:	97 e0       	ldi	r25, 0x07	; 7
    2b2c:	fc 01       	movw	r30, r24
    2b2e:	90 81       	ld	r25, Z
    2b30:	80 91 ff 06 	lds	r24, 0x06FF
    2b34:	89 0f       	add	r24, r25
    2b36:	80 93 ff 06 	sts	0x06FF, r24
    2b3a:	90 91 fa 05 	lds	r25, 0x05FA
    2b3e:	80 91 ff 06 	lds	r24, 0x06FF
    2b42:	89 0f       	add	r24, r25
    2b44:	80 93 fa 05 	sts	0x05FA, r24
    2b48:	80 91 fd 05 	lds	r24, 0x05FD
    2b4c:	8f 5f       	subi	r24, 0xFF	; 255
    2b4e:	80 93 fd 05 	sts	0x05FD, r24
    2b52:	80 91 fd 05 	lds	r24, 0x05FD
    2b56:	8f 3f       	cpi	r24, 0xFF	; 255
    2b58:	11 f4       	brne	.+4      	; 0x2b5e <__stack+0x1a5f>
/home/becker/async/wcet-benchmarks/benchmarks/PapaBench-0.2m/sw/airborne/autopilot_simulate/main.c:274 (discriminator 1)
    2b5a:	10 92 fd 05 	sts	0x05FD, r1
/home/becker/async/wcet-benchmarks/benchmarks/PapaBench-0.2m/sw/airborne/autopilot_simulate/main.c:274 (discriminator 2)
    2b5e:	80 91 fd 05 	lds	r24, 0x05FD
    2b62:	88 2f       	mov	r24, r24
    2b64:	90 e0       	ldi	r25, 0x00	; 0
    2b66:	20 91 d2 01 	lds	r18, 0x01D2
    2b6a:	80 50       	subi	r24, 0x00	; 0
    2b6c:	9a 4f       	sbci	r25, 0xFA	; 250
    2b6e:	fc 01       	movw	r30, r24
    2b70:	20 83       	st	Z, r18
    2b72:	82 ed       	ldi	r24, 0xD2	; 210
    2b74:	91 e0       	ldi	r25, 0x01	; 1
    2b76:	fc 01       	movw	r30, r24
    2b78:	90 81       	ld	r25, Z
    2b7a:	80 91 ff 06 	lds	r24, 0x06FF
    2b7e:	89 0f       	add	r24, r25
    2b80:	80 93 ff 06 	sts	0x06FF, r24
    2b84:	90 91 fa 05 	lds	r25, 0x05FA
    2b88:	80 91 ff 06 	lds	r24, 0x06FF
    2b8c:	89 0f       	add	r24, r25
    2b8e:	80 93 fa 05 	sts	0x05FA, r24
    2b92:	80 91 fd 05 	lds	r24, 0x05FD
    2b96:	8f 5f       	subi	r24, 0xFF	; 255
    2b98:	80 93 fd 05 	sts	0x05FD, r24
    2b9c:	80 91 fd 05 	lds	r24, 0x05FD
    2ba0:	8f 3f       	cpi	r24, 0xFF	; 255
    2ba2:	11 f4       	brne	.+4      	; 0x2ba8 <__stack+0x1aa9>
/home/becker/async/wcet-benchmarks/benchmarks/PapaBench-0.2m/sw/airborne/autopilot_simulate/main.c:274 (discriminator 1)
    2ba4:	10 92 fd 05 	sts	0x05FD, r1
/home/becker/async/wcet-benchmarks/benchmarks/PapaBench-0.2m/sw/airborne/autopilot_simulate/main.c:274 (discriminator 2)
    2ba8:	80 91 fd 05 	lds	r24, 0x05FD
    2bac:	88 2f       	mov	r24, r24
    2bae:	90 e0       	ldi	r25, 0x00	; 0
    2bb0:	26 e9       	ldi	r18, 0x96	; 150
    2bb2:	37 e0       	ldi	r19, 0x07	; 7
    2bb4:	f9 01       	movw	r30, r18
    2bb6:	20 81       	ld	r18, Z
    2bb8:	80 50       	subi	r24, 0x00	; 0
    2bba:	9a 4f       	sbci	r25, 0xFA	; 250
    2bbc:	fc 01       	movw	r30, r24
    2bbe:	20 83       	st	Z, r18
    2bc0:	86 e9       	ldi	r24, 0x96	; 150
    2bc2:	97 e0       	ldi	r25, 0x07	; 7
    2bc4:	fc 01       	movw	r30, r24
    2bc6:	90 81       	ld	r25, Z
    2bc8:	80 91 ff 06 	lds	r24, 0x06FF
    2bcc:	89 0f       	add	r24, r25
    2bce:	80 93 ff 06 	sts	0x06FF, r24
    2bd2:	90 91 fa 05 	lds	r25, 0x05FA
    2bd6:	80 91 ff 06 	lds	r24, 0x06FF
    2bda:	89 0f       	add	r24, r25
    2bdc:	80 93 fa 05 	sts	0x05FA, r24
    2be0:	80 91 fd 05 	lds	r24, 0x05FD
    2be4:	8f 5f       	subi	r24, 0xFF	; 255
    2be6:	80 93 fd 05 	sts	0x05FD, r24
    2bea:	80 91 fd 05 	lds	r24, 0x05FD
    2bee:	8f 3f       	cpi	r24, 0xFF	; 255
    2bf0:	11 f4       	brne	.+4      	; 0x2bf6 <__stack+0x1af7>
/home/becker/async/wcet-benchmarks/benchmarks/PapaBench-0.2m/sw/airborne/autopilot_simulate/main.c:274 (discriminator 1)
    2bf2:	10 92 fd 05 	sts	0x05FD, r1
/home/becker/async/wcet-benchmarks/benchmarks/PapaBench-0.2m/sw/airborne/autopilot_simulate/main.c:274 (discriminator 2)
    2bf6:	80 91 fd 05 	lds	r24, 0x05FD
    2bfa:	88 2f       	mov	r24, r24
    2bfc:	90 e0       	ldi	r25, 0x00	; 0
    2bfe:	20 91 97 07 	lds	r18, 0x0797
    2c02:	80 50       	subi	r24, 0x00	; 0
    2c04:	9a 4f       	sbci	r25, 0xFA	; 250
    2c06:	fc 01       	movw	r30, r24
    2c08:	20 83       	st	Z, r18
    2c0a:	87 e9       	ldi	r24, 0x97	; 151
    2c0c:	97 e0       	ldi	r25, 0x07	; 7
    2c0e:	fc 01       	movw	r30, r24
    2c10:	90 81       	ld	r25, Z
    2c12:	80 91 ff 06 	lds	r24, 0x06FF
    2c16:	89 0f       	add	r24, r25
    2c18:	80 93 ff 06 	sts	0x06FF, r24
    2c1c:	90 91 fa 05 	lds	r25, 0x05FA
    2c20:	80 91 ff 06 	lds	r24, 0x06FF
    2c24:	89 0f       	add	r24, r25
    2c26:	80 93 fa 05 	sts	0x05FA, r24
    2c2a:	80 91 fd 05 	lds	r24, 0x05FD
    2c2e:	8f 5f       	subi	r24, 0xFF	; 255
    2c30:	80 93 fd 05 	sts	0x05FD, r24
    2c34:	80 91 fd 05 	lds	r24, 0x05FD
    2c38:	8f 3f       	cpi	r24, 0xFF	; 255
    2c3a:	11 f4       	brne	.+4      	; 0x2c40 <__stack+0x1b41>
/home/becker/async/wcet-benchmarks/benchmarks/PapaBench-0.2m/sw/airborne/autopilot_simulate/main.c:274 (discriminator 1)
    2c3c:	10 92 fd 05 	sts	0x05FD, r1
/home/becker/async/wcet-benchmarks/benchmarks/PapaBench-0.2m/sw/airborne/autopilot_simulate/main.c:274 (discriminator 2)
    2c40:	80 91 fd 05 	lds	r24, 0x05FD
    2c44:	88 2f       	mov	r24, r24
    2c46:	90 e0       	ldi	r25, 0x00	; 0
    2c48:	24 e9       	ldi	r18, 0x94	; 148
    2c4a:	37 e0       	ldi	r19, 0x07	; 7
    2c4c:	f9 01       	movw	r30, r18
    2c4e:	20 81       	ld	r18, Z
    2c50:	80 50       	subi	r24, 0x00	; 0
    2c52:	9a 4f       	sbci	r25, 0xFA	; 250
    2c54:	fc 01       	movw	r30, r24
    2c56:	20 83       	st	Z, r18
    2c58:	84 e9       	ldi	r24, 0x94	; 148
    2c5a:	97 e0       	ldi	r25, 0x07	; 7
    2c5c:	fc 01       	movw	r30, r24
    2c5e:	90 81       	ld	r25, Z
    2c60:	80 91 ff 06 	lds	r24, 0x06FF
    2c64:	89 0f       	add	r24, r25
    2c66:	80 93 ff 06 	sts	0x06FF, r24
    2c6a:	90 91 fa 05 	lds	r25, 0x05FA
    2c6e:	80 91 ff 06 	lds	r24, 0x06FF
    2c72:	89 0f       	add	r24, r25
    2c74:	80 93 fa 05 	sts	0x05FA, r24
    2c78:	80 91 fd 05 	lds	r24, 0x05FD
    2c7c:	8f 5f       	subi	r24, 0xFF	; 255
    2c7e:	80 93 fd 05 	sts	0x05FD, r24
    2c82:	80 91 fd 05 	lds	r24, 0x05FD
    2c86:	8f 3f       	cpi	r24, 0xFF	; 255
    2c88:	11 f4       	brne	.+4      	; 0x2c8e <__stack+0x1b8f>
/home/becker/async/wcet-benchmarks/benchmarks/PapaBench-0.2m/sw/airborne/autopilot_simulate/main.c:274 (discriminator 1)
    2c8a:	10 92 fd 05 	sts	0x05FD, r1
/home/becker/async/wcet-benchmarks/benchmarks/PapaBench-0.2m/sw/airborne/autopilot_simulate/main.c:274 (discriminator 2)
    2c8e:	80 91 fd 05 	lds	r24, 0x05FD
    2c92:	88 2f       	mov	r24, r24
    2c94:	90 e0       	ldi	r25, 0x00	; 0
    2c96:	20 91 95 07 	lds	r18, 0x0795
    2c9a:	80 50       	subi	r24, 0x00	; 0
    2c9c:	9a 4f       	sbci	r25, 0xFA	; 250
    2c9e:	fc 01       	movw	r30, r24
    2ca0:	20 83       	st	Z, r18
    2ca2:	85 e9       	ldi	r24, 0x95	; 149
    2ca4:	97 e0       	ldi	r25, 0x07	; 7
    2ca6:	fc 01       	movw	r30, r24
    2ca8:	90 81       	ld	r25, Z
    2caa:	80 91 ff 06 	lds	r24, 0x06FF
    2cae:	89 0f       	add	r24, r25
    2cb0:	80 93 ff 06 	sts	0x06FF, r24
    2cb4:	90 91 fa 05 	lds	r25, 0x05FA
    2cb8:	80 91 ff 06 	lds	r24, 0x06FF
    2cbc:	89 0f       	add	r24, r25
    2cbe:	80 93 fa 05 	sts	0x05FA, r24
    2cc2:	80 91 fd 05 	lds	r24, 0x05FD
    2cc6:	8f 5f       	subi	r24, 0xFF	; 255
    2cc8:	80 93 fd 05 	sts	0x05FD, r24
    2ccc:	80 91 fd 05 	lds	r24, 0x05FD
    2cd0:	8f 3f       	cpi	r24, 0xFF	; 255
    2cd2:	11 f4       	brne	.+4      	; 0x2cd8 <__stack+0x1bd9>
/home/becker/async/wcet-benchmarks/benchmarks/PapaBench-0.2m/sw/airborne/autopilot_simulate/main.c:274 (discriminator 1)
    2cd4:	10 92 fd 05 	sts	0x05FD, r1
/home/becker/async/wcet-benchmarks/benchmarks/PapaBench-0.2m/sw/airborne/autopilot_simulate/main.c:274 (discriminator 2)
    2cd8:	80 91 fd 05 	lds	r24, 0x05FD
    2cdc:	88 2f       	mov	r24, r24
    2cde:	90 e0       	ldi	r25, 0x00	; 0
    2ce0:	20 91 ff 06 	lds	r18, 0x06FF
    2ce4:	80 50       	subi	r24, 0x00	; 0
    2ce6:	9a 4f       	sbci	r25, 0xFA	; 250
    2ce8:	fc 01       	movw	r30, r24
    2cea:	20 83       	st	Z, r18
    2cec:	80 91 fd 05 	lds	r24, 0x05FD
    2cf0:	8f 5f       	subi	r24, 0xFF	; 255
    2cf2:	80 93 fd 05 	sts	0x05FD, r24
    2cf6:	80 91 fd 05 	lds	r24, 0x05FD
    2cfa:	8f 3f       	cpi	r24, 0xFF	; 255
    2cfc:	11 f4       	brne	.+4      	; 0x2d02 <__stack+0x1c03>
/home/becker/async/wcet-benchmarks/benchmarks/PapaBench-0.2m/sw/airborne/autopilot_simulate/main.c:274 (discriminator 1)
    2cfe:	10 92 fd 05 	sts	0x05FD, r1
/home/becker/async/wcet-benchmarks/benchmarks/PapaBench-0.2m/sw/airborne/autopilot_simulate/main.c:274 (discriminator 2)
    2d02:	80 91 fd 05 	lds	r24, 0x05FD
    2d06:	88 2f       	mov	r24, r24
    2d08:	90 e0       	ldi	r25, 0x00	; 0
    2d0a:	20 91 fa 05 	lds	r18, 0x05FA
    2d0e:	80 50       	subi	r24, 0x00	; 0
    2d10:	9a 4f       	sbci	r25, 0xFA	; 250
    2d12:	fc 01       	movw	r30, r24
    2d14:	20 83       	st	Z, r18
    2d16:	80 91 fd 05 	lds	r24, 0x05FD
    2d1a:	8f 5f       	subi	r24, 0xFF	; 255
    2d1c:	80 93 fd 05 	sts	0x05FD, r24
    2d20:	80 91 fd 05 	lds	r24, 0x05FD
    2d24:	8f 3f       	cpi	r24, 0xFF	; 255
    2d26:	11 f4       	brne	.+4      	; 0x2d2c <__stack+0x1c2d>
/home/becker/async/wcet-benchmarks/benchmarks/PapaBench-0.2m/sw/airborne/autopilot_simulate/main.c:274 (discriminator 1)
    2d28:	10 92 fd 05 	sts	0x05FD, r1
/home/becker/async/wcet-benchmarks/benchmarks/PapaBench-0.2m/sw/airborne/autopilot_simulate/main.c:274 (discriminator 2)
    2d2c:	89 e5       	ldi	r24, 0x59	; 89
    2d2e:	90 e0       	ldi	r25, 0x00	; 0
    2d30:	fc 01       	movw	r30, r24
    2d32:	80 81       	ld	r24, Z
    2d34:	88 2f       	mov	r24, r24
    2d36:	90 e0       	ldi	r25, 0x00	; 0
    2d38:	80 71       	andi	r24, 0x10	; 16
    2d3a:	99 27       	eor	r25, r25
    2d3c:	00 97       	sbiw	r24, 0x00	; 0
    2d3e:	79 f5       	brne	.+94     	; 0x2d9e <__stack+0x1c9f>
/home/becker/async/wcet-benchmarks/benchmarks/PapaBench-0.2m/sw/airborne/autopilot_simulate/main.c:274 (discriminator 1)
    2d40:	80 91 fe 05 	lds	r24, 0x05FE
    2d44:	88 2f       	mov	r24, r24
    2d46:	90 e0       	ldi	r25, 0x00	; 0
    2d48:	80 50       	subi	r24, 0x00	; 0
    2d4a:	9a 4f       	sbci	r25, 0xFA	; 250
    2d4c:	fc 01       	movw	r30, r24
    2d4e:	80 81       	ld	r24, Z
    2d50:	80 93 fc 05 	sts	0x05FC, r24
    2d54:	10 92 ff 05 	sts	0x05FF, r1
    2d58:	80 91 fe 05 	lds	r24, 0x05FE
    2d5c:	8f 5f       	subi	r24, 0xFF	; 255
    2d5e:	80 93 fe 05 	sts	0x05FE, r24
    2d62:	80 91 fe 05 	lds	r24, 0x05FE
    2d66:	8f 3f       	cpi	r24, 0xFF	; 255
    2d68:	11 f4       	brne	.+4      	; 0x2d6e <__stack+0x1c6f>
    2d6a:	10 92 fe 05 	sts	0x05FE, r1
/home/becker/async/wcet-benchmarks/benchmarks/PapaBench-0.2m/sw/airborne/autopilot_simulate/main.c:274 (discriminator 2)
    2d6e:	88 e5       	ldi	r24, 0x58	; 88
    2d70:	90 e0       	ldi	r25, 0x00	; 0
    2d72:	28 e5       	ldi	r18, 0x58	; 88
    2d74:	30 e0       	ldi	r19, 0x00	; 0
    2d76:	f9 01       	movw	r30, r18
    2d78:	20 81       	ld	r18, Z
    2d7a:	21 60       	ori	r18, 0x01	; 1
    2d7c:	fc 01       	movw	r30, r24
    2d7e:	20 83       	st	Z, r18
    2d80:	89 e5       	ldi	r24, 0x59	; 89
    2d82:	90 e0       	ldi	r25, 0x00	; 0
    2d84:	29 e5       	ldi	r18, 0x59	; 89
    2d86:	30 e0       	ldi	r19, 0x00	; 0
    2d88:	f9 01       	movw	r30, r18
    2d8a:	20 81       	ld	r18, Z
    2d8c:	20 61       	ori	r18, 0x10	; 16
    2d8e:	fc 01       	movw	r30, r24
    2d90:	20 83       	st	Z, r18
    2d92:	05 c0       	rjmp	.+10     	; 0x2d9e <__stack+0x1c9f>
    2d94:	80 91 fb 05 	lds	r24, 0x05FB
    2d98:	8f 5f       	subi	r24, 0xFF	; 255
    2d9a:	80 93 fb 05 	sts	0x05FB, r24
    2d9e:	90 91 d4 01 	lds	r25, 0x01D4
    2da2:	8d ec       	ldi	r24, 0xCD	; 205
    2da4:	98 9f       	mul	r25, r24
    2da6:	81 2d       	mov	r24, r1
    2da8:	11 24       	eor	r1, r1
    2daa:	82 95       	swap	r24
    2dac:	8f 70       	andi	r24, 0x0F	; 15
    2dae:	88 0f       	add	r24, r24
    2db0:	88 0f       	add	r24, r24
    2db2:	28 2f       	mov	r18, r24
    2db4:	22 0f       	add	r18, r18
    2db6:	22 0f       	add	r18, r18
    2db8:	82 0f       	add	r24, r18
    2dba:	f9 2f       	mov	r31, r25
    2dbc:	f8 1b       	sub	r31, r24
    2dbe:	8f 2f       	mov	r24, r31
    2dc0:	82 31       	cpi	r24, 0x12	; 18
    2dc2:	09 f0       	breq	.+2      	; 0x2dc6 <__stack+0x1cc7>
    2dc4:	cd c2       	rjmp	.+1434   	; 0x3360 <__stack+0x2261>
/home/becker/async/wcet-benchmarks/benchmarks/PapaBench-0.2m/sw/airborne/autopilot_simulate/main.c:274 (discriminator 1)
    2dc6:	90 91 fd 05 	lds	r25, 0x05FD
    2dca:	80 91 fe 05 	lds	r24, 0x05FE
    2dce:	98 17       	cp	r25, r24
    2dd0:	a0 f0       	brcs	.+40     	; 0x2dfa <__stack+0x1cfb>
    2dd2:	80 91 fe 05 	lds	r24, 0x05FE
    2dd6:	28 2f       	mov	r18, r24
    2dd8:	30 e0       	ldi	r19, 0x00	; 0
    2dda:	80 91 fd 05 	lds	r24, 0x05FD
    2dde:	88 2f       	mov	r24, r24
    2de0:	90 e0       	ldi	r25, 0x00	; 0
    2de2:	a9 01       	movw	r20, r18
    2de4:	48 1b       	sub	r20, r24
    2de6:	59 0b       	sbc	r21, r25
    2de8:	ca 01       	movw	r24, r20
    2dea:	81 50       	subi	r24, 0x01	; 1
    2dec:	9f 4f       	sbci	r25, 0xFF	; 255
    2dee:	21 e0       	ldi	r18, 0x01	; 1
    2df0:	83 31       	cpi	r24, 0x13	; 19
    2df2:	91 05       	cpc	r25, r1
    2df4:	9c f4       	brge	.+38     	; 0x2e1c <__stack+0x1d1d>
    2df6:	20 e0       	ldi	r18, 0x00	; 0
    2df8:	11 c0       	rjmp	.+34     	; 0x2e1c <__stack+0x1d1d>
/home/becker/async/wcet-benchmarks/benchmarks/PapaBench-0.2m/sw/airborne/autopilot_simulate/main.c:274 (discriminator 2)
    2dfa:	80 91 fe 05 	lds	r24, 0x05FE
    2dfe:	28 2f       	mov	r18, r24
    2e00:	30 e0       	ldi	r19, 0x00	; 0
    2e02:	80 91 fd 05 	lds	r24, 0x05FD
    2e06:	88 2f       	mov	r24, r24
    2e08:	90 e0       	ldi	r25, 0x00	; 0
    2e0a:	f9 01       	movw	r30, r18
    2e0c:	e8 1b       	sub	r30, r24
    2e0e:	f9 0b       	sbc	r31, r25
    2e10:	cf 01       	movw	r24, r30
    2e12:	21 e0       	ldi	r18, 0x01	; 1
    2e14:	83 31       	cpi	r24, 0x13	; 19
    2e16:	91 05       	cpc	r25, r1
    2e18:	0c f4       	brge	.+2      	; 0x2e1c <__stack+0x1d1d>
    2e1a:	20 e0       	ldi	r18, 0x00	; 0
/home/becker/async/wcet-benchmarks/benchmarks/PapaBench-0.2m/sw/airborne/autopilot_simulate/main.c:274 (discriminator 3)
    2e1c:	22 23       	and	r18, r18
    2e1e:	09 f4       	brne	.+2      	; 0x2e22 <__stack+0x1d23>
    2e20:	9a c2       	rjmp	.+1332   	; 0x3356 <__stack+0x2257>
/home/becker/async/wcet-benchmarks/benchmarks/PapaBench-0.2m/sw/airborne/autopilot_simulate/main.c:274 (discriminator 1)
    2e22:	80 91 fd 05 	lds	r24, 0x05FD
    2e26:	88 2f       	mov	r24, r24
    2e28:	90 e0       	ldi	r25, 0x00	; 0
    2e2a:	80 50       	subi	r24, 0x00	; 0
    2e2c:	9a 4f       	sbci	r25, 0xFA	; 250
    2e2e:	25 e0       	ldi	r18, 0x05	; 5
    2e30:	fc 01       	movw	r30, r24
    2e32:	20 83       	st	Z, r18
    2e34:	80 91 fd 05 	lds	r24, 0x05FD
    2e38:	8f 5f       	subi	r24, 0xFF	; 255
    2e3a:	80 93 fd 05 	sts	0x05FD, r24
    2e3e:	80 91 fd 05 	lds	r24, 0x05FD
    2e42:	8f 3f       	cpi	r24, 0xFF	; 255
    2e44:	11 f4       	brne	.+4      	; 0x2e4a <__stack+0x1d4b>
    2e46:	10 92 fd 05 	sts	0x05FD, r1
/home/becker/async/wcet-benchmarks/benchmarks/PapaBench-0.2m/sw/airborne/autopilot_simulate/main.c:274 (discriminator 2)
    2e4a:	80 91 fd 05 	lds	r24, 0x05FD
    2e4e:	88 2f       	mov	r24, r24
    2e50:	90 e0       	ldi	r25, 0x00	; 0
    2e52:	80 50       	subi	r24, 0x00	; 0
    2e54:	9a 4f       	sbci	r25, 0xFA	; 250
    2e56:	2e e0       	ldi	r18, 0x0E	; 14
    2e58:	fc 01       	movw	r30, r24
    2e5a:	20 83       	st	Z, r18
    2e5c:	80 91 fd 05 	lds	r24, 0x05FD
    2e60:	8f 5f       	subi	r24, 0xFF	; 255
    2e62:	80 93 fd 05 	sts	0x05FD, r24
    2e66:	80 91 fd 05 	lds	r24, 0x05FD
    2e6a:	8f 3f       	cpi	r24, 0xFF	; 255
    2e6c:	11 f4       	brne	.+4      	; 0x2e72 <__stack+0x1d73>
/home/becker/async/wcet-benchmarks/benchmarks/PapaBench-0.2m/sw/airborne/autopilot_simulate/main.c:274 (discriminator 1)
    2e6e:	10 92 fd 05 	sts	0x05FD, r1
/home/becker/async/wcet-benchmarks/benchmarks/PapaBench-0.2m/sw/airborne/autopilot_simulate/main.c:274 (discriminator 2)
    2e72:	8e e0       	ldi	r24, 0x0E	; 14
    2e74:	80 93 ff 06 	sts	0x06FF, r24
    2e78:	8e e0       	ldi	r24, 0x0E	; 14
    2e7a:	80 93 fa 05 	sts	0x05FA, r24
    2e7e:	80 91 fd 05 	lds	r24, 0x05FD
    2e82:	88 2f       	mov	r24, r24
    2e84:	90 e0       	ldi	r25, 0x00	; 0
    2e86:	2c e6       	ldi	r18, 0x6C	; 108
    2e88:	37 e0       	ldi	r19, 0x07	; 7
    2e8a:	f9 01       	movw	r30, r18
    2e8c:	20 81       	ld	r18, Z
    2e8e:	80 50       	subi	r24, 0x00	; 0
    2e90:	9a 4f       	sbci	r25, 0xFA	; 250
    2e92:	fc 01       	movw	r30, r24
    2e94:	20 83       	st	Z, r18
    2e96:	8c e6       	ldi	r24, 0x6C	; 108
    2e98:	97 e0       	ldi	r25, 0x07	; 7
    2e9a:	fc 01       	movw	r30, r24
    2e9c:	90 81       	ld	r25, Z
    2e9e:	80 91 ff 06 	lds	r24, 0x06FF
    2ea2:	89 0f       	add	r24, r25
    2ea4:	80 93 ff 06 	sts	0x06FF, r24
    2ea8:	90 91 fa 05 	lds	r25, 0x05FA
    2eac:	80 91 ff 06 	lds	r24, 0x06FF
    2eb0:	89 0f       	add	r24, r25
    2eb2:	80 93 fa 05 	sts	0x05FA, r24
    2eb6:	80 91 fd 05 	lds	r24, 0x05FD
    2eba:	8f 5f       	subi	r24, 0xFF	; 255
    2ebc:	80 93 fd 05 	sts	0x05FD, r24
    2ec0:	80 91 fd 05 	lds	r24, 0x05FD
    2ec4:	8f 3f       	cpi	r24, 0xFF	; 255
    2ec6:	11 f4       	brne	.+4      	; 0x2ecc <__stack+0x1dcd>
/home/becker/async/wcet-benchmarks/benchmarks/PapaBench-0.2m/sw/airborne/autopilot_simulate/main.c:274 (discriminator 1)
    2ec8:	10 92 fd 05 	sts	0x05FD, r1
/home/becker/async/wcet-benchmarks/benchmarks/PapaBench-0.2m/sw/airborne/autopilot_simulate/main.c:274 (discriminator 2)
    2ecc:	80 91 fd 05 	lds	r24, 0x05FD
    2ed0:	88 2f       	mov	r24, r24
    2ed2:	90 e0       	ldi	r25, 0x00	; 0
    2ed4:	20 91 6d 07 	lds	r18, 0x076D
    2ed8:	80 50       	subi	r24, 0x00	; 0
    2eda:	9a 4f       	sbci	r25, 0xFA	; 250
    2edc:	fc 01       	movw	r30, r24
    2ede:	20 83       	st	Z, r18
    2ee0:	8d e6       	ldi	r24, 0x6D	; 109
    2ee2:	97 e0       	ldi	r25, 0x07	; 7
    2ee4:	fc 01       	movw	r30, r24
    2ee6:	90 81       	ld	r25, Z
    2ee8:	80 91 ff 06 	lds	r24, 0x06FF
    2eec:	89 0f       	add	r24, r25
    2eee:	80 93 ff 06 	sts	0x06FF, r24
    2ef2:	90 91 fa 05 	lds	r25, 0x05FA
    2ef6:	80 91 ff 06 	lds	r24, 0x06FF
    2efa:	89 0f       	add	r24, r25
    2efc:	80 93 fa 05 	sts	0x05FA, r24
    2f00:	80 91 fd 05 	lds	r24, 0x05FD
    2f04:	8f 5f       	subi	r24, 0xFF	; 255
    2f06:	80 93 fd 05 	sts	0x05FD, r24
    2f0a:	80 91 fd 05 	lds	r24, 0x05FD
    2f0e:	8f 3f       	cpi	r24, 0xFF	; 255
    2f10:	11 f4       	brne	.+4      	; 0x2f16 <__stack+0x1e17>
/home/becker/async/wcet-benchmarks/benchmarks/PapaBench-0.2m/sw/airborne/autopilot_simulate/main.c:274 (discriminator 1)
    2f12:	10 92 fd 05 	sts	0x05FD, r1
/home/becker/async/wcet-benchmarks/benchmarks/PapaBench-0.2m/sw/airborne/autopilot_simulate/main.c:274 (discriminator 2)
    2f16:	80 91 fd 05 	lds	r24, 0x05FD
    2f1a:	88 2f       	mov	r24, r24
    2f1c:	90 e0       	ldi	r25, 0x00	; 0
    2f1e:	24 e9       	ldi	r18, 0x94	; 148
    2f20:	33 e0       	ldi	r19, 0x03	; 3
    2f22:	f9 01       	movw	r30, r18
    2f24:	20 81       	ld	r18, Z
    2f26:	80 50       	subi	r24, 0x00	; 0
    2f28:	9a 4f       	sbci	r25, 0xFA	; 250
    2f2a:	fc 01       	movw	r30, r24
    2f2c:	20 83       	st	Z, r18
    2f2e:	84 e9       	ldi	r24, 0x94	; 148
    2f30:	93 e0       	ldi	r25, 0x03	; 3
    2f32:	fc 01       	movw	r30, r24
    2f34:	90 81       	ld	r25, Z
    2f36:	80 91 ff 06 	lds	r24, 0x06FF
    2f3a:	89 0f       	add	r24, r25
    2f3c:	80 93 ff 06 	sts	0x06FF, r24
    2f40:	90 91 fa 05 	lds	r25, 0x05FA
    2f44:	80 91 ff 06 	lds	r24, 0x06FF
    2f48:	89 0f       	add	r24, r25
    2f4a:	80 93 fa 05 	sts	0x05FA, r24
    2f4e:	80 91 fd 05 	lds	r24, 0x05FD
    2f52:	8f 5f       	subi	r24, 0xFF	; 255
    2f54:	80 93 fd 05 	sts	0x05FD, r24
    2f58:	80 91 fd 05 	lds	r24, 0x05FD
    2f5c:	8f 3f       	cpi	r24, 0xFF	; 255
    2f5e:	11 f4       	brne	.+4      	; 0x2f64 <__stack+0x1e65>
/home/becker/async/wcet-benchmarks/benchmarks/PapaBench-0.2m/sw/airborne/autopilot_simulate/main.c:274 (discriminator 1)
    2f60:	10 92 fd 05 	sts	0x05FD, r1
/home/becker/async/wcet-benchmarks/benchmarks/PapaBench-0.2m/sw/airborne/autopilot_simulate/main.c:274 (discriminator 2)
    2f64:	80 91 fd 05 	lds	r24, 0x05FD
    2f68:	88 2f       	mov	r24, r24
    2f6a:	90 e0       	ldi	r25, 0x00	; 0
    2f6c:	20 91 95 03 	lds	r18, 0x0395
    2f70:	80 50       	subi	r24, 0x00	; 0
    2f72:	9a 4f       	sbci	r25, 0xFA	; 250
    2f74:	fc 01       	movw	r30, r24
    2f76:	20 83       	st	Z, r18
    2f78:	85 e9       	ldi	r24, 0x95	; 149
    2f7a:	93 e0       	ldi	r25, 0x03	; 3
    2f7c:	fc 01       	movw	r30, r24
    2f7e:	90 81       	ld	r25, Z
    2f80:	80 91 ff 06 	lds	r24, 0x06FF
    2f84:	89 0f       	add	r24, r25
    2f86:	80 93 ff 06 	sts	0x06FF, r24
    2f8a:	90 91 fa 05 	lds	r25, 0x05FA
    2f8e:	80 91 ff 06 	lds	r24, 0x06FF
    2f92:	89 0f       	add	r24, r25
    2f94:	80 93 fa 05 	sts	0x05FA, r24
    2f98:	80 91 fd 05 	lds	r24, 0x05FD
    2f9c:	8f 5f       	subi	r24, 0xFF	; 255
    2f9e:	80 93 fd 05 	sts	0x05FD, r24
    2fa2:	80 91 fd 05 	lds	r24, 0x05FD
    2fa6:	8f 3f       	cpi	r24, 0xFF	; 255
    2fa8:	11 f4       	brne	.+4      	; 0x2fae <__stack+0x1eaf>
/home/becker/async/wcet-benchmarks/benchmarks/PapaBench-0.2m/sw/airborne/autopilot_simulate/main.c:274 (discriminator 1)
    2faa:	10 92 fd 05 	sts	0x05FD, r1
/home/becker/async/wcet-benchmarks/benchmarks/PapaBench-0.2m/sw/airborne/autopilot_simulate/main.c:274 (discriminator 2)
    2fae:	80 91 fd 05 	lds	r24, 0x05FD
    2fb2:	88 2f       	mov	r24, r24
    2fb4:	90 e0       	ldi	r25, 0x00	; 0
    2fb6:	20 91 96 03 	lds	r18, 0x0396
    2fba:	80 50       	subi	r24, 0x00	; 0
    2fbc:	9a 4f       	sbci	r25, 0xFA	; 250
    2fbe:	fc 01       	movw	r30, r24
    2fc0:	20 83       	st	Z, r18
    2fc2:	86 e9       	ldi	r24, 0x96	; 150
    2fc4:	93 e0       	ldi	r25, 0x03	; 3
    2fc6:	fc 01       	movw	r30, r24
    2fc8:	90 81       	ld	r25, Z
    2fca:	80 91 ff 06 	lds	r24, 0x06FF
    2fce:	89 0f       	add	r24, r25
    2fd0:	80 93 ff 06 	sts	0x06FF, r24
    2fd4:	90 91 fa 05 	lds	r25, 0x05FA
    2fd8:	80 91 ff 06 	lds	r24, 0x06FF
    2fdc:	89 0f       	add	r24, r25
    2fde:	80 93 fa 05 	sts	0x05FA, r24
    2fe2:	80 91 fd 05 	lds	r24, 0x05FD
    2fe6:	8f 5f       	subi	r24, 0xFF	; 255
    2fe8:	80 93 fd 05 	sts	0x05FD, r24
    2fec:	80 91 fd 05 	lds	r24, 0x05FD
    2ff0:	8f 3f       	cpi	r24, 0xFF	; 255
    2ff2:	11 f4       	brne	.+4      	; 0x2ff8 <__stack+0x1ef9>
/home/becker/async/wcet-benchmarks/benchmarks/PapaBench-0.2m/sw/airborne/autopilot_simulate/main.c:274 (discriminator 1)
    2ff4:	10 92 fd 05 	sts	0x05FD, r1
/home/becker/async/wcet-benchmarks/benchmarks/PapaBench-0.2m/sw/airborne/autopilot_simulate/main.c:274 (discriminator 2)
    2ff8:	80 91 fd 05 	lds	r24, 0x05FD
    2ffc:	88 2f       	mov	r24, r24
    2ffe:	90 e0       	ldi	r25, 0x00	; 0
    3000:	20 91 97 03 	lds	r18, 0x0397
    3004:	80 50       	subi	r24, 0x00	; 0
    3006:	9a 4f       	sbci	r25, 0xFA	; 250
    3008:	fc 01       	movw	r30, r24
    300a:	20 83       	st	Z, r18
    300c:	87 e9       	ldi	r24, 0x97	; 151
    300e:	93 e0       	ldi	r25, 0x03	; 3
    3010:	fc 01       	movw	r30, r24
    3012:	90 81       	ld	r25, Z
    3014:	80 91 ff 06 	lds	r24, 0x06FF
    3018:	89 0f       	add	r24, r25
    301a:	80 93 ff 06 	sts	0x06FF, r24
    301e:	90 91 fa 05 	lds	r25, 0x05FA
    3022:	80 91 ff 06 	lds	r24, 0x06FF
    3026:	89 0f       	add	r24, r25
    3028:	80 93 fa 05 	sts	0x05FA, r24
    302c:	80 91 fd 05 	lds	r24, 0x05FD
    3030:	8f 5f       	subi	r24, 0xFF	; 255
    3032:	80 93 fd 05 	sts	0x05FD, r24
    3036:	80 91 fd 05 	lds	r24, 0x05FD
    303a:	8f 3f       	cpi	r24, 0xFF	; 255
    303c:	11 f4       	brne	.+4      	; 0x3042 <__stack+0x1f43>
/home/becker/async/wcet-benchmarks/benchmarks/PapaBench-0.2m/sw/airborne/autopilot_simulate/main.c:274 (discriminator 1)
    303e:	10 92 fd 05 	sts	0x05FD, r1
/home/becker/async/wcet-benchmarks/benchmarks/PapaBench-0.2m/sw/airborne/autopilot_simulate/main.c:274 (discriminator 2)
    3042:	80 91 fd 05 	lds	r24, 0x05FD
    3046:	88 2f       	mov	r24, r24
    3048:	90 e0       	ldi	r25, 0x00	; 0
    304a:	2c e9       	ldi	r18, 0x9C	; 156
    304c:	33 e0       	ldi	r19, 0x03	; 3
    304e:	f9 01       	movw	r30, r18
    3050:	20 81       	ld	r18, Z
    3052:	80 50       	subi	r24, 0x00	; 0
    3054:	9a 4f       	sbci	r25, 0xFA	; 250
    3056:	fc 01       	movw	r30, r24
    3058:	20 83       	st	Z, r18
    305a:	8c e9       	ldi	r24, 0x9C	; 156
    305c:	93 e0       	ldi	r25, 0x03	; 3
    305e:	fc 01       	movw	r30, r24
    3060:	90 81       	ld	r25, Z
    3062:	80 91 ff 06 	lds	r24, 0x06FF
    3066:	89 0f       	add	r24, r25
    3068:	80 93 ff 06 	sts	0x06FF, r24
    306c:	90 91 fa 05 	lds	r25, 0x05FA
    3070:	80 91 ff 06 	lds	r24, 0x06FF
    3074:	89 0f       	add	r24, r25
    3076:	80 93 fa 05 	sts	0x05FA, r24
    307a:	80 91 fd 05 	lds	r24, 0x05FD
    307e:	8f 5f       	subi	r24, 0xFF	; 255
    3080:	80 93 fd 05 	sts	0x05FD, r24
    3084:	80 91 fd 05 	lds	r24, 0x05FD
    3088:	8f 3f       	cpi	r24, 0xFF	; 255
    308a:	11 f4       	brne	.+4      	; 0x3090 <__stack+0x1f91>
/home/becker/async/wcet-benchmarks/benchmarks/PapaBench-0.2m/sw/airborne/autopilot_simulate/main.c:274 (discriminator 1)
    308c:	10 92 fd 05 	sts	0x05FD, r1
/home/becker/async/wcet-benchmarks/benchmarks/PapaBench-0.2m/sw/airborne/autopilot_simulate/main.c:274 (discriminator 2)
    3090:	80 91 fd 05 	lds	r24, 0x05FD
    3094:	88 2f       	mov	r24, r24
    3096:	90 e0       	ldi	r25, 0x00	; 0
    3098:	20 91 9d 03 	lds	r18, 0x039D
    309c:	80 50       	subi	r24, 0x00	; 0
    309e:	9a 4f       	sbci	r25, 0xFA	; 250
    30a0:	fc 01       	movw	r30, r24
    30a2:	20 83       	st	Z, r18
    30a4:	8d e9       	ldi	r24, 0x9D	; 157
    30a6:	93 e0       	ldi	r25, 0x03	; 3
    30a8:	fc 01       	movw	r30, r24
    30aa:	90 81       	ld	r25, Z
    30ac:	80 91 ff 06 	lds	r24, 0x06FF
    30b0:	89 0f       	add	r24, r25
    30b2:	80 93 ff 06 	sts	0x06FF, r24
    30b6:	90 91 fa 05 	lds	r25, 0x05FA
    30ba:	80 91 ff 06 	lds	r24, 0x06FF
    30be:	89 0f       	add	r24, r25
    30c0:	80 93 fa 05 	sts	0x05FA, r24
    30c4:	80 91 fd 05 	lds	r24, 0x05FD
    30c8:	8f 5f       	subi	r24, 0xFF	; 255
    30ca:	80 93 fd 05 	sts	0x05FD, r24
    30ce:	80 91 fd 05 	lds	r24, 0x05FD
    30d2:	8f 3f       	cpi	r24, 0xFF	; 255
    30d4:	11 f4       	brne	.+4      	; 0x30da <__stack+0x1fdb>
/home/becker/async/wcet-benchmarks/benchmarks/PapaBench-0.2m/sw/airborne/autopilot_simulate/main.c:274 (discriminator 1)
    30d6:	10 92 fd 05 	sts	0x05FD, r1
/home/becker/async/wcet-benchmarks/benchmarks/PapaBench-0.2m/sw/airborne/autopilot_simulate/main.c:274 (discriminator 2)
    30da:	80 91 fd 05 	lds	r24, 0x05FD
    30de:	88 2f       	mov	r24, r24
    30e0:	90 e0       	ldi	r25, 0x00	; 0
    30e2:	20 91 9e 03 	lds	r18, 0x039E
    30e6:	80 50       	subi	r24, 0x00	; 0
    30e8:	9a 4f       	sbci	r25, 0xFA	; 250
    30ea:	fc 01       	movw	r30, r24
    30ec:	20 83       	st	Z, r18
    30ee:	8e e9       	ldi	r24, 0x9E	; 158
    30f0:	93 e0       	ldi	r25, 0x03	; 3
    30f2:	fc 01       	movw	r30, r24
    30f4:	90 81       	ld	r25, Z
    30f6:	80 91 ff 06 	lds	r24, 0x06FF
    30fa:	89 0f       	add	r24, r25
    30fc:	80 93 ff 06 	sts	0x06FF, r24
    3100:	90 91 fa 05 	lds	r25, 0x05FA
    3104:	80 91 ff 06 	lds	r24, 0x06FF
    3108:	89 0f       	add	r24, r25
    310a:	80 93 fa 05 	sts	0x05FA, r24
    310e:	80 91 fd 05 	lds	r24, 0x05FD
    3112:	8f 5f       	subi	r24, 0xFF	; 255
    3114:	80 93 fd 05 	sts	0x05FD, r24
    3118:	80 91 fd 05 	lds	r24, 0x05FD
    311c:	8f 3f       	cpi	r24, 0xFF	; 255
    311e:	11 f4       	brne	.+4      	; 0x3124 <__stack+0x2025>
/home/becker/async/wcet-benchmarks/benchmarks/PapaBench-0.2m/sw/airborne/autopilot_simulate/main.c:274 (discriminator 1)
    3120:	10 92 fd 05 	sts	0x05FD, r1
/home/becker/async/wcet-benchmarks/benchmarks/PapaBench-0.2m/sw/airborne/autopilot_simulate/main.c:274 (discriminator 2)
    3124:	80 91 fd 05 	lds	r24, 0x05FD
    3128:	88 2f       	mov	r24, r24
    312a:	90 e0       	ldi	r25, 0x00	; 0
    312c:	20 91 9f 03 	lds	r18, 0x039F
    3130:	80 50       	subi	r24, 0x00	; 0
    3132:	9a 4f       	sbci	r25, 0xFA	; 250
    3134:	fc 01       	movw	r30, r24
    3136:	20 83       	st	Z, r18
    3138:	8f e9       	ldi	r24, 0x9F	; 159
    313a:	93 e0       	ldi	r25, 0x03	; 3
    313c:	fc 01       	movw	r30, r24
    313e:	90 81       	ld	r25, Z
    3140:	80 91 ff 06 	lds	r24, 0x06FF
    3144:	89 0f       	add	r24, r25
    3146:	80 93 ff 06 	sts	0x06FF, r24
    314a:	90 91 fa 05 	lds	r25, 0x05FA
    314e:	80 91 ff 06 	lds	r24, 0x06FF
    3152:	89 0f       	add	r24, r25
    3154:	80 93 fa 05 	sts	0x05FA, r24
    3158:	80 91 fd 05 	lds	r24, 0x05FD
    315c:	8f 5f       	subi	r24, 0xFF	; 255
    315e:	80 93 fd 05 	sts	0x05FD, r24
    3162:	80 91 fd 05 	lds	r24, 0x05FD
    3166:	8f 3f       	cpi	r24, 0xFF	; 255
    3168:	11 f4       	brne	.+4      	; 0x316e <__stack+0x206f>
/home/becker/async/wcet-benchmarks/benchmarks/PapaBench-0.2m/sw/airborne/autopilot_simulate/main.c:274 (discriminator 1)
    316a:	10 92 fd 05 	sts	0x05FD, r1
/home/becker/async/wcet-benchmarks/benchmarks/PapaBench-0.2m/sw/airborne/autopilot_simulate/main.c:274 (discriminator 2)
    316e:	80 91 fd 05 	lds	r24, 0x05FD
    3172:	88 2f       	mov	r24, r24
    3174:	90 e0       	ldi	r25, 0x00	; 0
    3176:	23 ea       	ldi	r18, 0xA3	; 163
    3178:	31 e0       	ldi	r19, 0x01	; 1
    317a:	f9 01       	movw	r30, r18
    317c:	20 81       	ld	r18, Z
    317e:	80 50       	subi	r24, 0x00	; 0
    3180:	9a 4f       	sbci	r25, 0xFA	; 250
    3182:	fc 01       	movw	r30, r24
    3184:	20 83       	st	Z, r18
    3186:	83 ea       	ldi	r24, 0xA3	; 163
    3188:	91 e0       	ldi	r25, 0x01	; 1
    318a:	fc 01       	movw	r30, r24
    318c:	90 81       	ld	r25, Z
    318e:	80 91 ff 06 	lds	r24, 0x06FF
    3192:	89 0f       	add	r24, r25
    3194:	80 93 ff 06 	sts	0x06FF, r24
    3198:	90 91 fa 05 	lds	r25, 0x05FA
    319c:	80 91 ff 06 	lds	r24, 0x06FF
    31a0:	89 0f       	add	r24, r25
    31a2:	80 93 fa 05 	sts	0x05FA, r24
    31a6:	80 91 fd 05 	lds	r24, 0x05FD
    31aa:	8f 5f       	subi	r24, 0xFF	; 255
    31ac:	80 93 fd 05 	sts	0x05FD, r24
    31b0:	80 91 fd 05 	lds	r24, 0x05FD
    31b4:	8f 3f       	cpi	r24, 0xFF	; 255
    31b6:	11 f4       	brne	.+4      	; 0x31bc <__stack+0x20bd>
/home/becker/async/wcet-benchmarks/benchmarks/PapaBench-0.2m/sw/airborne/autopilot_simulate/main.c:274 (discriminator 1)
    31b8:	10 92 fd 05 	sts	0x05FD, r1
/home/becker/async/wcet-benchmarks/benchmarks/PapaBench-0.2m/sw/airborne/autopilot_simulate/main.c:274 (discriminator 2)
    31bc:	80 91 fd 05 	lds	r24, 0x05FD
    31c0:	88 2f       	mov	r24, r24
    31c2:	90 e0       	ldi	r25, 0x00	; 0
    31c4:	20 91 a4 01 	lds	r18, 0x01A4
    31c8:	80 50       	subi	r24, 0x00	; 0
    31ca:	9a 4f       	sbci	r25, 0xFA	; 250
    31cc:	fc 01       	movw	r30, r24
    31ce:	20 83       	st	Z, r18
    31d0:	84 ea       	ldi	r24, 0xA4	; 164
    31d2:	91 e0       	ldi	r25, 0x01	; 1
    31d4:	fc 01       	movw	r30, r24
    31d6:	90 81       	ld	r25, Z
    31d8:	80 91 ff 06 	lds	r24, 0x06FF
    31dc:	89 0f       	add	r24, r25
    31de:	80 93 ff 06 	sts	0x06FF, r24
    31e2:	90 91 fa 05 	lds	r25, 0x05FA
    31e6:	80 91 ff 06 	lds	r24, 0x06FF
    31ea:	89 0f       	add	r24, r25
    31ec:	80 93 fa 05 	sts	0x05FA, r24
    31f0:	80 91 fd 05 	lds	r24, 0x05FD
    31f4:	8f 5f       	subi	r24, 0xFF	; 255
    31f6:	80 93 fd 05 	sts	0x05FD, r24
    31fa:	80 91 fd 05 	lds	r24, 0x05FD
    31fe:	8f 3f       	cpi	r24, 0xFF	; 255
    3200:	11 f4       	brne	.+4      	; 0x3206 <__stack+0x2107>
/home/becker/async/wcet-benchmarks/benchmarks/PapaBench-0.2m/sw/airborne/autopilot_simulate/main.c:274 (discriminator 1)
    3202:	10 92 fd 05 	sts	0x05FD, r1
/home/becker/async/wcet-benchmarks/benchmarks/PapaBench-0.2m/sw/airborne/autopilot_simulate/main.c:274 (discriminator 2)
    3206:	80 91 fd 05 	lds	r24, 0x05FD
    320a:	88 2f       	mov	r24, r24
    320c:	90 e0       	ldi	r25, 0x00	; 0
    320e:	20 91 a5 01 	lds	r18, 0x01A5
    3212:	80 50       	subi	r24, 0x00	; 0
    3214:	9a 4f       	sbci	r25, 0xFA	; 250
    3216:	fc 01       	movw	r30, r24
    3218:	20 83       	st	Z, r18
    321a:	85 ea       	ldi	r24, 0xA5	; 165
    321c:	91 e0       	ldi	r25, 0x01	; 1
    321e:	fc 01       	movw	r30, r24
    3220:	90 81       	ld	r25, Z
    3222:	80 91 ff 06 	lds	r24, 0x06FF
    3226:	89 0f       	add	r24, r25
    3228:	80 93 ff 06 	sts	0x06FF, r24
    322c:	90 91 fa 05 	lds	r25, 0x05FA
    3230:	80 91 ff 06 	lds	r24, 0x06FF
    3234:	89 0f       	add	r24, r25
    3236:	80 93 fa 05 	sts	0x05FA, r24
    323a:	80 91 fd 05 	lds	r24, 0x05FD
    323e:	8f 5f       	subi	r24, 0xFF	; 255
    3240:	80 93 fd 05 	sts	0x05FD, r24
    3244:	80 91 fd 05 	lds	r24, 0x05FD
    3248:	8f 3f       	cpi	r24, 0xFF	; 255
    324a:	11 f4       	brne	.+4      	; 0x3250 <__stack+0x2151>
/home/becker/async/wcet-benchmarks/benchmarks/PapaBench-0.2m/sw/airborne/autopilot_simulate/main.c:274 (discriminator 1)
    324c:	10 92 fd 05 	sts	0x05FD, r1
/home/becker/async/wcet-benchmarks/benchmarks/PapaBench-0.2m/sw/airborne/autopilot_simulate/main.c:274 (discriminator 2)
    3250:	80 91 fd 05 	lds	r24, 0x05FD
    3254:	88 2f       	mov	r24, r24
    3256:	90 e0       	ldi	r25, 0x00	; 0
    3258:	20 91 a6 01 	lds	r18, 0x01A6
    325c:	80 50       	subi	r24, 0x00	; 0
    325e:	9a 4f       	sbci	r25, 0xFA	; 250
    3260:	fc 01       	movw	r30, r24
    3262:	20 83       	st	Z, r18
    3264:	86 ea       	ldi	r24, 0xA6	; 166
    3266:	91 e0       	ldi	r25, 0x01	; 1
    3268:	fc 01       	movw	r30, r24
    326a:	90 81       	ld	r25, Z
    326c:	80 91 ff 06 	lds	r24, 0x06FF
    3270:	89 0f       	add	r24, r25
    3272:	80 93 ff 06 	sts	0x06FF, r24
    3276:	90 91 fa 05 	lds	r25, 0x05FA
    327a:	80 91 ff 06 	lds	r24, 0x06FF
    327e:	89 0f       	add	r24, r25
    3280:	80 93 fa 05 	sts	0x05FA, r24
    3284:	80 91 fd 05 	lds	r24, 0x05FD
    3288:	8f 5f       	subi	r24, 0xFF	; 255
    328a:	80 93 fd 05 	sts	0x05FD, r24
    328e:	80 91 fd 05 	lds	r24, 0x05FD
    3292:	8f 3f       	cpi	r24, 0xFF	; 255
    3294:	11 f4       	brne	.+4      	; 0x329a <__stack+0x219b>
/home/becker/async/wcet-benchmarks/benchmarks/PapaBench-0.2m/sw/airborne/autopilot_simulate/main.c:274 (discriminator 1)
    3296:	10 92 fd 05 	sts	0x05FD, r1
/home/becker/async/wcet-benchmarks/benchmarks/PapaBench-0.2m/sw/airborne/autopilot_simulate/main.c:274 (discriminator 2)
    329a:	80 91 fd 05 	lds	r24, 0x05FD
    329e:	88 2f       	mov	r24, r24
    32a0:	90 e0       	ldi	r25, 0x00	; 0
    32a2:	20 91 ff 06 	lds	r18, 0x06FF
    32a6:	80 50       	subi	r24, 0x00	; 0
    32a8:	9a 4f       	sbci	r25, 0xFA	; 250
    32aa:	fc 01       	movw	r30, r24
    32ac:	20 83       	st	Z, r18
    32ae:	80 91 fd 05 	lds	r24, 0x05FD
    32b2:	8f 5f       	subi	r24, 0xFF	; 255
    32b4:	80 93 fd 05 	sts	0x05FD, r24
    32b8:	80 91 fd 05 	lds	r24, 0x05FD
    32bc:	8f 3f       	cpi	r24, 0xFF	; 255
    32be:	11 f4       	brne	.+4      	; 0x32c4 <__stack+0x21c5>
/home/becker/async/wcet-benchmarks/benchmarks/PapaBench-0.2m/sw/airborne/autopilot_simulate/main.c:274 (discriminator 1)
    32c0:	10 92 fd 05 	sts	0x05FD, r1
/home/becker/async/wcet-benchmarks/benchmarks/PapaBench-0.2m/sw/airborne/autopilot_simulate/main.c:274 (discriminator 2)
    32c4:	80 91 fd 05 	lds	r24, 0x05FD
    32c8:	88 2f       	mov	r24, r24
    32ca:	90 e0       	ldi	r25, 0x00	; 0
    32cc:	20 91 fa 05 	lds	r18, 0x05FA
    32d0:	80 50       	subi	r24, 0x00	; 0
    32d2:	9a 4f       	sbci	r25, 0xFA	; 250
    32d4:	fc 01       	movw	r30, r24
    32d6:	20 83       	st	Z, r18
    32d8:	80 91 fd 05 	lds	r24, 0x05FD
    32dc:	8f 5f       	subi	r24, 0xFF	; 255
    32de:	80 93 fd 05 	sts	0x05FD, r24
    32e2:	80 91 fd 05 	lds	r24, 0x05FD
    32e6:	8f 3f       	cpi	r24, 0xFF	; 255
    32e8:	11 f4       	brne	.+4      	; 0x32ee <__stack+0x21ef>
/home/becker/async/wcet-benchmarks/benchmarks/PapaBench-0.2m/sw/airborne/autopilot_simulate/main.c:274 (discriminator 1)
    32ea:	10 92 fd 05 	sts	0x05FD, r1
/home/becker/async/wcet-benchmarks/benchmarks/PapaBench-0.2m/sw/airborne/autopilot_simulate/main.c:274 (discriminator 2)
    32ee:	89 e5       	ldi	r24, 0x59	; 89
    32f0:	90 e0       	ldi	r25, 0x00	; 0
    32f2:	fc 01       	movw	r30, r24
    32f4:	80 81       	ld	r24, Z
    32f6:	88 2f       	mov	r24, r24
    32f8:	90 e0       	ldi	r25, 0x00	; 0
    32fa:	80 71       	andi	r24, 0x10	; 16
    32fc:	99 27       	eor	r25, r25
    32fe:	00 97       	sbiw	r24, 0x00	; 0
    3300:	79 f5       	brne	.+94     	; 0x3360 <__stack+0x2261>
/home/becker/async/wcet-benchmarks/benchmarks/PapaBench-0.2m/sw/airborne/autopilot_simulate/main.c:274 (discriminator 1)
    3302:	80 91 fe 05 	lds	r24, 0x05FE
    3306:	88 2f       	mov	r24, r24
    3308:	90 e0       	ldi	r25, 0x00	; 0
    330a:	80 50       	subi	r24, 0x00	; 0
    330c:	9a 4f       	sbci	r25, 0xFA	; 250
    330e:	fc 01       	movw	r30, r24
    3310:	80 81       	ld	r24, Z
    3312:	80 93 fc 05 	sts	0x05FC, r24
    3316:	10 92 ff 05 	sts	0x05FF, r1
    331a:	80 91 fe 05 	lds	r24, 0x05FE
    331e:	8f 5f       	subi	r24, 0xFF	; 255
