
main.elf:     file format elf32-avr


Disassembly of section .text:

00000000 <__vectors>:
__vectors():
../../../../crt1/gcrt1.S:52
   0:	0c 94 46 00 	jmp	0x8c	; 0x8c <__ctors_end>
../../../../crt1/gcrt1.S:53
   4:	0c 94 58 00 	jmp	0xb0	; 0xb0 <__bad_interrupt>
../../../../crt1/gcrt1.S:54
   8:	0c 94 58 00 	jmp	0xb0	; 0xb0 <__bad_interrupt>
../../../../crt1/gcrt1.S:55
   c:	0c 94 58 00 	jmp	0xb0	; 0xb0 <__bad_interrupt>
../../../../crt1/gcrt1.S:56
  10:	0c 94 58 00 	jmp	0xb0	; 0xb0 <__bad_interrupt>
../../../../crt1/gcrt1.S:57
  14:	0c 94 58 00 	jmp	0xb0	; 0xb0 <__bad_interrupt>
../../../../crt1/gcrt1.S:58
  18:	0c 94 58 00 	jmp	0xb0	; 0xb0 <__bad_interrupt>
../../../../crt1/gcrt1.S:59
  1c:	0c 94 58 00 	jmp	0xb0	; 0xb0 <__bad_interrupt>
../../../../crt1/gcrt1.S:60
  20:	0c 94 58 00 	jmp	0xb0	; 0xb0 <__bad_interrupt>
../../../../crt1/gcrt1.S:61
  24:	0c 94 58 00 	jmp	0xb0	; 0xb0 <__bad_interrupt>
../../../../crt1/gcrt1.S:62
  28:	0c 94 58 00 	jmp	0xb0	; 0xb0 <__bad_interrupt>
../../../../crt1/gcrt1.S:63
  2c:	0c 94 58 00 	jmp	0xb0	; 0xb0 <__bad_interrupt>
../../../../crt1/gcrt1.S:64
  30:	0c 94 58 00 	jmp	0xb0	; 0xb0 <__bad_interrupt>
../../../../crt1/gcrt1.S:65
  34:	0c 94 58 00 	jmp	0xb0	; 0xb0 <__bad_interrupt>
../../../../crt1/gcrt1.S:66
  38:	0c 94 58 00 	jmp	0xb0	; 0xb0 <__bad_interrupt>
../../../../crt1/gcrt1.S:67
  3c:	0c 94 58 00 	jmp	0xb0	; 0xb0 <__bad_interrupt>
../../../../crt1/gcrt1.S:68
  40:	0c 94 58 00 	jmp	0xb0	; 0xb0 <__bad_interrupt>
../../../../crt1/gcrt1.S:69
  44:	0c 94 58 00 	jmp	0xb0	; 0xb0 <__bad_interrupt>
../../../../crt1/gcrt1.S:70
  48:	0c 94 58 00 	jmp	0xb0	; 0xb0 <__bad_interrupt>
../../../../crt1/gcrt1.S:71
  4c:	0c 94 58 00 	jmp	0xb0	; 0xb0 <__bad_interrupt>
../../../../crt1/gcrt1.S:72
  50:	0c 94 58 00 	jmp	0xb0	; 0xb0 <__bad_interrupt>
../../../../crt1/gcrt1.S:73
  54:	0c 94 58 00 	jmp	0xb0	; 0xb0 <__bad_interrupt>
../../../../crt1/gcrt1.S:74
  58:	0c 94 58 00 	jmp	0xb0	; 0xb0 <__bad_interrupt>
../../../../crt1/gcrt1.S:75
  5c:	0c 94 58 00 	jmp	0xb0	; 0xb0 <__bad_interrupt>
../../../../crt1/gcrt1.S:76
  60:	0c 94 58 00 	jmp	0xb0	; 0xb0 <__bad_interrupt>
../../../../crt1/gcrt1.S:77
  64:	0c 94 58 00 	jmp	0xb0	; 0xb0 <__bad_interrupt>
../../../../crt1/gcrt1.S:78
  68:	0c 94 58 00 	jmp	0xb0	; 0xb0 <__bad_interrupt>
../../../../crt1/gcrt1.S:79
  6c:	0c 94 58 00 	jmp	0xb0	; 0xb0 <__bad_interrupt>
../../../../crt1/gcrt1.S:80
  70:	0c 94 58 00 	jmp	0xb0	; 0xb0 <__bad_interrupt>
../../../../crt1/gcrt1.S:81
  74:	0c 94 58 00 	jmp	0xb0	; 0xb0 <__bad_interrupt>
../../../../crt1/gcrt1.S:82
  78:	0c 94 58 00 	jmp	0xb0	; 0xb0 <__bad_interrupt>
../../../../crt1/gcrt1.S:83
  7c:	0c 94 58 00 	jmp	0xb0	; 0xb0 <__bad_interrupt>
../../../../crt1/gcrt1.S:84
  80:	0c 94 58 00 	jmp	0xb0	; 0xb0 <__bad_interrupt>
../../../../crt1/gcrt1.S:85
  84:	0c 94 58 00 	jmp	0xb0	; 0xb0 <__bad_interrupt>
../../../../crt1/gcrt1.S:86
  88:	0c 94 58 00 	jmp	0xb0	; 0xb0 <__bad_interrupt>

0000008c <__ctors_end>:
../../../../crt1/gcrt1.S:179
  8c:	11 24       	eor	r1, r1
  8e:	1f be       	out	0x3f, r1	; 63
  90:	cf ef       	ldi	r28, 0xFF	; 255
  92:	d0 e1       	ldi	r29, 0x10	; 16
  94:	de bf       	out	0x3e, r29	; 62
  96:	cd bf       	out	0x3d, r28	; 61

00000098 <__do_clear_bss>:
  98:	11 e0       	ldi	r17, 0x01	; 1
  9a:	a0 e0       	ldi	r26, 0x00	; 0
  9c:	b1 e0       	ldi	r27, 0x01	; 1
  9e:	01 c0       	rjmp	.+2      	; 0xa2 <.do_clear_bss_start>

000000a0 <.do_clear_bss_loop>:
  a0:	1d 92       	st	X+, r1

000000a2 <.do_clear_bss_start>:
  a2:	a2 3d       	cpi	r26, 0xD2	; 210
  a4:	b1 07       	cpc	r27, r17
  a6:	e1 f7       	brne	.-8      	; 0xa0 <.do_clear_bss_loop>
  a8:	0e 94 5a 00 	call	0xb4	; 0xb4 <main>
  ac:	0c 94 f5 02 	jmp	0x5ea	; 0x5ea <_exit>

000000b0 <__bad_interrupt>:
__bad_interrupt():
../../../../crt1/gcrt1.S:195
  b0:	0c 94 00 00 	jmp	0	; 0x0 <__vectors>

000000b4 <main>:
main():
/home/becker/async/autosafe/trunk/tum/wcet-cbmc/benchmarks/cnt/cnt.c:30
  b4:	cf 93       	push	r28
  b6:	df 93       	push	r29
  b8:	cd b7       	in	r28, 0x3d	; 61
  ba:	de b7       	in	r29, 0x3e	; 62
/home/becker/async/autosafe/trunk/tum/wcet-cbmc/benchmarks/cnt/cnt.c:31
  bc:	0e 94 07 01 	call	0x20e	; 0x20e <InitSeed>
/home/becker/async/autosafe/trunk/tum/wcet-cbmc/benchmarks/cnt/cnt.c:34
  c0:	84 e0       	ldi	r24, 0x04	; 4
  c2:	91 e0       	ldi	r25, 0x01	; 1
  c4:	0e 94 69 00 	call	0xd2	; 0xd2 <Test>
/home/becker/async/autosafe/trunk/tum/wcet-cbmc/benchmarks/cnt/cnt.c:35
  c8:	81 e0       	ldi	r24, 0x01	; 1
  ca:	90 e0       	ldi	r25, 0x00	; 0
/home/becker/async/autosafe/trunk/tum/wcet-cbmc/benchmarks/cnt/cnt.c:36
  cc:	df 91       	pop	r29
  ce:	cf 91       	pop	r28
  d0:	08 95       	ret

000000d2 <Test>:
Test():
/home/becker/async/autosafe/trunk/tum/wcet-cbmc/benchmarks/cnt/cnt.c:40
  d2:	ef 92       	push	r14
  d4:	ff 92       	push	r15
  d6:	0f 93       	push	r16
  d8:	1f 93       	push	r17
  da:	cf 93       	push	r28
  dc:	df 93       	push	r29
  de:	cd b7       	in	r28, 0x3d	; 61
  e0:	de b7       	in	r29, 0x3e	; 62
  e2:	2e 97       	sbiw	r28, 0x0e	; 14
  e4:	0f b6       	in	r0, 0x3f	; 63
  e6:	f8 94       	cli
  e8:	de bf       	out	0x3e, r29	; 62
  ea:	0f be       	out	0x3f, r0	; 63
  ec:	cd bf       	out	0x3d, r28	; 61
  ee:	9e 87       	std	Y+14, r25	; 0x0e
  f0:	8d 87       	std	Y+13, r24	; 0x0d
/home/becker/async/autosafe/trunk/tum/wcet-cbmc/benchmarks/cnt/cnt.c:44
  f2:	8d 85       	ldd	r24, Y+13	; 0x0d
  f4:	9e 85       	ldd	r25, Y+14	; 0x0e
  f6:	0e 94 c4 00 	call	0x188	; 0x188 <Initialize>
/home/becker/async/autosafe/trunk/tum/wcet-cbmc/benchmarks/cnt/cnt.c:45
  fa:	88 ee       	ldi	r24, 0xE8	; 232
  fc:	93 e0       	ldi	r25, 0x03	; 3
  fe:	a0 e0       	ldi	r26, 0x00	; 0
 100:	b0 e0       	ldi	r27, 0x00	; 0
 102:	89 83       	std	Y+1, r24	; 0x01
 104:	9a 83       	std	Y+2, r25	; 0x02
 106:	ab 83       	std	Y+3, r26	; 0x03
 108:	bc 83       	std	Y+4, r27	; 0x04
/home/becker/async/autosafe/trunk/tum/wcet-cbmc/benchmarks/cnt/cnt.c:46
 10a:	8d 85       	ldd	r24, Y+13	; 0x0d
 10c:	9e 85       	ldd	r25, Y+14	; 0x0e
 10e:	0e 94 14 01 	call	0x228	; 0x228 <Sum>
/home/becker/async/autosafe/trunk/tum/wcet-cbmc/benchmarks/cnt/cnt.c:47
 112:	8c ed       	ldi	r24, 0xDC	; 220
 114:	95 e0       	ldi	r25, 0x05	; 5
 116:	a0 e0       	ldi	r26, 0x00	; 0
 118:	b0 e0       	ldi	r27, 0x00	; 0
 11a:	8d 83       	std	Y+5, r24	; 0x05
 11c:	9e 83       	std	Y+6, r25	; 0x06
 11e:	af 83       	std	Y+7, r26	; 0x07
 120:	b8 87       	std	Y+8, r27	; 0x08
/home/becker/async/autosafe/trunk/tum/wcet-cbmc/benchmarks/cnt/cnt.c:49
 122:	2d 81       	ldd	r18, Y+5	; 0x05
 124:	3e 81       	ldd	r19, Y+6	; 0x06
 126:	4f 81       	ldd	r20, Y+7	; 0x07
 128:	58 85       	ldd	r21, Y+8	; 0x08
 12a:	89 81       	ldd	r24, Y+1	; 0x01
 12c:	9a 81       	ldd	r25, Y+2	; 0x02
 12e:	ab 81       	ldd	r26, Y+3	; 0x03
 130:	bc 81       	ldd	r27, Y+4	; 0x04
 132:	79 01       	movw	r14, r18
 134:	8a 01       	movw	r16, r20
 136:	e8 1a       	sub	r14, r24
 138:	f9 0a       	sbc	r15, r25
 13a:	0a 0b       	sbc	r16, r26
 13c:	1b 0b       	sbc	r17, r27
 13e:	d8 01       	movw	r26, r16
 140:	c7 01       	movw	r24, r14
 142:	bc 01       	movw	r22, r24
 144:	cd 01       	movw	r24, r26
 146:	0e 94 41 02 	call	0x482	; 0x482 <__floatsisf>
 14a:	dc 01       	movw	r26, r24
 14c:	cb 01       	movw	r24, r22
 14e:	20 e0       	ldi	r18, 0x00	; 0
 150:	30 e0       	ldi	r19, 0x00	; 0
 152:	4a e7       	ldi	r20, 0x7A	; 122
 154:	54 e4       	ldi	r21, 0x44	; 68
 156:	bc 01       	movw	r22, r24
 158:	cd 01       	movw	r24, r26
 15a:	0e 94 d7 01 	call	0x3ae	; 0x3ae <__divsf3>
 15e:	dc 01       	movw	r26, r24
 160:	cb 01       	movw	r24, r22
 162:	89 87       	std	Y+9, r24	; 0x09
 164:	9a 87       	std	Y+10, r25	; 0x0a
 166:	ab 87       	std	Y+11, r26	; 0x0b
 168:	bc 87       	std	Y+12, r27	; 0x0c
/home/becker/async/autosafe/trunk/tum/wcet-cbmc/benchmarks/cnt/cnt.c:56
 16a:	80 e0       	ldi	r24, 0x00	; 0
 16c:	90 e0       	ldi	r25, 0x00	; 0
/home/becker/async/autosafe/trunk/tum/wcet-cbmc/benchmarks/cnt/cnt.c:57
 16e:	2e 96       	adiw	r28, 0x0e	; 14
 170:	0f b6       	in	r0, 0x3f	; 63
 172:	f8 94       	cli
 174:	de bf       	out	0x3e, r29	; 62
 176:	0f be       	out	0x3f, r0	; 63
 178:	cd bf       	out	0x3d, r28	; 61
 17a:	df 91       	pop	r29
 17c:	cf 91       	pop	r28
 17e:	1f 91       	pop	r17
 180:	0f 91       	pop	r16
 182:	ff 90       	pop	r15
 184:	ef 90       	pop	r14
 186:	08 95       	ret

00000188 <Initialize>:
Initialize():
/home/becker/async/autosafe/trunk/tum/wcet-cbmc/benchmarks/cnt/cnt.c:62
 188:	cf 92       	push	r12
 18a:	df 92       	push	r13
 18c:	ef 92       	push	r14
 18e:	ff 92       	push	r15
 190:	0f 93       	push	r16
 192:	1f 93       	push	r17
 194:	cf 93       	push	r28
 196:	df 93       	push	r29
 198:	00 d0       	rcall	.+0      	; 0x19a <Initialize+0x12>
 19a:	cd b7       	in	r28, 0x3d	; 61
 19c:	de b7       	in	r29, 0x3e	; 62
 19e:	9a 83       	std	Y+2, r25	; 0x02
 1a0:	89 83       	std	Y+1, r24	; 0x01
/home/becker/async/autosafe/trunk/tum/wcet-cbmc/benchmarks/cnt/cnt.c:65
 1a2:	00 e0       	ldi	r16, 0x00	; 0
 1a4:	10 e0       	ldi	r17, 0x00	; 0
 1a6:	23 c0       	rjmp	.+70     	; 0x1ee <Initialize+0x66>
/home/becker/async/autosafe/trunk/tum/wcet-cbmc/benchmarks/cnt/cnt.c:66
 1a8:	e1 2c       	mov	r14, r1
 1aa:	f1 2c       	mov	r15, r1
 1ac:	1a c0       	rjmp	.+52     	; 0x1e2 <Initialize+0x5a>
/home/becker/async/autosafe/trunk/tum/wcet-cbmc/benchmarks/cnt/cnt.c:67
 1ae:	98 01       	movw	r18, r16
 1b0:	44 e1       	ldi	r20, 0x14	; 20
 1b2:	42 9f       	mul	r20, r18
 1b4:	c0 01       	movw	r24, r0
 1b6:	43 9f       	mul	r20, r19
 1b8:	90 0d       	add	r25, r0
 1ba:	11 24       	eor	r1, r1
 1bc:	29 81       	ldd	r18, Y+1	; 0x01
 1be:	3a 81       	ldd	r19, Y+2	; 0x02
 1c0:	69 01       	movw	r12, r18
 1c2:	c8 0e       	add	r12, r24
 1c4:	d9 1e       	adc	r13, r25
 1c6:	0e 94 b7 01 	call	0x36e	; 0x36e <RandomInteger>
 1ca:	9c 01       	movw	r18, r24
 1cc:	c7 01       	movw	r24, r14
 1ce:	88 0f       	add	r24, r24
 1d0:	99 1f       	adc	r25, r25
 1d2:	8c 0d       	add	r24, r12
 1d4:	9d 1d       	adc	r25, r13
 1d6:	fc 01       	movw	r30, r24
 1d8:	31 83       	std	Z+1, r19	; 0x01
 1da:	20 83       	st	Z, r18
/home/becker/async/autosafe/trunk/tum/wcet-cbmc/benchmarks/cnt/cnt.c:66
 1dc:	ff ef       	ldi	r31, 0xFF	; 255
 1de:	ef 1a       	sub	r14, r31
 1e0:	ff 0a       	sbc	r15, r31
 1e2:	8a e0       	ldi	r24, 0x0A	; 10
 1e4:	e8 16       	cp	r14, r24
 1e6:	f1 04       	cpc	r15, r1
 1e8:	14 f3       	brlt	.-60     	; 0x1ae <Initialize+0x26>
/home/becker/async/autosafe/trunk/tum/wcet-cbmc/benchmarks/cnt/cnt.c:65
 1ea:	0f 5f       	subi	r16, 0xFF	; 255
 1ec:	1f 4f       	sbci	r17, 0xFF	; 255
 1ee:	0a 30       	cpi	r16, 0x0A	; 10
 1f0:	11 05       	cpc	r17, r1
 1f2:	d4 f2       	brlt	.-76     	; 0x1a8 <Initialize+0x20>
/home/becker/async/autosafe/trunk/tum/wcet-cbmc/benchmarks/cnt/cnt.c:69
 1f4:	80 e0       	ldi	r24, 0x00	; 0
 1f6:	90 e0       	ldi	r25, 0x00	; 0
/home/becker/async/autosafe/trunk/tum/wcet-cbmc/benchmarks/cnt/cnt.c:70
 1f8:	0f 90       	pop	r0
 1fa:	0f 90       	pop	r0
 1fc:	df 91       	pop	r29
 1fe:	cf 91       	pop	r28
 200:	1f 91       	pop	r17
 202:	0f 91       	pop	r16
 204:	ff 90       	pop	r15
 206:	ef 90       	pop	r14
 208:	df 90       	pop	r13
 20a:	cf 90       	pop	r12
 20c:	08 95       	ret

0000020e <InitSeed>:
InitSeed():
/home/becker/async/autosafe/trunk/tum/wcet-cbmc/benchmarks/cnt/cnt.c:75
 20e:	cf 93       	push	r28
 210:	df 93       	push	r29
 212:	cd b7       	in	r28, 0x3d	; 61
 214:	de b7       	in	r29, 0x3e	; 62
/home/becker/async/autosafe/trunk/tum/wcet-cbmc/benchmarks/cnt/cnt.c:76
 216:	10 92 01 01 	sts	0x0101, r1
 21a:	10 92 00 01 	sts	0x0100, r1
/home/becker/async/autosafe/trunk/tum/wcet-cbmc/benchmarks/cnt/cnt.c:77
 21e:	80 e0       	ldi	r24, 0x00	; 0
 220:	90 e0       	ldi	r25, 0x00	; 0
/home/becker/async/autosafe/trunk/tum/wcet-cbmc/benchmarks/cnt/cnt.c:78
 222:	df 91       	pop	r29
 224:	cf 91       	pop	r28
 226:	08 95       	ret

00000228 <Sum>:
Sum():
/home/becker/async/autosafe/trunk/tum/wcet-cbmc/benchmarks/cnt/cnt.c:81
 228:	ef 92       	push	r14
 22a:	ff 92       	push	r15
 22c:	0f 93       	push	r16
 22e:	1f 93       	push	r17
 230:	cf 93       	push	r28
 232:	df 93       	push	r29
 234:	cd b7       	in	r28, 0x3d	; 61
 236:	de b7       	in	r29, 0x3e	; 62
 238:	2a 97       	sbiw	r28, 0x0a	; 10
 23a:	0f b6       	in	r0, 0x3f	; 63
 23c:	f8 94       	cli
 23e:	de bf       	out	0x3e, r29	; 62
 240:	0f be       	out	0x3f, r0	; 63
 242:	cd bf       	out	0x3d, r28	; 61
 244:	9a 87       	std	Y+10, r25	; 0x0a
 246:	89 87       	std	Y+9, r24	; 0x09
/home/becker/async/autosafe/trunk/tum/wcet-cbmc/benchmarks/cnt/cnt.c:84
 248:	1a 82       	std	Y+2, r1	; 0x02
 24a:	19 82       	std	Y+1, r1	; 0x01
/home/becker/async/autosafe/trunk/tum/wcet-cbmc/benchmarks/cnt/cnt.c:85
 24c:	1c 82       	std	Y+4, r1	; 0x04
 24e:	1b 82       	std	Y+3, r1	; 0x03
/home/becker/async/autosafe/trunk/tum/wcet-cbmc/benchmarks/cnt/cnt.c:86
 250:	1e 82       	std	Y+6, r1	; 0x06
 252:	1d 82       	std	Y+5, r1	; 0x05
/home/becker/async/autosafe/trunk/tum/wcet-cbmc/benchmarks/cnt/cnt.c:87
 254:	18 86       	std	Y+8, r1	; 0x08
 256:	1f 82       	std	Y+7, r1	; 0x07
/home/becker/async/autosafe/trunk/tum/wcet-cbmc/benchmarks/cnt/cnt.c:89
 258:	00 e0       	ldi	r16, 0x00	; 0
 25a:	10 e0       	ldi	r17, 0x00	; 0
 25c:	5f c0       	rjmp	.+190    	; 0x31c <Sum+0xf4>
/home/becker/async/autosafe/trunk/tum/wcet-cbmc/benchmarks/cnt/cnt.c:90
 25e:	e1 2c       	mov	r14, r1
 260:	f1 2c       	mov	r15, r1
 262:	55 c0       	rjmp	.+170    	; 0x30e <Sum+0xe6>
/home/becker/async/autosafe/trunk/tum/wcet-cbmc/benchmarks/cnt/cnt.c:94
 264:	98 01       	movw	r18, r16
 266:	44 e1       	ldi	r20, 0x14	; 20
 268:	42 9f       	mul	r20, r18
 26a:	c0 01       	movw	r24, r0
 26c:	43 9f       	mul	r20, r19
 26e:	90 0d       	add	r25, r0
 270:	11 24       	eor	r1, r1
 272:	29 85       	ldd	r18, Y+9	; 0x09
 274:	3a 85       	ldd	r19, Y+10	; 0x0a
 276:	28 0f       	add	r18, r24
 278:	39 1f       	adc	r19, r25
 27a:	c7 01       	movw	r24, r14
 27c:	88 0f       	add	r24, r24
 27e:	99 1f       	adc	r25, r25
 280:	82 0f       	add	r24, r18
 282:	93 1f       	adc	r25, r19
 284:	fc 01       	movw	r30, r24
 286:	80 81       	ld	r24, Z
 288:	91 81       	ldd	r25, Z+1	; 0x01
 28a:	99 23       	and	r25, r25
 28c:	fc f4       	brge	.+62     	; 0x2cc <Sum+0xa4>
/home/becker/async/autosafe/trunk/tum/wcet-cbmc/benchmarks/cnt/cnt.c:96
 28e:	98 01       	movw	r18, r16
 290:	44 e1       	ldi	r20, 0x14	; 20
 292:	42 9f       	mul	r20, r18
 294:	c0 01       	movw	r24, r0
 296:	43 9f       	mul	r20, r19
 298:	90 0d       	add	r25, r0
 29a:	11 24       	eor	r1, r1
 29c:	29 85       	ldd	r18, Y+9	; 0x09
 29e:	3a 85       	ldd	r19, Y+10	; 0x0a
 2a0:	28 0f       	add	r18, r24
 2a2:	39 1f       	adc	r19, r25
 2a4:	c7 01       	movw	r24, r14
 2a6:	88 0f       	add	r24, r24
 2a8:	99 1f       	adc	r25, r25
 2aa:	82 0f       	add	r24, r18
 2ac:	93 1f       	adc	r25, r19
 2ae:	fc 01       	movw	r30, r24
 2b0:	80 81       	ld	r24, Z
 2b2:	91 81       	ldd	r25, Z+1	; 0x01
 2b4:	29 81       	ldd	r18, Y+1	; 0x01
 2b6:	3a 81       	ldd	r19, Y+2	; 0x02
 2b8:	82 0f       	add	r24, r18
 2ba:	93 1f       	adc	r25, r19
 2bc:	9a 83       	std	Y+2, r25	; 0x02
 2be:	89 83       	std	Y+1, r24	; 0x01
/home/becker/async/autosafe/trunk/tum/wcet-cbmc/benchmarks/cnt/cnt.c:97
 2c0:	8d 81       	ldd	r24, Y+5	; 0x05
 2c2:	9e 81       	ldd	r25, Y+6	; 0x06
 2c4:	01 96       	adiw	r24, 0x01	; 1
 2c6:	9e 83       	std	Y+6, r25	; 0x06
 2c8:	8d 83       	std	Y+5, r24	; 0x05
 2ca:	1e c0       	rjmp	.+60     	; 0x308 <Sum+0xe0>
/home/becker/async/autosafe/trunk/tum/wcet-cbmc/benchmarks/cnt/cnt.c:100
 2cc:	98 01       	movw	r18, r16
 2ce:	44 e1       	ldi	r20, 0x14	; 20
 2d0:	42 9f       	mul	r20, r18
 2d2:	c0 01       	movw	r24, r0
 2d4:	43 9f       	mul	r20, r19
 2d6:	90 0d       	add	r25, r0
 2d8:	11 24       	eor	r1, r1
 2da:	29 85       	ldd	r18, Y+9	; 0x09
 2dc:	3a 85       	ldd	r19, Y+10	; 0x0a
 2de:	28 0f       	add	r18, r24
 2e0:	39 1f       	adc	r19, r25
 2e2:	c7 01       	movw	r24, r14
 2e4:	88 0f       	add	r24, r24
 2e6:	99 1f       	adc	r25, r25
 2e8:	82 0f       	add	r24, r18
 2ea:	93 1f       	adc	r25, r19
 2ec:	fc 01       	movw	r30, r24
 2ee:	80 81       	ld	r24, Z
 2f0:	91 81       	ldd	r25, Z+1	; 0x01
 2f2:	2b 81       	ldd	r18, Y+3	; 0x03
 2f4:	3c 81       	ldd	r19, Y+4	; 0x04
 2f6:	82 0f       	add	r24, r18
 2f8:	93 1f       	adc	r25, r19
 2fa:	9c 83       	std	Y+4, r25	; 0x04
 2fc:	8b 83       	std	Y+3, r24	; 0x03
/home/becker/async/autosafe/trunk/tum/wcet-cbmc/benchmarks/cnt/cnt.c:101
 2fe:	8f 81       	ldd	r24, Y+7	; 0x07
 300:	98 85       	ldd	r25, Y+8	; 0x08
 302:	01 96       	adiw	r24, 0x01	; 1
 304:	98 87       	std	Y+8, r25	; 0x08
 306:	8f 83       	std	Y+7, r24	; 0x07
/home/becker/async/autosafe/trunk/tum/wcet-cbmc/benchmarks/cnt/cnt.c:90
 308:	ff ef       	ldi	r31, 0xFF	; 255
 30a:	ef 1a       	sub	r14, r31
 30c:	ff 0a       	sbc	r15, r31
 30e:	8a e0       	ldi	r24, 0x0A	; 10
 310:	e8 16       	cp	r14, r24
 312:	f1 04       	cpc	r15, r1
 314:	0c f4       	brge	.+2      	; 0x318 <Sum+0xf0>
 316:	a6 cf       	rjmp	.-180    	; 0x264 <Sum+0x3c>
/home/becker/async/autosafe/trunk/tum/wcet-cbmc/benchmarks/cnt/cnt.c:89
 318:	0f 5f       	subi	r16, 0xFF	; 255
 31a:	1f 4f       	sbci	r17, 0xFF	; 255
 31c:	0a 30       	cpi	r16, 0x0A	; 10
 31e:	11 05       	cpc	r17, r1
 320:	0c f4       	brge	.+2      	; 0x324 <Sum+0xfc>
 322:	9d cf       	rjmp	.-198    	; 0x25e <Sum+0x36>
/home/becker/async/autosafe/trunk/tum/wcet-cbmc/benchmarks/cnt/cnt.c:104
 324:	89 81       	ldd	r24, Y+1	; 0x01
 326:	9a 81       	ldd	r25, Y+2	; 0x02
 328:	90 93 03 01 	sts	0x0103, r25
 32c:	80 93 02 01 	sts	0x0102, r24
/home/becker/async/autosafe/trunk/tum/wcet-cbmc/benchmarks/cnt/cnt.c:105
 330:	8d 81       	ldd	r24, Y+5	; 0x05
 332:	9e 81       	ldd	r25, Y+6	; 0x06
 334:	90 93 d1 01 	sts	0x01D1, r25
 338:	80 93 d0 01 	sts	0x01D0, r24
/home/becker/async/autosafe/trunk/tum/wcet-cbmc/benchmarks/cnt/cnt.c:106
 33c:	8b 81       	ldd	r24, Y+3	; 0x03
 33e:	9c 81       	ldd	r25, Y+4	; 0x04
 340:	90 93 cd 01 	sts	0x01CD, r25
 344:	80 93 cc 01 	sts	0x01CC, r24
/home/becker/async/autosafe/trunk/tum/wcet-cbmc/benchmarks/cnt/cnt.c:107
 348:	8f 81       	ldd	r24, Y+7	; 0x07
 34a:	98 85       	ldd	r25, Y+8	; 0x08
 34c:	90 93 cf 01 	sts	0x01CF, r25
 350:	80 93 ce 01 	sts	0x01CE, r24
/home/becker/async/autosafe/trunk/tum/wcet-cbmc/benchmarks/cnt/cnt.c:108
 354:	2a 96       	adiw	r28, 0x0a	; 10
 356:	0f b6       	in	r0, 0x3f	; 63
 358:	f8 94       	cli
 35a:	de bf       	out	0x3e, r29	; 62
 35c:	0f be       	out	0x3f, r0	; 63
 35e:	cd bf       	out	0x3d, r28	; 61
 360:	df 91       	pop	r29
 362:	cf 91       	pop	r28
 364:	1f 91       	pop	r17
 366:	0f 91       	pop	r16
 368:	ff 90       	pop	r15
 36a:	ef 90       	pop	r14
 36c:	08 95       	ret

0000036e <RandomInteger>:
RandomInteger():
/home/becker/async/autosafe/trunk/tum/wcet-cbmc/benchmarks/cnt/cnt.c:125
 36e:	cf 93       	push	r28
 370:	df 93       	push	r29
 372:	cd b7       	in	r28, 0x3d	; 61
 374:	de b7       	in	r29, 0x3e	; 62
/home/becker/async/autosafe/trunk/tum/wcet-cbmc/benchmarks/cnt/cnt.c:126
 376:	20 91 00 01 	lds	r18, 0x0100
 37a:	30 91 01 01 	lds	r19, 0x0101
 37e:	45 e8       	ldi	r20, 0x85	; 133
 380:	42 9f       	mul	r20, r18
 382:	c0 01       	movw	r24, r0
 384:	43 9f       	mul	r20, r19
 386:	90 0d       	add	r25, r0
 388:	11 24       	eor	r1, r1
 38a:	8f 5a       	subi	r24, 0xAF	; 175
 38c:	9f 4f       	sbci	r25, 0xFF	; 255
 38e:	2f e9       	ldi	r18, 0x9F	; 159
 390:	3f e1       	ldi	r19, 0x1F	; 31
 392:	b9 01       	movw	r22, r18
 394:	0e 94 cd 02 	call	0x59a	; 0x59a <__divmodhi4>
 398:	90 93 01 01 	sts	0x0101, r25
 39c:	80 93 00 01 	sts	0x0100, r24
/home/becker/async/autosafe/trunk/tum/wcet-cbmc/benchmarks/cnt/cnt.c:127
 3a0:	80 91 00 01 	lds	r24, 0x0100
 3a4:	90 91 01 01 	lds	r25, 0x0101
/home/becker/async/autosafe/trunk/tum/wcet-cbmc/benchmarks/cnt/cnt.c:128
 3a8:	df 91       	pop	r29
 3aa:	cf 91       	pop	r28
 3ac:	08 95       	ret

000003ae <__divsf3>:
../../../libm/fplib/fp_zero.S:39
 3ae:	0c d0       	rcall	.+24     	; 0x3c8 <__divsf3x>
 3b0:	ba c0       	rjmp	.+372    	; 0x526 <__fp_round>
 3b2:	b2 d0       	rcall	.+356    	; 0x518 <__fp_pscB>
 3b4:	40 f0       	brcs	.+16     	; 0x3c6 <__divsf3+0x18>
 3b6:	a9 d0       	rcall	.+338    	; 0x50a <__fp_pscA>
 3b8:	30 f0       	brcs	.+12     	; 0x3c6 <__divsf3+0x18>
 3ba:	21 f4       	brne	.+8      	; 0x3c4 <__divsf3+0x16>
 3bc:	5f 3f       	cpi	r21, 0xFF	; 255
 3be:	19 f0       	breq	.+6      	; 0x3c6 <__divsf3+0x18>
 3c0:	9b c0       	rjmp	.+310    	; 0x4f8 <__fp_inf>
 3c2:	51 11       	cpse	r21, r1
 3c4:	e4 c0       	rjmp	.+456    	; 0x58e <__fp_szero>
 3c6:	9e c0       	rjmp	.+316    	; 0x504 <__fp_nan>

000003c8 <__divsf3x>:
 3c8:	bf d0       	rcall	.+382    	; 0x548 <__fp_split3>
 3ca:	98 f3       	brcs	.-26     	; 0x3b2 <__divsf3+0x4>

000003cc <__divsf3_pse>:
 3cc:	99 23       	and	r25, r25
 3ce:	c9 f3       	breq	.-14     	; 0x3c2 <__divsf3+0x14>
 3d0:	55 23       	and	r21, r21
 3d2:	b1 f3       	breq	.-20     	; 0x3c0 <__divsf3+0x12>
 3d4:	95 1b       	sub	r25, r21
 3d6:	55 0b       	sbc	r21, r21
 3d8:	bb 27       	eor	r27, r27
 3da:	aa 27       	eor	r26, r26
 3dc:	62 17       	cp	r22, r18
 3de:	73 07       	cpc	r23, r19
 3e0:	84 07       	cpc	r24, r20
 3e2:	38 f0       	brcs	.+14     	; 0x3f2 <__divsf3_pse+0x26>
 3e4:	9f 5f       	subi	r25, 0xFF	; 255
 3e6:	5f 4f       	sbci	r21, 0xFF	; 255
 3e8:	22 0f       	add	r18, r18
 3ea:	33 1f       	adc	r19, r19
 3ec:	44 1f       	adc	r20, r20
 3ee:	aa 1f       	adc	r26, r26
 3f0:	a9 f3       	breq	.-22     	; 0x3dc <__divsf3_pse+0x10>
 3f2:	33 d0       	rcall	.+102    	; 0x45a <__divsf3_pse+0x8e>
 3f4:	0e 2e       	mov	r0, r30
 3f6:	3a f0       	brmi	.+14     	; 0x406 <__divsf3_pse+0x3a>
 3f8:	e0 e8       	ldi	r30, 0x80	; 128
 3fa:	30 d0       	rcall	.+96     	; 0x45c <__divsf3_pse+0x90>
 3fc:	91 50       	subi	r25, 0x01	; 1
 3fe:	50 40       	sbci	r21, 0x00	; 0
 400:	e6 95       	lsr	r30
 402:	00 1c       	adc	r0, r0
 404:	ca f7       	brpl	.-14     	; 0x3f8 <__divsf3_pse+0x2c>
 406:	29 d0       	rcall	.+82     	; 0x45a <__divsf3_pse+0x8e>
 408:	fe 2f       	mov	r31, r30
 40a:	27 d0       	rcall	.+78     	; 0x45a <__divsf3_pse+0x8e>
 40c:	66 0f       	add	r22, r22
 40e:	77 1f       	adc	r23, r23
 410:	88 1f       	adc	r24, r24
 412:	bb 1f       	adc	r27, r27
 414:	26 17       	cp	r18, r22
 416:	37 07       	cpc	r19, r23
 418:	48 07       	cpc	r20, r24
 41a:	ab 07       	cpc	r26, r27
 41c:	b0 e8       	ldi	r27, 0x80	; 128
 41e:	09 f0       	breq	.+2      	; 0x422 <__divsf3_pse+0x56>
 420:	bb 0b       	sbc	r27, r27
 422:	80 2d       	mov	r24, r0
 424:	bf 01       	movw	r22, r30
 426:	ff 27       	eor	r31, r31
 428:	93 58       	subi	r25, 0x83	; 131
 42a:	5f 4f       	sbci	r21, 0xFF	; 255
 42c:	2a f0       	brmi	.+10     	; 0x438 <__divsf3_pse+0x6c>
 42e:	9e 3f       	cpi	r25, 0xFE	; 254
 430:	51 05       	cpc	r21, r1
 432:	68 f0       	brcs	.+26     	; 0x44e <__divsf3_pse+0x82>
 434:	61 c0       	rjmp	.+194    	; 0x4f8 <__fp_inf>
 436:	ab c0       	rjmp	.+342    	; 0x58e <__fp_szero>
 438:	5f 3f       	cpi	r21, 0xFF	; 255
 43a:	ec f3       	brlt	.-6      	; 0x436 <__divsf3_pse+0x6a>
 43c:	98 3e       	cpi	r25, 0xE8	; 232
 43e:	dc f3       	brlt	.-10     	; 0x436 <__divsf3_pse+0x6a>
 440:	86 95       	lsr	r24
 442:	77 95       	ror	r23
 444:	67 95       	ror	r22
 446:	b7 95       	ror	r27
 448:	f7 95       	ror	r31
 44a:	9f 5f       	subi	r25, 0xFF	; 255
 44c:	c9 f7       	brne	.-14     	; 0x440 <__divsf3_pse+0x74>
 44e:	88 0f       	add	r24, r24
 450:	91 1d       	adc	r25, r1
 452:	96 95       	lsr	r25
 454:	87 95       	ror	r24
 456:	97 f9       	bld	r25, 7
 458:	08 95       	ret
 45a:	e1 e0       	ldi	r30, 0x01	; 1
 45c:	66 0f       	add	r22, r22
 45e:	77 1f       	adc	r23, r23
 460:	88 1f       	adc	r24, r24
 462:	bb 1f       	adc	r27, r27
 464:	62 17       	cp	r22, r18
 466:	73 07       	cpc	r23, r19
 468:	84 07       	cpc	r24, r20
 46a:	ba 07       	cpc	r27, r26
 46c:	20 f0       	brcs	.+8      	; 0x476 <__divsf3_pse+0xaa>
 46e:	62 1b       	sub	r22, r18
 470:	73 0b       	sbc	r23, r19
 472:	84 0b       	sbc	r24, r20
 474:	ba 0b       	sbc	r27, r26
 476:	ee 1f       	adc	r30, r30
 478:	88 f7       	brcc	.-30     	; 0x45c <__divsf3_pse+0x90>
 47a:	e0 95       	com	r30
 47c:	08 95       	ret

0000047e <__floatunsisf>:
 47e:	e8 94       	clt
 480:	09 c0       	rjmp	.+18     	; 0x494 <__floatsisf+0x12>

00000482 <__floatsisf>:
 482:	97 fb       	bst	r25, 7
 484:	3e f4       	brtc	.+14     	; 0x494 <__floatsisf+0x12>
 486:	90 95       	com	r25
 488:	80 95       	com	r24
 48a:	70 95       	com	r23
 48c:	61 95       	neg	r22
 48e:	7f 4f       	sbci	r23, 0xFF	; 255
 490:	8f 4f       	sbci	r24, 0xFF	; 255
 492:	9f 4f       	sbci	r25, 0xFF	; 255
 494:	99 23       	and	r25, r25
 496:	a9 f0       	breq	.+42     	; 0x4c2 <__floatsisf+0x40>
 498:	f9 2f       	mov	r31, r25
 49a:	96 e9       	ldi	r25, 0x96	; 150
 49c:	bb 27       	eor	r27, r27
 49e:	93 95       	inc	r25
 4a0:	f6 95       	lsr	r31
 4a2:	87 95       	ror	r24
 4a4:	77 95       	ror	r23
 4a6:	67 95       	ror	r22
 4a8:	b7 95       	ror	r27
 4aa:	f1 11       	cpse	r31, r1
 4ac:	f8 cf       	rjmp	.-16     	; 0x49e <__floatsisf+0x1c>
 4ae:	fa f4       	brpl	.+62     	; 0x4ee <__floatsisf+0x6c>
 4b0:	bb 0f       	add	r27, r27
 4b2:	11 f4       	brne	.+4      	; 0x4b8 <__floatsisf+0x36>
 4b4:	60 ff       	sbrs	r22, 0
 4b6:	1b c0       	rjmp	.+54     	; 0x4ee <__floatsisf+0x6c>
 4b8:	6f 5f       	subi	r22, 0xFF	; 255
 4ba:	7f 4f       	sbci	r23, 0xFF	; 255
 4bc:	8f 4f       	sbci	r24, 0xFF	; 255
 4be:	9f 4f       	sbci	r25, 0xFF	; 255
 4c0:	16 c0       	rjmp	.+44     	; 0x4ee <__floatsisf+0x6c>
 4c2:	88 23       	and	r24, r24
 4c4:	11 f0       	breq	.+4      	; 0x4ca <__floatsisf+0x48>
 4c6:	96 e9       	ldi	r25, 0x96	; 150
 4c8:	11 c0       	rjmp	.+34     	; 0x4ec <__floatsisf+0x6a>
 4ca:	77 23       	and	r23, r23
 4cc:	21 f0       	breq	.+8      	; 0x4d6 <__floatsisf+0x54>
 4ce:	9e e8       	ldi	r25, 0x8E	; 142
 4d0:	87 2f       	mov	r24, r23
 4d2:	76 2f       	mov	r23, r22
 4d4:	05 c0       	rjmp	.+10     	; 0x4e0 <__floatsisf+0x5e>
 4d6:	66 23       	and	r22, r22
 4d8:	71 f0       	breq	.+28     	; 0x4f6 <__floatsisf+0x74>
 4da:	96 e8       	ldi	r25, 0x86	; 134
 4dc:	86 2f       	mov	r24, r22
 4de:	70 e0       	ldi	r23, 0x00	; 0
 4e0:	60 e0       	ldi	r22, 0x00	; 0
 4e2:	2a f0       	brmi	.+10     	; 0x4ee <__floatsisf+0x6c>
 4e4:	9a 95       	dec	r25
 4e6:	66 0f       	add	r22, r22
 4e8:	77 1f       	adc	r23, r23
 4ea:	88 1f       	adc	r24, r24
 4ec:	da f7       	brpl	.-10     	; 0x4e4 <__floatsisf+0x62>
 4ee:	88 0f       	add	r24, r24
 4f0:	96 95       	lsr	r25
 4f2:	87 95       	ror	r24
 4f4:	97 f9       	bld	r25, 7
 4f6:	08 95       	ret

000004f8 <__fp_inf>:
 4f8:	97 f9       	bld	r25, 7
 4fa:	9f 67       	ori	r25, 0x7F	; 127
 4fc:	80 e8       	ldi	r24, 0x80	; 128
 4fe:	70 e0       	ldi	r23, 0x00	; 0
 500:	60 e0       	ldi	r22, 0x00	; 0
 502:	08 95       	ret

00000504 <__fp_nan>:
 504:	9f ef       	ldi	r25, 0xFF	; 255
 506:	80 ec       	ldi	r24, 0xC0	; 192
 508:	08 95       	ret

0000050a <__fp_pscA>:
 50a:	00 24       	eor	r0, r0
 50c:	0a 94       	dec	r0
 50e:	16 16       	cp	r1, r22
 510:	17 06       	cpc	r1, r23
 512:	18 06       	cpc	r1, r24
 514:	09 06       	cpc	r0, r25
 516:	08 95       	ret

00000518 <__fp_pscB>:
 518:	00 24       	eor	r0, r0
 51a:	0a 94       	dec	r0
 51c:	12 16       	cp	r1, r18
 51e:	13 06       	cpc	r1, r19
 520:	14 06       	cpc	r1, r20
 522:	05 06       	cpc	r0, r21
 524:	08 95       	ret

00000526 <__fp_round>:
 526:	09 2e       	mov	r0, r25
 528:	03 94       	inc	r0
 52a:	00 0c       	add	r0, r0
 52c:	11 f4       	brne	.+4      	; 0x532 <__fp_round+0xc>
 52e:	88 23       	and	r24, r24
 530:	52 f0       	brmi	.+20     	; 0x546 <__fp_round+0x20>
 532:	bb 0f       	add	r27, r27
 534:	40 f4       	brcc	.+16     	; 0x546 <__fp_round+0x20>
 536:	bf 2b       	or	r27, r31
 538:	11 f4       	brne	.+4      	; 0x53e <__fp_round+0x18>
 53a:	60 ff       	sbrs	r22, 0
 53c:	04 c0       	rjmp	.+8      	; 0x546 <__fp_round+0x20>
 53e:	6f 5f       	subi	r22, 0xFF	; 255
 540:	7f 4f       	sbci	r23, 0xFF	; 255
 542:	8f 4f       	sbci	r24, 0xFF	; 255
 544:	9f 4f       	sbci	r25, 0xFF	; 255
 546:	08 95       	ret

00000548 <__fp_split3>:
 548:	57 fd       	sbrc	r21, 7
 54a:	90 58       	subi	r25, 0x80	; 128
 54c:	44 0f       	add	r20, r20
 54e:	55 1f       	adc	r21, r21
 550:	59 f0       	breq	.+22     	; 0x568 <__fp_splitA+0x10>
 552:	5f 3f       	cpi	r21, 0xFF	; 255
 554:	71 f0       	breq	.+28     	; 0x572 <__fp_splitA+0x1a>
 556:	47 95       	ror	r20

00000558 <__fp_splitA>:
 558:	88 0f       	add	r24, r24
 55a:	97 fb       	bst	r25, 7
 55c:	99 1f       	adc	r25, r25
 55e:	61 f0       	breq	.+24     	; 0x578 <__fp_splitA+0x20>
 560:	9f 3f       	cpi	r25, 0xFF	; 255
 562:	79 f0       	breq	.+30     	; 0x582 <__fp_splitA+0x2a>
 564:	87 95       	ror	r24
 566:	08 95       	ret
 568:	12 16       	cp	r1, r18
 56a:	13 06       	cpc	r1, r19
 56c:	14 06       	cpc	r1, r20
 56e:	55 1f       	adc	r21, r21
 570:	f2 cf       	rjmp	.-28     	; 0x556 <__fp_split3+0xe>
 572:	46 95       	lsr	r20
 574:	f1 df       	rcall	.-30     	; 0x558 <__fp_splitA>
 576:	08 c0       	rjmp	.+16     	; 0x588 <__fp_splitA+0x30>
 578:	16 16       	cp	r1, r22
 57a:	17 06       	cpc	r1, r23
 57c:	18 06       	cpc	r1, r24
 57e:	99 1f       	adc	r25, r25
 580:	f1 cf       	rjmp	.-30     	; 0x564 <__fp_splitA+0xc>
 582:	86 95       	lsr	r24
 584:	71 05       	cpc	r23, r1
 586:	61 05       	cpc	r22, r1
 588:	08 94       	sec
 58a:	08 95       	ret

0000058c <__fp_zero>:
../../../libm/fplib/fp_zero.S:40
 58c:	e8 94       	clt

0000058e <__fp_szero>:
../../../libm/fplib/fp_zero.S:42
 58e:	bb 27       	eor	r27, r27
../../../libm/fplib/fp_zero.S:43
 590:	66 27       	eor	r22, r22
../../../libm/fplib/fp_zero.S:44
 592:	77 27       	eor	r23, r23
../../../libm/fplib/fp_zero.S:45
 594:	cb 01       	movw	r24, r22
../../../libm/fplib/fp_zero.S:46
 596:	97 f9       	bld	r25, 7
../../../libm/fplib/fp_zero.S:47
 598:	08 95       	ret

0000059a <__divmodhi4>:
../../../libm/fplib/fp_zero.S:48
 59a:	97 fb       	bst	r25, 7
 59c:	07 2e       	mov	r0, r23
 59e:	16 f4       	brtc	.+4      	; 0x5a4 <__divmodhi4+0xa>
 5a0:	00 94       	com	r0
 5a2:	07 d0       	rcall	.+14     	; 0x5b2 <__divmodhi4_neg1>
 5a4:	77 fd       	sbrc	r23, 7
 5a6:	09 d0       	rcall	.+18     	; 0x5ba <__divmodhi4_neg2>
 5a8:	0e 94 e1 02 	call	0x5c2	; 0x5c2 <__udivmodhi4>
 5ac:	07 fc       	sbrc	r0, 7
 5ae:	05 d0       	rcall	.+10     	; 0x5ba <__divmodhi4_neg2>
 5b0:	3e f4       	brtc	.+14     	; 0x5c0 <__divmodhi4_exit>

000005b2 <__divmodhi4_neg1>:
 5b2:	90 95       	com	r25
 5b4:	81 95       	neg	r24
 5b6:	9f 4f       	sbci	r25, 0xFF	; 255
 5b8:	08 95       	ret

000005ba <__divmodhi4_neg2>:
 5ba:	70 95       	com	r23
 5bc:	61 95       	neg	r22
 5be:	7f 4f       	sbci	r23, 0xFF	; 255

000005c0 <__divmodhi4_exit>:
 5c0:	08 95       	ret

000005c2 <__udivmodhi4>:
 5c2:	aa 1b       	sub	r26, r26
 5c4:	bb 1b       	sub	r27, r27
 5c6:	51 e1       	ldi	r21, 0x11	; 17
 5c8:	07 c0       	rjmp	.+14     	; 0x5d8 <__udivmodhi4_ep>

000005ca <__udivmodhi4_loop>:
 5ca:	aa 1f       	adc	r26, r26
 5cc:	bb 1f       	adc	r27, r27
 5ce:	a6 17       	cp	r26, r22
 5d0:	b7 07       	cpc	r27, r23
 5d2:	10 f0       	brcs	.+4      	; 0x5d8 <__udivmodhi4_ep>
 5d4:	a6 1b       	sub	r26, r22
 5d6:	b7 0b       	sbc	r27, r23

000005d8 <__udivmodhi4_ep>:
 5d8:	88 1f       	adc	r24, r24
 5da:	99 1f       	adc	r25, r25
 5dc:	5a 95       	dec	r21
 5de:	a9 f7       	brne	.-22     	; 0x5ca <__udivmodhi4_loop>
 5e0:	80 95       	com	r24
 5e2:	90 95       	com	r25
 5e4:	bc 01       	movw	r22, r24
 5e6:	cd 01       	movw	r24, r26
 5e8:	08 95       	ret

000005ea <_exit>:
 5ea:	f8 94       	cli

000005ec <__stop_program>:
 5ec:	ff cf       	rjmp	.-2      	; 0x5ec <__stop_program>
