
main.elf:     file format elf32-avr


Disassembly of section .text:

00000000 <__vectors>:
__vectors():
../../../../crt1/gcrt1.S:52
   0:	0c 94 46 00 	jmp	0x8c	; 0x8c <__ctors_end>
../../../../crt1/gcrt1.S:53
   4:	0c 94 5d 00 	jmp	0xba	; 0xba <__bad_interrupt>
../../../../crt1/gcrt1.S:54
   8:	0c 94 5d 00 	jmp	0xba	; 0xba <__bad_interrupt>
../../../../crt1/gcrt1.S:55
   c:	0c 94 5d 00 	jmp	0xba	; 0xba <__bad_interrupt>
../../../../crt1/gcrt1.S:56
  10:	0c 94 5d 00 	jmp	0xba	; 0xba <__bad_interrupt>
../../../../crt1/gcrt1.S:57
  14:	0c 94 5d 00 	jmp	0xba	; 0xba <__bad_interrupt>
../../../../crt1/gcrt1.S:58
  18:	0c 94 5d 00 	jmp	0xba	; 0xba <__bad_interrupt>
../../../../crt1/gcrt1.S:59
  1c:	0c 94 5d 00 	jmp	0xba	; 0xba <__bad_interrupt>
../../../../crt1/gcrt1.S:60
  20:	0c 94 5d 00 	jmp	0xba	; 0xba <__bad_interrupt>
../../../../crt1/gcrt1.S:61
  24:	0c 94 5d 00 	jmp	0xba	; 0xba <__bad_interrupt>
../../../../crt1/gcrt1.S:62
  28:	0c 94 5d 00 	jmp	0xba	; 0xba <__bad_interrupt>
../../../../crt1/gcrt1.S:63
  2c:	0c 94 5d 00 	jmp	0xba	; 0xba <__bad_interrupt>
../../../../crt1/gcrt1.S:64
  30:	0c 94 5d 00 	jmp	0xba	; 0xba <__bad_interrupt>
../../../../crt1/gcrt1.S:65
  34:	0c 94 5d 00 	jmp	0xba	; 0xba <__bad_interrupt>
../../../../crt1/gcrt1.S:66
  38:	0c 94 5d 00 	jmp	0xba	; 0xba <__bad_interrupt>
../../../../crt1/gcrt1.S:67
  3c:	0c 94 5d 00 	jmp	0xba	; 0xba <__bad_interrupt>
../../../../crt1/gcrt1.S:68
  40:	0c 94 5d 00 	jmp	0xba	; 0xba <__bad_interrupt>
../../../../crt1/gcrt1.S:69
  44:	0c 94 5d 00 	jmp	0xba	; 0xba <__bad_interrupt>
../../../../crt1/gcrt1.S:70
  48:	0c 94 5d 00 	jmp	0xba	; 0xba <__bad_interrupt>
../../../../crt1/gcrt1.S:71
  4c:	0c 94 5d 00 	jmp	0xba	; 0xba <__bad_interrupt>
../../../../crt1/gcrt1.S:72
  50:	0c 94 5d 00 	jmp	0xba	; 0xba <__bad_interrupt>
../../../../crt1/gcrt1.S:73
  54:	0c 94 5d 00 	jmp	0xba	; 0xba <__bad_interrupt>
../../../../crt1/gcrt1.S:74
  58:	0c 94 5d 00 	jmp	0xba	; 0xba <__bad_interrupt>
../../../../crt1/gcrt1.S:75
  5c:	0c 94 5d 00 	jmp	0xba	; 0xba <__bad_interrupt>
../../../../crt1/gcrt1.S:76
  60:	0c 94 5d 00 	jmp	0xba	; 0xba <__bad_interrupt>
../../../../crt1/gcrt1.S:77
  64:	0c 94 5d 00 	jmp	0xba	; 0xba <__bad_interrupt>
../../../../crt1/gcrt1.S:78
  68:	0c 94 5d 00 	jmp	0xba	; 0xba <__bad_interrupt>
../../../../crt1/gcrt1.S:79
  6c:	0c 94 5d 00 	jmp	0xba	; 0xba <__bad_interrupt>
../../../../crt1/gcrt1.S:80
  70:	0c 94 5d 00 	jmp	0xba	; 0xba <__bad_interrupt>
../../../../crt1/gcrt1.S:81
  74:	0c 94 5d 00 	jmp	0xba	; 0xba <__bad_interrupt>
../../../../crt1/gcrt1.S:82
  78:	0c 94 5d 00 	jmp	0xba	; 0xba <__bad_interrupt>
../../../../crt1/gcrt1.S:83
  7c:	0c 94 5d 00 	jmp	0xba	; 0xba <__bad_interrupt>
../../../../crt1/gcrt1.S:84
  80:	0c 94 5d 00 	jmp	0xba	; 0xba <__bad_interrupt>
../../../../crt1/gcrt1.S:85
  84:	0c 94 5d 00 	jmp	0xba	; 0xba <__bad_interrupt>
../../../../crt1/gcrt1.S:86
  88:	0c 94 5d 00 	jmp	0xba	; 0xba <__bad_interrupt>

0000008c <__ctors_end>:
../../../../crt1/gcrt1.S:179
  8c:	11 24       	eor	r1, r1
  8e:	1f be       	out	0x3f, r1	; 63
  90:	cf ef       	ldi	r28, 0xFF	; 255
  92:	d0 e1       	ldi	r29, 0x10	; 16
  94:	de bf       	out	0x3e, r29	; 62
  96:	cd bf       	out	0x3d, r28	; 61

00000098 <__do_copy_data>:
  98:	17 e1       	ldi	r17, 0x17	; 23
  9a:	a0 e0       	ldi	r26, 0x00	; 0
  9c:	b1 e0       	ldi	r27, 0x01	; 1
  9e:	e4 ec       	ldi	r30, 0xC4	; 196
  a0:	f4 e0       	ldi	r31, 0x04	; 4
  a2:	00 e0       	ldi	r16, 0x00	; 0
  a4:	0b bf       	out	0x3b, r16	; 59
  a6:	02 c0       	rjmp	.+4      	; 0xac <__do_copy_data+0x14>
  a8:	07 90       	elpm	r0, Z+
  aa:	0d 92       	st	X+, r0
  ac:	a4 3c       	cpi	r26, 0xC4	; 196
  ae:	b1 07       	cpc	r27, r17
  b0:	d9 f7       	brne	.-10     	; 0xa8 <__do_copy_data+0x10>
  b2:	0e 94 5f 00 	call	0xbe	; 0xbe <main>
  b6:	0c 94 60 02 	jmp	0x4c0	; 0x4c0 <_exit>

000000ba <__bad_interrupt>:
__bad_interrupt():
../../../../crt1/gcrt1.S:195
  ba:	0c 94 00 00 	jmp	0	; 0x0 <__vectors>

000000be <main>:
main():
/home/becker/async/autosafe/trunk/tum/wcet-cbmc/benchmarks/fir/fir.c:214
  be:	8f 92       	push	r8
  c0:	9f 92       	push	r9
  c2:	af 92       	push	r10
  c4:	bf 92       	push	r11
  c6:	cf 92       	push	r12
  c8:	df 92       	push	r13
  ca:	ef 92       	push	r14
  cc:	ff 92       	push	r15
  ce:	0f 93       	push	r16
  d0:	1f 93       	push	r17
  d2:	cf 93       	push	r28
  d4:	df 93       	push	r29
  d6:	cd b7       	in	r28, 0x3d	; 61
  d8:	de b7       	in	r29, 0x3e	; 62
  da:	c0 54       	subi	r28, 0x40	; 64
  dc:	db 40       	sbci	r29, 0x0B	; 11
  de:	0f b6       	in	r0, 0x3f	; 63
  e0:	f8 94       	cli
  e2:	de bf       	out	0x3e, r29	; 62
  e4:	0f be       	out	0x3f, r0	; 63
  e6:	cd bf       	out	0x3d, r28	; 61
/home/becker/async/autosafe/trunk/tum/wcet-cbmc/benchmarks/fir/fir.c:217
  e8:	0f 2e       	mov	r0, r31
  ea:	fd e1       	ldi	r31, 0x1D	; 29
  ec:	8f 2e       	mov	r8, r31
  ee:	99 24       	eor	r9, r9
  f0:	93 94       	inc	r9
  f2:	a1 2c       	mov	r10, r1
  f4:	b1 2c       	mov	r11, r1
  f6:	f0 2d       	mov	r31, r0
  f8:	0f 2e       	mov	r0, r31
  fa:	f3 e2       	ldi	r31, 0x23	; 35
  fc:	cf 2e       	mov	r12, r31
  fe:	d1 2c       	mov	r13, r1
 100:	e1 2c       	mov	r14, r1
 102:	f1 2c       	mov	r15, r1
 104:	f0 2d       	mov	r31, r0
 106:	00 e0       	ldi	r16, 0x00	; 0
 108:	11 e0       	ldi	r17, 0x01	; 1
 10a:	2c eb       	ldi	r18, 0xBC	; 188
 10c:	32 e0       	ldi	r19, 0x02	; 2
 10e:	40 e0       	ldi	r20, 0x00	; 0
 110:	50 e0       	ldi	r21, 0x00	; 0
 112:	ce 01       	movw	r24, r28
 114:	01 96       	adiw	r24, 0x01	; 1
 116:	bc 01       	movw	r22, r24
 118:	80 e9       	ldi	r24, 0x90	; 144
 11a:	91 e0       	ldi	r25, 0x01	; 1
 11c:	0e 94 a6 00 	call	0x14c	; 0x14c <fir_filter_int>
/home/becker/async/autosafe/trunk/tum/wcet-cbmc/benchmarks/fir/fir.c:227
 120:	80 e0       	ldi	r24, 0x00	; 0
 122:	90 e0       	ldi	r25, 0x00	; 0
/home/becker/async/autosafe/trunk/tum/wcet-cbmc/benchmarks/fir/fir.c:228
 124:	c0 5c       	subi	r28, 0xC0	; 192
 126:	d4 4f       	sbci	r29, 0xF4	; 244
 128:	0f b6       	in	r0, 0x3f	; 63
 12a:	f8 94       	cli
 12c:	de bf       	out	0x3e, r29	; 62
 12e:	0f be       	out	0x3f, r0	; 63
 130:	cd bf       	out	0x3d, r28	; 61
 132:	df 91       	pop	r29
 134:	cf 91       	pop	r28
 136:	1f 91       	pop	r17
 138:	0f 91       	pop	r16
 13a:	ff 90       	pop	r15
 13c:	ef 90       	pop	r14
 13e:	df 90       	pop	r13
 140:	cf 90       	pop	r12
 142:	bf 90       	pop	r11
 144:	af 90       	pop	r10
 146:	9f 90       	pop	r9
 148:	8f 90       	pop	r8
 14a:	08 95       	ret

0000014c <fir_filter_int>:
fir_filter_int():
/home/becker/async/autosafe/trunk/tum/wcet-cbmc/benchmarks/fir/fir.c:255
 14c:	8f 92       	push	r8
 14e:	9f 92       	push	r9
 150:	af 92       	push	r10
 152:	bf 92       	push	r11
 154:	cf 92       	push	r12
 156:	df 92       	push	r13
 158:	ef 92       	push	r14
 15a:	ff 92       	push	r15
 15c:	0f 93       	push	r16
 15e:	1f 93       	push	r17
 160:	cf 93       	push	r28
 162:	df 93       	push	r29
 164:	cd b7       	in	r28, 0x3d	; 61
 166:	de b7       	in	r29, 0x3e	; 62
 168:	e0 97       	sbiw	r28, 0x30	; 48
 16a:	0f b6       	in	r0, 0x3f	; 63
 16c:	f8 94       	cli
 16e:	de bf       	out	0x3e, r29	; 62
 170:	0f be       	out	0x3f, r0	; 63
 172:	cd bf       	out	0x3d, r28	; 61
 174:	98 a3       	std	Y+32, r25	; 0x20
 176:	8f 8f       	std	Y+31, r24	; 0x1f
 178:	7a a3       	std	Y+34, r23	; 0x22
 17a:	69 a3       	std	Y+33, r22	; 0x21
 17c:	2b a3       	std	Y+35, r18	; 0x23
 17e:	3c a3       	std	Y+36, r19	; 0x24
 180:	4d a3       	std	Y+37, r20	; 0x25
 182:	5e a3       	std	Y+38, r21	; 0x26
 184:	18 a7       	std	Y+40, r17	; 0x28
 186:	0f a3       	std	Y+39, r16	; 0x27
 188:	c9 a6       	std	Y+41, r12	; 0x29
 18a:	da a6       	std	Y+42, r13	; 0x2a
 18c:	eb a6       	std	Y+43, r14	; 0x2b
 18e:	fc a6       	std	Y+44, r15	; 0x2c
 190:	8d a6       	std	Y+45, r8	; 0x2d
 192:	9e a6       	std	Y+46, r9	; 0x2e
 194:	af a6       	std	Y+47, r10	; 0x2f
 196:	b8 aa       	std	Y+48, r11	; 0x30
/home/becker/async/autosafe/trunk/tum/wcet-cbmc/benchmarks/fir/fir.c:261
 198:	8f a1       	ldd	r24, Y+39	; 0x27
 19a:	98 a5       	ldd	r25, Y+40	; 0x28
 19c:	9e 8b       	std	Y+22, r25	; 0x16
 19e:	8d 8b       	std	Y+21, r24	; 0x15
/home/becker/async/autosafe/trunk/tum/wcet-cbmc/benchmarks/fir/fir.c:262
 1a0:	89 a5       	ldd	r24, Y+41	; 0x29
 1a2:	9a a5       	ldd	r25, Y+42	; 0x2a
 1a4:	ab a5       	ldd	r26, Y+43	; 0x2b
 1a6:	bc a5       	ldd	r27, Y+44	; 0x2c
 1a8:	01 96       	adiw	r24, 0x01	; 1
 1aa:	a1 1d       	adc	r26, r1
 1ac:	b1 1d       	adc	r27, r1
 1ae:	b5 95       	asr	r27
 1b0:	a7 95       	ror	r26
 1b2:	97 95       	ror	r25
 1b4:	87 95       	ror	r24
 1b6:	89 8f       	std	Y+25, r24	; 0x19
 1b8:	9a 8f       	std	Y+26, r25	; 0x1a
 1ba:	ab 8f       	std	Y+27, r26	; 0x1b
 1bc:	bc 8f       	std	Y+28, r27	; 0x1c
/home/becker/async/autosafe/trunk/tum/wcet-cbmc/benchmarks/fir/fir.c:265
 1be:	8b a1       	ldd	r24, Y+35	; 0x23
 1c0:	9c a1       	ldd	r25, Y+36	; 0x24
 1c2:	01 97       	sbiw	r24, 0x01	; 1
 1c4:	88 0f       	add	r24, r24
 1c6:	99 1f       	adc	r25, r25
 1c8:	88 0f       	add	r24, r24
 1ca:	99 1f       	adc	r25, r25
 1cc:	2f 8d       	ldd	r18, Y+31	; 0x1f
 1ce:	38 a1       	ldd	r19, Y+32	; 0x20
 1d0:	82 0f       	add	r24, r18
 1d2:	93 1f       	adc	r25, r19
 1d4:	9e 8f       	std	Y+30, r25	; 0x1e
 1d6:	8d 8f       	std	Y+29, r24	; 0x1d
/home/becker/async/autosafe/trunk/tum/wcet-cbmc/benchmarks/fir/fir.c:266
 1d8:	89 8d       	ldd	r24, Y+25	; 0x19
 1da:	9a 8d       	ldd	r25, Y+26	; 0x1a
 1dc:	01 97       	sbiw	r24, 0x01	; 1
 1de:	88 0f       	add	r24, r24
 1e0:	99 1f       	adc	r25, r25
 1e2:	88 0f       	add	r24, r24
 1e4:	99 1f       	adc	r25, r25
 1e6:	2f 8d       	ldd	r18, Y+31	; 0x1f
 1e8:	38 a1       	ldd	r19, Y+32	; 0x20
 1ea:	82 0f       	add	r24, r18
 1ec:	93 1f       	adc	r25, r19
 1ee:	9a 8b       	std	Y+18, r25	; 0x12
 1f0:	89 8b       	std	Y+17, r24	; 0x11
/home/becker/async/autosafe/trunk/tum/wcet-cbmc/benchmarks/fir/fir.c:269
 1f2:	89 8d       	ldd	r24, Y+25	; 0x19
 1f4:	9a 8d       	ldd	r25, Y+26	; 0x1a
 1f6:	ab 8d       	ldd	r26, Y+27	; 0x1b
 1f8:	bc 8d       	ldd	r27, Y+28	; 0x1c
 1fa:	89 87       	std	Y+9, r24	; 0x09
 1fc:	9a 87       	std	Y+10, r25	; 0x0a
 1fe:	ab 87       	std	Y+11, r26	; 0x0b
 200:	bc 87       	std	Y+12, r27	; 0x0c
/home/becker/async/autosafe/trunk/tum/wcet-cbmc/benchmarks/fir/fir.c:271
 202:	19 82       	std	Y+1, r1	; 0x01
 204:	1a 82       	std	Y+2, r1	; 0x02
 206:	1b 82       	std	Y+3, r1	; 0x03
 208:	1c 82       	std	Y+4, r1	; 0x04
 20a:	d4 c0       	rjmp	.+424    	; 0x3b4 <fir_filter_int+0x268>
/home/becker/async/autosafe/trunk/tum/wcet-cbmc/benchmarks/fir/fir.c:274
 20c:	89 89       	ldd	r24, Y+17	; 0x11
 20e:	9a 89       	ldd	r25, Y+18	; 0x12
 210:	9c 8b       	std	Y+20, r25	; 0x14
 212:	8b 8b       	std	Y+19, r24	; 0x13
/home/becker/async/autosafe/trunk/tum/wcet-cbmc/benchmarks/fir/fir.c:275
 214:	8d 89       	ldd	r24, Y+21	; 0x15
 216:	9e 89       	ldd	r25, Y+22	; 0x16
 218:	98 8f       	std	Y+24, r25	; 0x18
 21a:	8f 8b       	std	Y+23, r24	; 0x17
/home/becker/async/autosafe/trunk/tum/wcet-cbmc/benchmarks/fir/fir.c:279
 21c:	8f 89       	ldd	r24, Y+23	; 0x17
 21e:	98 8d       	ldd	r25, Y+24	; 0x18
 220:	fc 01       	movw	r30, r24
 222:	20 81       	ld	r18, Z
 224:	31 81       	ldd	r19, Z+1	; 0x01
 226:	42 81       	ldd	r20, Z+2	; 0x02
 228:	53 81       	ldd	r21, Z+3	; 0x03
 22a:	8b 89       	ldd	r24, Y+19	; 0x13
 22c:	9c 89       	ldd	r25, Y+20	; 0x14
 22e:	fc 01       	movw	r30, r24
 230:	80 81       	ld	r24, Z
 232:	91 81       	ldd	r25, Z+1	; 0x01
 234:	a2 81       	ldd	r26, Z+2	; 0x02
 236:	b3 81       	ldd	r27, Z+3	; 0x03
 238:	bc 01       	movw	r22, r24
 23a:	cd 01       	movw	r24, r26
 23c:	0e 94 fb 01 	call	0x3f6	; 0x3f6 <__mulsi3>
 240:	dc 01       	movw	r26, r24
 242:	cb 01       	movw	r24, r22
 244:	8d 87       	std	Y+13, r24	; 0x0d
 246:	9e 87       	std	Y+14, r25	; 0x0e
 248:	af 87       	std	Y+15, r26	; 0x0f
 24a:	b8 8b       	std	Y+16, r27	; 0x10
 24c:	8f 89       	ldd	r24, Y+23	; 0x17
 24e:	98 8d       	ldd	r25, Y+24	; 0x18
 250:	04 96       	adiw	r24, 0x04	; 4
 252:	98 8f       	std	Y+24, r25	; 0x18
 254:	8f 8b       	std	Y+23, r24	; 0x17
 256:	8b 89       	ldd	r24, Y+19	; 0x13
 258:	9c 89       	ldd	r25, Y+20	; 0x14
 25a:	04 97       	sbiw	r24, 0x04	; 4
 25c:	9c 8b       	std	Y+20, r25	; 0x14
 25e:	8b 8b       	std	Y+19, r24	; 0x13
/home/becker/async/autosafe/trunk/tum/wcet-cbmc/benchmarks/fir/fir.c:280
 260:	81 e0       	ldi	r24, 0x01	; 1
 262:	90 e0       	ldi	r25, 0x00	; 0
 264:	a0 e0       	ldi	r26, 0x00	; 0
 266:	b0 e0       	ldi	r27, 0x00	; 0
 268:	8d 83       	std	Y+5, r24	; 0x05
 26a:	9e 83       	std	Y+6, r25	; 0x06
 26c:	af 83       	std	Y+7, r26	; 0x07
 26e:	b8 87       	std	Y+8, r27	; 0x08
 270:	35 c0       	rjmp	.+106    	; 0x2dc <fir_filter_int+0x190>
/home/becker/async/autosafe/trunk/tum/wcet-cbmc/benchmarks/fir/fir.c:281
 272:	8f 89       	ldd	r24, Y+23	; 0x17
 274:	98 8d       	ldd	r25, Y+24	; 0x18
 276:	fc 01       	movw	r30, r24
 278:	20 81       	ld	r18, Z
 27a:	31 81       	ldd	r19, Z+1	; 0x01
 27c:	42 81       	ldd	r20, Z+2	; 0x02
 27e:	53 81       	ldd	r21, Z+3	; 0x03
 280:	8b 89       	ldd	r24, Y+19	; 0x13
 282:	9c 89       	ldd	r25, Y+20	; 0x14
 284:	fc 01       	movw	r30, r24
 286:	80 81       	ld	r24, Z
 288:	91 81       	ldd	r25, Z+1	; 0x01
 28a:	a2 81       	ldd	r26, Z+2	; 0x02
 28c:	b3 81       	ldd	r27, Z+3	; 0x03
 28e:	bc 01       	movw	r22, r24
 290:	cd 01       	movw	r24, r26
 292:	0e 94 fb 01 	call	0x3f6	; 0x3f6 <__mulsi3>
 296:	dc 01       	movw	r26, r24
 298:	cb 01       	movw	r24, r22
 29a:	2d 85       	ldd	r18, Y+13	; 0x0d
 29c:	3e 85       	ldd	r19, Y+14	; 0x0e
 29e:	4f 85       	ldd	r20, Y+15	; 0x0f
 2a0:	58 89       	ldd	r21, Y+16	; 0x10
 2a2:	82 0f       	add	r24, r18
 2a4:	93 1f       	adc	r25, r19
 2a6:	a4 1f       	adc	r26, r20
 2a8:	b5 1f       	adc	r27, r21
 2aa:	8d 87       	std	Y+13, r24	; 0x0d
 2ac:	9e 87       	std	Y+14, r25	; 0x0e
 2ae:	af 87       	std	Y+15, r26	; 0x0f
 2b0:	b8 8b       	std	Y+16, r27	; 0x10
 2b2:	8f 89       	ldd	r24, Y+23	; 0x17
 2b4:	98 8d       	ldd	r25, Y+24	; 0x18
 2b6:	04 96       	adiw	r24, 0x04	; 4
 2b8:	98 8f       	std	Y+24, r25	; 0x18
 2ba:	8f 8b       	std	Y+23, r24	; 0x17
 2bc:	8b 89       	ldd	r24, Y+19	; 0x13
 2be:	9c 89       	ldd	r25, Y+20	; 0x14
 2c0:	04 97       	sbiw	r24, 0x04	; 4
 2c2:	9c 8b       	std	Y+20, r25	; 0x14
 2c4:	8b 8b       	std	Y+19, r24	; 0x13
/home/becker/async/autosafe/trunk/tum/wcet-cbmc/benchmarks/fir/fir.c:280
 2c6:	8d 81       	ldd	r24, Y+5	; 0x05
 2c8:	9e 81       	ldd	r25, Y+6	; 0x06
 2ca:	af 81       	ldd	r26, Y+7	; 0x07
 2cc:	b8 85       	ldd	r27, Y+8	; 0x08
 2ce:	01 96       	adiw	r24, 0x01	; 1
 2d0:	a1 1d       	adc	r26, r1
 2d2:	b1 1d       	adc	r27, r1
 2d4:	8d 83       	std	Y+5, r24	; 0x05
 2d6:	9e 83       	std	Y+6, r25	; 0x06
 2d8:	af 83       	std	Y+7, r26	; 0x07
 2da:	b8 87       	std	Y+8, r27	; 0x08
 2dc:	2d 81       	ldd	r18, Y+5	; 0x05
 2de:	3e 81       	ldd	r19, Y+6	; 0x06
 2e0:	4f 81       	ldd	r20, Y+7	; 0x07
 2e2:	58 85       	ldd	r21, Y+8	; 0x08
 2e4:	89 85       	ldd	r24, Y+9	; 0x09
 2e6:	9a 85       	ldd	r25, Y+10	; 0x0a
 2e8:	ab 85       	ldd	r26, Y+11	; 0x0b
 2ea:	bc 85       	ldd	r27, Y+12	; 0x0c
 2ec:	28 17       	cp	r18, r24
 2ee:	39 07       	cpc	r19, r25
 2f0:	4a 07       	cpc	r20, r26
 2f2:	5b 07       	cpc	r21, r27
 2f4:	0c f4       	brge	.+2      	; 0x2f8 <fir_filter_int+0x1ac>
 2f6:	bd cf       	rjmp	.-134    	; 0x272 <fir_filter_int+0x126>
/home/becker/async/autosafe/trunk/tum/wcet-cbmc/benchmarks/fir/fir.c:282
 2f8:	8d 85       	ldd	r24, Y+13	; 0x0d
 2fa:	9e 85       	ldd	r25, Y+14	; 0x0e
 2fc:	af 85       	ldd	r26, Y+15	; 0x0f
 2fe:	b8 89       	ldd	r27, Y+16	; 0x10
 300:	2d a5       	ldd	r18, Y+45	; 0x2d
 302:	3e a5       	ldd	r19, Y+46	; 0x2e
 304:	4f a5       	ldd	r20, Y+47	; 0x2f
 306:	58 a9       	ldd	r21, Y+48	; 0x30
 308:	bc 01       	movw	r22, r24
 30a:	cd 01       	movw	r24, r26
 30c:	0e 94 0b 02 	call	0x416	; 0x416 <__divmodsi4>
 310:	da 01       	movw	r26, r20
 312:	c9 01       	movw	r24, r18
 314:	aa 27       	eor	r26, r26
 316:	97 fd       	sbrc	r25, 7
 318:	a0 95       	com	r26
 31a:	ba 2f       	mov	r27, r26
 31c:	29 a1       	ldd	r18, Y+33	; 0x21
 31e:	3a a1       	ldd	r19, Y+34	; 0x22
 320:	f9 01       	movw	r30, r18
 322:	80 83       	st	Z, r24
 324:	91 83       	std	Z+1, r25	; 0x01
 326:	a2 83       	std	Z+2, r26	; 0x02
 328:	b3 83       	std	Z+3, r27	; 0x03
 32a:	89 a1       	ldd	r24, Y+33	; 0x21
 32c:	9a a1       	ldd	r25, Y+34	; 0x22
 32e:	04 96       	adiw	r24, 0x04	; 4
 330:	9a a3       	std	Y+34, r25	; 0x22
 332:	89 a3       	std	Y+33, r24	; 0x21
/home/becker/async/autosafe/trunk/tum/wcet-cbmc/benchmarks/fir/fir.c:286
 334:	29 89       	ldd	r18, Y+17	; 0x11
 336:	3a 89       	ldd	r19, Y+18	; 0x12
 338:	8d 8d       	ldd	r24, Y+29	; 0x1d
 33a:	9e 8d       	ldd	r25, Y+30	; 0x1e
 33c:	28 17       	cp	r18, r24
 33e:	39 07       	cpc	r19, r25
 340:	89 f4       	brne	.+34     	; 0x364 <fir_filter_int+0x218>
/home/becker/async/autosafe/trunk/tum/wcet-cbmc/benchmarks/fir/fir.c:287
 342:	89 85       	ldd	r24, Y+9	; 0x09
 344:	9a 85       	ldd	r25, Y+10	; 0x0a
 346:	ab 85       	ldd	r26, Y+11	; 0x0b
 348:	bc 85       	ldd	r27, Y+12	; 0x0c
 34a:	01 97       	sbiw	r24, 0x01	; 1
 34c:	a1 09       	sbc	r26, r1
 34e:	b1 09       	sbc	r27, r1
 350:	89 87       	std	Y+9, r24	; 0x09
 352:	9a 87       	std	Y+10, r25	; 0x0a
 354:	ab 87       	std	Y+11, r26	; 0x0b
 356:	bc 87       	std	Y+12, r27	; 0x0c
/home/becker/async/autosafe/trunk/tum/wcet-cbmc/benchmarks/fir/fir.c:288
 358:	8d 89       	ldd	r24, Y+21	; 0x15
 35a:	9e 89       	ldd	r25, Y+22	; 0x16
 35c:	04 96       	adiw	r24, 0x04	; 4
 35e:	9e 8b       	std	Y+22, r25	; 0x16
 360:	8d 8b       	std	Y+21, r24	; 0x15
 362:	1d c0       	rjmp	.+58     	; 0x39e <fir_filter_int+0x252>
/home/becker/async/autosafe/trunk/tum/wcet-cbmc/benchmarks/fir/fir.c:294
 364:	29 85       	ldd	r18, Y+9	; 0x09
 366:	3a 85       	ldd	r19, Y+10	; 0x0a
 368:	4b 85       	ldd	r20, Y+11	; 0x0b
 36a:	5c 85       	ldd	r21, Y+12	; 0x0c
 36c:	89 a5       	ldd	r24, Y+41	; 0x29
 36e:	9a a5       	ldd	r25, Y+42	; 0x2a
 370:	ab a5       	ldd	r26, Y+43	; 0x2b
 372:	bc a5       	ldd	r27, Y+44	; 0x2c
 374:	28 17       	cp	r18, r24
 376:	39 07       	cpc	r19, r25
 378:	4a 07       	cpc	r20, r26
 37a:	5b 07       	cpc	r21, r27
 37c:	5c f4       	brge	.+22     	; 0x394 <fir_filter_int+0x248>
 37e:	89 85       	ldd	r24, Y+9	; 0x09
 380:	9a 85       	ldd	r25, Y+10	; 0x0a
 382:	ab 85       	ldd	r26, Y+11	; 0x0b
 384:	bc 85       	ldd	r27, Y+12	; 0x0c
 386:	01 96       	adiw	r24, 0x01	; 1
 388:	a1 1d       	adc	r26, r1
 38a:	b1 1d       	adc	r27, r1
 38c:	89 87       	std	Y+9, r24	; 0x09
 38e:	9a 87       	std	Y+10, r25	; 0x0a
 390:	ab 87       	std	Y+11, r26	; 0x0b
 392:	bc 87       	std	Y+12, r27	; 0x0c
/home/becker/async/autosafe/trunk/tum/wcet-cbmc/benchmarks/fir/fir.c:295
 394:	89 89       	ldd	r24, Y+17	; 0x11
 396:	9a 89       	ldd	r25, Y+18	; 0x12
 398:	04 96       	adiw	r24, 0x04	; 4
 39a:	9a 8b       	std	Y+18, r25	; 0x12
 39c:	89 8b       	std	Y+17, r24	; 0x11
/home/becker/async/autosafe/trunk/tum/wcet-cbmc/benchmarks/fir/fir.c:271
 39e:	89 81       	ldd	r24, Y+1	; 0x01
 3a0:	9a 81       	ldd	r25, Y+2	; 0x02
 3a2:	ab 81       	ldd	r26, Y+3	; 0x03
 3a4:	bc 81       	ldd	r27, Y+4	; 0x04
 3a6:	01 96       	adiw	r24, 0x01	; 1
 3a8:	a1 1d       	adc	r26, r1
 3aa:	b1 1d       	adc	r27, r1
 3ac:	89 83       	std	Y+1, r24	; 0x01
 3ae:	9a 83       	std	Y+2, r25	; 0x02
 3b0:	ab 83       	std	Y+3, r26	; 0x03
 3b2:	bc 83       	std	Y+4, r27	; 0x04
 3b4:	29 81       	ldd	r18, Y+1	; 0x01
 3b6:	3a 81       	ldd	r19, Y+2	; 0x02
 3b8:	4b 81       	ldd	r20, Y+3	; 0x03
 3ba:	5c 81       	ldd	r21, Y+4	; 0x04
 3bc:	8b a1       	ldd	r24, Y+35	; 0x23
 3be:	9c a1       	ldd	r25, Y+36	; 0x24
 3c0:	ad a1       	ldd	r26, Y+37	; 0x25
 3c2:	be a1       	ldd	r27, Y+38	; 0x26
 3c4:	28 17       	cp	r18, r24
 3c6:	39 07       	cpc	r19, r25
 3c8:	4a 07       	cpc	r20, r26
 3ca:	5b 07       	cpc	r21, r27
 3cc:	0c f4       	brge	.+2      	; 0x3d0 <fir_filter_int+0x284>
 3ce:	1e cf       	rjmp	.-452    	; 0x20c <fir_filter_int+0xc0>
/home/becker/async/autosafe/trunk/tum/wcet-cbmc/benchmarks/fir/fir.c:298
 3d0:	e0 96       	adiw	r28, 0x30	; 48
 3d2:	0f b6       	in	r0, 0x3f	; 63
 3d4:	f8 94       	cli
 3d6:	de bf       	out	0x3e, r29	; 62
 3d8:	0f be       	out	0x3f, r0	; 63
 3da:	cd bf       	out	0x3d, r28	; 61
 3dc:	df 91       	pop	r29
 3de:	cf 91       	pop	r28
 3e0:	1f 91       	pop	r17
 3e2:	0f 91       	pop	r16
 3e4:	ff 90       	pop	r15
 3e6:	ef 90       	pop	r14
 3e8:	df 90       	pop	r13
 3ea:	cf 90       	pop	r12
 3ec:	bf 90       	pop	r11
 3ee:	af 90       	pop	r10
 3f0:	9f 90       	pop	r9
 3f2:	8f 90       	pop	r8
 3f4:	08 95       	ret

000003f6 <__mulsi3>:
__bad_interrupt():
../../../../crt1/gcrt1.S:195
 3f6:	db 01       	movw	r26, r22
 3f8:	8f 93       	push	r24
 3fa:	9f 93       	push	r25
 3fc:	0e 94 27 02 	call	0x44e	; 0x44e <__muluhisi3>
 400:	bf 91       	pop	r27
 402:	af 91       	pop	r26
 404:	a2 9f       	mul	r26, r18
 406:	80 0d       	add	r24, r0
 408:	91 1d       	adc	r25, r1
 40a:	a3 9f       	mul	r26, r19
 40c:	90 0d       	add	r25, r0
 40e:	b2 9f       	mul	r27, r18
 410:	90 0d       	add	r25, r0
 412:	11 24       	eor	r1, r1
 414:	08 95       	ret

00000416 <__divmodsi4>:
 416:	05 2e       	mov	r0, r21
 418:	97 fb       	bst	r25, 7
 41a:	16 f4       	brtc	.+4      	; 0x420 <__divmodsi4+0xa>
 41c:	00 94       	com	r0
 41e:	07 d0       	rcall	.+14     	; 0x42e <__divmodsi4_neg1>
 420:	57 fd       	sbrc	r21, 7
 422:	0d d0       	rcall	.+26     	; 0x43e <__divmodsi4_neg2>
 424:	0e 94 32 02 	call	0x464	; 0x464 <__udivmodsi4>
 428:	07 fc       	sbrc	r0, 7
 42a:	09 d0       	rcall	.+18     	; 0x43e <__divmodsi4_neg2>
 42c:	7e f4       	brtc	.+30     	; 0x44c <__divmodsi4_exit>

0000042e <__divmodsi4_neg1>:
 42e:	90 95       	com	r25
 430:	80 95       	com	r24
 432:	70 95       	com	r23
 434:	61 95       	neg	r22
 436:	7f 4f       	sbci	r23, 0xFF	; 255
 438:	8f 4f       	sbci	r24, 0xFF	; 255
 43a:	9f 4f       	sbci	r25, 0xFF	; 255
 43c:	08 95       	ret

0000043e <__divmodsi4_neg2>:
 43e:	50 95       	com	r21
 440:	40 95       	com	r20
 442:	30 95       	com	r19
 444:	21 95       	neg	r18
 446:	3f 4f       	sbci	r19, 0xFF	; 255
 448:	4f 4f       	sbci	r20, 0xFF	; 255
 44a:	5f 4f       	sbci	r21, 0xFF	; 255

0000044c <__divmodsi4_exit>:
 44c:	08 95       	ret

0000044e <__muluhisi3>:
 44e:	0e 94 54 02 	call	0x4a8	; 0x4a8 <__umulhisi3>
 452:	a5 9f       	mul	r26, r21
 454:	90 0d       	add	r25, r0
 456:	b4 9f       	mul	r27, r20
 458:	90 0d       	add	r25, r0
 45a:	a4 9f       	mul	r26, r20
 45c:	80 0d       	add	r24, r0
 45e:	91 1d       	adc	r25, r1
 460:	11 24       	eor	r1, r1
 462:	08 95       	ret

00000464 <__udivmodsi4>:
 464:	a1 e2       	ldi	r26, 0x21	; 33
 466:	1a 2e       	mov	r1, r26
 468:	aa 1b       	sub	r26, r26
 46a:	bb 1b       	sub	r27, r27
 46c:	fd 01       	movw	r30, r26
 46e:	0d c0       	rjmp	.+26     	; 0x48a <__udivmodsi4_ep>

00000470 <__udivmodsi4_loop>:
 470:	aa 1f       	adc	r26, r26
 472:	bb 1f       	adc	r27, r27
 474:	ee 1f       	adc	r30, r30
 476:	ff 1f       	adc	r31, r31
 478:	a2 17       	cp	r26, r18
 47a:	b3 07       	cpc	r27, r19
 47c:	e4 07       	cpc	r30, r20
 47e:	f5 07       	cpc	r31, r21
 480:	20 f0       	brcs	.+8      	; 0x48a <__udivmodsi4_ep>
 482:	a2 1b       	sub	r26, r18
 484:	b3 0b       	sbc	r27, r19
 486:	e4 0b       	sbc	r30, r20
 488:	f5 0b       	sbc	r31, r21

0000048a <__udivmodsi4_ep>:
 48a:	66 1f       	adc	r22, r22
 48c:	77 1f       	adc	r23, r23
 48e:	88 1f       	adc	r24, r24
 490:	99 1f       	adc	r25, r25
 492:	1a 94       	dec	r1
 494:	69 f7       	brne	.-38     	; 0x470 <__udivmodsi4_loop>
 496:	60 95       	com	r22
 498:	70 95       	com	r23
 49a:	80 95       	com	r24
 49c:	90 95       	com	r25
 49e:	9b 01       	movw	r18, r22
 4a0:	ac 01       	movw	r20, r24
 4a2:	bd 01       	movw	r22, r26
 4a4:	cf 01       	movw	r24, r30
 4a6:	08 95       	ret

000004a8 <__umulhisi3>:
 4a8:	a2 9f       	mul	r26, r18
 4aa:	b0 01       	movw	r22, r0
 4ac:	b3 9f       	mul	r27, r19
 4ae:	c0 01       	movw	r24, r0
 4b0:	a3 9f       	mul	r26, r19
 4b2:	01 d0       	rcall	.+2      	; 0x4b6 <__umulhisi3+0xe>
 4b4:	b2 9f       	mul	r27, r18
 4b6:	70 0d       	add	r23, r0
 4b8:	81 1d       	adc	r24, r1
 4ba:	11 24       	eor	r1, r1
 4bc:	91 1d       	adc	r25, r1
 4be:	08 95       	ret

000004c0 <_exit>:
 4c0:	f8 94       	cli

000004c2 <__stop_program>:
 4c2:	ff cf       	rjmp	.-2      	; 0x4c2 <__stop_program>
