
main.elf:     file format elf32-avr


Disassembly of section .text:

00000000 <__vectors>:
__vectors():
../../../../crt1/gcrt1.S:52
   0:	0c 94 46 00 	jmp	0x8c	; 0x8c <__ctors_end>
../../../../crt1/gcrt1.S:53
   4:	0c 94 58 00 	jmp	0xb0	; 0xb0 <__bad_interrupt>
../../../../crt1/gcrt1.S:54
   8:	0c 94 58 00 	jmp	0xb0	; 0xb0 <__bad_interrupt>
../../../../crt1/gcrt1.S:55
   c:	0c 94 58 00 	jmp	0xb0	; 0xb0 <__bad_interrupt>
../../../../crt1/gcrt1.S:56
  10:	0c 94 58 00 	jmp	0xb0	; 0xb0 <__bad_interrupt>
../../../../crt1/gcrt1.S:57
  14:	0c 94 58 00 	jmp	0xb0	; 0xb0 <__bad_interrupt>
../../../../crt1/gcrt1.S:58
  18:	0c 94 58 00 	jmp	0xb0	; 0xb0 <__bad_interrupt>
../../../../crt1/gcrt1.S:59
  1c:	0c 94 58 00 	jmp	0xb0	; 0xb0 <__bad_interrupt>
../../../../crt1/gcrt1.S:60
  20:	0c 94 58 00 	jmp	0xb0	; 0xb0 <__bad_interrupt>
../../../../crt1/gcrt1.S:61
  24:	0c 94 58 00 	jmp	0xb0	; 0xb0 <__bad_interrupt>
../../../../crt1/gcrt1.S:62
  28:	0c 94 58 00 	jmp	0xb0	; 0xb0 <__bad_interrupt>
../../../../crt1/gcrt1.S:63
  2c:	0c 94 58 00 	jmp	0xb0	; 0xb0 <__bad_interrupt>
../../../../crt1/gcrt1.S:64
  30:	0c 94 58 00 	jmp	0xb0	; 0xb0 <__bad_interrupt>
../../../../crt1/gcrt1.S:65
  34:	0c 94 58 00 	jmp	0xb0	; 0xb0 <__bad_interrupt>
../../../../crt1/gcrt1.S:66
  38:	0c 94 58 00 	jmp	0xb0	; 0xb0 <__bad_interrupt>
../../../../crt1/gcrt1.S:67
  3c:	0c 94 58 00 	jmp	0xb0	; 0xb0 <__bad_interrupt>
../../../../crt1/gcrt1.S:68
  40:	0c 94 58 00 	jmp	0xb0	; 0xb0 <__bad_interrupt>
../../../../crt1/gcrt1.S:69
  44:	0c 94 58 00 	jmp	0xb0	; 0xb0 <__bad_interrupt>
../../../../crt1/gcrt1.S:70
  48:	0c 94 58 00 	jmp	0xb0	; 0xb0 <__bad_interrupt>
../../../../crt1/gcrt1.S:71
  4c:	0c 94 58 00 	jmp	0xb0	; 0xb0 <__bad_interrupt>
../../../../crt1/gcrt1.S:72
  50:	0c 94 58 00 	jmp	0xb0	; 0xb0 <__bad_interrupt>
../../../../crt1/gcrt1.S:73
  54:	0c 94 58 00 	jmp	0xb0	; 0xb0 <__bad_interrupt>
../../../../crt1/gcrt1.S:74
  58:	0c 94 58 00 	jmp	0xb0	; 0xb0 <__bad_interrupt>
../../../../crt1/gcrt1.S:75
  5c:	0c 94 58 00 	jmp	0xb0	; 0xb0 <__bad_interrupt>
../../../../crt1/gcrt1.S:76
  60:	0c 94 58 00 	jmp	0xb0	; 0xb0 <__bad_interrupt>
../../../../crt1/gcrt1.S:77
  64:	0c 94 58 00 	jmp	0xb0	; 0xb0 <__bad_interrupt>
../../../../crt1/gcrt1.S:78
  68:	0c 94 58 00 	jmp	0xb0	; 0xb0 <__bad_interrupt>
../../../../crt1/gcrt1.S:79
  6c:	0c 94 58 00 	jmp	0xb0	; 0xb0 <__bad_interrupt>
../../../../crt1/gcrt1.S:80
  70:	0c 94 58 00 	jmp	0xb0	; 0xb0 <__bad_interrupt>
../../../../crt1/gcrt1.S:81
  74:	0c 94 58 00 	jmp	0xb0	; 0xb0 <__bad_interrupt>
../../../../crt1/gcrt1.S:82
  78:	0c 94 58 00 	jmp	0xb0	; 0xb0 <__bad_interrupt>
../../../../crt1/gcrt1.S:83
  7c:	0c 94 58 00 	jmp	0xb0	; 0xb0 <__bad_interrupt>
../../../../crt1/gcrt1.S:84
  80:	0c 94 58 00 	jmp	0xb0	; 0xb0 <__bad_interrupt>
../../../../crt1/gcrt1.S:85
  84:	0c 94 58 00 	jmp	0xb0	; 0xb0 <__bad_interrupt>
../../../../crt1/gcrt1.S:86
  88:	0c 94 58 00 	jmp	0xb0	; 0xb0 <__bad_interrupt>

0000008c <__ctors_end>:
../../../../crt1/gcrt1.S:179
  8c:	11 24       	eor	r1, r1
  8e:	1f be       	out	0x3f, r1	; 63
  90:	cf ef       	ldi	r28, 0xFF	; 255
  92:	d0 e1       	ldi	r29, 0x10	; 16
  94:	de bf       	out	0x3e, r29	; 62
  96:	cd bf       	out	0x3d, r28	; 61

00000098 <__do_clear_bss>:
  98:	11 e0       	ldi	r17, 0x01	; 1
  9a:	a0 e0       	ldi	r26, 0x00	; 0
  9c:	b1 e0       	ldi	r27, 0x01	; 1
  9e:	01 c0       	rjmp	.+2      	; 0xa2 <.do_clear_bss_start>

000000a0 <.do_clear_bss_loop>:
  a0:	1d 92       	st	X+, r1

000000a2 <.do_clear_bss_start>:
  a2:	ae 3c       	cpi	r26, 0xCE	; 206
  a4:	b1 07       	cpc	r27, r17
  a6:	e1 f7       	brne	.-8      	; 0xa0 <.do_clear_bss_loop>
  a8:	0e 94 5a 00 	call	0xb4	; 0xb4 <main>
  ac:	0c 94 1e 03 	jmp	0x63c	; 0x63c <_exit>

000000b0 <__bad_interrupt>:
__bad_interrupt():
../../../../crt1/gcrt1.S:195
  b0:	0c 94 00 00 	jmp	0	; 0x0 <__vectors>

000000b4 <main>:
main():
/home/becker/async/autosafe/trunk/tum/wcet-cbmc/benchmarks/bsort100/bsort100.c:33
  b4:	cf 93       	push	r28
  b6:	df 93       	push	r29
  b8:	cd b7       	in	r28, 0x3d	; 61
  ba:	de b7       	in	r29, 0x3e	; 62
/home/becker/async/autosafe/trunk/tum/wcet-cbmc/benchmarks/bsort100/bsort100.c:41
  bc:	82 e0       	ldi	r24, 0x02	; 2
  be:	91 e0       	ldi	r25, 0x01	; 1
  c0:	0e 94 a6 00 	call	0x14c	; 0x14c <Initialize>
/home/becker/async/autosafe/trunk/tum/wcet-cbmc/benchmarks/bsort100/bsort100.c:43
  c4:	82 e0       	ldi	r24, 0x02	; 2
  c6:	91 e0       	ldi	r25, 0x01	; 1
  c8:	0e 94 f6 00 	call	0x1ec	; 0x1ec <BubbleSort>
  cc:	80 e0       	ldi	r24, 0x00	; 0
  ce:	90 e0       	ldi	r25, 0x00	; 0
/home/becker/async/autosafe/trunk/tum/wcet-cbmc/benchmarks/bsort100/bsort100.c:50
  d0:	df 91       	pop	r29
  d2:	cf 91       	pop	r28
  d4:	08 95       	ret

000000d6 <ttime>:
ttime():
/home/becker/async/autosafe/trunk/tum/wcet-cbmc/benchmarks/bsort100/bsort100.c:58
  d6:	cf 93       	push	r28
  d8:	df 93       	push	r29
  da:	cd b7       	in	r28, 0x3d	; 61
  dc:	de b7       	in	r29, 0x3e	; 62
  de:	62 97       	sbiw	r28, 0x12	; 18
  e0:	0f b6       	in	r0, 0x3f	; 63
  e2:	f8 94       	cli
  e4:	de bf       	out	0x3e, r29	; 62
  e6:	0f be       	out	0x3f, r0	; 63
  e8:	cd bf       	out	0x3d, r28	; 61
/home/becker/async/autosafe/trunk/tum/wcet-cbmc/benchmarks/bsort100/bsort100.c:63
  ea:	8b 81       	ldd	r24, Y+3	; 0x03
  ec:	9c 81       	ldd	r25, Y+4	; 0x04
  ee:	ad 81       	ldd	r26, Y+5	; 0x05
  f0:	be 81       	ldd	r27, Y+6	; 0x06
  f2:	bc 01       	movw	r22, r24
  f4:	cd 01       	movw	r24, r26
  f6:	0e 94 2f 02 	call	0x45e	; 0x45e <__floatsisf>
  fa:	dc 01       	movw	r26, r24
  fc:	cb 01       	movw	r24, r22
  fe:	20 e0       	ldi	r18, 0x00	; 0
 100:	30 e0       	ldi	r19, 0x00	; 0
 102:	40 e7       	ldi	r20, 0x70	; 112
 104:	52 e4       	ldi	r21, 0x42	; 66
 106:	bc 01       	movw	r22, r24
 108:	cd 01       	movw	r24, r26
 10a:	0e 94 94 01 	call	0x328	; 0x328 <__divsf3>
 10e:	dc 01       	movw	r26, r24
 110:	cb 01       	movw	r24, r22
 112:	20 e0       	ldi	r18, 0x00	; 0
 114:	30 e0       	ldi	r19, 0x00	; 0
 116:	4a e7       	ldi	r20, 0x7A	; 122
 118:	54 e4       	ldi	r21, 0x44	; 68
 11a:	bc 01       	movw	r22, r24
 11c:	cd 01       	movw	r24, r26
 11e:	0e 94 bb 02 	call	0x576	; 0x576 <__mulsf3>
 122:	dc 01       	movw	r26, r24
 124:	cb 01       	movw	r24, r22
 126:	bc 01       	movw	r22, r24
 128:	cd 01       	movw	r24, r26
 12a:	0e 94 fc 01 	call	0x3f8	; 0x3f8 <__fixsfsi>
 12e:	dc 01       	movw	r26, r24
 130:	cb 01       	movw	r24, r22
 132:	9a 83       	std	Y+2, r25	; 0x02
 134:	89 83       	std	Y+1, r24	; 0x01
/home/becker/async/autosafe/trunk/tum/wcet-cbmc/benchmarks/bsort100/bsort100.c:64
 136:	89 81       	ldd	r24, Y+1	; 0x01
 138:	9a 81       	ldd	r25, Y+2	; 0x02
/home/becker/async/autosafe/trunk/tum/wcet-cbmc/benchmarks/bsort100/bsort100.c:65
 13a:	62 96       	adiw	r28, 0x12	; 18
 13c:	0f b6       	in	r0, 0x3f	; 63
 13e:	f8 94       	cli
 140:	de bf       	out	0x3e, r29	; 62
 142:	0f be       	out	0x3f, r0	; 63
 144:	cd bf       	out	0x3d, r28	; 61
 146:	df 91       	pop	r29
 148:	cf 91       	pop	r28
 14a:	08 95       	ret

0000014c <Initialize>:
Initialize():
/home/becker/async/autosafe/trunk/tum/wcet-cbmc/benchmarks/bsort100/bsort100.c:73
 14c:	cf 93       	push	r28
 14e:	df 93       	push	r29
 150:	00 d0       	rcall	.+0      	; 0x152 <Initialize+0x6>
 152:	00 d0       	rcall	.+0      	; 0x154 <Initialize+0x8>
 154:	00 d0       	rcall	.+0      	; 0x156 <Initialize+0xa>
 156:	cd b7       	in	r28, 0x3d	; 61
 158:	de b7       	in	r29, 0x3e	; 62
 15a:	9e 83       	std	Y+6, r25	; 0x06
 15c:	8d 83       	std	Y+5, r24	; 0x05
/home/becker/async/autosafe/trunk/tum/wcet-cbmc/benchmarks/bsort100/bsort100.c:77
 15e:	8f ef       	ldi	r24, 0xFF	; 255
 160:	9f ef       	ldi	r25, 0xFF	; 255
 162:	90 93 cd 01 	sts	0x01CD, r25
 166:	80 93 cc 01 	sts	0x01CC, r24
/home/becker/async/autosafe/trunk/tum/wcet-cbmc/benchmarks/bsort100/bsort100.c:82
 16a:	80 91 cc 01 	lds	r24, 0x01CC
 16e:	90 91 cd 01 	lds	r25, 0x01CD
 172:	9c 83       	std	Y+4, r25	; 0x04
 174:	8b 83       	std	Y+3, r24	; 0x03
/home/becker/async/autosafe/trunk/tum/wcet-cbmc/benchmarks/bsort100/bsort100.c:83
 176:	81 e0       	ldi	r24, 0x01	; 1
 178:	90 e0       	ldi	r25, 0x00	; 0
 17a:	9a 83       	std	Y+2, r25	; 0x02
 17c:	89 83       	std	Y+1, r24	; 0x01
 17e:	28 c0       	rjmp	.+80     	; 0x1d0 <Initialize+0x84>
/home/becker/async/autosafe/trunk/tum/wcet-cbmc/benchmarks/bsort100/bsort100.c:84
 180:	89 81       	ldd	r24, Y+1	; 0x01
 182:	9a 81       	ldd	r25, Y+2	; 0x02
 184:	88 0f       	add	r24, r24
 186:	99 1f       	adc	r25, r25
 188:	2d 81       	ldd	r18, Y+5	; 0x05
 18a:	3e 81       	ldd	r19, Y+6	; 0x06
 18c:	82 0f       	add	r24, r18
 18e:	93 1f       	adc	r25, r19
 190:	49 81       	ldd	r20, Y+1	; 0x01
 192:	5a 81       	ldd	r21, Y+2	; 0x02
 194:	2b 81       	ldd	r18, Y+3	; 0x03
 196:	3c 81       	ldd	r19, Y+4	; 0x04
 198:	42 9f       	mul	r20, r18
 19a:	b0 01       	movw	r22, r0
 19c:	43 9f       	mul	r20, r19
 19e:	70 0d       	add	r23, r0
 1a0:	52 9f       	mul	r21, r18
 1a2:	70 0d       	add	r23, r0
 1a4:	11 24       	eor	r1, r1
 1a6:	21 e0       	ldi	r18, 0x01	; 1
 1a8:	30 e0       	ldi	r19, 0x00	; 0
 1aa:	f9 01       	movw	r30, r18
 1ac:	20 81       	ld	r18, Z
 1ae:	42 2f       	mov	r20, r18
 1b0:	50 e0       	ldi	r21, 0x00	; 0
 1b2:	64 9f       	mul	r22, r20
 1b4:	90 01       	movw	r18, r0
 1b6:	65 9f       	mul	r22, r21
 1b8:	30 0d       	add	r19, r0
 1ba:	74 9f       	mul	r23, r20
 1bc:	30 0d       	add	r19, r0
 1be:	11 24       	eor	r1, r1
 1c0:	fc 01       	movw	r30, r24
 1c2:	31 83       	std	Z+1, r19	; 0x01
 1c4:	20 83       	st	Z, r18
/home/becker/async/autosafe/trunk/tum/wcet-cbmc/benchmarks/bsort100/bsort100.c:83
 1c6:	89 81       	ldd	r24, Y+1	; 0x01
 1c8:	9a 81       	ldd	r25, Y+2	; 0x02
 1ca:	01 96       	adiw	r24, 0x01	; 1
 1cc:	9a 83       	std	Y+2, r25	; 0x02
 1ce:	89 83       	std	Y+1, r24	; 0x01
 1d0:	89 81       	ldd	r24, Y+1	; 0x01
 1d2:	9a 81       	ldd	r25, Y+2	; 0x02
 1d4:	85 36       	cpi	r24, 0x65	; 101
 1d6:	91 05       	cpc	r25, r1
 1d8:	9c f2       	brlt	.-90     	; 0x180 <Initialize+0x34>
/home/becker/async/autosafe/trunk/tum/wcet-cbmc/benchmarks/bsort100/bsort100.c:85
 1da:	26 96       	adiw	r28, 0x06	; 6
 1dc:	0f b6       	in	r0, 0x3f	; 63
 1de:	f8 94       	cli
 1e0:	de bf       	out	0x3e, r29	; 62
 1e2:	0f be       	out	0x3f, r0	; 63
 1e4:	cd bf       	out	0x3d, r28	; 61
 1e6:	df 91       	pop	r29
 1e8:	cf 91       	pop	r28
 1ea:	08 95       	ret

000001ec <BubbleSort>:
BubbleSort():
/home/becker/async/autosafe/trunk/tum/wcet-cbmc/benchmarks/bsort100/bsort100.c:94
 1ec:	cf 93       	push	r28
 1ee:	df 93       	push	r29
 1f0:	cd b7       	in	r28, 0x3d	; 61
 1f2:	de b7       	in	r29, 0x3e	; 62
 1f4:	2a 97       	sbiw	r28, 0x0a	; 10
 1f6:	0f b6       	in	r0, 0x3f	; 63
 1f8:	f8 94       	cli
 1fa:	de bf       	out	0x3e, r29	; 62
 1fc:	0f be       	out	0x3f, r0	; 63
 1fe:	cd bf       	out	0x3d, r28	; 61
 200:	9a 87       	std	Y+10, r25	; 0x0a
 202:	89 87       	std	Y+9, r24	; 0x09
/home/becker/async/autosafe/trunk/tum/wcet-cbmc/benchmarks/bsort100/bsort100.c:95
 204:	1a 82       	std	Y+2, r1	; 0x02
 206:	19 82       	std	Y+1, r1	; 0x01
/home/becker/async/autosafe/trunk/tum/wcet-cbmc/benchmarks/bsort100/bsort100.c:98
 208:	81 e0       	ldi	r24, 0x01	; 1
 20a:	90 e0       	ldi	r25, 0x00	; 0
 20c:	9e 83       	std	Y+6, r25	; 0x06
 20e:	8d 83       	std	Y+5, r24	; 0x05
 210:	7a c0       	rjmp	.+244    	; 0x306 <BubbleSort+0x11a>
/home/becker/async/autosafe/trunk/tum/wcet-cbmc/benchmarks/bsort100/bsort100.c:102
 212:	81 e0       	ldi	r24, 0x01	; 1
 214:	90 e0       	ldi	r25, 0x00	; 0
 216:	9a 83       	std	Y+2, r25	; 0x02
 218:	89 83       	std	Y+1, r24	; 0x01
/home/becker/async/autosafe/trunk/tum/wcet-cbmc/benchmarks/bsort100/bsort100.c:103
 21a:	81 e0       	ldi	r24, 0x01	; 1
 21c:	90 e0       	ldi	r25, 0x00	; 0
 21e:	9c 83       	std	Y+4, r25	; 0x04
 220:	8b 83       	std	Y+3, r24	; 0x03
 222:	60 c0       	rjmp	.+192    	; 0x2e4 <BubbleSort+0xf8>
/home/becker/async/autosafe/trunk/tum/wcet-cbmc/benchmarks/bsort100/bsort100.c:106
 224:	24 e6       	ldi	r18, 0x64	; 100
 226:	30 e0       	ldi	r19, 0x00	; 0
 228:	8d 81       	ldd	r24, Y+5	; 0x05
 22a:	9e 81       	ldd	r25, Y+6	; 0x06
 22c:	28 1b       	sub	r18, r24
 22e:	39 0b       	sbc	r19, r25
 230:	8b 81       	ldd	r24, Y+3	; 0x03
 232:	9c 81       	ldd	r25, Y+4	; 0x04
 234:	28 17       	cp	r18, r24
 236:	39 07       	cpc	r19, r25
 238:	0c f4       	brge	.+2      	; 0x23c <BubbleSort+0x50>
 23a:	5b c0       	rjmp	.+182    	; 0x2f2 <BubbleSort+0x106>
/home/becker/async/autosafe/trunk/tum/wcet-cbmc/benchmarks/bsort100/bsort100.c:108
 23c:	8b 81       	ldd	r24, Y+3	; 0x03
 23e:	9c 81       	ldd	r25, Y+4	; 0x04
 240:	88 0f       	add	r24, r24
 242:	99 1f       	adc	r25, r25
 244:	29 85       	ldd	r18, Y+9	; 0x09
 246:	3a 85       	ldd	r19, Y+10	; 0x0a
 248:	82 0f       	add	r24, r18
 24a:	93 1f       	adc	r25, r19
 24c:	fc 01       	movw	r30, r24
 24e:	20 81       	ld	r18, Z
 250:	31 81       	ldd	r19, Z+1	; 0x01
 252:	8b 81       	ldd	r24, Y+3	; 0x03
 254:	9c 81       	ldd	r25, Y+4	; 0x04
 256:	01 96       	adiw	r24, 0x01	; 1
 258:	88 0f       	add	r24, r24
 25a:	99 1f       	adc	r25, r25
 25c:	49 85       	ldd	r20, Y+9	; 0x09
 25e:	5a 85       	ldd	r21, Y+10	; 0x0a
 260:	84 0f       	add	r24, r20
 262:	95 1f       	adc	r25, r21
 264:	fc 01       	movw	r30, r24
 266:	80 81       	ld	r24, Z
 268:	91 81       	ldd	r25, Z+1	; 0x01
 26a:	82 17       	cp	r24, r18
 26c:	93 07       	cpc	r25, r19
 26e:	ac f5       	brge	.+106    	; 0x2da <BubbleSort+0xee>
/home/becker/async/autosafe/trunk/tum/wcet-cbmc/benchmarks/bsort100/bsort100.c:110
 270:	8b 81       	ldd	r24, Y+3	; 0x03
 272:	9c 81       	ldd	r25, Y+4	; 0x04
 274:	88 0f       	add	r24, r24
 276:	99 1f       	adc	r25, r25
 278:	29 85       	ldd	r18, Y+9	; 0x09
 27a:	3a 85       	ldd	r19, Y+10	; 0x0a
 27c:	82 0f       	add	r24, r18
 27e:	93 1f       	adc	r25, r19
 280:	fc 01       	movw	r30, r24
 282:	80 81       	ld	r24, Z
 284:	91 81       	ldd	r25, Z+1	; 0x01
 286:	98 87       	std	Y+8, r25	; 0x08
 288:	8f 83       	std	Y+7, r24	; 0x07
/home/becker/async/autosafe/trunk/tum/wcet-cbmc/benchmarks/bsort100/bsort100.c:111
 28a:	8b 81       	ldd	r24, Y+3	; 0x03
 28c:	9c 81       	ldd	r25, Y+4	; 0x04
 28e:	88 0f       	add	r24, r24
 290:	99 1f       	adc	r25, r25
 292:	29 85       	ldd	r18, Y+9	; 0x09
 294:	3a 85       	ldd	r19, Y+10	; 0x0a
 296:	82 0f       	add	r24, r18
 298:	93 1f       	adc	r25, r19
 29a:	2b 81       	ldd	r18, Y+3	; 0x03
 29c:	3c 81       	ldd	r19, Y+4	; 0x04
 29e:	2f 5f       	subi	r18, 0xFF	; 255
 2a0:	3f 4f       	sbci	r19, 0xFF	; 255
 2a2:	22 0f       	add	r18, r18
 2a4:	33 1f       	adc	r19, r19
 2a6:	49 85       	ldd	r20, Y+9	; 0x09
 2a8:	5a 85       	ldd	r21, Y+10	; 0x0a
 2aa:	24 0f       	add	r18, r20
 2ac:	35 1f       	adc	r19, r21
 2ae:	f9 01       	movw	r30, r18
 2b0:	20 81       	ld	r18, Z
 2b2:	31 81       	ldd	r19, Z+1	; 0x01
 2b4:	fc 01       	movw	r30, r24
 2b6:	31 83       	std	Z+1, r19	; 0x01
 2b8:	20 83       	st	Z, r18
/home/becker/async/autosafe/trunk/tum/wcet-cbmc/benchmarks/bsort100/bsort100.c:112
 2ba:	8b 81       	ldd	r24, Y+3	; 0x03
 2bc:	9c 81       	ldd	r25, Y+4	; 0x04
 2be:	01 96       	adiw	r24, 0x01	; 1
 2c0:	88 0f       	add	r24, r24
 2c2:	99 1f       	adc	r25, r25
 2c4:	29 85       	ldd	r18, Y+9	; 0x09
 2c6:	3a 85       	ldd	r19, Y+10	; 0x0a
 2c8:	82 0f       	add	r24, r18
 2ca:	93 1f       	adc	r25, r19
 2cc:	2f 81       	ldd	r18, Y+7	; 0x07
 2ce:	38 85       	ldd	r19, Y+8	; 0x08
 2d0:	fc 01       	movw	r30, r24
 2d2:	31 83       	std	Z+1, r19	; 0x01
 2d4:	20 83       	st	Z, r18
/home/becker/async/autosafe/trunk/tum/wcet-cbmc/benchmarks/bsort100/bsort100.c:113
 2d6:	1a 82       	std	Y+2, r1	; 0x02
 2d8:	19 82       	std	Y+1, r1	; 0x01
/home/becker/async/autosafe/trunk/tum/wcet-cbmc/benchmarks/bsort100/bsort100.c:105
 2da:	8b 81       	ldd	r24, Y+3	; 0x03
 2dc:	9c 81       	ldd	r25, Y+4	; 0x04
 2de:	01 96       	adiw	r24, 0x01	; 1
 2e0:	9c 83       	std	Y+4, r25	; 0x04
 2e2:	8b 83       	std	Y+3, r24	; 0x03
/home/becker/async/autosafe/trunk/tum/wcet-cbmc/benchmarks/bsort100/bsort100.c:103
 2e4:	8b 81       	ldd	r24, Y+3	; 0x03
 2e6:	9c 81       	ldd	r25, Y+4	; 0x04
 2e8:	84 36       	cpi	r24, 0x64	; 100
 2ea:	91 05       	cpc	r25, r1
 2ec:	0c f4       	brge	.+2      	; 0x2f0 <BubbleSort+0x104>
 2ee:	9a cf       	rjmp	.-204    	; 0x224 <BubbleSort+0x38>
 2f0:	01 c0       	rjmp	.+2      	; 0x2f4 <BubbleSort+0x108>
/home/becker/async/autosafe/trunk/tum/wcet-cbmc/benchmarks/bsort100/bsort100.c:107
 2f2:	00 00       	nop
/home/becker/async/autosafe/trunk/tum/wcet-cbmc/benchmarks/bsort100/bsort100.c:117
 2f4:	89 81       	ldd	r24, Y+1	; 0x01
 2f6:	9a 81       	ldd	r25, Y+2	; 0x02
 2f8:	00 97       	sbiw	r24, 0x00	; 0
 2fa:	61 f4       	brne	.+24     	; 0x314 <BubbleSort+0x128>
/home/becker/async/autosafe/trunk/tum/wcet-cbmc/benchmarks/bsort100/bsort100.c:100
 2fc:	8d 81       	ldd	r24, Y+5	; 0x05
 2fe:	9e 81       	ldd	r25, Y+6	; 0x06
 300:	01 96       	adiw	r24, 0x01	; 1
 302:	9e 83       	std	Y+6, r25	; 0x06
 304:	8d 83       	std	Y+5, r24	; 0x05
/home/becker/async/autosafe/trunk/tum/wcet-cbmc/benchmarks/bsort100/bsort100.c:98
 306:	8d 81       	ldd	r24, Y+5	; 0x05
 308:	9e 81       	ldd	r25, Y+6	; 0x06
 30a:	84 36       	cpi	r24, 0x64	; 100
 30c:	91 05       	cpc	r25, r1
 30e:	0c f4       	brge	.+2      	; 0x312 <BubbleSort+0x126>
 310:	80 cf       	rjmp	.-256    	; 0x212 <BubbleSort+0x26>
 312:	01 c0       	rjmp	.+2      	; 0x316 <BubbleSort+0x12a>
/home/becker/async/autosafe/trunk/tum/wcet-cbmc/benchmarks/bsort100/bsort100.c:118
 314:	00 00       	nop
/home/becker/async/autosafe/trunk/tum/wcet-cbmc/benchmarks/bsort100/bsort100.c:127
 316:	2a 96       	adiw	r28, 0x0a	; 10
 318:	0f b6       	in	r0, 0x3f	; 63
 31a:	f8 94       	cli
 31c:	de bf       	out	0x3e, r29	; 62
 31e:	0f be       	out	0x3f, r0	; 63
 320:	cd bf       	out	0x3d, r28	; 61
 322:	df 91       	pop	r29
 324:	cf 91       	pop	r28
 326:	08 95       	ret

00000328 <__divsf3>:
../../../libm/fplib/mulsf3x.S:40
 328:	0c d0       	rcall	.+24     	; 0x342 <__divsf3x>
 32a:	eb c0       	rjmp	.+470    	; 0x502 <__fp_round>
 32c:	e3 d0       	rcall	.+454    	; 0x4f4 <__fp_pscB>
 32e:	40 f0       	brcs	.+16     	; 0x340 <__divsf3+0x18>
 330:	da d0       	rcall	.+436    	; 0x4e6 <__fp_pscA>
 332:	30 f0       	brcs	.+12     	; 0x340 <__divsf3+0x18>
 334:	21 f4       	brne	.+8      	; 0x33e <__divsf3+0x16>
 336:	5f 3f       	cpi	r21, 0xFF	; 255
 338:	19 f0       	breq	.+6      	; 0x340 <__divsf3+0x18>
 33a:	cc c0       	rjmp	.+408    	; 0x4d4 <__fp_inf>
 33c:	51 11       	cpse	r21, r1
 33e:	15 c1       	rjmp	.+554    	; 0x56a <__fp_szero>
 340:	cf c0       	rjmp	.+414    	; 0x4e0 <__fp_nan>

00000342 <__divsf3x>:
 342:	f0 d0       	rcall	.+480    	; 0x524 <__fp_split3>
 344:	98 f3       	brcs	.-26     	; 0x32c <__divsf3+0x4>

00000346 <__divsf3_pse>:
 346:	99 23       	and	r25, r25
 348:	c9 f3       	breq	.-14     	; 0x33c <__divsf3+0x14>
 34a:	55 23       	and	r21, r21
 34c:	b1 f3       	breq	.-20     	; 0x33a <__divsf3+0x12>
 34e:	95 1b       	sub	r25, r21
 350:	55 0b       	sbc	r21, r21
 352:	bb 27       	eor	r27, r27
 354:	aa 27       	eor	r26, r26
 356:	62 17       	cp	r22, r18
 358:	73 07       	cpc	r23, r19
 35a:	84 07       	cpc	r24, r20
 35c:	38 f0       	brcs	.+14     	; 0x36c <__divsf3_pse+0x26>
 35e:	9f 5f       	subi	r25, 0xFF	; 255
 360:	5f 4f       	sbci	r21, 0xFF	; 255
 362:	22 0f       	add	r18, r18
 364:	33 1f       	adc	r19, r19
 366:	44 1f       	adc	r20, r20
 368:	aa 1f       	adc	r26, r26
 36a:	a9 f3       	breq	.-22     	; 0x356 <__divsf3_pse+0x10>
 36c:	33 d0       	rcall	.+102    	; 0x3d4 <__divsf3_pse+0x8e>
 36e:	0e 2e       	mov	r0, r30
 370:	3a f0       	brmi	.+14     	; 0x380 <__divsf3_pse+0x3a>
 372:	e0 e8       	ldi	r30, 0x80	; 128
 374:	30 d0       	rcall	.+96     	; 0x3d6 <__divsf3_pse+0x90>
 376:	91 50       	subi	r25, 0x01	; 1
 378:	50 40       	sbci	r21, 0x00	; 0
 37a:	e6 95       	lsr	r30
 37c:	00 1c       	adc	r0, r0
 37e:	ca f7       	brpl	.-14     	; 0x372 <__divsf3_pse+0x2c>
 380:	29 d0       	rcall	.+82     	; 0x3d4 <__divsf3_pse+0x8e>
 382:	fe 2f       	mov	r31, r30
 384:	27 d0       	rcall	.+78     	; 0x3d4 <__divsf3_pse+0x8e>
 386:	66 0f       	add	r22, r22
 388:	77 1f       	adc	r23, r23
 38a:	88 1f       	adc	r24, r24
 38c:	bb 1f       	adc	r27, r27
 38e:	26 17       	cp	r18, r22
 390:	37 07       	cpc	r19, r23
 392:	48 07       	cpc	r20, r24
 394:	ab 07       	cpc	r26, r27
 396:	b0 e8       	ldi	r27, 0x80	; 128
 398:	09 f0       	breq	.+2      	; 0x39c <__divsf3_pse+0x56>
 39a:	bb 0b       	sbc	r27, r27
 39c:	80 2d       	mov	r24, r0
 39e:	bf 01       	movw	r22, r30
 3a0:	ff 27       	eor	r31, r31
 3a2:	93 58       	subi	r25, 0x83	; 131
 3a4:	5f 4f       	sbci	r21, 0xFF	; 255
 3a6:	2a f0       	brmi	.+10     	; 0x3b2 <__divsf3_pse+0x6c>
 3a8:	9e 3f       	cpi	r25, 0xFE	; 254
 3aa:	51 05       	cpc	r21, r1
 3ac:	68 f0       	brcs	.+26     	; 0x3c8 <__divsf3_pse+0x82>
 3ae:	92 c0       	rjmp	.+292    	; 0x4d4 <__fp_inf>
 3b0:	dc c0       	rjmp	.+440    	; 0x56a <__fp_szero>
 3b2:	5f 3f       	cpi	r21, 0xFF	; 255
 3b4:	ec f3       	brlt	.-6      	; 0x3b0 <__divsf3_pse+0x6a>
 3b6:	98 3e       	cpi	r25, 0xE8	; 232
 3b8:	dc f3       	brlt	.-10     	; 0x3b0 <__divsf3_pse+0x6a>
 3ba:	86 95       	lsr	r24
 3bc:	77 95       	ror	r23
 3be:	67 95       	ror	r22
 3c0:	b7 95       	ror	r27
 3c2:	f7 95       	ror	r31
 3c4:	9f 5f       	subi	r25, 0xFF	; 255
 3c6:	c9 f7       	brne	.-14     	; 0x3ba <__divsf3_pse+0x74>
 3c8:	88 0f       	add	r24, r24
 3ca:	91 1d       	adc	r25, r1
 3cc:	96 95       	lsr	r25
 3ce:	87 95       	ror	r24
 3d0:	97 f9       	bld	r25, 7
 3d2:	08 95       	ret
 3d4:	e1 e0       	ldi	r30, 0x01	; 1
 3d6:	66 0f       	add	r22, r22
 3d8:	77 1f       	adc	r23, r23
 3da:	88 1f       	adc	r24, r24
 3dc:	bb 1f       	adc	r27, r27
 3de:	62 17       	cp	r22, r18
 3e0:	73 07       	cpc	r23, r19
 3e2:	84 07       	cpc	r24, r20
 3e4:	ba 07       	cpc	r27, r26
 3e6:	20 f0       	brcs	.+8      	; 0x3f0 <__divsf3_pse+0xaa>
 3e8:	62 1b       	sub	r22, r18
 3ea:	73 0b       	sbc	r23, r19
 3ec:	84 0b       	sbc	r24, r20
 3ee:	ba 0b       	sbc	r27, r26
 3f0:	ee 1f       	adc	r30, r30
 3f2:	88 f7       	brcc	.-30     	; 0x3d6 <__divsf3_pse+0x90>
 3f4:	e0 95       	com	r30
 3f6:	08 95       	ret

000003f8 <__fixsfsi>:
 3f8:	04 d0       	rcall	.+8      	; 0x402 <__fixunssfsi>
 3fa:	68 94       	set
 3fc:	b1 11       	cpse	r27, r1
 3fe:	b5 c0       	rjmp	.+362    	; 0x56a <__fp_szero>
 400:	08 95       	ret

00000402 <__fixunssfsi>:
 402:	98 d0       	rcall	.+304    	; 0x534 <__fp_splitA>
 404:	88 f0       	brcs	.+34     	; 0x428 <__fixunssfsi+0x26>
 406:	9f 57       	subi	r25, 0x7F	; 127
 408:	90 f0       	brcs	.+36     	; 0x42e <__fixunssfsi+0x2c>
 40a:	b9 2f       	mov	r27, r25
 40c:	99 27       	eor	r25, r25
 40e:	b7 51       	subi	r27, 0x17	; 23
 410:	a0 f0       	brcs	.+40     	; 0x43a <__fixunssfsi+0x38>
 412:	d1 f0       	breq	.+52     	; 0x448 <__fixunssfsi+0x46>
 414:	66 0f       	add	r22, r22
 416:	77 1f       	adc	r23, r23
 418:	88 1f       	adc	r24, r24
 41a:	99 1f       	adc	r25, r25
 41c:	1a f0       	brmi	.+6      	; 0x424 <__fixunssfsi+0x22>
 41e:	ba 95       	dec	r27
 420:	c9 f7       	brne	.-14     	; 0x414 <__fixunssfsi+0x12>
 422:	12 c0       	rjmp	.+36     	; 0x448 <__fixunssfsi+0x46>
 424:	b1 30       	cpi	r27, 0x01	; 1
 426:	81 f0       	breq	.+32     	; 0x448 <__fixunssfsi+0x46>
 428:	9f d0       	rcall	.+318    	; 0x568 <__fp_zero>
 42a:	b1 e0       	ldi	r27, 0x01	; 1
 42c:	08 95       	ret
 42e:	9c c0       	rjmp	.+312    	; 0x568 <__fp_zero>
 430:	67 2f       	mov	r22, r23
 432:	78 2f       	mov	r23, r24
 434:	88 27       	eor	r24, r24
 436:	b8 5f       	subi	r27, 0xF8	; 248
 438:	39 f0       	breq	.+14     	; 0x448 <__fixunssfsi+0x46>
 43a:	b9 3f       	cpi	r27, 0xF9	; 249
 43c:	cc f3       	brlt	.-14     	; 0x430 <__fixunssfsi+0x2e>
 43e:	86 95       	lsr	r24
 440:	77 95       	ror	r23
 442:	67 95       	ror	r22
 444:	b3 95       	inc	r27
 446:	d9 f7       	brne	.-10     	; 0x43e <__fixunssfsi+0x3c>
 448:	3e f4       	brtc	.+14     	; 0x458 <__fixunssfsi+0x56>
 44a:	90 95       	com	r25
 44c:	80 95       	com	r24
 44e:	70 95       	com	r23
 450:	61 95       	neg	r22
 452:	7f 4f       	sbci	r23, 0xFF	; 255
 454:	8f 4f       	sbci	r24, 0xFF	; 255
 456:	9f 4f       	sbci	r25, 0xFF	; 255
 458:	08 95       	ret

0000045a <__floatunsisf>:
 45a:	e8 94       	clt
 45c:	09 c0       	rjmp	.+18     	; 0x470 <__floatsisf+0x12>

0000045e <__floatsisf>:
 45e:	97 fb       	bst	r25, 7
 460:	3e f4       	brtc	.+14     	; 0x470 <__floatsisf+0x12>
 462:	90 95       	com	r25
 464:	80 95       	com	r24
 466:	70 95       	com	r23
 468:	61 95       	neg	r22
 46a:	7f 4f       	sbci	r23, 0xFF	; 255
 46c:	8f 4f       	sbci	r24, 0xFF	; 255
 46e:	9f 4f       	sbci	r25, 0xFF	; 255
 470:	99 23       	and	r25, r25
 472:	a9 f0       	breq	.+42     	; 0x49e <__floatsisf+0x40>
 474:	f9 2f       	mov	r31, r25
 476:	96 e9       	ldi	r25, 0x96	; 150
 478:	bb 27       	eor	r27, r27
 47a:	93 95       	inc	r25
 47c:	f6 95       	lsr	r31
 47e:	87 95       	ror	r24
 480:	77 95       	ror	r23
 482:	67 95       	ror	r22
 484:	b7 95       	ror	r27
 486:	f1 11       	cpse	r31, r1
 488:	f8 cf       	rjmp	.-16     	; 0x47a <__floatsisf+0x1c>
 48a:	fa f4       	brpl	.+62     	; 0x4ca <__floatsisf+0x6c>
 48c:	bb 0f       	add	r27, r27
 48e:	11 f4       	brne	.+4      	; 0x494 <__floatsisf+0x36>
 490:	60 ff       	sbrs	r22, 0
 492:	1b c0       	rjmp	.+54     	; 0x4ca <__floatsisf+0x6c>
 494:	6f 5f       	subi	r22, 0xFF	; 255
 496:	7f 4f       	sbci	r23, 0xFF	; 255
 498:	8f 4f       	sbci	r24, 0xFF	; 255
 49a:	9f 4f       	sbci	r25, 0xFF	; 255
 49c:	16 c0       	rjmp	.+44     	; 0x4ca <__floatsisf+0x6c>
 49e:	88 23       	and	r24, r24
 4a0:	11 f0       	breq	.+4      	; 0x4a6 <__floatsisf+0x48>
 4a2:	96 e9       	ldi	r25, 0x96	; 150
 4a4:	11 c0       	rjmp	.+34     	; 0x4c8 <__floatsisf+0x6a>
 4a6:	77 23       	and	r23, r23
 4a8:	21 f0       	breq	.+8      	; 0x4b2 <__floatsisf+0x54>
 4aa:	9e e8       	ldi	r25, 0x8E	; 142
 4ac:	87 2f       	mov	r24, r23
 4ae:	76 2f       	mov	r23, r22
 4b0:	05 c0       	rjmp	.+10     	; 0x4bc <__floatsisf+0x5e>
 4b2:	66 23       	and	r22, r22
 4b4:	71 f0       	breq	.+28     	; 0x4d2 <__floatsisf+0x74>
 4b6:	96 e8       	ldi	r25, 0x86	; 134
 4b8:	86 2f       	mov	r24, r22
 4ba:	70 e0       	ldi	r23, 0x00	; 0
 4bc:	60 e0       	ldi	r22, 0x00	; 0
 4be:	2a f0       	brmi	.+10     	; 0x4ca <__floatsisf+0x6c>
 4c0:	9a 95       	dec	r25
 4c2:	66 0f       	add	r22, r22
 4c4:	77 1f       	adc	r23, r23
 4c6:	88 1f       	adc	r24, r24
 4c8:	da f7       	brpl	.-10     	; 0x4c0 <__floatsisf+0x62>
 4ca:	88 0f       	add	r24, r24
 4cc:	96 95       	lsr	r25
 4ce:	87 95       	ror	r24
 4d0:	97 f9       	bld	r25, 7
 4d2:	08 95       	ret

000004d4 <__fp_inf>:
 4d4:	97 f9       	bld	r25, 7
 4d6:	9f 67       	ori	r25, 0x7F	; 127
 4d8:	80 e8       	ldi	r24, 0x80	; 128
 4da:	70 e0       	ldi	r23, 0x00	; 0
 4dc:	60 e0       	ldi	r22, 0x00	; 0
 4de:	08 95       	ret

000004e0 <__fp_nan>:
 4e0:	9f ef       	ldi	r25, 0xFF	; 255
 4e2:	80 ec       	ldi	r24, 0xC0	; 192
 4e4:	08 95       	ret

000004e6 <__fp_pscA>:
 4e6:	00 24       	eor	r0, r0
 4e8:	0a 94       	dec	r0
 4ea:	16 16       	cp	r1, r22
 4ec:	17 06       	cpc	r1, r23
 4ee:	18 06       	cpc	r1, r24
 4f0:	09 06       	cpc	r0, r25
 4f2:	08 95       	ret

000004f4 <__fp_pscB>:
 4f4:	00 24       	eor	r0, r0
 4f6:	0a 94       	dec	r0
 4f8:	12 16       	cp	r1, r18
 4fa:	13 06       	cpc	r1, r19
 4fc:	14 06       	cpc	r1, r20
 4fe:	05 06       	cpc	r0, r21
 500:	08 95       	ret

00000502 <__fp_round>:
 502:	09 2e       	mov	r0, r25
 504:	03 94       	inc	r0
 506:	00 0c       	add	r0, r0
 508:	11 f4       	brne	.+4      	; 0x50e <__fp_round+0xc>
 50a:	88 23       	and	r24, r24
 50c:	52 f0       	brmi	.+20     	; 0x522 <__fp_round+0x20>
 50e:	bb 0f       	add	r27, r27
 510:	40 f4       	brcc	.+16     	; 0x522 <__fp_round+0x20>
 512:	bf 2b       	or	r27, r31
 514:	11 f4       	brne	.+4      	; 0x51a <__fp_round+0x18>
 516:	60 ff       	sbrs	r22, 0
 518:	04 c0       	rjmp	.+8      	; 0x522 <__fp_round+0x20>
 51a:	6f 5f       	subi	r22, 0xFF	; 255
 51c:	7f 4f       	sbci	r23, 0xFF	; 255
 51e:	8f 4f       	sbci	r24, 0xFF	; 255
 520:	9f 4f       	sbci	r25, 0xFF	; 255
 522:	08 95       	ret

00000524 <__fp_split3>:
 524:	57 fd       	sbrc	r21, 7
 526:	90 58       	subi	r25, 0x80	; 128
 528:	44 0f       	add	r20, r20
 52a:	55 1f       	adc	r21, r21
 52c:	59 f0       	breq	.+22     	; 0x544 <__fp_splitA+0x10>
 52e:	5f 3f       	cpi	r21, 0xFF	; 255
 530:	71 f0       	breq	.+28     	; 0x54e <__fp_splitA+0x1a>
 532:	47 95       	ror	r20

00000534 <__fp_splitA>:
 534:	88 0f       	add	r24, r24
 536:	97 fb       	bst	r25, 7
 538:	99 1f       	adc	r25, r25
 53a:	61 f0       	breq	.+24     	; 0x554 <__fp_splitA+0x20>
 53c:	9f 3f       	cpi	r25, 0xFF	; 255
 53e:	79 f0       	breq	.+30     	; 0x55e <__fp_splitA+0x2a>
 540:	87 95       	ror	r24
 542:	08 95       	ret
 544:	12 16       	cp	r1, r18
 546:	13 06       	cpc	r1, r19
 548:	14 06       	cpc	r1, r20
 54a:	55 1f       	adc	r21, r21
 54c:	f2 cf       	rjmp	.-28     	; 0x532 <__fp_split3+0xe>
 54e:	46 95       	lsr	r20
 550:	f1 df       	rcall	.-30     	; 0x534 <__fp_splitA>
 552:	08 c0       	rjmp	.+16     	; 0x564 <__fp_splitA+0x30>
 554:	16 16       	cp	r1, r22
 556:	17 06       	cpc	r1, r23
 558:	18 06       	cpc	r1, r24
 55a:	99 1f       	adc	r25, r25
 55c:	f1 cf       	rjmp	.-30     	; 0x540 <__fp_splitA+0xc>
 55e:	86 95       	lsr	r24
 560:	71 05       	cpc	r23, r1
 562:	61 05       	cpc	r22, r1
 564:	08 94       	sec
 566:	08 95       	ret

00000568 <__fp_zero>:
 568:	e8 94       	clt

0000056a <__fp_szero>:
 56a:	bb 27       	eor	r27, r27
 56c:	66 27       	eor	r22, r22
 56e:	77 27       	eor	r23, r23
 570:	cb 01       	movw	r24, r22
 572:	97 f9       	bld	r25, 7
 574:	08 95       	ret

00000576 <__mulsf3>:
 576:	0b d0       	rcall	.+22     	; 0x58e <__mulsf3x>
 578:	c4 cf       	rjmp	.-120    	; 0x502 <__fp_round>
../../../libm/fplib/mulsf3x.S:44
 57a:	b5 df       	rcall	.-150    	; 0x4e6 <__fp_pscA>
../../../libm/fplib/mulsf3x.S:45
 57c:	28 f0       	brcs	.+10     	; 0x588 <__mulsf3+0x12>
../../../libm/fplib/mulsf3x.S:46
 57e:	ba df       	rcall	.-140    	; 0x4f4 <__fp_pscB>
../../../libm/fplib/mulsf3x.S:47
 580:	18 f0       	brcs	.+6      	; 0x588 <__mulsf3+0x12>
../../../libm/fplib/mulsf3x.S:48
 582:	95 23       	and	r25, r21
../../../libm/fplib/mulsf3x.S:49
 584:	09 f0       	breq	.+2      	; 0x588 <__mulsf3+0x12>
../../../libm/fplib/mulsf3x.S:50
 586:	a6 cf       	rjmp	.-180    	; 0x4d4 <__fp_inf>
../../../libm/fplib/mulsf3x.S:51
 588:	ab cf       	rjmp	.-170    	; 0x4e0 <__fp_nan>
../../../libm/fplib/mulsf3x.S:52
 58a:	11 24       	eor	r1, r1
../../../libm/fplib/mulsf3x.S:53
 58c:	ee cf       	rjmp	.-36     	; 0x56a <__fp_szero>

0000058e <__mulsf3x>:
../../../libm/fplib/mulsf3x.S:56
 58e:	ca df       	rcall	.-108    	; 0x524 <__fp_split3>
../../../libm/fplib/mulsf3x.S:57
 590:	a0 f3       	brcs	.-24     	; 0x57a <__mulsf3+0x4>

00000592 <__mulsf3_pse>:
../../../libm/fplib/mulsf3x.S:61
 592:	95 9f       	mul	r25, r21
../../../libm/fplib/mulsf3x.S:62
 594:	d1 f3       	breq	.-12     	; 0x58a <__mulsf3+0x14>
../../../libm/fplib/mulsf3x.S:64
 596:	95 0f       	add	r25, r21
../../../libm/fplib/mulsf3x.S:65
 598:	50 e0       	ldi	r21, 0x00	; 0
../../../libm/fplib/mulsf3x.S:66
 59a:	55 1f       	adc	r21, r21
../../../libm/fplib/mulsf3x.S:71
 59c:	62 9f       	mul	r22, r18
../../../libm/fplib/mulsf3x.S:72
 59e:	f0 01       	movw	r30, r0
../../../libm/fplib/mulsf3x.S:74
 5a0:	72 9f       	mul	r23, r18
../../../libm/fplib/mulsf3x.S:75
 5a2:	bb 27       	eor	r27, r27
../../../libm/fplib/mulsf3x.S:76
 5a4:	f0 0d       	add	r31, r0
../../../libm/fplib/mulsf3x.S:77
 5a6:	b1 1d       	adc	r27, r1
../../../libm/fplib/mulsf3x.S:79
 5a8:	63 9f       	mul	r22, r19
../../../libm/fplib/mulsf3x.S:80
 5aa:	aa 27       	eor	r26, r26
../../../libm/fplib/mulsf3x.S:81
 5ac:	f0 0d       	add	r31, r0
../../../libm/fplib/mulsf3x.S:82
 5ae:	b1 1d       	adc	r27, r1
../../../libm/fplib/mulsf3x.S:83
 5b0:	aa 1f       	adc	r26, r26
../../../libm/fplib/mulsf3x.S:85
 5b2:	64 9f       	mul	r22, r20
../../../libm/fplib/mulsf3x.S:86
 5b4:	66 27       	eor	r22, r22
../../../libm/fplib/mulsf3x.S:87
 5b6:	b0 0d       	add	r27, r0
../../../libm/fplib/mulsf3x.S:88
 5b8:	a1 1d       	adc	r26, r1
../../../libm/fplib/mulsf3x.S:89
 5ba:	66 1f       	adc	r22, r22
../../../libm/fplib/mulsf3x.S:91
 5bc:	82 9f       	mul	r24, r18
../../../libm/fplib/mulsf3x.S:92
 5be:	22 27       	eor	r18, r18
../../../libm/fplib/mulsf3x.S:93
 5c0:	b0 0d       	add	r27, r0
../../../libm/fplib/mulsf3x.S:94
 5c2:	a1 1d       	adc	r26, r1
../../../libm/fplib/mulsf3x.S:95
 5c4:	62 1f       	adc	r22, r18
../../../libm/fplib/mulsf3x.S:97
 5c6:	73 9f       	mul	r23, r19
../../../libm/fplib/mulsf3x.S:98
 5c8:	b0 0d       	add	r27, r0
../../../libm/fplib/mulsf3x.S:99
 5ca:	a1 1d       	adc	r26, r1
../../../libm/fplib/mulsf3x.S:100
 5cc:	62 1f       	adc	r22, r18
../../../libm/fplib/mulsf3x.S:102
 5ce:	83 9f       	mul	r24, r19
../../../libm/fplib/mulsf3x.S:103
 5d0:	a0 0d       	add	r26, r0
../../../libm/fplib/mulsf3x.S:104
 5d2:	61 1d       	adc	r22, r1
../../../libm/fplib/mulsf3x.S:105
 5d4:	22 1f       	adc	r18, r18
../../../libm/fplib/mulsf3x.S:107
 5d6:	74 9f       	mul	r23, r20
../../../libm/fplib/mulsf3x.S:108
 5d8:	33 27       	eor	r19, r19
../../../libm/fplib/mulsf3x.S:109
 5da:	a0 0d       	add	r26, r0
../../../libm/fplib/mulsf3x.S:110
 5dc:	61 1d       	adc	r22, r1
../../../libm/fplib/mulsf3x.S:111
 5de:	23 1f       	adc	r18, r19
../../../libm/fplib/mulsf3x.S:113
 5e0:	84 9f       	mul	r24, r20
../../../libm/fplib/mulsf3x.S:114
 5e2:	60 0d       	add	r22, r0
../../../libm/fplib/mulsf3x.S:115
 5e4:	21 1d       	adc	r18, r1
../../../libm/fplib/mulsf3x.S:117
 5e6:	82 2f       	mov	r24, r18
../../../libm/fplib/mulsf3x.S:118
 5e8:	76 2f       	mov	r23, r22
../../../libm/fplib/mulsf3x.S:119
 5ea:	6a 2f       	mov	r22, r26
../../../libm/fplib/mulsf3x.S:121
 5ec:	11 24       	eor	r1, r1
../../../libm/fplib/mulsf3x.S:209
 5ee:	9f 57       	subi	r25, 0x7F	; 127
../../../libm/fplib/mulsf3x.S:210
 5f0:	50 40       	sbci	r21, 0x00	; 0
../../../libm/fplib/mulsf3x.S:211
 5f2:	8a f0       	brmi	.+34     	; 0x616 <__mulsf3_pse+0x84>
../../../libm/fplib/mulsf3x.S:212
 5f4:	e1 f0       	breq	.+56     	; 0x62e <__mulsf3_pse+0x9c>
../../../libm/fplib/mulsf3x.S:214
 5f6:	88 23       	and	r24, r24
../../../libm/fplib/mulsf3x.S:215
 5f8:	4a f0       	brmi	.+18     	; 0x60c <__mulsf3_pse+0x7a>
../../../libm/fplib/mulsf3x.S:217
 5fa:	ee 0f       	add	r30, r30
../../../libm/fplib/mulsf3x.S:218
 5fc:	ff 1f       	adc	r31, r31
../../../libm/fplib/mulsf3x.S:219
 5fe:	bb 1f       	adc	r27, r27
../../../libm/fplib/mulsf3x.S:220
 600:	66 1f       	adc	r22, r22
../../../libm/fplib/mulsf3x.S:221
 602:	77 1f       	adc	r23, r23
../../../libm/fplib/mulsf3x.S:222
 604:	88 1f       	adc	r24, r24
../../../libm/fplib/mulsf3x.S:224
 606:	91 50       	subi	r25, 0x01	; 1
../../../libm/fplib/mulsf3x.S:225
 608:	50 40       	sbci	r21, 0x00	; 0
../../../libm/fplib/mulsf3x.S:226
 60a:	a9 f7       	brne	.-22     	; 0x5f6 <__mulsf3_pse+0x64>
../../../libm/fplib/mulsf3x.S:228
 60c:	9e 3f       	cpi	r25, 0xFE	; 254
../../../libm/fplib/mulsf3x.S:229
 60e:	51 05       	cpc	r21, r1
../../../libm/fplib/mulsf3x.S:230
 610:	70 f0       	brcs	.+28     	; 0x62e <__mulsf3_pse+0x9c>
../../../libm/fplib/mulsf3x.S:231
 612:	60 cf       	rjmp	.-320    	; 0x4d4 <__fp_inf>
../../../libm/fplib/mulsf3x.S:233
 614:	aa cf       	rjmp	.-172    	; 0x56a <__fp_szero>
../../../libm/fplib/mulsf3x.S:234
 616:	5f 3f       	cpi	r21, 0xFF	; 255
../../../libm/fplib/mulsf3x.S:235
 618:	ec f3       	brlt	.-6      	; 0x614 <__mulsf3_pse+0x82>
../../../libm/fplib/mulsf3x.S:236
 61a:	98 3e       	cpi	r25, 0xE8	; 232
../../../libm/fplib/mulsf3x.S:237
 61c:	dc f3       	brlt	.-10     	; 0x614 <__mulsf3_pse+0x82>
../../../libm/fplib/mulsf3x.S:239
 61e:	86 95       	lsr	r24
../../../libm/fplib/mulsf3x.S:240
 620:	77 95       	ror	r23
../../../libm/fplib/mulsf3x.S:241
 622:	67 95       	ror	r22
../../../libm/fplib/mulsf3x.S:242
 624:	b7 95       	ror	r27
../../../libm/fplib/mulsf3x.S:243
 626:	f7 95       	ror	r31
../../../libm/fplib/mulsf3x.S:244
 628:	e7 95       	ror	r30
../../../libm/fplib/mulsf3x.S:245
 62a:	9f 5f       	subi	r25, 0xFF	; 255
../../../libm/fplib/mulsf3x.S:246
 62c:	c1 f7       	brne	.-16     	; 0x61e <__mulsf3_pse+0x8c>
../../../libm/fplib/mulsf3x.S:248
 62e:	fe 2b       	or	r31, r30
../../../libm/fplib/mulsf3x.S:250
 630:	88 0f       	add	r24, r24
../../../libm/fplib/mulsf3x.S:251
 632:	91 1d       	adc	r25, r1
../../../libm/fplib/mulsf3x.S:252
 634:	96 95       	lsr	r25
../../../libm/fplib/mulsf3x.S:253
 636:	87 95       	ror	r24
../../../libm/fplib/mulsf3x.S:254
 638:	97 f9       	bld	r25, 7
../../../libm/fplib/mulsf3x.S:255
 63a:	08 95       	ret

0000063c <_exit>:
../../../libm/fplib/mulsf3x.S:256
 63c:	f8 94       	cli

0000063e <__stop_program>:
 63e:	ff cf       	rjmp	.-2      	; 0x63e <__stop_program>
