
main.elf:     file format elf32-avr


Disassembly of section .text:

00000000 <__vectors>:
__vectors():
../../../../crt1/gcrt1.S:52
   0:	0c 94 46 00 	jmp	0x8c	; 0x8c <__ctors_end>
../../../../crt1/gcrt1.S:53
   4:	0c 94 65 00 	jmp	0xca	; 0xca <__bad_interrupt>
../../../../crt1/gcrt1.S:54
   8:	0c 94 65 00 	jmp	0xca	; 0xca <__bad_interrupt>
../../../../crt1/gcrt1.S:55
   c:	0c 94 65 00 	jmp	0xca	; 0xca <__bad_interrupt>
../../../../crt1/gcrt1.S:56
  10:	0c 94 65 00 	jmp	0xca	; 0xca <__bad_interrupt>
../../../../crt1/gcrt1.S:57
  14:	0c 94 65 00 	jmp	0xca	; 0xca <__bad_interrupt>
../../../../crt1/gcrt1.S:58
  18:	0c 94 65 00 	jmp	0xca	; 0xca <__bad_interrupt>
../../../../crt1/gcrt1.S:59
  1c:	0c 94 65 00 	jmp	0xca	; 0xca <__bad_interrupt>
../../../../crt1/gcrt1.S:60
  20:	0c 94 65 00 	jmp	0xca	; 0xca <__bad_interrupt>
../../../../crt1/gcrt1.S:61
  24:	0c 94 65 00 	jmp	0xca	; 0xca <__bad_interrupt>
../../../../crt1/gcrt1.S:62
  28:	0c 94 65 00 	jmp	0xca	; 0xca <__bad_interrupt>
../../../../crt1/gcrt1.S:63
  2c:	0c 94 65 00 	jmp	0xca	; 0xca <__bad_interrupt>
../../../../crt1/gcrt1.S:64
  30:	0c 94 65 00 	jmp	0xca	; 0xca <__bad_interrupt>
../../../../crt1/gcrt1.S:65
  34:	0c 94 65 00 	jmp	0xca	; 0xca <__bad_interrupt>
../../../../crt1/gcrt1.S:66
  38:	0c 94 65 00 	jmp	0xca	; 0xca <__bad_interrupt>
../../../../crt1/gcrt1.S:67
  3c:	0c 94 65 00 	jmp	0xca	; 0xca <__bad_interrupt>
../../../../crt1/gcrt1.S:68
  40:	0c 94 65 00 	jmp	0xca	; 0xca <__bad_interrupt>
../../../../crt1/gcrt1.S:69
  44:	0c 94 65 00 	jmp	0xca	; 0xca <__bad_interrupt>
../../../../crt1/gcrt1.S:70
  48:	0c 94 65 00 	jmp	0xca	; 0xca <__bad_interrupt>
../../../../crt1/gcrt1.S:71
  4c:	0c 94 65 00 	jmp	0xca	; 0xca <__bad_interrupt>
../../../../crt1/gcrt1.S:72
  50:	0c 94 65 00 	jmp	0xca	; 0xca <__bad_interrupt>
../../../../crt1/gcrt1.S:73
  54:	0c 94 65 00 	jmp	0xca	; 0xca <__bad_interrupt>
../../../../crt1/gcrt1.S:74
  58:	0c 94 65 00 	jmp	0xca	; 0xca <__bad_interrupt>
../../../../crt1/gcrt1.S:75
  5c:	0c 94 65 00 	jmp	0xca	; 0xca <__bad_interrupt>
../../../../crt1/gcrt1.S:76
  60:	0c 94 65 00 	jmp	0xca	; 0xca <__bad_interrupt>
../../../../crt1/gcrt1.S:77
  64:	0c 94 65 00 	jmp	0xca	; 0xca <__bad_interrupt>
../../../../crt1/gcrt1.S:78
  68:	0c 94 65 00 	jmp	0xca	; 0xca <__bad_interrupt>
../../../../crt1/gcrt1.S:79
  6c:	0c 94 65 00 	jmp	0xca	; 0xca <__bad_interrupt>
../../../../crt1/gcrt1.S:80
  70:	0c 94 65 00 	jmp	0xca	; 0xca <__bad_interrupt>
../../../../crt1/gcrt1.S:81
  74:	0c 94 65 00 	jmp	0xca	; 0xca <__bad_interrupt>
../../../../crt1/gcrt1.S:82
  78:	0c 94 65 00 	jmp	0xca	; 0xca <__bad_interrupt>
../../../../crt1/gcrt1.S:83
  7c:	0c 94 65 00 	jmp	0xca	; 0xca <__bad_interrupt>
../../../../crt1/gcrt1.S:84
  80:	0c 94 65 00 	jmp	0xca	; 0xca <__bad_interrupt>
../../../../crt1/gcrt1.S:85
  84:	0c 94 65 00 	jmp	0xca	; 0xca <__bad_interrupt>
../../../../crt1/gcrt1.S:86
  88:	0c 94 65 00 	jmp	0xca	; 0xca <__bad_interrupt>

0000008c <__ctors_end>:
../../../../crt1/gcrt1.S:179
  8c:	11 24       	eor	r1, r1
  8e:	1f be       	out	0x3f, r1	; 63
  90:	cf ef       	ldi	r28, 0xFF	; 255
  92:	d0 e1       	ldi	r29, 0x10	; 16
  94:	de bf       	out	0x3e, r29	; 62
  96:	cd bf       	out	0x3d, r28	; 61

00000098 <__do_copy_data>:
  98:	11 e0       	ldi	r17, 0x01	; 1
  9a:	a0 e0       	ldi	r26, 0x00	; 0
  9c:	b1 e0       	ldi	r27, 0x01	; 1
  9e:	e2 e3       	ldi	r30, 0x32	; 50
  a0:	fc e0       	ldi	r31, 0x0C	; 12
  a2:	00 e0       	ldi	r16, 0x00	; 0
  a4:	0b bf       	out	0x3b, r16	; 59
  a6:	02 c0       	rjmp	.+4      	; 0xac <__do_copy_data+0x14>
  a8:	07 90       	elpm	r0, Z+
  aa:	0d 92       	st	X+, r0
  ac:	a0 38       	cpi	r26, 0x80	; 128
  ae:	b1 07       	cpc	r27, r17
  b0:	d9 f7       	brne	.-10     	; 0xa8 <__do_copy_data+0x10>

000000b2 <__do_clear_bss>:
  b2:	11 e0       	ldi	r17, 0x01	; 1
  b4:	a0 e8       	ldi	r26, 0x80	; 128
  b6:	b1 e0       	ldi	r27, 0x01	; 1
  b8:	01 c0       	rjmp	.+2      	; 0xbc <.do_clear_bss_start>

000000ba <.do_clear_bss_loop>:
  ba:	1d 92       	st	X+, r1

000000bc <.do_clear_bss_start>:
  bc:	a2 38       	cpi	r26, 0x82	; 130
  be:	b1 07       	cpc	r27, r17
  c0:	e1 f7       	brne	.-8      	; 0xba <.do_clear_bss_loop>
  c2:	0e 94 06 06 	call	0xc0c	; 0xc0c <main>
  c6:	0c 94 17 06 	jmp	0xc2e	; 0xc2e <_exit>

000000ca <__bad_interrupt>:
__bad_interrupt():
../../../../crt1/gcrt1.S:195
  ca:	0c 94 00 00 	jmp	0	; 0x0 <__vectors>

000000ce <fdct>:
fdct():
/home/becker/async/autosafe/trunk/tum/wcet-cbmc/benchmarks/fdct/fdct.c:68
  ce:	cf 93       	push	r28
  d0:	df 93       	push	r29
  d2:	cd b7       	in	r28, 0x3d	; 61
  d4:	de b7       	in	r29, 0x3e	; 62
  d6:	ac 97       	sbiw	r28, 0x2c	; 44
  d8:	0f b6       	in	r0, 0x3f	; 63
  da:	f8 94       	cli
  dc:	de bf       	out	0x3e, r29	; 62
  de:	0f be       	out	0x3f, r0	; 63
  e0:	cd bf       	out	0x3d, r28	; 61
  e2:	9a a7       	std	Y+42, r25	; 0x2a
  e4:	89 a7       	std	Y+41, r24	; 0x29
  e6:	7c a7       	std	Y+44, r23	; 0x2c
  e8:	6b a7       	std	Y+43, r22	; 0x2b
/home/becker/async/autosafe/trunk/tum/wcet-cbmc/benchmarks/fdct/fdct.c:81
  ea:	89 a5       	ldd	r24, Y+41	; 0x29
  ec:	9a a5       	ldd	r25, Y+42	; 0x2a
  ee:	9c 83       	std	Y+4, r25	; 0x04
  f0:	8b 83       	std	Y+3, r24	; 0x03
/home/becker/async/autosafe/trunk/tum/wcet-cbmc/benchmarks/fdct/fdct.c:83
  f2:	1a 82       	std	Y+2, r1	; 0x02
  f4:	19 82       	std	Y+1, r1	; 0x01
  f6:	4f c2       	rjmp	.+1182   	; 0x596 <fdct+0x4c8>
/home/becker/async/autosafe/trunk/tum/wcet-cbmc/benchmarks/fdct/fdct.c:85
  f8:	8b 81       	ldd	r24, Y+3	; 0x03
  fa:	9c 81       	ldd	r25, Y+4	; 0x04
  fc:	fc 01       	movw	r30, r24
  fe:	20 81       	ld	r18, Z
 100:	31 81       	ldd	r19, Z+1	; 0x01
 102:	8b 81       	ldd	r24, Y+3	; 0x03
 104:	9c 81       	ldd	r25, Y+4	; 0x04
 106:	0e 96       	adiw	r24, 0x0e	; 14
 108:	fc 01       	movw	r30, r24
 10a:	80 81       	ld	r24, Z
 10c:	91 81       	ldd	r25, Z+1	; 0x01
 10e:	82 0f       	add	r24, r18
 110:	93 1f       	adc	r25, r19
 112:	9e 83       	std	Y+6, r25	; 0x06
 114:	8d 83       	std	Y+5, r24	; 0x05
/home/becker/async/autosafe/trunk/tum/wcet-cbmc/benchmarks/fdct/fdct.c:86
 116:	8b 81       	ldd	r24, Y+3	; 0x03
 118:	9c 81       	ldd	r25, Y+4	; 0x04
 11a:	fc 01       	movw	r30, r24
 11c:	20 81       	ld	r18, Z
 11e:	31 81       	ldd	r19, Z+1	; 0x01
 120:	8b 81       	ldd	r24, Y+3	; 0x03
 122:	9c 81       	ldd	r25, Y+4	; 0x04
 124:	0e 96       	adiw	r24, 0x0e	; 14
 126:	fc 01       	movw	r30, r24
 128:	80 81       	ld	r24, Z
 12a:	91 81       	ldd	r25, Z+1	; 0x01
 12c:	a9 01       	movw	r20, r18
 12e:	48 1b       	sub	r20, r24
 130:	59 0b       	sbc	r21, r25
 132:	ca 01       	movw	r24, r20
 134:	98 87       	std	Y+8, r25	; 0x08
 136:	8f 83       	std	Y+7, r24	; 0x07
/home/becker/async/autosafe/trunk/tum/wcet-cbmc/benchmarks/fdct/fdct.c:87
 138:	8b 81       	ldd	r24, Y+3	; 0x03
 13a:	9c 81       	ldd	r25, Y+4	; 0x04
 13c:	02 96       	adiw	r24, 0x02	; 2
 13e:	fc 01       	movw	r30, r24
 140:	20 81       	ld	r18, Z
 142:	31 81       	ldd	r19, Z+1	; 0x01
 144:	8b 81       	ldd	r24, Y+3	; 0x03
 146:	9c 81       	ldd	r25, Y+4	; 0x04
 148:	0c 96       	adiw	r24, 0x0c	; 12
 14a:	fc 01       	movw	r30, r24
 14c:	80 81       	ld	r24, Z
 14e:	91 81       	ldd	r25, Z+1	; 0x01
 150:	82 0f       	add	r24, r18
 152:	93 1f       	adc	r25, r19
 154:	9a 87       	std	Y+10, r25	; 0x0a
 156:	89 87       	std	Y+9, r24	; 0x09
/home/becker/async/autosafe/trunk/tum/wcet-cbmc/benchmarks/fdct/fdct.c:88
 158:	8b 81       	ldd	r24, Y+3	; 0x03
 15a:	9c 81       	ldd	r25, Y+4	; 0x04
 15c:	02 96       	adiw	r24, 0x02	; 2
 15e:	fc 01       	movw	r30, r24
 160:	20 81       	ld	r18, Z
 162:	31 81       	ldd	r19, Z+1	; 0x01
 164:	8b 81       	ldd	r24, Y+3	; 0x03
 166:	9c 81       	ldd	r25, Y+4	; 0x04
 168:	0c 96       	adiw	r24, 0x0c	; 12
 16a:	fc 01       	movw	r30, r24
 16c:	80 81       	ld	r24, Z
 16e:	91 81       	ldd	r25, Z+1	; 0x01
 170:	a9 01       	movw	r20, r18
 172:	48 1b       	sub	r20, r24
 174:	59 0b       	sbc	r21, r25
 176:	ca 01       	movw	r24, r20
 178:	9c 87       	std	Y+12, r25	; 0x0c
 17a:	8b 87       	std	Y+11, r24	; 0x0b
/home/becker/async/autosafe/trunk/tum/wcet-cbmc/benchmarks/fdct/fdct.c:89
 17c:	8b 81       	ldd	r24, Y+3	; 0x03
 17e:	9c 81       	ldd	r25, Y+4	; 0x04
 180:	04 96       	adiw	r24, 0x04	; 4
 182:	fc 01       	movw	r30, r24
 184:	20 81       	ld	r18, Z
 186:	31 81       	ldd	r19, Z+1	; 0x01
 188:	8b 81       	ldd	r24, Y+3	; 0x03
 18a:	9c 81       	ldd	r25, Y+4	; 0x04
 18c:	0a 96       	adiw	r24, 0x0a	; 10
 18e:	fc 01       	movw	r30, r24
 190:	80 81       	ld	r24, Z
 192:	91 81       	ldd	r25, Z+1	; 0x01
 194:	82 0f       	add	r24, r18
 196:	93 1f       	adc	r25, r19
 198:	9e 87       	std	Y+14, r25	; 0x0e
 19a:	8d 87       	std	Y+13, r24	; 0x0d
/home/becker/async/autosafe/trunk/tum/wcet-cbmc/benchmarks/fdct/fdct.c:90
 19c:	8b 81       	ldd	r24, Y+3	; 0x03
 19e:	9c 81       	ldd	r25, Y+4	; 0x04
 1a0:	04 96       	adiw	r24, 0x04	; 4
 1a2:	fc 01       	movw	r30, r24
 1a4:	20 81       	ld	r18, Z
 1a6:	31 81       	ldd	r19, Z+1	; 0x01
 1a8:	8b 81       	ldd	r24, Y+3	; 0x03
 1aa:	9c 81       	ldd	r25, Y+4	; 0x04
 1ac:	0a 96       	adiw	r24, 0x0a	; 10
 1ae:	fc 01       	movw	r30, r24
 1b0:	80 81       	ld	r24, Z
 1b2:	91 81       	ldd	r25, Z+1	; 0x01
 1b4:	a9 01       	movw	r20, r18
 1b6:	48 1b       	sub	r20, r24
 1b8:	59 0b       	sbc	r21, r25
 1ba:	ca 01       	movw	r24, r20
 1bc:	98 8b       	std	Y+16, r25	; 0x10
 1be:	8f 87       	std	Y+15, r24	; 0x0f
/home/becker/async/autosafe/trunk/tum/wcet-cbmc/benchmarks/fdct/fdct.c:91
 1c0:	8b 81       	ldd	r24, Y+3	; 0x03
 1c2:	9c 81       	ldd	r25, Y+4	; 0x04
 1c4:	06 96       	adiw	r24, 0x06	; 6
 1c6:	fc 01       	movw	r30, r24
 1c8:	20 81       	ld	r18, Z
 1ca:	31 81       	ldd	r19, Z+1	; 0x01
 1cc:	8b 81       	ldd	r24, Y+3	; 0x03
 1ce:	9c 81       	ldd	r25, Y+4	; 0x04
 1d0:	08 96       	adiw	r24, 0x08	; 8
 1d2:	fc 01       	movw	r30, r24
 1d4:	80 81       	ld	r24, Z
 1d6:	91 81       	ldd	r25, Z+1	; 0x01
 1d8:	82 0f       	add	r24, r18
 1da:	93 1f       	adc	r25, r19
 1dc:	9a 8b       	std	Y+18, r25	; 0x12
 1de:	89 8b       	std	Y+17, r24	; 0x11
/home/becker/async/autosafe/trunk/tum/wcet-cbmc/benchmarks/fdct/fdct.c:92
 1e0:	8b 81       	ldd	r24, Y+3	; 0x03
 1e2:	9c 81       	ldd	r25, Y+4	; 0x04
 1e4:	06 96       	adiw	r24, 0x06	; 6
 1e6:	fc 01       	movw	r30, r24
 1e8:	20 81       	ld	r18, Z
 1ea:	31 81       	ldd	r19, Z+1	; 0x01
 1ec:	8b 81       	ldd	r24, Y+3	; 0x03
 1ee:	9c 81       	ldd	r25, Y+4	; 0x04
 1f0:	08 96       	adiw	r24, 0x08	; 8
 1f2:	fc 01       	movw	r30, r24
 1f4:	80 81       	ld	r24, Z
 1f6:	91 81       	ldd	r25, Z+1	; 0x01
 1f8:	a9 01       	movw	r20, r18
 1fa:	48 1b       	sub	r20, r24
 1fc:	59 0b       	sbc	r21, r25
 1fe:	ca 01       	movw	r24, r20
 200:	9c 8b       	std	Y+20, r25	; 0x14
 202:	8b 8b       	std	Y+19, r24	; 0x13
/home/becker/async/autosafe/trunk/tum/wcet-cbmc/benchmarks/fdct/fdct.c:98
 204:	2d 81       	ldd	r18, Y+5	; 0x05
 206:	3e 81       	ldd	r19, Y+6	; 0x06
 208:	89 89       	ldd	r24, Y+17	; 0x11
 20a:	9a 89       	ldd	r25, Y+18	; 0x12
 20c:	82 0f       	add	r24, r18
 20e:	93 1f       	adc	r25, r19
 210:	9e 8b       	std	Y+22, r25	; 0x16
 212:	8d 8b       	std	Y+21, r24	; 0x15
/home/becker/async/autosafe/trunk/tum/wcet-cbmc/benchmarks/fdct/fdct.c:99
 214:	2d 81       	ldd	r18, Y+5	; 0x05
 216:	3e 81       	ldd	r19, Y+6	; 0x06
 218:	89 89       	ldd	r24, Y+17	; 0x11
 21a:	9a 89       	ldd	r25, Y+18	; 0x12
 21c:	b9 01       	movw	r22, r18
 21e:	68 1b       	sub	r22, r24
 220:	79 0b       	sbc	r23, r25
 222:	cb 01       	movw	r24, r22
 224:	98 8f       	std	Y+24, r25	; 0x18
 226:	8f 8b       	std	Y+23, r24	; 0x17
/home/becker/async/autosafe/trunk/tum/wcet-cbmc/benchmarks/fdct/fdct.c:100
 228:	29 85       	ldd	r18, Y+9	; 0x09
 22a:	3a 85       	ldd	r19, Y+10	; 0x0a
 22c:	8d 85       	ldd	r24, Y+13	; 0x0d
 22e:	9e 85       	ldd	r25, Y+14	; 0x0e
 230:	82 0f       	add	r24, r18
 232:	93 1f       	adc	r25, r19
 234:	9a 8f       	std	Y+26, r25	; 0x1a
 236:	89 8f       	std	Y+25, r24	; 0x19
/home/becker/async/autosafe/trunk/tum/wcet-cbmc/benchmarks/fdct/fdct.c:101
 238:	29 85       	ldd	r18, Y+9	; 0x09
 23a:	3a 85       	ldd	r19, Y+10	; 0x0a
 23c:	8d 85       	ldd	r24, Y+13	; 0x0d
 23e:	9e 85       	ldd	r25, Y+14	; 0x0e
 240:	f9 01       	movw	r30, r18
 242:	e8 1b       	sub	r30, r24
 244:	f9 0b       	sbc	r31, r25
 246:	cf 01       	movw	r24, r30
 248:	9c 8f       	std	Y+28, r25	; 0x1c
 24a:	8b 8f       	std	Y+27, r24	; 0x1b
/home/becker/async/autosafe/trunk/tum/wcet-cbmc/benchmarks/fdct/fdct.c:103
 24c:	2d 89       	ldd	r18, Y+21	; 0x15
 24e:	3e 89       	ldd	r19, Y+22	; 0x16
 250:	89 8d       	ldd	r24, Y+25	; 0x19
 252:	9a 8d       	ldd	r25, Y+26	; 0x1a
 254:	82 0f       	add	r24, r18
 256:	93 1f       	adc	r25, r19
 258:	9c 01       	movw	r18, r24
 25a:	22 0f       	add	r18, r18
 25c:	33 1f       	adc	r19, r19
 25e:	22 0f       	add	r18, r18
 260:	33 1f       	adc	r19, r19
 262:	8b 81       	ldd	r24, Y+3	; 0x03
 264:	9c 81       	ldd	r25, Y+4	; 0x04
 266:	fc 01       	movw	r30, r24
 268:	31 83       	std	Z+1, r19	; 0x01
 26a:	20 83       	st	Z, r18
/home/becker/async/autosafe/trunk/tum/wcet-cbmc/benchmarks/fdct/fdct.c:104
 26c:	8b 81       	ldd	r24, Y+3	; 0x03
 26e:	9c 81       	ldd	r25, Y+4	; 0x04
 270:	08 96       	adiw	r24, 0x08	; 8
 272:	4d 89       	ldd	r20, Y+21	; 0x15
 274:	5e 89       	ldd	r21, Y+22	; 0x16
 276:	29 8d       	ldd	r18, Y+25	; 0x19
 278:	3a 8d       	ldd	r19, Y+26	; 0x1a
 27a:	ba 01       	movw	r22, r20
 27c:	62 1b       	sub	r22, r18
 27e:	73 0b       	sbc	r23, r19
 280:	9b 01       	movw	r18, r22
 282:	22 0f       	add	r18, r18
 284:	33 1f       	adc	r19, r19
 286:	22 0f       	add	r18, r18
 288:	33 1f       	adc	r19, r19
 28a:	fc 01       	movw	r30, r24
 28c:	31 83       	std	Z+1, r19	; 0x01
 28e:	20 83       	st	Z, r18
/home/becker/async/autosafe/trunk/tum/wcet-cbmc/benchmarks/fdct/fdct.c:106
 290:	81 e5       	ldi	r24, 0x51	; 81
 292:	91 e1       	ldi	r25, 0x11	; 17
 294:	9e 8f       	std	Y+30, r25	; 0x1e
 296:	8d 8f       	std	Y+29, r24	; 0x1d
/home/becker/async/autosafe/trunk/tum/wcet-cbmc/benchmarks/fdct/fdct.c:107
 298:	2b 8d       	ldd	r18, Y+27	; 0x1b
 29a:	3c 8d       	ldd	r19, Y+28	; 0x1c
 29c:	8f 89       	ldd	r24, Y+23	; 0x17
 29e:	98 8d       	ldd	r25, Y+24	; 0x18
 2a0:	a9 01       	movw	r20, r18
 2a2:	48 0f       	add	r20, r24
 2a4:	59 1f       	adc	r21, r25
 2a6:	2d 8d       	ldd	r18, Y+29	; 0x1d
 2a8:	3e 8d       	ldd	r19, Y+30	; 0x1e
 2aa:	42 9f       	mul	r20, r18
 2ac:	c0 01       	movw	r24, r0
 2ae:	43 9f       	mul	r20, r19
 2b0:	90 0d       	add	r25, r0
 2b2:	52 9f       	mul	r21, r18
 2b4:	90 0d       	add	r25, r0
 2b6:	11 24       	eor	r1, r1
 2b8:	98 a3       	std	Y+32, r25	; 0x20
 2ba:	8f 8f       	std	Y+31, r24	; 0x1f
/home/becker/async/autosafe/trunk/tum/wcet-cbmc/benchmarks/fdct/fdct.c:108
 2bc:	8e e7       	ldi	r24, 0x7E	; 126
 2be:	98 e1       	ldi	r25, 0x18	; 24
 2c0:	9e 8f       	std	Y+30, r25	; 0x1e
 2c2:	8d 8f       	std	Y+29, r24	; 0x1d
/home/becker/async/autosafe/trunk/tum/wcet-cbmc/benchmarks/fdct/fdct.c:109
 2c4:	8b 81       	ldd	r24, Y+3	; 0x03
 2c6:	9c 81       	ldd	r25, Y+4	; 0x04
 2c8:	04 96       	adiw	r24, 0x04	; 4
 2ca:	6f 89       	ldd	r22, Y+23	; 0x17
 2cc:	78 8d       	ldd	r23, Y+24	; 0x18
 2ce:	2d 8d       	ldd	r18, Y+29	; 0x1d
 2d0:	3e 8d       	ldd	r19, Y+30	; 0x1e
 2d2:	62 9f       	mul	r22, r18
 2d4:	a0 01       	movw	r20, r0
 2d6:	63 9f       	mul	r22, r19
 2d8:	50 0d       	add	r21, r0
 2da:	72 9f       	mul	r23, r18
 2dc:	50 0d       	add	r21, r0
 2de:	11 24       	eor	r1, r1
 2e0:	2f 8d       	ldd	r18, Y+31	; 0x1f
 2e2:	38 a1       	ldd	r19, Y+32	; 0x20
 2e4:	24 0f       	add	r18, r20
 2e6:	35 1f       	adc	r19, r21
 2e8:	20 e2       	ldi	r18, 0x20	; 32
 2ea:	32 02       	muls	r19, r18
 2ec:	21 2d       	mov	r18, r1
 2ee:	33 0b       	sbc	r19, r19
 2f0:	11 24       	eor	r1, r1
 2f2:	fc 01       	movw	r30, r24
 2f4:	31 83       	std	Z+1, r19	; 0x01
 2f6:	20 83       	st	Z, r18
/home/becker/async/autosafe/trunk/tum/wcet-cbmc/benchmarks/fdct/fdct.c:110
 2f8:	8f ed       	ldi	r24, 0xDF	; 223
 2fa:	94 ec       	ldi	r25, 0xC4	; 196
 2fc:	9e 8f       	std	Y+30, r25	; 0x1e
 2fe:	8d 8f       	std	Y+29, r24	; 0x1d
/home/becker/async/autosafe/trunk/tum/wcet-cbmc/benchmarks/fdct/fdct.c:111
 300:	8b 81       	ldd	r24, Y+3	; 0x03
 302:	9c 81       	ldd	r25, Y+4	; 0x04
 304:	0c 96       	adiw	r24, 0x0c	; 12
 306:	6b 8d       	ldd	r22, Y+27	; 0x1b
 308:	7c 8d       	ldd	r23, Y+28	; 0x1c
 30a:	2d 8d       	ldd	r18, Y+29	; 0x1d
 30c:	3e 8d       	ldd	r19, Y+30	; 0x1e
 30e:	62 9f       	mul	r22, r18
 310:	a0 01       	movw	r20, r0
 312:	63 9f       	mul	r22, r19
 314:	50 0d       	add	r21, r0
 316:	72 9f       	mul	r23, r18
 318:	50 0d       	add	r21, r0
 31a:	11 24       	eor	r1, r1
 31c:	2f 8d       	ldd	r18, Y+31	; 0x1f
 31e:	38 a1       	ldd	r19, Y+32	; 0x20
 320:	24 0f       	add	r18, r20
 322:	35 1f       	adc	r19, r21
 324:	20 e2       	ldi	r18, 0x20	; 32
 326:	32 02       	muls	r19, r18
 328:	21 2d       	mov	r18, r1
 32a:	33 0b       	sbc	r19, r19
 32c:	11 24       	eor	r1, r1
 32e:	fc 01       	movw	r30, r24
 330:	31 83       	std	Z+1, r19	; 0x01
 332:	20 83       	st	Z, r18
/home/becker/async/autosafe/trunk/tum/wcet-cbmc/benchmarks/fdct/fdct.c:118
 334:	2b 89       	ldd	r18, Y+19	; 0x13
 336:	3c 89       	ldd	r19, Y+20	; 0x14
 338:	8f 81       	ldd	r24, Y+7	; 0x07
 33a:	98 85       	ldd	r25, Y+8	; 0x08
 33c:	82 0f       	add	r24, r18
 33e:	93 1f       	adc	r25, r19
 340:	98 a3       	std	Y+32, r25	; 0x20
 342:	8f 8f       	std	Y+31, r24	; 0x1f
/home/becker/async/autosafe/trunk/tum/wcet-cbmc/benchmarks/fdct/fdct.c:119
 344:	2f 85       	ldd	r18, Y+15	; 0x0f
 346:	38 89       	ldd	r19, Y+16	; 0x10
 348:	8b 85       	ldd	r24, Y+11	; 0x0b
 34a:	9c 85       	ldd	r25, Y+12	; 0x0c
 34c:	82 0f       	add	r24, r18
 34e:	93 1f       	adc	r25, r19
 350:	9a a3       	std	Y+34, r25	; 0x22
 352:	89 a3       	std	Y+33, r24	; 0x21
/home/becker/async/autosafe/trunk/tum/wcet-cbmc/benchmarks/fdct/fdct.c:120
 354:	2b 89       	ldd	r18, Y+19	; 0x13
 356:	3c 89       	ldd	r19, Y+20	; 0x14
 358:	8b 85       	ldd	r24, Y+11	; 0x0b
 35a:	9c 85       	ldd	r25, Y+12	; 0x0c
 35c:	82 0f       	add	r24, r18
 35e:	93 1f       	adc	r25, r19
 360:	9c a3       	std	Y+36, r25	; 0x24
 362:	8b a3       	std	Y+35, r24	; 0x23
/home/becker/async/autosafe/trunk/tum/wcet-cbmc/benchmarks/fdct/fdct.c:121
 364:	2f 85       	ldd	r18, Y+15	; 0x0f
 366:	38 89       	ldd	r19, Y+16	; 0x10
 368:	8f 81       	ldd	r24, Y+7	; 0x07
 36a:	98 85       	ldd	r25, Y+8	; 0x08
 36c:	82 0f       	add	r24, r18
 36e:	93 1f       	adc	r25, r19
 370:	9e a3       	std	Y+38, r25	; 0x26
 372:	8d a3       	std	Y+37, r24	; 0x25
/home/becker/async/autosafe/trunk/tum/wcet-cbmc/benchmarks/fdct/fdct.c:122
 374:	81 ea       	ldi	r24, 0xA1	; 161
 376:	95 e2       	ldi	r25, 0x25	; 37
 378:	9e 8f       	std	Y+30, r25	; 0x1e
 37a:	8d 8f       	std	Y+29, r24	; 0x1d
/home/becker/async/autosafe/trunk/tum/wcet-cbmc/benchmarks/fdct/fdct.c:123
 37c:	2b a1       	ldd	r18, Y+35	; 0x23
 37e:	3c a1       	ldd	r19, Y+36	; 0x24
 380:	8d a1       	ldd	r24, Y+37	; 0x25
 382:	9e a1       	ldd	r25, Y+38	; 0x26
 384:	a9 01       	movw	r20, r18
 386:	48 0f       	add	r20, r24
 388:	59 1f       	adc	r21, r25
 38a:	2d 8d       	ldd	r18, Y+29	; 0x1d
 38c:	3e 8d       	ldd	r19, Y+30	; 0x1e
 38e:	42 9f       	mul	r20, r18
 390:	c0 01       	movw	r24, r0
 392:	43 9f       	mul	r20, r19
 394:	90 0d       	add	r25, r0
 396:	52 9f       	mul	r21, r18
 398:	90 0d       	add	r25, r0
 39a:	11 24       	eor	r1, r1
 39c:	98 a7       	std	Y+40, r25	; 0x28
 39e:	8f a3       	std	Y+39, r24	; 0x27
/home/becker/async/autosafe/trunk/tum/wcet-cbmc/benchmarks/fdct/fdct.c:125
 3a0:	8e e8       	ldi	r24, 0x8E	; 142
 3a2:	99 e0       	ldi	r25, 0x09	; 9
 3a4:	9e 8f       	std	Y+30, r25	; 0x1e
 3a6:	8d 8f       	std	Y+29, r24	; 0x1d
/home/becker/async/autosafe/trunk/tum/wcet-cbmc/benchmarks/fdct/fdct.c:126
 3a8:	4b 89       	ldd	r20, Y+19	; 0x13
 3aa:	5c 89       	ldd	r21, Y+20	; 0x14
 3ac:	2d 8d       	ldd	r18, Y+29	; 0x1d
 3ae:	3e 8d       	ldd	r19, Y+30	; 0x1e
 3b0:	42 9f       	mul	r20, r18
 3b2:	c0 01       	movw	r24, r0
 3b4:	43 9f       	mul	r20, r19
 3b6:	90 0d       	add	r25, r0
 3b8:	52 9f       	mul	r21, r18
 3ba:	90 0d       	add	r25, r0
 3bc:	11 24       	eor	r1, r1
 3be:	9c 8b       	std	Y+20, r25	; 0x14
 3c0:	8b 8b       	std	Y+19, r24	; 0x13
/home/becker/async/autosafe/trunk/tum/wcet-cbmc/benchmarks/fdct/fdct.c:127
 3c2:	83 eb       	ldi	r24, 0xB3	; 179
 3c4:	91 e4       	ldi	r25, 0x41	; 65
 3c6:	9e 8f       	std	Y+30, r25	; 0x1e
 3c8:	8d 8f       	std	Y+29, r24	; 0x1d
/home/becker/async/autosafe/trunk/tum/wcet-cbmc/benchmarks/fdct/fdct.c:128
 3ca:	4f 85       	ldd	r20, Y+15	; 0x0f
 3cc:	58 89       	ldd	r21, Y+16	; 0x10
 3ce:	2d 8d       	ldd	r18, Y+29	; 0x1d
 3d0:	3e 8d       	ldd	r19, Y+30	; 0x1e
 3d2:	42 9f       	mul	r20, r18
 3d4:	c0 01       	movw	r24, r0
 3d6:	43 9f       	mul	r20, r19
 3d8:	90 0d       	add	r25, r0
 3da:	52 9f       	mul	r21, r18
 3dc:	90 0d       	add	r25, r0
 3de:	11 24       	eor	r1, r1
 3e0:	98 8b       	std	Y+16, r25	; 0x10
 3e2:	8f 87       	std	Y+15, r24	; 0x0f
/home/becker/async/autosafe/trunk/tum/wcet-cbmc/benchmarks/fdct/fdct.c:129
 3e4:	84 e5       	ldi	r24, 0x54	; 84
 3e6:	92 e6       	ldi	r25, 0x62	; 98
 3e8:	9e 8f       	std	Y+30, r25	; 0x1e
 3ea:	8d 8f       	std	Y+29, r24	; 0x1d
/home/becker/async/autosafe/trunk/tum/wcet-cbmc/benchmarks/fdct/fdct.c:130
 3ec:	4b 85       	ldd	r20, Y+11	; 0x0b
 3ee:	5c 85       	ldd	r21, Y+12	; 0x0c
 3f0:	2d 8d       	ldd	r18, Y+29	; 0x1d
 3f2:	3e 8d       	ldd	r19, Y+30	; 0x1e
 3f4:	42 9f       	mul	r20, r18
 3f6:	c0 01       	movw	r24, r0
 3f8:	43 9f       	mul	r20, r19
 3fa:	90 0d       	add	r25, r0
 3fc:	52 9f       	mul	r21, r18
 3fe:	90 0d       	add	r25, r0
 400:	11 24       	eor	r1, r1
 402:	9c 87       	std	Y+12, r25	; 0x0c
 404:	8b 87       	std	Y+11, r24	; 0x0b
/home/becker/async/autosafe/trunk/tum/wcet-cbmc/benchmarks/fdct/fdct.c:131
 406:	8b e0       	ldi	r24, 0x0B	; 11
 408:	90 e3       	ldi	r25, 0x30	; 48
 40a:	9e 8f       	std	Y+30, r25	; 0x1e
 40c:	8d 8f       	std	Y+29, r24	; 0x1d
/home/becker/async/autosafe/trunk/tum/wcet-cbmc/benchmarks/fdct/fdct.c:132
 40e:	4f 81       	ldd	r20, Y+7	; 0x07
 410:	58 85       	ldd	r21, Y+8	; 0x08
 412:	2d 8d       	ldd	r18, Y+29	; 0x1d
 414:	3e 8d       	ldd	r19, Y+30	; 0x1e
 416:	42 9f       	mul	r20, r18
 418:	c0 01       	movw	r24, r0
 41a:	43 9f       	mul	r20, r19
 41c:	90 0d       	add	r25, r0
 41e:	52 9f       	mul	r21, r18
 420:	90 0d       	add	r25, r0
 422:	11 24       	eor	r1, r1
 424:	98 87       	std	Y+8, r25	; 0x08
 426:	8f 83       	std	Y+7, r24	; 0x07
/home/becker/async/autosafe/trunk/tum/wcet-cbmc/benchmarks/fdct/fdct.c:133
 428:	83 e3       	ldi	r24, 0x33	; 51
 42a:	93 ee       	ldi	r25, 0xE3	; 227
 42c:	9e 8f       	std	Y+30, r25	; 0x1e
 42e:	8d 8f       	std	Y+29, r24	; 0x1d
/home/becker/async/autosafe/trunk/tum/wcet-cbmc/benchmarks/fdct/fdct.c:134
 430:	4f 8d       	ldd	r20, Y+31	; 0x1f
 432:	58 a1       	ldd	r21, Y+32	; 0x20
 434:	2d 8d       	ldd	r18, Y+29	; 0x1d
 436:	3e 8d       	ldd	r19, Y+30	; 0x1e
 438:	42 9f       	mul	r20, r18
 43a:	c0 01       	movw	r24, r0
 43c:	43 9f       	mul	r20, r19
 43e:	90 0d       	add	r25, r0
 440:	52 9f       	mul	r21, r18
 442:	90 0d       	add	r25, r0
 444:	11 24       	eor	r1, r1
 446:	98 a3       	std	Y+32, r25	; 0x20
 448:	8f 8f       	std	Y+31, r24	; 0x1f
/home/becker/async/autosafe/trunk/tum/wcet-cbmc/benchmarks/fdct/fdct.c:135
 44a:	8d ef       	ldi	r24, 0xFD	; 253
 44c:	9d ea       	ldi	r25, 0xAD	; 173
 44e:	9e 8f       	std	Y+30, r25	; 0x1e
 450:	8d 8f       	std	Y+29, r24	; 0x1d
/home/becker/async/autosafe/trunk/tum/wcet-cbmc/benchmarks/fdct/fdct.c:136
 452:	49 a1       	ldd	r20, Y+33	; 0x21
 454:	5a a1       	ldd	r21, Y+34	; 0x22
 456:	2d 8d       	ldd	r18, Y+29	; 0x1d
 458:	3e 8d       	ldd	r19, Y+30	; 0x1e
 45a:	42 9f       	mul	r20, r18
 45c:	c0 01       	movw	r24, r0
 45e:	43 9f       	mul	r20, r19
 460:	90 0d       	add	r25, r0
 462:	52 9f       	mul	r21, r18
 464:	90 0d       	add	r25, r0
 466:	11 24       	eor	r1, r1
 468:	9a a3       	std	Y+34, r25	; 0x22
 46a:	89 a3       	std	Y+33, r24	; 0x21
/home/becker/async/autosafe/trunk/tum/wcet-cbmc/benchmarks/fdct/fdct.c:137
 46c:	8b e3       	ldi	r24, 0x3B	; 59
 46e:	91 ec       	ldi	r25, 0xC1	; 193
 470:	9e 8f       	std	Y+30, r25	; 0x1e
 472:	8d 8f       	std	Y+29, r24	; 0x1d
/home/becker/async/autosafe/trunk/tum/wcet-cbmc/benchmarks/fdct/fdct.c:138
 474:	4b a1       	ldd	r20, Y+35	; 0x23
 476:	5c a1       	ldd	r21, Y+36	; 0x24
 478:	2d 8d       	ldd	r18, Y+29	; 0x1d
 47a:	3e 8d       	ldd	r19, Y+30	; 0x1e
 47c:	42 9f       	mul	r20, r18
 47e:	c0 01       	movw	r24, r0
 480:	43 9f       	mul	r20, r19
 482:	90 0d       	add	r25, r0
 484:	52 9f       	mul	r21, r18
 486:	90 0d       	add	r25, r0
 488:	11 24       	eor	r1, r1
 48a:	9c a3       	std	Y+36, r25	; 0x24
 48c:	8b a3       	std	Y+35, r24	; 0x23
/home/becker/async/autosafe/trunk/tum/wcet-cbmc/benchmarks/fdct/fdct.c:139
 48e:	84 e8       	ldi	r24, 0x84	; 132
 490:	93 ef       	ldi	r25, 0xF3	; 243
 492:	9e 8f       	std	Y+30, r25	; 0x1e
 494:	8d 8f       	std	Y+29, r24	; 0x1d
/home/becker/async/autosafe/trunk/tum/wcet-cbmc/benchmarks/fdct/fdct.c:140
 496:	4d a1       	ldd	r20, Y+37	; 0x25
 498:	5e a1       	ldd	r21, Y+38	; 0x26
 49a:	2d 8d       	ldd	r18, Y+29	; 0x1d
 49c:	3e 8d       	ldd	r19, Y+30	; 0x1e
 49e:	42 9f       	mul	r20, r18
 4a0:	c0 01       	movw	r24, r0
 4a2:	43 9f       	mul	r20, r19
 4a4:	90 0d       	add	r25, r0
 4a6:	52 9f       	mul	r21, r18
 4a8:	90 0d       	add	r25, r0
 4aa:	11 24       	eor	r1, r1
 4ac:	9e a3       	std	Y+38, r25	; 0x26
 4ae:	8d a3       	std	Y+37, r24	; 0x25
/home/becker/async/autosafe/trunk/tum/wcet-cbmc/benchmarks/fdct/fdct.c:142
 4b0:	2b a1       	ldd	r18, Y+35	; 0x23
 4b2:	3c a1       	ldd	r19, Y+36	; 0x24
 4b4:	8f a1       	ldd	r24, Y+39	; 0x27
 4b6:	98 a5       	ldd	r25, Y+40	; 0x28
 4b8:	82 0f       	add	r24, r18
 4ba:	93 1f       	adc	r25, r19
 4bc:	9c a3       	std	Y+36, r25	; 0x24
 4be:	8b a3       	std	Y+35, r24	; 0x23
/home/becker/async/autosafe/trunk/tum/wcet-cbmc/benchmarks/fdct/fdct.c:143
 4c0:	2d a1       	ldd	r18, Y+37	; 0x25
 4c2:	3e a1       	ldd	r19, Y+38	; 0x26
 4c4:	8f a1       	ldd	r24, Y+39	; 0x27
 4c6:	98 a5       	ldd	r25, Y+40	; 0x28
 4c8:	82 0f       	add	r24, r18
 4ca:	93 1f       	adc	r25, r19
 4cc:	9e a3       	std	Y+38, r25	; 0x26
 4ce:	8d a3       	std	Y+37, r24	; 0x25
/home/becker/async/autosafe/trunk/tum/wcet-cbmc/benchmarks/fdct/fdct.c:145
 4d0:	8b 81       	ldd	r24, Y+3	; 0x03
 4d2:	9c 81       	ldd	r25, Y+4	; 0x04
 4d4:	0e 96       	adiw	r24, 0x0e	; 14
 4d6:	4b 89       	ldd	r20, Y+19	; 0x13
 4d8:	5c 89       	ldd	r21, Y+20	; 0x14
 4da:	2f 8d       	ldd	r18, Y+31	; 0x1f
 4dc:	38 a1       	ldd	r19, Y+32	; 0x20
 4de:	42 0f       	add	r20, r18
 4e0:	53 1f       	adc	r21, r19
 4e2:	2b a1       	ldd	r18, Y+35	; 0x23
 4e4:	3c a1       	ldd	r19, Y+36	; 0x24
 4e6:	24 0f       	add	r18, r20
 4e8:	35 1f       	adc	r19, r21
 4ea:	20 e2       	ldi	r18, 0x20	; 32
 4ec:	32 02       	muls	r19, r18
 4ee:	21 2d       	mov	r18, r1
 4f0:	33 0b       	sbc	r19, r19
 4f2:	11 24       	eor	r1, r1
 4f4:	fc 01       	movw	r30, r24
 4f6:	31 83       	std	Z+1, r19	; 0x01
 4f8:	20 83       	st	Z, r18
/home/becker/async/autosafe/trunk/tum/wcet-cbmc/benchmarks/fdct/fdct.c:146
 4fa:	8b 81       	ldd	r24, Y+3	; 0x03
 4fc:	9c 81       	ldd	r25, Y+4	; 0x04
 4fe:	0a 96       	adiw	r24, 0x0a	; 10
 500:	4f 85       	ldd	r20, Y+15	; 0x0f
 502:	58 89       	ldd	r21, Y+16	; 0x10
 504:	29 a1       	ldd	r18, Y+33	; 0x21
 506:	3a a1       	ldd	r19, Y+34	; 0x22
 508:	42 0f       	add	r20, r18
 50a:	53 1f       	adc	r21, r19
 50c:	2d a1       	ldd	r18, Y+37	; 0x25
 50e:	3e a1       	ldd	r19, Y+38	; 0x26
 510:	24 0f       	add	r18, r20
 512:	35 1f       	adc	r19, r21
 514:	20 e2       	ldi	r18, 0x20	; 32
 516:	32 02       	muls	r19, r18
 518:	21 2d       	mov	r18, r1
 51a:	33 0b       	sbc	r19, r19
 51c:	11 24       	eor	r1, r1
 51e:	fc 01       	movw	r30, r24
 520:	31 83       	std	Z+1, r19	; 0x01
 522:	20 83       	st	Z, r18
/home/becker/async/autosafe/trunk/tum/wcet-cbmc/benchmarks/fdct/fdct.c:147
 524:	8b 81       	ldd	r24, Y+3	; 0x03
 526:	9c 81       	ldd	r25, Y+4	; 0x04
 528:	06 96       	adiw	r24, 0x06	; 6
 52a:	4b 85       	ldd	r20, Y+11	; 0x0b
 52c:	5c 85       	ldd	r21, Y+12	; 0x0c
 52e:	29 a1       	ldd	r18, Y+33	; 0x21
 530:	3a a1       	ldd	r19, Y+34	; 0x22
 532:	42 0f       	add	r20, r18
 534:	53 1f       	adc	r21, r19
 536:	2b a1       	ldd	r18, Y+35	; 0x23
 538:	3c a1       	ldd	r19, Y+36	; 0x24
 53a:	24 0f       	add	r18, r20
 53c:	35 1f       	adc	r19, r21
 53e:	20 e2       	ldi	r18, 0x20	; 32
 540:	32 02       	muls	r19, r18
 542:	21 2d       	mov	r18, r1
 544:	33 0b       	sbc	r19, r19
 546:	11 24       	eor	r1, r1
 548:	fc 01       	movw	r30, r24
 54a:	31 83       	std	Z+1, r19	; 0x01
 54c:	20 83       	st	Z, r18
/home/becker/async/autosafe/trunk/tum/wcet-cbmc/benchmarks/fdct/fdct.c:148
 54e:	8b 81       	ldd	r24, Y+3	; 0x03
 550:	9c 81       	ldd	r25, Y+4	; 0x04
 552:	02 96       	adiw	r24, 0x02	; 2
 554:	4f 81       	ldd	r20, Y+7	; 0x07
 556:	58 85       	ldd	r21, Y+8	; 0x08
 558:	2f 8d       	ldd	r18, Y+31	; 0x1f
 55a:	38 a1       	ldd	r19, Y+32	; 0x20
 55c:	42 0f       	add	r20, r18
 55e:	53 1f       	adc	r21, r19
 560:	2d a1       	ldd	r18, Y+37	; 0x25
 562:	3e a1       	ldd	r19, Y+38	; 0x26
 564:	24 0f       	add	r18, r20
 566:	35 1f       	adc	r19, r21
 568:	20 e2       	ldi	r18, 0x20	; 32
 56a:	32 02       	muls	r19, r18
 56c:	21 2d       	mov	r18, r1
 56e:	33 0b       	sbc	r19, r19
 570:	11 24       	eor	r1, r1
 572:	fc 01       	movw	r30, r24
 574:	31 83       	std	Z+1, r19	; 0x01
 576:	20 83       	st	Z, r18
/home/becker/async/autosafe/trunk/tum/wcet-cbmc/benchmarks/fdct/fdct.c:153
 578:	8b a5       	ldd	r24, Y+43	; 0x2b
 57a:	9c a5       	ldd	r25, Y+44	; 0x2c
 57c:	88 0f       	add	r24, r24
 57e:	99 1f       	adc	r25, r25
 580:	2b 81       	ldd	r18, Y+3	; 0x03
 582:	3c 81       	ldd	r19, Y+4	; 0x04
 584:	82 0f       	add	r24, r18
 586:	93 1f       	adc	r25, r19
 588:	9c 83       	std	Y+4, r25	; 0x04
 58a:	8b 83       	std	Y+3, r24	; 0x03
/home/becker/async/autosafe/trunk/tum/wcet-cbmc/benchmarks/fdct/fdct.c:83
 58c:	89 81       	ldd	r24, Y+1	; 0x01
 58e:	9a 81       	ldd	r25, Y+2	; 0x02
 590:	01 96       	adiw	r24, 0x01	; 1
 592:	9a 83       	std	Y+2, r25	; 0x02
 594:	89 83       	std	Y+1, r24	; 0x01
 596:	89 81       	ldd	r24, Y+1	; 0x01
 598:	9a 81       	ldd	r25, Y+2	; 0x02
 59a:	88 30       	cpi	r24, 0x08	; 8
 59c:	91 05       	cpc	r25, r1
 59e:	0c f4       	brge	.+2      	; 0x5a2 <fdct+0x4d4>
 5a0:	ab cd       	rjmp	.-1194   	; 0xf8 <fdct+0x2a>
/home/becker/async/autosafe/trunk/tum/wcet-cbmc/benchmarks/fdct/fdct.c:159
 5a2:	89 a5       	ldd	r24, Y+41	; 0x29
 5a4:	9a a5       	ldd	r25, Y+42	; 0x2a
 5a6:	9c 83       	std	Y+4, r25	; 0x04
 5a8:	8b 83       	std	Y+3, r24	; 0x03
/home/becker/async/autosafe/trunk/tum/wcet-cbmc/benchmarks/fdct/fdct.c:161
 5aa:	1a 82       	std	Y+2, r1	; 0x02
 5ac:	19 82       	std	Y+1, r1	; 0x01
 5ae:	1f c3       	rjmp	.+1598   	; 0xbee <fdct+0xb20>
/home/becker/async/autosafe/trunk/tum/wcet-cbmc/benchmarks/fdct/fdct.c:163
 5b0:	8b 81       	ldd	r24, Y+3	; 0x03
 5b2:	9c 81       	ldd	r25, Y+4	; 0x04
 5b4:	fc 01       	movw	r30, r24
 5b6:	20 81       	ld	r18, Z
 5b8:	31 81       	ldd	r19, Z+1	; 0x01
 5ba:	8b a5       	ldd	r24, Y+43	; 0x2b
 5bc:	9c a5       	ldd	r25, Y+44	; 0x2c
 5be:	88 0f       	add	r24, r24
 5c0:	99 1f       	adc	r25, r25
 5c2:	ac 01       	movw	r20, r24
 5c4:	44 0f       	add	r20, r20
 5c6:	55 1f       	adc	r21, r21
 5c8:	44 0f       	add	r20, r20
 5ca:	55 1f       	adc	r21, r21
 5cc:	44 0f       	add	r20, r20
 5ce:	55 1f       	adc	r21, r21
 5d0:	ba 01       	movw	r22, r20
 5d2:	68 1b       	sub	r22, r24
 5d4:	79 0b       	sbc	r23, r25
 5d6:	cb 01       	movw	r24, r22
 5d8:	4b 81       	ldd	r20, Y+3	; 0x03
 5da:	5c 81       	ldd	r21, Y+4	; 0x04
 5dc:	84 0f       	add	r24, r20
 5de:	95 1f       	adc	r25, r21
 5e0:	fc 01       	movw	r30, r24
 5e2:	80 81       	ld	r24, Z
 5e4:	91 81       	ldd	r25, Z+1	; 0x01
 5e6:	82 0f       	add	r24, r18
 5e8:	93 1f       	adc	r25, r19
 5ea:	9e 83       	std	Y+6, r25	; 0x06
 5ec:	8d 83       	std	Y+5, r24	; 0x05
/home/becker/async/autosafe/trunk/tum/wcet-cbmc/benchmarks/fdct/fdct.c:164
 5ee:	8b 81       	ldd	r24, Y+3	; 0x03
 5f0:	9c 81       	ldd	r25, Y+4	; 0x04
 5f2:	fc 01       	movw	r30, r24
 5f4:	20 81       	ld	r18, Z
 5f6:	31 81       	ldd	r19, Z+1	; 0x01
 5f8:	8b a5       	ldd	r24, Y+43	; 0x2b
 5fa:	9c a5       	ldd	r25, Y+44	; 0x2c
 5fc:	88 0f       	add	r24, r24
 5fe:	99 1f       	adc	r25, r25
 600:	ac 01       	movw	r20, r24
 602:	44 0f       	add	r20, r20
 604:	55 1f       	adc	r21, r21
 606:	44 0f       	add	r20, r20
 608:	55 1f       	adc	r21, r21
 60a:	44 0f       	add	r20, r20
 60c:	55 1f       	adc	r21, r21
 60e:	ba 01       	movw	r22, r20
 610:	68 1b       	sub	r22, r24
 612:	79 0b       	sbc	r23, r25
 614:	cb 01       	movw	r24, r22
 616:	4b 81       	ldd	r20, Y+3	; 0x03
 618:	5c 81       	ldd	r21, Y+4	; 0x04
 61a:	84 0f       	add	r24, r20
 61c:	95 1f       	adc	r25, r21
 61e:	fc 01       	movw	r30, r24
 620:	80 81       	ld	r24, Z
 622:	91 81       	ldd	r25, Z+1	; 0x01
 624:	a9 01       	movw	r20, r18
 626:	48 1b       	sub	r20, r24
 628:	59 0b       	sbc	r21, r25
 62a:	ca 01       	movw	r24, r20
 62c:	98 87       	std	Y+8, r25	; 0x08
 62e:	8f 83       	std	Y+7, r24	; 0x07
/home/becker/async/autosafe/trunk/tum/wcet-cbmc/benchmarks/fdct/fdct.c:165
 630:	8b a5       	ldd	r24, Y+43	; 0x2b
 632:	9c a5       	ldd	r25, Y+44	; 0x2c
 634:	88 0f       	add	r24, r24
 636:	99 1f       	adc	r25, r25
 638:	2b 81       	ldd	r18, Y+3	; 0x03
 63a:	3c 81       	ldd	r19, Y+4	; 0x04
 63c:	82 0f       	add	r24, r18
 63e:	93 1f       	adc	r25, r19
 640:	fc 01       	movw	r30, r24
 642:	40 81       	ld	r20, Z
 644:	51 81       	ldd	r21, Z+1	; 0x01
 646:	2b a5       	ldd	r18, Y+43	; 0x2b
 648:	3c a5       	ldd	r19, Y+44	; 0x2c
 64a:	c9 01       	movw	r24, r18
 64c:	88 0f       	add	r24, r24
 64e:	99 1f       	adc	r25, r25
 650:	82 0f       	add	r24, r18
 652:	93 1f       	adc	r25, r19
 654:	88 0f       	add	r24, r24
 656:	99 1f       	adc	r25, r25
 658:	88 0f       	add	r24, r24
 65a:	99 1f       	adc	r25, r25
 65c:	2b 81       	ldd	r18, Y+3	; 0x03
 65e:	3c 81       	ldd	r19, Y+4	; 0x04
 660:	82 0f       	add	r24, r18
 662:	93 1f       	adc	r25, r19
 664:	fc 01       	movw	r30, r24
 666:	80 81       	ld	r24, Z
 668:	91 81       	ldd	r25, Z+1	; 0x01
 66a:	84 0f       	add	r24, r20
 66c:	95 1f       	adc	r25, r21
 66e:	9a 87       	std	Y+10, r25	; 0x0a
 670:	89 87       	std	Y+9, r24	; 0x09
/home/becker/async/autosafe/trunk/tum/wcet-cbmc/benchmarks/fdct/fdct.c:166
 672:	8b a5       	ldd	r24, Y+43	; 0x2b
 674:	9c a5       	ldd	r25, Y+44	; 0x2c
 676:	88 0f       	add	r24, r24
 678:	99 1f       	adc	r25, r25
 67a:	2b 81       	ldd	r18, Y+3	; 0x03
 67c:	3c 81       	ldd	r19, Y+4	; 0x04
 67e:	82 0f       	add	r24, r18
 680:	93 1f       	adc	r25, r19
 682:	fc 01       	movw	r30, r24
 684:	40 81       	ld	r20, Z
 686:	51 81       	ldd	r21, Z+1	; 0x01
 688:	2b a5       	ldd	r18, Y+43	; 0x2b
 68a:	3c a5       	ldd	r19, Y+44	; 0x2c
 68c:	c9 01       	movw	r24, r18
 68e:	88 0f       	add	r24, r24
 690:	99 1f       	adc	r25, r25
 692:	82 0f       	add	r24, r18
 694:	93 1f       	adc	r25, r19
 696:	88 0f       	add	r24, r24
 698:	99 1f       	adc	r25, r25
 69a:	88 0f       	add	r24, r24
 69c:	99 1f       	adc	r25, r25
 69e:	2b 81       	ldd	r18, Y+3	; 0x03
 6a0:	3c 81       	ldd	r19, Y+4	; 0x04
 6a2:	82 0f       	add	r24, r18
 6a4:	93 1f       	adc	r25, r19
 6a6:	fc 01       	movw	r30, r24
 6a8:	80 81       	ld	r24, Z
 6aa:	91 81       	ldd	r25, Z+1	; 0x01
 6ac:	9a 01       	movw	r18, r20
 6ae:	28 1b       	sub	r18, r24
 6b0:	39 0b       	sbc	r19, r25
 6b2:	c9 01       	movw	r24, r18
 6b4:	9c 87       	std	Y+12, r25	; 0x0c
 6b6:	8b 87       	std	Y+11, r24	; 0x0b
/home/becker/async/autosafe/trunk/tum/wcet-cbmc/benchmarks/fdct/fdct.c:167
 6b8:	8b a5       	ldd	r24, Y+43	; 0x2b
 6ba:	9c a5       	ldd	r25, Y+44	; 0x2c
 6bc:	88 0f       	add	r24, r24
 6be:	99 1f       	adc	r25, r25
 6c0:	88 0f       	add	r24, r24
 6c2:	99 1f       	adc	r25, r25
 6c4:	2b 81       	ldd	r18, Y+3	; 0x03
 6c6:	3c 81       	ldd	r19, Y+4	; 0x04
 6c8:	82 0f       	add	r24, r18
 6ca:	93 1f       	adc	r25, r19
 6cc:	fc 01       	movw	r30, r24
 6ce:	20 81       	ld	r18, Z
 6d0:	31 81       	ldd	r19, Z+1	; 0x01
 6d2:	8b a5       	ldd	r24, Y+43	; 0x2b
 6d4:	9c a5       	ldd	r25, Y+44	; 0x2c
 6d6:	88 0f       	add	r24, r24
 6d8:	99 1f       	adc	r25, r25
 6da:	ac 01       	movw	r20, r24
 6dc:	44 0f       	add	r20, r20
 6de:	55 1f       	adc	r21, r21
 6e0:	44 0f       	add	r20, r20
 6e2:	55 1f       	adc	r21, r21
 6e4:	84 0f       	add	r24, r20
 6e6:	95 1f       	adc	r25, r21
 6e8:	4b 81       	ldd	r20, Y+3	; 0x03
 6ea:	5c 81       	ldd	r21, Y+4	; 0x04
 6ec:	84 0f       	add	r24, r20
 6ee:	95 1f       	adc	r25, r21
 6f0:	fc 01       	movw	r30, r24
 6f2:	80 81       	ld	r24, Z
 6f4:	91 81       	ldd	r25, Z+1	; 0x01
 6f6:	82 0f       	add	r24, r18
 6f8:	93 1f       	adc	r25, r19
 6fa:	9e 87       	std	Y+14, r25	; 0x0e
 6fc:	8d 87       	std	Y+13, r24	; 0x0d
/home/becker/async/autosafe/trunk/tum/wcet-cbmc/benchmarks/fdct/fdct.c:168
 6fe:	8b a5       	ldd	r24, Y+43	; 0x2b
 700:	9c a5       	ldd	r25, Y+44	; 0x2c
 702:	88 0f       	add	r24, r24
 704:	99 1f       	adc	r25, r25
 706:	88 0f       	add	r24, r24
 708:	99 1f       	adc	r25, r25
 70a:	2b 81       	ldd	r18, Y+3	; 0x03
 70c:	3c 81       	ldd	r19, Y+4	; 0x04
 70e:	82 0f       	add	r24, r18
 710:	93 1f       	adc	r25, r19
 712:	fc 01       	movw	r30, r24
 714:	20 81       	ld	r18, Z
 716:	31 81       	ldd	r19, Z+1	; 0x01
 718:	8b a5       	ldd	r24, Y+43	; 0x2b
 71a:	9c a5       	ldd	r25, Y+44	; 0x2c
 71c:	88 0f       	add	r24, r24
 71e:	99 1f       	adc	r25, r25
 720:	ac 01       	movw	r20, r24
 722:	44 0f       	add	r20, r20
 724:	55 1f       	adc	r21, r21
 726:	44 0f       	add	r20, r20
 728:	55 1f       	adc	r21, r21
 72a:	84 0f       	add	r24, r20
 72c:	95 1f       	adc	r25, r21
 72e:	4b 81       	ldd	r20, Y+3	; 0x03
 730:	5c 81       	ldd	r21, Y+4	; 0x04
 732:	84 0f       	add	r24, r20
 734:	95 1f       	adc	r25, r21
 736:	fc 01       	movw	r30, r24
 738:	80 81       	ld	r24, Z
 73a:	91 81       	ldd	r25, Z+1	; 0x01
 73c:	a9 01       	movw	r20, r18
 73e:	48 1b       	sub	r20, r24
 740:	59 0b       	sbc	r21, r25
 742:	ca 01       	movw	r24, r20
 744:	98 8b       	std	Y+16, r25	; 0x10
 746:	8f 87       	std	Y+15, r24	; 0x0f
/home/becker/async/autosafe/trunk/tum/wcet-cbmc/benchmarks/fdct/fdct.c:169
 748:	2b a5       	ldd	r18, Y+43	; 0x2b
 74a:	3c a5       	ldd	r19, Y+44	; 0x2c
 74c:	c9 01       	movw	r24, r18
 74e:	88 0f       	add	r24, r24
 750:	99 1f       	adc	r25, r25
 752:	82 0f       	add	r24, r18
 754:	93 1f       	adc	r25, r19
 756:	88 0f       	add	r24, r24
 758:	99 1f       	adc	r25, r25
 75a:	2b 81       	ldd	r18, Y+3	; 0x03
 75c:	3c 81       	ldd	r19, Y+4	; 0x04
 75e:	82 0f       	add	r24, r18
 760:	93 1f       	adc	r25, r19
 762:	fc 01       	movw	r30, r24
 764:	20 81       	ld	r18, Z
 766:	31 81       	ldd	r19, Z+1	; 0x01
 768:	8b a5       	ldd	r24, Y+43	; 0x2b
 76a:	9c a5       	ldd	r25, Y+44	; 0x2c
 76c:	88 0f       	add	r24, r24
 76e:	99 1f       	adc	r25, r25
 770:	88 0f       	add	r24, r24
 772:	99 1f       	adc	r25, r25
 774:	88 0f       	add	r24, r24
 776:	99 1f       	adc	r25, r25
 778:	4b 81       	ldd	r20, Y+3	; 0x03
 77a:	5c 81       	ldd	r21, Y+4	; 0x04
 77c:	84 0f       	add	r24, r20
 77e:	95 1f       	adc	r25, r21
 780:	fc 01       	movw	r30, r24
 782:	80 81       	ld	r24, Z
 784:	91 81       	ldd	r25, Z+1	; 0x01
 786:	82 0f       	add	r24, r18
 788:	93 1f       	adc	r25, r19
 78a:	9a 8b       	std	Y+18, r25	; 0x12
 78c:	89 8b       	std	Y+17, r24	; 0x11
/home/becker/async/autosafe/trunk/tum/wcet-cbmc/benchmarks/fdct/fdct.c:170
 78e:	2b a5       	ldd	r18, Y+43	; 0x2b
 790:	3c a5       	ldd	r19, Y+44	; 0x2c
 792:	c9 01       	movw	r24, r18
 794:	88 0f       	add	r24, r24
 796:	99 1f       	adc	r25, r25
 798:	82 0f       	add	r24, r18
 79a:	93 1f       	adc	r25, r19
 79c:	88 0f       	add	r24, r24
 79e:	99 1f       	adc	r25, r25
 7a0:	2b 81       	ldd	r18, Y+3	; 0x03
 7a2:	3c 81       	ldd	r19, Y+4	; 0x04
 7a4:	82 0f       	add	r24, r18
 7a6:	93 1f       	adc	r25, r19
 7a8:	fc 01       	movw	r30, r24
 7aa:	20 81       	ld	r18, Z
 7ac:	31 81       	ldd	r19, Z+1	; 0x01
 7ae:	8b a5       	ldd	r24, Y+43	; 0x2b
 7b0:	9c a5       	ldd	r25, Y+44	; 0x2c
 7b2:	88 0f       	add	r24, r24
 7b4:	99 1f       	adc	r25, r25
 7b6:	88 0f       	add	r24, r24
 7b8:	99 1f       	adc	r25, r25
 7ba:	88 0f       	add	r24, r24
 7bc:	99 1f       	adc	r25, r25
 7be:	4b 81       	ldd	r20, Y+3	; 0x03
 7c0:	5c 81       	ldd	r21, Y+4	; 0x04
 7c2:	84 0f       	add	r24, r20
 7c4:	95 1f       	adc	r25, r21
 7c6:	fc 01       	movw	r30, r24
 7c8:	80 81       	ld	r24, Z
 7ca:	91 81       	ldd	r25, Z+1	; 0x01
 7cc:	a9 01       	movw	r20, r18
 7ce:	48 1b       	sub	r20, r24
 7d0:	59 0b       	sbc	r21, r25
 7d2:	ca 01       	movw	r24, r20
 7d4:	9c 8b       	std	Y+20, r25	; 0x14
 7d6:	8b 8b       	std	Y+19, r24	; 0x13
/home/becker/async/autosafe/trunk/tum/wcet-cbmc/benchmarks/fdct/fdct.c:176
 7d8:	2d 81       	ldd	r18, Y+5	; 0x05
 7da:	3e 81       	ldd	r19, Y+6	; 0x06
 7dc:	89 89       	ldd	r24, Y+17	; 0x11
 7de:	9a 89       	ldd	r25, Y+18	; 0x12
 7e0:	82 0f       	add	r24, r18
 7e2:	93 1f       	adc	r25, r19
 7e4:	9e 8b       	std	Y+22, r25	; 0x16
 7e6:	8d 8b       	std	Y+21, r24	; 0x15
/home/becker/async/autosafe/trunk/tum/wcet-cbmc/benchmarks/fdct/fdct.c:177
 7e8:	2d 81       	ldd	r18, Y+5	; 0x05
 7ea:	3e 81       	ldd	r19, Y+6	; 0x06
 7ec:	89 89       	ldd	r24, Y+17	; 0x11
 7ee:	9a 89       	ldd	r25, Y+18	; 0x12
 7f0:	b9 01       	movw	r22, r18
 7f2:	68 1b       	sub	r22, r24
 7f4:	79 0b       	sbc	r23, r25
 7f6:	cb 01       	movw	r24, r22
 7f8:	98 8f       	std	Y+24, r25	; 0x18
 7fa:	8f 8b       	std	Y+23, r24	; 0x17
/home/becker/async/autosafe/trunk/tum/wcet-cbmc/benchmarks/fdct/fdct.c:178
 7fc:	29 85       	ldd	r18, Y+9	; 0x09
 7fe:	3a 85       	ldd	r19, Y+10	; 0x0a
 800:	8d 85       	ldd	r24, Y+13	; 0x0d
 802:	9e 85       	ldd	r25, Y+14	; 0x0e
 804:	82 0f       	add	r24, r18
 806:	93 1f       	adc	r25, r19
 808:	9a 8f       	std	Y+26, r25	; 0x1a
 80a:	89 8f       	std	Y+25, r24	; 0x19
/home/becker/async/autosafe/trunk/tum/wcet-cbmc/benchmarks/fdct/fdct.c:179
 80c:	29 85       	ldd	r18, Y+9	; 0x09
 80e:	3a 85       	ldd	r19, Y+10	; 0x0a
 810:	8d 85       	ldd	r24, Y+13	; 0x0d
 812:	9e 85       	ldd	r25, Y+14	; 0x0e
 814:	f9 01       	movw	r30, r18
 816:	e8 1b       	sub	r30, r24
 818:	f9 0b       	sbc	r31, r25
 81a:	cf 01       	movw	r24, r30
 81c:	9c 8f       	std	Y+28, r25	; 0x1c
 81e:	8b 8f       	std	Y+27, r24	; 0x1b
/home/becker/async/autosafe/trunk/tum/wcet-cbmc/benchmarks/fdct/fdct.c:181
 820:	2d 89       	ldd	r18, Y+21	; 0x15
 822:	3e 89       	ldd	r19, Y+22	; 0x16
 824:	89 8d       	ldd	r24, Y+25	; 0x19
 826:	9a 8d       	ldd	r25, Y+26	; 0x1a
 828:	82 0f       	add	r24, r18
 82a:	93 1f       	adc	r25, r19
 82c:	9c 01       	movw	r18, r24
 82e:	35 95       	asr	r19
 830:	27 95       	ror	r18
 832:	35 95       	asr	r19
 834:	27 95       	ror	r18
 836:	35 95       	asr	r19
 838:	27 95       	ror	r18
 83a:	35 95       	asr	r19
 83c:	27 95       	ror	r18
 83e:	35 95       	asr	r19
 840:	27 95       	ror	r18
 842:	8b 81       	ldd	r24, Y+3	; 0x03
 844:	9c 81       	ldd	r25, Y+4	; 0x04
 846:	fc 01       	movw	r30, r24
 848:	31 83       	std	Z+1, r19	; 0x01
 84a:	20 83       	st	Z, r18
/home/becker/async/autosafe/trunk/tum/wcet-cbmc/benchmarks/fdct/fdct.c:182
 84c:	8b a5       	ldd	r24, Y+43	; 0x2b
 84e:	9c a5       	ldd	r25, Y+44	; 0x2c
 850:	88 0f       	add	r24, r24
 852:	99 1f       	adc	r25, r25
 854:	88 0f       	add	r24, r24
 856:	99 1f       	adc	r25, r25
 858:	88 0f       	add	r24, r24
 85a:	99 1f       	adc	r25, r25
 85c:	2b 81       	ldd	r18, Y+3	; 0x03
 85e:	3c 81       	ldd	r19, Y+4	; 0x04
 860:	82 0f       	add	r24, r18
 862:	93 1f       	adc	r25, r19
 864:	4d 89       	ldd	r20, Y+21	; 0x15
 866:	5e 89       	ldd	r21, Y+22	; 0x16
 868:	29 8d       	ldd	r18, Y+25	; 0x19
 86a:	3a 8d       	ldd	r19, Y+26	; 0x1a
 86c:	ba 01       	movw	r22, r20
 86e:	62 1b       	sub	r22, r18
 870:	73 0b       	sbc	r23, r19
 872:	9b 01       	movw	r18, r22
 874:	35 95       	asr	r19
 876:	27 95       	ror	r18
 878:	35 95       	asr	r19
 87a:	27 95       	ror	r18
 87c:	35 95       	asr	r19
 87e:	27 95       	ror	r18
 880:	35 95       	asr	r19
 882:	27 95       	ror	r18
 884:	35 95       	asr	r19
 886:	27 95       	ror	r18
 888:	fc 01       	movw	r30, r24
 88a:	31 83       	std	Z+1, r19	; 0x01
 88c:	20 83       	st	Z, r18
/home/becker/async/autosafe/trunk/tum/wcet-cbmc/benchmarks/fdct/fdct.c:184
 88e:	81 e5       	ldi	r24, 0x51	; 81
 890:	91 e1       	ldi	r25, 0x11	; 17
 892:	9e 8f       	std	Y+30, r25	; 0x1e
 894:	8d 8f       	std	Y+29, r24	; 0x1d
/home/becker/async/autosafe/trunk/tum/wcet-cbmc/benchmarks/fdct/fdct.c:185
 896:	2b 8d       	ldd	r18, Y+27	; 0x1b
 898:	3c 8d       	ldd	r19, Y+28	; 0x1c
 89a:	8f 89       	ldd	r24, Y+23	; 0x17
 89c:	98 8d       	ldd	r25, Y+24	; 0x18
 89e:	a9 01       	movw	r20, r18
 8a0:	48 0f       	add	r20, r24
 8a2:	59 1f       	adc	r21, r25
 8a4:	2d 8d       	ldd	r18, Y+29	; 0x1d
 8a6:	3e 8d       	ldd	r19, Y+30	; 0x1e
 8a8:	42 9f       	mul	r20, r18
 8aa:	c0 01       	movw	r24, r0
 8ac:	43 9f       	mul	r20, r19
 8ae:	90 0d       	add	r25, r0
 8b0:	52 9f       	mul	r21, r18
 8b2:	90 0d       	add	r25, r0
 8b4:	11 24       	eor	r1, r1
 8b6:	98 a3       	std	Y+32, r25	; 0x20
 8b8:	8f 8f       	std	Y+31, r24	; 0x1f
/home/becker/async/autosafe/trunk/tum/wcet-cbmc/benchmarks/fdct/fdct.c:186
 8ba:	8e e7       	ldi	r24, 0x7E	; 126
 8bc:	98 e1       	ldi	r25, 0x18	; 24
 8be:	9e 8f       	std	Y+30, r25	; 0x1e
 8c0:	8d 8f       	std	Y+29, r24	; 0x1d
/home/becker/async/autosafe/trunk/tum/wcet-cbmc/benchmarks/fdct/fdct.c:187
 8c2:	8b a5       	ldd	r24, Y+43	; 0x2b
 8c4:	9c a5       	ldd	r25, Y+44	; 0x2c
 8c6:	88 0f       	add	r24, r24
 8c8:	99 1f       	adc	r25, r25
 8ca:	88 0f       	add	r24, r24
 8cc:	99 1f       	adc	r25, r25
 8ce:	2b 81       	ldd	r18, Y+3	; 0x03
 8d0:	3c 81       	ldd	r19, Y+4	; 0x04
 8d2:	82 0f       	add	r24, r18
 8d4:	93 1f       	adc	r25, r19
 8d6:	6f 89       	ldd	r22, Y+23	; 0x17
 8d8:	78 8d       	ldd	r23, Y+24	; 0x18
 8da:	2d 8d       	ldd	r18, Y+29	; 0x1d
 8dc:	3e 8d       	ldd	r19, Y+30	; 0x1e
 8de:	62 9f       	mul	r22, r18
 8e0:	a0 01       	movw	r20, r0
 8e2:	63 9f       	mul	r22, r19
 8e4:	50 0d       	add	r21, r0
 8e6:	72 9f       	mul	r23, r18
 8e8:	50 0d       	add	r21, r0
 8ea:	11 24       	eor	r1, r1
 8ec:	2f 8d       	ldd	r18, Y+31	; 0x1f
 8ee:	38 a1       	ldd	r19, Y+32	; 0x20
 8f0:	24 0f       	add	r18, r20
 8f2:	35 1f       	adc	r19, r21
 8f4:	33 0f       	add	r19, r19
 8f6:	22 0b       	sbc	r18, r18
 8f8:	32 2f       	mov	r19, r18
 8fa:	fc 01       	movw	r30, r24
 8fc:	31 83       	std	Z+1, r19	; 0x01
 8fe:	20 83       	st	Z, r18
/home/becker/async/autosafe/trunk/tum/wcet-cbmc/benchmarks/fdct/fdct.c:188
 900:	8f ed       	ldi	r24, 0xDF	; 223
 902:	94 ec       	ldi	r25, 0xC4	; 196
 904:	9e 8f       	std	Y+30, r25	; 0x1e
 906:	8d 8f       	std	Y+29, r24	; 0x1d
/home/becker/async/autosafe/trunk/tum/wcet-cbmc/benchmarks/fdct/fdct.c:189
 908:	2b a5       	ldd	r18, Y+43	; 0x2b
 90a:	3c a5       	ldd	r19, Y+44	; 0x2c
 90c:	c9 01       	movw	r24, r18
 90e:	88 0f       	add	r24, r24
 910:	99 1f       	adc	r25, r25
 912:	82 0f       	add	r24, r18
 914:	93 1f       	adc	r25, r19
 916:	88 0f       	add	r24, r24
 918:	99 1f       	adc	r25, r25
 91a:	88 0f       	add	r24, r24
 91c:	99 1f       	adc	r25, r25
 91e:	2b 81       	ldd	r18, Y+3	; 0x03
 920:	3c 81       	ldd	r19, Y+4	; 0x04
 922:	82 0f       	add	r24, r18
 924:	93 1f       	adc	r25, r19
 926:	6b 8d       	ldd	r22, Y+27	; 0x1b
 928:	7c 8d       	ldd	r23, Y+28	; 0x1c
 92a:	2d 8d       	ldd	r18, Y+29	; 0x1d
 92c:	3e 8d       	ldd	r19, Y+30	; 0x1e
 92e:	62 9f       	mul	r22, r18
 930:	a0 01       	movw	r20, r0
 932:	63 9f       	mul	r22, r19
 934:	50 0d       	add	r21, r0
 936:	72 9f       	mul	r23, r18
 938:	50 0d       	add	r21, r0
 93a:	11 24       	eor	r1, r1
 93c:	2f 8d       	ldd	r18, Y+31	; 0x1f
 93e:	38 a1       	ldd	r19, Y+32	; 0x20
 940:	24 0f       	add	r18, r20
 942:	35 1f       	adc	r19, r21
 944:	33 0f       	add	r19, r19
 946:	22 0b       	sbc	r18, r18
 948:	32 2f       	mov	r19, r18
 94a:	fc 01       	movw	r30, r24
 94c:	31 83       	std	Z+1, r19	; 0x01
 94e:	20 83       	st	Z, r18
/home/becker/async/autosafe/trunk/tum/wcet-cbmc/benchmarks/fdct/fdct.c:196
 950:	2b 89       	ldd	r18, Y+19	; 0x13
 952:	3c 89       	ldd	r19, Y+20	; 0x14
 954:	8f 81       	ldd	r24, Y+7	; 0x07
 956:	98 85       	ldd	r25, Y+8	; 0x08
 958:	82 0f       	add	r24, r18
 95a:	93 1f       	adc	r25, r19
 95c:	98 a3       	std	Y+32, r25	; 0x20
 95e:	8f 8f       	std	Y+31, r24	; 0x1f
/home/becker/async/autosafe/trunk/tum/wcet-cbmc/benchmarks/fdct/fdct.c:197
 960:	2f 85       	ldd	r18, Y+15	; 0x0f
 962:	38 89       	ldd	r19, Y+16	; 0x10
 964:	8b 85       	ldd	r24, Y+11	; 0x0b
 966:	9c 85       	ldd	r25, Y+12	; 0x0c
 968:	82 0f       	add	r24, r18
 96a:	93 1f       	adc	r25, r19
 96c:	9a a3       	std	Y+34, r25	; 0x22
 96e:	89 a3       	std	Y+33, r24	; 0x21
/home/becker/async/autosafe/trunk/tum/wcet-cbmc/benchmarks/fdct/fdct.c:198
 970:	2b 89       	ldd	r18, Y+19	; 0x13
 972:	3c 89       	ldd	r19, Y+20	; 0x14
 974:	8b 85       	ldd	r24, Y+11	; 0x0b
 976:	9c 85       	ldd	r25, Y+12	; 0x0c
 978:	82 0f       	add	r24, r18
 97a:	93 1f       	adc	r25, r19
 97c:	9c a3       	std	Y+36, r25	; 0x24
 97e:	8b a3       	std	Y+35, r24	; 0x23
/home/becker/async/autosafe/trunk/tum/wcet-cbmc/benchmarks/fdct/fdct.c:199
 980:	2f 85       	ldd	r18, Y+15	; 0x0f
 982:	38 89       	ldd	r19, Y+16	; 0x10
 984:	8f 81       	ldd	r24, Y+7	; 0x07
 986:	98 85       	ldd	r25, Y+8	; 0x08
 988:	82 0f       	add	r24, r18
 98a:	93 1f       	adc	r25, r19
 98c:	9e a3       	std	Y+38, r25	; 0x26
 98e:	8d a3       	std	Y+37, r24	; 0x25
/home/becker/async/autosafe/trunk/tum/wcet-cbmc/benchmarks/fdct/fdct.c:200
 990:	81 ea       	ldi	r24, 0xA1	; 161
 992:	95 e2       	ldi	r25, 0x25	; 37
 994:	9e 8f       	std	Y+30, r25	; 0x1e
 996:	8d 8f       	std	Y+29, r24	; 0x1d
/home/becker/async/autosafe/trunk/tum/wcet-cbmc/benchmarks/fdct/fdct.c:201
 998:	2b a1       	ldd	r18, Y+35	; 0x23
 99a:	3c a1       	ldd	r19, Y+36	; 0x24
 99c:	8d a1       	ldd	r24, Y+37	; 0x25
 99e:	9e a1       	ldd	r25, Y+38	; 0x26
 9a0:	a9 01       	movw	r20, r18
 9a2:	48 0f       	add	r20, r24
 9a4:	59 1f       	adc	r21, r25
 9a6:	2d 8d       	ldd	r18, Y+29	; 0x1d
 9a8:	3e 8d       	ldd	r19, Y+30	; 0x1e
 9aa:	42 9f       	mul	r20, r18
 9ac:	c0 01       	movw	r24, r0
 9ae:	43 9f       	mul	r20, r19
 9b0:	90 0d       	add	r25, r0
 9b2:	52 9f       	mul	r21, r18
 9b4:	90 0d       	add	r25, r0
 9b6:	11 24       	eor	r1, r1
 9b8:	98 a7       	std	Y+40, r25	; 0x28
 9ba:	8f a3       	std	Y+39, r24	; 0x27
/home/becker/async/autosafe/trunk/tum/wcet-cbmc/benchmarks/fdct/fdct.c:203
 9bc:	8e e8       	ldi	r24, 0x8E	; 142
 9be:	99 e0       	ldi	r25, 0x09	; 9
 9c0:	9e 8f       	std	Y+30, r25	; 0x1e
 9c2:	8d 8f       	std	Y+29, r24	; 0x1d
/home/becker/async/autosafe/trunk/tum/wcet-cbmc/benchmarks/fdct/fdct.c:204
 9c4:	4b 89       	ldd	r20, Y+19	; 0x13
 9c6:	5c 89       	ldd	r21, Y+20	; 0x14
 9c8:	2d 8d       	ldd	r18, Y+29	; 0x1d
 9ca:	3e 8d       	ldd	r19, Y+30	; 0x1e
 9cc:	42 9f       	mul	r20, r18
 9ce:	c0 01       	movw	r24, r0
 9d0:	43 9f       	mul	r20, r19
 9d2:	90 0d       	add	r25, r0
 9d4:	52 9f       	mul	r21, r18
 9d6:	90 0d       	add	r25, r0
 9d8:	11 24       	eor	r1, r1
 9da:	9c 8b       	std	Y+20, r25	; 0x14
 9dc:	8b 8b       	std	Y+19, r24	; 0x13
/home/becker/async/autosafe/trunk/tum/wcet-cbmc/benchmarks/fdct/fdct.c:205
 9de:	83 eb       	ldi	r24, 0xB3	; 179
 9e0:	91 e4       	ldi	r25, 0x41	; 65
 9e2:	9e 8f       	std	Y+30, r25	; 0x1e
 9e4:	8d 8f       	std	Y+29, r24	; 0x1d
/home/becker/async/autosafe/trunk/tum/wcet-cbmc/benchmarks/fdct/fdct.c:206
 9e6:	4f 85       	ldd	r20, Y+15	; 0x0f
 9e8:	58 89       	ldd	r21, Y+16	; 0x10
 9ea:	2d 8d       	ldd	r18, Y+29	; 0x1d
 9ec:	3e 8d       	ldd	r19, Y+30	; 0x1e
 9ee:	42 9f       	mul	r20, r18
 9f0:	c0 01       	movw	r24, r0
 9f2:	43 9f       	mul	r20, r19
 9f4:	90 0d       	add	r25, r0
 9f6:	52 9f       	mul	r21, r18
 9f8:	90 0d       	add	r25, r0
 9fa:	11 24       	eor	r1, r1
 9fc:	98 8b       	std	Y+16, r25	; 0x10
 9fe:	8f 87       	std	Y+15, r24	; 0x0f
/home/becker/async/autosafe/trunk/tum/wcet-cbmc/benchmarks/fdct/fdct.c:207
 a00:	84 e5       	ldi	r24, 0x54	; 84
 a02:	92 e6       	ldi	r25, 0x62	; 98
 a04:	9e 8f       	std	Y+30, r25	; 0x1e
 a06:	8d 8f       	std	Y+29, r24	; 0x1d
/home/becker/async/autosafe/trunk/tum/wcet-cbmc/benchmarks/fdct/fdct.c:208
 a08:	4b 85       	ldd	r20, Y+11	; 0x0b
 a0a:	5c 85       	ldd	r21, Y+12	; 0x0c
 a0c:	2d 8d       	ldd	r18, Y+29	; 0x1d
 a0e:	3e 8d       	ldd	r19, Y+30	; 0x1e
 a10:	42 9f       	mul	r20, r18
 a12:	c0 01       	movw	r24, r0
 a14:	43 9f       	mul	r20, r19
 a16:	90 0d       	add	r25, r0
 a18:	52 9f       	mul	r21, r18
 a1a:	90 0d       	add	r25, r0
 a1c:	11 24       	eor	r1, r1
 a1e:	9c 87       	std	Y+12, r25	; 0x0c
 a20:	8b 87       	std	Y+11, r24	; 0x0b
/home/becker/async/autosafe/trunk/tum/wcet-cbmc/benchmarks/fdct/fdct.c:209
 a22:	8b e0       	ldi	r24, 0x0B	; 11
 a24:	90 e3       	ldi	r25, 0x30	; 48
 a26:	9e 8f       	std	Y+30, r25	; 0x1e
 a28:	8d 8f       	std	Y+29, r24	; 0x1d
/home/becker/async/autosafe/trunk/tum/wcet-cbmc/benchmarks/fdct/fdct.c:210
 a2a:	4f 81       	ldd	r20, Y+7	; 0x07
 a2c:	58 85       	ldd	r21, Y+8	; 0x08
 a2e:	2d 8d       	ldd	r18, Y+29	; 0x1d
 a30:	3e 8d       	ldd	r19, Y+30	; 0x1e
 a32:	42 9f       	mul	r20, r18
 a34:	c0 01       	movw	r24, r0
 a36:	43 9f       	mul	r20, r19
 a38:	90 0d       	add	r25, r0
 a3a:	52 9f       	mul	r21, r18
 a3c:	90 0d       	add	r25, r0
 a3e:	11 24       	eor	r1, r1
 a40:	98 87       	std	Y+8, r25	; 0x08
 a42:	8f 83       	std	Y+7, r24	; 0x07
/home/becker/async/autosafe/trunk/tum/wcet-cbmc/benchmarks/fdct/fdct.c:211
 a44:	83 e3       	ldi	r24, 0x33	; 51
 a46:	93 ee       	ldi	r25, 0xE3	; 227
 a48:	9e 8f       	std	Y+30, r25	; 0x1e
 a4a:	8d 8f       	std	Y+29, r24	; 0x1d
/home/becker/async/autosafe/trunk/tum/wcet-cbmc/benchmarks/fdct/fdct.c:212
 a4c:	4f 8d       	ldd	r20, Y+31	; 0x1f
 a4e:	58 a1       	ldd	r21, Y+32	; 0x20
 a50:	2d 8d       	ldd	r18, Y+29	; 0x1d
 a52:	3e 8d       	ldd	r19, Y+30	; 0x1e
 a54:	42 9f       	mul	r20, r18
 a56:	c0 01       	movw	r24, r0
 a58:	43 9f       	mul	r20, r19
 a5a:	90 0d       	add	r25, r0
 a5c:	52 9f       	mul	r21, r18
 a5e:	90 0d       	add	r25, r0
 a60:	11 24       	eor	r1, r1
 a62:	98 a3       	std	Y+32, r25	; 0x20
 a64:	8f 8f       	std	Y+31, r24	; 0x1f
/home/becker/async/autosafe/trunk/tum/wcet-cbmc/benchmarks/fdct/fdct.c:213
 a66:	8d ef       	ldi	r24, 0xFD	; 253
 a68:	9d ea       	ldi	r25, 0xAD	; 173
 a6a:	9e 8f       	std	Y+30, r25	; 0x1e
 a6c:	8d 8f       	std	Y+29, r24	; 0x1d
/home/becker/async/autosafe/trunk/tum/wcet-cbmc/benchmarks/fdct/fdct.c:214
 a6e:	49 a1       	ldd	r20, Y+33	; 0x21
 a70:	5a a1       	ldd	r21, Y+34	; 0x22
 a72:	2d 8d       	ldd	r18, Y+29	; 0x1d
 a74:	3e 8d       	ldd	r19, Y+30	; 0x1e
 a76:	42 9f       	mul	r20, r18
 a78:	c0 01       	movw	r24, r0
 a7a:	43 9f       	mul	r20, r19
 a7c:	90 0d       	add	r25, r0
 a7e:	52 9f       	mul	r21, r18
 a80:	90 0d       	add	r25, r0
 a82:	11 24       	eor	r1, r1
 a84:	9a a3       	std	Y+34, r25	; 0x22
 a86:	89 a3       	std	Y+33, r24	; 0x21
/home/becker/async/autosafe/trunk/tum/wcet-cbmc/benchmarks/fdct/fdct.c:215
 a88:	8b e3       	ldi	r24, 0x3B	; 59
 a8a:	91 ec       	ldi	r25, 0xC1	; 193
 a8c:	9e 8f       	std	Y+30, r25	; 0x1e
 a8e:	8d 8f       	std	Y+29, r24	; 0x1d
/home/becker/async/autosafe/trunk/tum/wcet-cbmc/benchmarks/fdct/fdct.c:216
 a90:	4b a1       	ldd	r20, Y+35	; 0x23
 a92:	5c a1       	ldd	r21, Y+36	; 0x24
 a94:	2d 8d       	ldd	r18, Y+29	; 0x1d
 a96:	3e 8d       	ldd	r19, Y+30	; 0x1e
 a98:	42 9f       	mul	r20, r18
 a9a:	c0 01       	movw	r24, r0
 a9c:	43 9f       	mul	r20, r19
 a9e:	90 0d       	add	r25, r0
 aa0:	52 9f       	mul	r21, r18
 aa2:	90 0d       	add	r25, r0
 aa4:	11 24       	eor	r1, r1
 aa6:	9c a3       	std	Y+36, r25	; 0x24
 aa8:	8b a3       	std	Y+35, r24	; 0x23
/home/becker/async/autosafe/trunk/tum/wcet-cbmc/benchmarks/fdct/fdct.c:217
 aaa:	84 e8       	ldi	r24, 0x84	; 132
 aac:	93 ef       	ldi	r25, 0xF3	; 243
 aae:	9e 8f       	std	Y+30, r25	; 0x1e
 ab0:	8d 8f       	std	Y+29, r24	; 0x1d
/home/becker/async/autosafe/trunk/tum/wcet-cbmc/benchmarks/fdct/fdct.c:218
 ab2:	4d a1       	ldd	r20, Y+37	; 0x25
 ab4:	5e a1       	ldd	r21, Y+38	; 0x26
 ab6:	2d 8d       	ldd	r18, Y+29	; 0x1d
 ab8:	3e 8d       	ldd	r19, Y+30	; 0x1e
 aba:	42 9f       	mul	r20, r18
 abc:	c0 01       	movw	r24, r0
 abe:	43 9f       	mul	r20, r19
 ac0:	90 0d       	add	r25, r0
 ac2:	52 9f       	mul	r21, r18
 ac4:	90 0d       	add	r25, r0
 ac6:	11 24       	eor	r1, r1
 ac8:	9e a3       	std	Y+38, r25	; 0x26
 aca:	8d a3       	std	Y+37, r24	; 0x25
/home/becker/async/autosafe/trunk/tum/wcet-cbmc/benchmarks/fdct/fdct.c:220
 acc:	2b a1       	ldd	r18, Y+35	; 0x23
 ace:	3c a1       	ldd	r19, Y+36	; 0x24
 ad0:	8f a1       	ldd	r24, Y+39	; 0x27
 ad2:	98 a5       	ldd	r25, Y+40	; 0x28
 ad4:	82 0f       	add	r24, r18
 ad6:	93 1f       	adc	r25, r19
 ad8:	9c a3       	std	Y+36, r25	; 0x24
 ada:	8b a3       	std	Y+35, r24	; 0x23
/home/becker/async/autosafe/trunk/tum/wcet-cbmc/benchmarks/fdct/fdct.c:221
 adc:	2d a1       	ldd	r18, Y+37	; 0x25
 ade:	3e a1       	ldd	r19, Y+38	; 0x26
 ae0:	8f a1       	ldd	r24, Y+39	; 0x27
 ae2:	98 a5       	ldd	r25, Y+40	; 0x28
 ae4:	82 0f       	add	r24, r18
 ae6:	93 1f       	adc	r25, r19
 ae8:	9e a3       	std	Y+38, r25	; 0x26
 aea:	8d a3       	std	Y+37, r24	; 0x25
/home/becker/async/autosafe/trunk/tum/wcet-cbmc/benchmarks/fdct/fdct.c:223
 aec:	8b a5       	ldd	r24, Y+43	; 0x2b
 aee:	9c a5       	ldd	r25, Y+44	; 0x2c
 af0:	88 0f       	add	r24, r24
 af2:	99 1f       	adc	r25, r25
 af4:	9c 01       	movw	r18, r24
 af6:	22 0f       	add	r18, r18
 af8:	33 1f       	adc	r19, r19
 afa:	22 0f       	add	r18, r18
 afc:	33 1f       	adc	r19, r19
 afe:	22 0f       	add	r18, r18
 b00:	33 1f       	adc	r19, r19
 b02:	a9 01       	movw	r20, r18
 b04:	48 1b       	sub	r20, r24
 b06:	59 0b       	sbc	r21, r25
 b08:	ca 01       	movw	r24, r20
 b0a:	2b 81       	ldd	r18, Y+3	; 0x03
 b0c:	3c 81       	ldd	r19, Y+4	; 0x04
 b0e:	82 0f       	add	r24, r18
 b10:	93 1f       	adc	r25, r19
 b12:	4b 89       	ldd	r20, Y+19	; 0x13
 b14:	5c 89       	ldd	r21, Y+20	; 0x14
 b16:	2f 8d       	ldd	r18, Y+31	; 0x1f
 b18:	38 a1       	ldd	r19, Y+32	; 0x20
 b1a:	42 0f       	add	r20, r18
 b1c:	53 1f       	adc	r21, r19
 b1e:	2b a1       	ldd	r18, Y+35	; 0x23
 b20:	3c a1       	ldd	r19, Y+36	; 0x24
 b22:	24 0f       	add	r18, r20
 b24:	35 1f       	adc	r19, r21
 b26:	33 0f       	add	r19, r19
 b28:	22 0b       	sbc	r18, r18
 b2a:	32 2f       	mov	r19, r18
 b2c:	fc 01       	movw	r30, r24
 b2e:	31 83       	std	Z+1, r19	; 0x01
 b30:	20 83       	st	Z, r18
/home/becker/async/autosafe/trunk/tum/wcet-cbmc/benchmarks/fdct/fdct.c:224
 b32:	8b a5       	ldd	r24, Y+43	; 0x2b
 b34:	9c a5       	ldd	r25, Y+44	; 0x2c
 b36:	88 0f       	add	r24, r24
 b38:	99 1f       	adc	r25, r25
 b3a:	9c 01       	movw	r18, r24
 b3c:	22 0f       	add	r18, r18
 b3e:	33 1f       	adc	r19, r19
 b40:	22 0f       	add	r18, r18
 b42:	33 1f       	adc	r19, r19
 b44:	82 0f       	add	r24, r18
 b46:	93 1f       	adc	r25, r19
 b48:	2b 81       	ldd	r18, Y+3	; 0x03
 b4a:	3c 81       	ldd	r19, Y+4	; 0x04
 b4c:	82 0f       	add	r24, r18
 b4e:	93 1f       	adc	r25, r19
 b50:	4f 85       	ldd	r20, Y+15	; 0x0f
 b52:	58 89       	ldd	r21, Y+16	; 0x10
 b54:	29 a1       	ldd	r18, Y+33	; 0x21
 b56:	3a a1       	ldd	r19, Y+34	; 0x22
 b58:	42 0f       	add	r20, r18
 b5a:	53 1f       	adc	r21, r19
 b5c:	2d a1       	ldd	r18, Y+37	; 0x25
 b5e:	3e a1       	ldd	r19, Y+38	; 0x26
 b60:	24 0f       	add	r18, r20
 b62:	35 1f       	adc	r19, r21
 b64:	33 0f       	add	r19, r19
 b66:	22 0b       	sbc	r18, r18
 b68:	32 2f       	mov	r19, r18
 b6a:	fc 01       	movw	r30, r24
 b6c:	31 83       	std	Z+1, r19	; 0x01
 b6e:	20 83       	st	Z, r18
/home/becker/async/autosafe/trunk/tum/wcet-cbmc/benchmarks/fdct/fdct.c:225
 b70:	2b a5       	ldd	r18, Y+43	; 0x2b
 b72:	3c a5       	ldd	r19, Y+44	; 0x2c
 b74:	c9 01       	movw	r24, r18
 b76:	88 0f       	add	r24, r24
 b78:	99 1f       	adc	r25, r25
 b7a:	82 0f       	add	r24, r18
 b7c:	93 1f       	adc	r25, r19
 b7e:	88 0f       	add	r24, r24
 b80:	99 1f       	adc	r25, r25
 b82:	2b 81       	ldd	r18, Y+3	; 0x03
 b84:	3c 81       	ldd	r19, Y+4	; 0x04
 b86:	82 0f       	add	r24, r18
 b88:	93 1f       	adc	r25, r19
 b8a:	4b 85       	ldd	r20, Y+11	; 0x0b
 b8c:	5c 85       	ldd	r21, Y+12	; 0x0c
 b8e:	29 a1       	ldd	r18, Y+33	; 0x21
 b90:	3a a1       	ldd	r19, Y+34	; 0x22
 b92:	42 0f       	add	r20, r18
 b94:	53 1f       	adc	r21, r19
 b96:	2b a1       	ldd	r18, Y+35	; 0x23
 b98:	3c a1       	ldd	r19, Y+36	; 0x24
 b9a:	24 0f       	add	r18, r20
 b9c:	35 1f       	adc	r19, r21
 b9e:	33 0f       	add	r19, r19
 ba0:	22 0b       	sbc	r18, r18
 ba2:	32 2f       	mov	r19, r18
 ba4:	fc 01       	movw	r30, r24
 ba6:	31 83       	std	Z+1, r19	; 0x01
 ba8:	20 83       	st	Z, r18
/home/becker/async/autosafe/trunk/tum/wcet-cbmc/benchmarks/fdct/fdct.c:226
 baa:	8b a5       	ldd	r24, Y+43	; 0x2b
 bac:	9c a5       	ldd	r25, Y+44	; 0x2c
 bae:	88 0f       	add	r24, r24
 bb0:	99 1f       	adc	r25, r25
 bb2:	2b 81       	ldd	r18, Y+3	; 0x03
 bb4:	3c 81       	ldd	r19, Y+4	; 0x04
 bb6:	82 0f       	add	r24, r18
 bb8:	93 1f       	adc	r25, r19
 bba:	4f 81       	ldd	r20, Y+7	; 0x07
 bbc:	58 85       	ldd	r21, Y+8	; 0x08
 bbe:	2f 8d       	ldd	r18, Y+31	; 0x1f
 bc0:	38 a1       	ldd	r19, Y+32	; 0x20
 bc2:	42 0f       	add	r20, r18
 bc4:	53 1f       	adc	r21, r19
 bc6:	2d a1       	ldd	r18, Y+37	; 0x25
 bc8:	3e a1       	ldd	r19, Y+38	; 0x26
 bca:	24 0f       	add	r18, r20
 bcc:	35 1f       	adc	r19, r21
 bce:	33 0f       	add	r19, r19
 bd0:	22 0b       	sbc	r18, r18
 bd2:	32 2f       	mov	r19, r18
 bd4:	fc 01       	movw	r30, r24
 bd6:	31 83       	std	Z+1, r19	; 0x01
 bd8:	20 83       	st	Z, r18
/home/becker/async/autosafe/trunk/tum/wcet-cbmc/benchmarks/fdct/fdct.c:229
 bda:	8b 81       	ldd	r24, Y+3	; 0x03
 bdc:	9c 81       	ldd	r25, Y+4	; 0x04
 bde:	02 96       	adiw	r24, 0x02	; 2
 be0:	9c 83       	std	Y+4, r25	; 0x04
 be2:	8b 83       	std	Y+3, r24	; 0x03
/home/becker/async/autosafe/trunk/tum/wcet-cbmc/benchmarks/fdct/fdct.c:161
 be4:	89 81       	ldd	r24, Y+1	; 0x01
 be6:	9a 81       	ldd	r25, Y+2	; 0x02
 be8:	01 96       	adiw	r24, 0x01	; 1
 bea:	9a 83       	std	Y+2, r25	; 0x02
 bec:	89 83       	std	Y+1, r24	; 0x01
 bee:	89 81       	ldd	r24, Y+1	; 0x01
 bf0:	9a 81       	ldd	r25, Y+2	; 0x02
 bf2:	88 30       	cpi	r24, 0x08	; 8
 bf4:	91 05       	cpc	r25, r1
 bf6:	0c f4       	brge	.+2      	; 0xbfa <fdct+0xb2c>
 bf8:	db cc       	rjmp	.-1610   	; 0x5b0 <fdct+0x4e2>
/home/becker/async/autosafe/trunk/tum/wcet-cbmc/benchmarks/fdct/fdct.c:231
 bfa:	ac 96       	adiw	r28, 0x2c	; 44
 bfc:	0f b6       	in	r0, 0x3f	; 63
 bfe:	f8 94       	cli
 c00:	de bf       	out	0x3e, r29	; 62
 c02:	0f be       	out	0x3f, r0	; 63
 c04:	cd bf       	out	0x3d, r28	; 61
 c06:	df 91       	pop	r29
 c08:	cf 91       	pop	r28
 c0a:	08 95       	ret

00000c0c <main>:
main():
/home/becker/async/autosafe/trunk/tum/wcet-cbmc/benchmarks/fdct/fdct.c:234
 c0c:	cf 93       	push	r28
 c0e:	df 93       	push	r29
 c10:	cd b7       	in	r28, 0x3d	; 61
 c12:	de b7       	in	r29, 0x3e	; 62
/home/becker/async/autosafe/trunk/tum/wcet-cbmc/benchmarks/fdct/fdct.c:237
 c14:	68 e0       	ldi	r22, 0x08	; 8
 c16:	70 e0       	ldi	r23, 0x00	; 0
 c18:	80 e0       	ldi	r24, 0x00	; 0
 c1a:	91 e0       	ldi	r25, 0x01	; 1
 c1c:	0e 94 67 00 	call	0xce	; 0xce <fdct>
/home/becker/async/autosafe/trunk/tum/wcet-cbmc/benchmarks/fdct/fdct.c:243
 c20:	80 91 00 01 	lds	r24, 0x0100
 c24:	90 91 01 01 	lds	r25, 0x0101
/home/becker/async/autosafe/trunk/tum/wcet-cbmc/benchmarks/fdct/fdct.c:244
 c28:	df 91       	pop	r29
 c2a:	cf 91       	pop	r28
 c2c:	08 95       	ret

00000c2e <_exit>:
__bad_interrupt():
../../../../crt1/gcrt1.S:195
 c2e:	f8 94       	cli

00000c30 <__stop_program>:
 c30:	ff cf       	rjmp	.-2      	; 0xc30 <__stop_program>
