
autopilot.elf:     file format elf32-avr


Disassembly of section .text:

00000000 <__vectors>:
__vectors():
       0:	0c 94 7e 00 	jmp	0xfc	; 0xfc <__ctors_end>
       4:	0c 94 9d 00 	jmp	0x13a	; 0x13a <__bad_interrupt>
       8:	0c 94 9d 00 	jmp	0x13a	; 0x13a <__bad_interrupt>
       c:	0c 94 9d 00 	jmp	0x13a	; 0x13a <__bad_interrupt>
      10:	0c 94 9d 00 	jmp	0x13a	; 0x13a <__bad_interrupt>
      14:	0c 94 6e 23 	jmp	0x46dc	; 0x46dc <__vector_5>
      18:	0c 94 9d 00 	jmp	0x13a	; 0x13a <__bad_interrupt>
      1c:	0c 94 9d 00 	jmp	0x13a	; 0x13a <__bad_interrupt>
      20:	0c 94 9d 00 	jmp	0x13a	; 0x13a <__bad_interrupt>
      24:	0c 94 9d 00 	jmp	0x13a	; 0x13a <__bad_interrupt>
      28:	0c 94 9d 00 	jmp	0x13a	; 0x13a <__bad_interrupt>
      2c:	0c 94 9d 00 	jmp	0x13a	; 0x13a <__bad_interrupt>
      30:	0c 94 f4 23 	jmp	0x47e8	; 0x47e8 <__vector_12>
      34:	0c 94 9d 00 	jmp	0x13a	; 0x13a <__bad_interrupt>
      38:	0c 94 9d 00 	jmp	0x13a	; 0x13a <__bad_interrupt>
      3c:	0c 94 9d 00 	jmp	0x13a	; 0x13a <__bad_interrupt>
      40:	0c 94 9d 00 	jmp	0x13a	; 0x13a <__bad_interrupt>
      44:	0c 94 59 24 	jmp	0x48b2	; 0x48b2 <__vector_17>
      48:	0c 94 9d 00 	jmp	0x13a	; 0x13a <__bad_interrupt>
      4c:	0c 94 9d 00 	jmp	0x13a	; 0x13a <__bad_interrupt>
      50:	0c 94 31 3a 	jmp	0x7462	; 0x7462 <__vector_20>
      54:	0c 94 a6 24 	jmp	0x494c	; 0x494c <__vector_21>
      58:	0c 94 9d 00 	jmp	0x13a	; 0x13a <__bad_interrupt>
      5c:	0c 94 9d 00 	jmp	0x13a	; 0x13a <__bad_interrupt>
      60:	0c 94 9d 00 	jmp	0x13a	; 0x13a <__bad_interrupt>
      64:	0c 94 9d 00 	jmp	0x13a	; 0x13a <__bad_interrupt>
      68:	0c 94 9d 00 	jmp	0x13a	; 0x13a <__bad_interrupt>
      6c:	0c 94 9d 00 	jmp	0x13a	; 0x13a <__bad_interrupt>
      70:	0c 94 9d 00 	jmp	0x13a	; 0x13a <__bad_interrupt>
      74:	0c 94 9d 00 	jmp	0x13a	; 0x13a <__bad_interrupt>
      78:	0c 94 17 26 	jmp	0x4c2e	; 0x4c2e <__vector_30>
      7c:	0c 94 9d 00 	jmp	0x13a	; 0x13a <__bad_interrupt>
      80:	0c 94 5b 3a 	jmp	0x74b6	; 0x74b6 <__vector_32>
      84:	0c 94 9d 00 	jmp	0x13a	; 0x13a <__bad_interrupt>
      88:	0c 94 9d 00 	jmp	0x13a	; 0x13a <__bad_interrupt>
      8c:	5d 26       	eor	r5, r29
      8e:	63 26       	eor	r6, r19
      90:	6d 26       	eor	r6, r29
      92:	78 26       	eor	r7, r24
      94:	7e 26       	eor	r7, r30
      96:	88 26       	eor	r8, r24
      98:	9c 26       	eor	r9, r28
      9a:	3f 26       	eor	r3, r31
      9c:	55 26       	eor	r5, r21
      9e:	48 32       	cpi	r20, 0x28	; 40
      a0:	61 32       	cpi	r22, 0x21	; 33
      a2:	54 32       	cpi	r21, 0x24	; 36
      a4:	8c 32       	cpi	r24, 0x2C	; 44
      a6:	77 32       	cpi	r23, 0x27	; 39
      a8:	82 32       	cpi	r24, 0x22	; 34
      aa:	6c 32       	cpi	r22, 0x2C	; 44
      ac:	48 32       	cpi	r20, 0x28	; 40
      ae:	4a 32       	cpi	r20, 0x2A	; 42
      b0:	08 4a       	sbci	r16, 0xA8	; 168
      b2:	d7 3b       	cpi	r29, 0xB7	; 183
      b4:	3b ce       	rjmp	.-906    	; 0xfffffd2c <__eeprom_end+0xff7efd2c>
      b6:	01 6e       	ori	r16, 0xE1	; 225
      b8:	84 bc       	out	0x24, r8	; 36
      ba:	bf fd       	.word	0xfdbf	; ????
      bc:	c1 2f       	mov	r28, r17
      be:	3d 6c       	ori	r19, 0xCD	; 205
      c0:	74 31       	cpi	r23, 0x14	; 20
      c2:	9a bd       	out	0x2a, r25	; 42
      c4:	56 83       	std	Z+6, r21	; 0x06
      c6:	3d da       	rcall	.-2950   	; 0xfffff542 <__eeprom_end+0xff7ef542>
      c8:	3d 00       	.word	0x003d	; ????
      ca:	c7 7f       	andi	r28, 0xF7	; 247
      cc:	11 be       	out	0x31, r1	; 49
      ce:	d9 e4       	ldi	r29, 0x49	; 73
      d0:	bb 4c       	sbci	r27, 0xCB	; 203
      d2:	3e 91       	ld	r19, -X
      d4:	6b aa       	std	Y+51, r6	; 0x33
      d6:	aa be       	out	0x3a, r10	; 58
      d8:	00 00       	nop
      da:	00 80       	ld	r0, Z
      dc:	3f 05       	cpc	r19, r15
      de:	a8 4c       	sbci	r26, 0xC8	; 200
      e0:	cd b2       	in	r12, 0x1d	; 29
      e2:	d4 4e       	sbci	r29, 0xE4	; 228
      e4:	b9 38       	cpi	r27, 0x89	; 137
      e6:	36 a9       	ldd	r19, Z+54	; 0x36
      e8:	02 0c       	add	r0, r2
      ea:	50 b9       	out	0x00, r21	; 0
      ec:	91 86       	std	Z+9, r9	; 0x09
      ee:	88 08       	sbc	r8, r8
      f0:	3c a6       	std	Y+44, r3	; 0x2c
      f2:	aa aa       	std	Y+50, r10	; 0x32
      f4:	2a be       	out	0x3a, r2	; 58
      f6:	00 00       	nop
      f8:	00 80       	ld	r0, Z
      fa:	3f 00       	.word	0x003f	; ????

000000fc <__ctors_end>:
__trampolines_start():
      fc:	11 24       	eor	r1, r1
      fe:	1f be       	out	0x3f, r1	; 63
     100:	cf ef       	ldi	r28, 0xFF	; 255
     102:	d0 e1       	ldi	r29, 0x10	; 16
     104:	de bf       	out	0x3e, r29	; 62
     106:	cd bf       	out	0x3d, r28	; 61

00000108 <__do_copy_data>:
__do_copy_data():
     108:	11 e0       	ldi	r17, 0x01	; 1
     10a:	a0 e0       	ldi	r26, 0x00	; 0
     10c:	b1 e0       	ldi	r27, 0x01	; 1
     10e:	e2 e2       	ldi	r30, 0x22	; 34
     110:	f6 e8       	ldi	r31, 0x86	; 134
     112:	00 e0       	ldi	r16, 0x00	; 0
     114:	0b bf       	out	0x3b, r16	; 59
     116:	02 c0       	rjmp	.+4      	; 0x11c <__do_copy_data+0x14>
     118:	07 90       	elpm	r0, Z+
     11a:	0d 92       	st	X+, r0
     11c:	a4 3c       	cpi	r26, 0xC4	; 196
     11e:	b1 07       	cpc	r27, r17
     120:	d9 f7       	brne	.-10     	; 0x118 <__do_copy_data+0x10>

00000122 <__do_clear_bss>:
__do_clear_bss():
     122:	27 e0       	ldi	r18, 0x07	; 7
     124:	a4 ec       	ldi	r26, 0xC4	; 196
     126:	b1 e0       	ldi	r27, 0x01	; 1
     128:	01 c0       	rjmp	.+2      	; 0x12c <.do_clear_bss_start>

0000012a <.do_clear_bss_loop>:
     12a:	1d 92       	st	X+, r1

0000012c <.do_clear_bss_start>:
     12c:	ae 3d       	cpi	r26, 0xDE	; 222
     12e:	b2 07       	cpc	r27, r18
     130:	e1 f7       	brne	.-8      	; 0x12a <.do_clear_bss_loop>
.do_clear_bss_start():
     132:	0e 94 39 3f 	call	0x7e72	; 0x7e72 <main>
     136:	0c 94 0f 43 	jmp	0x861e	; 0x861e <_exit>

0000013a <__bad_interrupt>:
__vector_22():
     13a:	0c 94 00 00 	jmp	0	; 0x0 <__vectors>

0000013e <ground_calibrate>:
ground_calibrate():
     13e:	80 91 d5 01 	lds	r24, 0x01D5
     142:	88 23       	and	r24, r24
     144:	71 f0       	breq	.+28     	; 0x162 <ground_calibrate+0x24>
     146:	81 30       	cpi	r24, 0x01	; 1
     148:	59 f4       	brne	.+22     	; 0x160 <ground_calibrate+0x22>
     14a:	80 91 14 07 	lds	r24, 0x0714
     14e:	90 91 15 07 	lds	r25, 0x0715
     152:	80 54       	subi	r24, 0x40	; 64
     154:	9d 4e       	sbci	r25, 0xED	; 237
     156:	81 34       	cpi	r24, 0x41	; 65
     158:	9f 41       	sbci	r25, 0x1F	; 31
     15a:	08 f0       	brcs	.+2      	; 0x15e <ground_calibrate+0x20>
     15c:	46 c0       	rjmp	.+140    	; 0x1ea <ground_calibrate+0xac>
     15e:	08 95       	ret
     160:	08 95       	ret
     162:	80 91 d9 01 	lds	r24, 0x01D9
     166:	90 91 da 01 	lds	r25, 0x01DA
     16a:	0a 97       	sbiw	r24, 0x0a	; 10
     16c:	c0 f7       	brcc	.-16     	; 0x15e <ground_calibrate+0x20>
     16e:	80 91 c8 01 	lds	r24, 0x01C8
     172:	81 30       	cpi	r24, 0x01	; 1
     174:	a1 f7       	brne	.-24     	; 0x15e <ground_calibrate+0x20>
     176:	80 93 d5 01 	sts	0x01D5, r24
     17a:	40 91 f9 05 	lds	r20, 0x05F9
     17e:	80 91 fa 05 	lds	r24, 0x05FA
     182:	20 91 fa 05 	lds	r18, 0x05FA
     186:	30 e0       	ldi	r19, 0x00	; 0
     188:	48 17       	cp	r20, r24
     18a:	08 f0       	brcs	.+2      	; 0x18e <ground_calibrate+0x50>
     18c:	a9 c1       	rjmp	.+850    	; 0x4e0 <ground_calibrate+0x3a2>
     18e:	84 2f       	mov	r24, r20
     190:	90 e0       	ldi	r25, 0x00	; 0
     192:	28 1b       	sub	r18, r24
     194:	39 0b       	sbc	r19, r25
     196:	25 30       	cpi	r18, 0x05	; 5
     198:	31 05       	cpc	r19, r1
     19a:	0c f4       	brge	.+2      	; 0x19e <ground_calibrate+0x60>
     19c:	c2 c0       	rjmp	.+388    	; 0x322 <ground_calibrate+0x1e4>
     19e:	fc 01       	movw	r30, r24
     1a0:	e4 50       	subi	r30, 0x04	; 4
     1a2:	fa 4f       	sbci	r31, 0xFA	; 250
     1a4:	25 e0       	ldi	r18, 0x05	; 5
     1a6:	20 83       	st	Z, r18
     1a8:	e1 e0       	ldi	r30, 0x01	; 1
     1aa:	e4 0f       	add	r30, r20
     1ac:	ef 3f       	cpi	r30, 0xFF	; 255
     1ae:	09 f4       	brne	.+2      	; 0x1b2 <ground_calibrate+0x74>
     1b0:	21 c3       	rjmp	.+1602   	; 0x7f4 <ground_calibrate+0x6b6>
     1b2:	f0 e0       	ldi	r31, 0x00	; 0
     1b4:	e4 50       	subi	r30, 0x04	; 4
     1b6:	fa 4f       	sbci	r31, 0xFA	; 250
     1b8:	82 e0       	ldi	r24, 0x02	; 2
     1ba:	80 83       	st	Z, r24
     1bc:	e2 e0       	ldi	r30, 0x02	; 2
     1be:	e4 0f       	add	r30, r20
     1c0:	ef 3f       	cpi	r30, 0xFF	; 255
     1c2:	09 f4       	brne	.+2      	; 0x1c6 <ground_calibrate+0x88>
     1c4:	67 c2       	rjmp	.+1230   	; 0x694 <ground_calibrate+0x556>
     1c6:	4d 5f       	subi	r20, 0xFD	; 253
     1c8:	80 93 fb 06 	sts	0x06FB, r24
     1cc:	80 93 f6 05 	sts	0x05F6, r24
     1d0:	f0 e0       	ldi	r31, 0x00	; 0
     1d2:	e4 50       	subi	r30, 0x04	; 4
     1d4:	fa 4f       	sbci	r31, 0xFA	; 250
     1d6:	80 83       	st	Z, r24
     1d8:	4f 3f       	cpi	r20, 0xFF	; 255
     1da:	09 f0       	breq	.+2      	; 0x1de <ground_calibrate+0xa0>
     1dc:	66 c2       	rjmp	.+1228   	; 0x6aa <ground_calibrate+0x56c>
     1de:	80 93 fc 05 	sts	0x05FC, r24
     1e2:	81 e0       	ldi	r24, 0x01	; 1
     1e4:	80 93 f9 05 	sts	0x05F9, r24
     1e8:	74 c0       	rjmp	.+232    	; 0x2d2 <ground_calibrate+0x194>
     1ea:	0e 94 08 27 	call	0x4e10	; 0x4e10 <ir_gain_calib>
     1ee:	80 91 03 01 	lds	r24, 0x0103
     1f2:	90 91 04 01 	lds	r25, 0x0104
     1f6:	a0 91 05 01 	lds	r26, 0x0105
     1fa:	b0 91 06 01 	lds	r27, 0x0106
     1fe:	80 93 aa 07 	sts	0x07AA, r24
     202:	90 93 ab 07 	sts	0x07AB, r25
     206:	a0 93 ac 07 	sts	0x07AC, r26
     20a:	b0 93 ad 07 	sts	0x07AD, r27
     20e:	40 91 f9 05 	lds	r20, 0x05F9
     212:	80 91 fa 05 	lds	r24, 0x05FA
     216:	20 91 fa 05 	lds	r18, 0x05FA
     21a:	48 17       	cp	r20, r24
     21c:	08 f4       	brcc	.+2      	; 0x220 <ground_calibrate+0xe2>
     21e:	87 c0       	rjmp	.+270    	; 0x32e <ground_calibrate+0x1f0>
     220:	84 2f       	mov	r24, r20
     222:	90 e0       	ldi	r25, 0x00	; 0
     224:	30 e0       	ldi	r19, 0x00	; 0
     226:	28 1b       	sub	r18, r24
     228:	39 0b       	sbc	r19, r25
     22a:	26 31       	cpi	r18, 0x16	; 22
     22c:	3f 4f       	sbci	r19, 0xFF	; 255
     22e:	0c f0       	brlt	.+2      	; 0x232 <ground_calibrate+0xf4>
     230:	87 c0       	rjmp	.+270    	; 0x340 <ground_calibrate+0x202>
     232:	20 91 f7 05 	lds	r18, 0x05F7
     236:	2f 5f       	subi	r18, 0xFF	; 255
     238:	20 93 f7 05 	sts	0x05F7, r18
     23c:	22 e0       	ldi	r18, 0x02	; 2
     23e:	20 93 d5 01 	sts	0x01D5, r18
     242:	20 91 fa 05 	lds	r18, 0x05FA
     246:	42 17       	cp	r20, r18
     248:	08 f4       	brcc	.+2      	; 0x24c <ground_calibrate+0x10e>
     24a:	62 c0       	rjmp	.+196    	; 0x310 <ground_calibrate+0x1d2>
     24c:	20 91 fa 05 	lds	r18, 0x05FA
     250:	30 e0       	ldi	r19, 0x00	; 0
     252:	28 1b       	sub	r18, r24
     254:	39 0b       	sbc	r19, r25
     256:	28 30       	cpi	r18, 0x08	; 8
     258:	3f 4f       	sbci	r19, 0xFF	; 255
     25a:	0c f4       	brge	.+2      	; 0x25e <ground_calibrate+0x120>
     25c:	62 c0       	rjmp	.+196    	; 0x322 <ground_calibrate+0x1e4>
     25e:	fc 01       	movw	r30, r24
     260:	e4 50       	subi	r30, 0x04	; 4
     262:	fa 4f       	sbci	r31, 0xFA	; 250
     264:	25 e0       	ldi	r18, 0x05	; 5
     266:	20 83       	st	Z, r18
     268:	e1 e0       	ldi	r30, 0x01	; 1
     26a:	e4 0f       	add	r30, r20
     26c:	ef 3f       	cpi	r30, 0xFF	; 255
     26e:	09 f4       	brne	.+2      	; 0x272 <ground_calibrate+0x134>
     270:	40 c1       	rjmp	.+640    	; 0x4f2 <ground_calibrate+0x3b4>
     272:	f0 e0       	ldi	r31, 0x00	; 0
     274:	e4 50       	subi	r30, 0x04	; 4
     276:	fa 4f       	sbci	r31, 0xFA	; 250
     278:	83 e0       	ldi	r24, 0x03	; 3
     27a:	80 83       	st	Z, r24
     27c:	a2 e0       	ldi	r26, 0x02	; 2
     27e:	a4 0f       	add	r26, r20
     280:	af 3f       	cpi	r26, 0xFF	; 255
     282:	09 f4       	brne	.+2      	; 0x286 <ground_calibrate+0x148>
     284:	af c2       	rjmp	.+1374   	; 0x7e4 <ground_calibrate+0x6a6>
     286:	4d 5f       	subi	r20, 0xFD	; 253
     288:	80 91 0b 01 	lds	r24, 0x010B
     28c:	b0 e0       	ldi	r27, 0x00	; 0
     28e:	a4 50       	subi	r26, 0x04	; 4
     290:	ba 4f       	sbci	r27, 0xFA	; 250
     292:	8c 93       	st	X, r24
     294:	93 e0       	ldi	r25, 0x03	; 3
     296:	98 0f       	add	r25, r24
     298:	8a 5f       	subi	r24, 0xFA	; 250
     29a:	4f 3f       	cpi	r20, 0xFF	; 255
     29c:	09 f0       	breq	.+2      	; 0x2a0 <ground_calibrate+0x162>
     29e:	37 c1       	rjmp	.+622    	; 0x50e <ground_calibrate+0x3d0>
     2a0:	20 91 0c 01 	lds	r18, 0x010C
     2a4:	20 93 fc 05 	sts	0x05FC, r18
     2a8:	92 0f       	add	r25, r18
     2aa:	90 93 fb 06 	sts	0x06FB, r25
     2ae:	89 0f       	add	r24, r25
     2b0:	80 93 f6 05 	sts	0x05F6, r24
     2b4:	90 93 fd 05 	sts	0x05FD, r25
     2b8:	42 e0       	ldi	r20, 0x02	; 2
     2ba:	91 e0       	ldi	r25, 0x01	; 1
     2bc:	94 0f       	add	r25, r20
     2be:	e4 2f       	mov	r30, r20
     2c0:	f0 e0       	ldi	r31, 0x00	; 0
     2c2:	e4 50       	subi	r30, 0x04	; 4
     2c4:	fa 4f       	sbci	r31, 0xFA	; 250
     2c6:	80 83       	st	Z, r24
     2c8:	9f 3f       	cpi	r25, 0xFF	; 255
     2ca:	09 f0       	breq	.+2      	; 0x2ce <ground_calibrate+0x190>
     2cc:	88 c2       	rjmp	.+1296   	; 0x7de <ground_calibrate+0x6a0>
     2ce:	10 92 f9 05 	sts	0x05F9, r1
     2d2:	09 b6       	in	r0, 0x39	; 57
     2d4:	04 fc       	sbrc	r0, 4
     2d6:	43 cf       	rjmp	.-378    	; 0x15e <ground_calibrate+0x20>
     2d8:	e0 91 fa 05 	lds	r30, 0x05FA
     2dc:	f0 e0       	ldi	r31, 0x00	; 0
     2de:	e4 50       	subi	r30, 0x04	; 4
     2e0:	fa 4f       	sbci	r31, 0xFA	; 250
     2e2:	80 81       	ld	r24, Z
     2e4:	80 93 f8 05 	sts	0x05F8, r24
     2e8:	10 92 fb 05 	sts	0x05FB, r1
     2ec:	80 91 fa 05 	lds	r24, 0x05FA
     2f0:	8f 5f       	subi	r24, 0xFF	; 255
     2f2:	80 93 fa 05 	sts	0x05FA, r24
     2f6:	80 91 fa 05 	lds	r24, 0x05FA
     2fa:	8f 3f       	cpi	r24, 0xFF	; 255
     2fc:	11 f4       	brne	.+4      	; 0x302 <ground_calibrate+0x1c4>
     2fe:	10 92 fa 05 	sts	0x05FA, r1
     302:	88 b7       	in	r24, 0x38	; 56
     304:	81 60       	ori	r24, 0x01	; 1
     306:	88 bf       	out	0x38, r24	; 56
     308:	89 b7       	in	r24, 0x39	; 57
     30a:	80 61       	ori	r24, 0x10	; 16
     30c:	89 bf       	out	0x39, r24	; 57
     30e:	08 95       	ret
     310:	20 91 fa 05 	lds	r18, 0x05FA
     314:	30 e0       	ldi	r19, 0x00	; 0
     316:	28 1b       	sub	r18, r24
     318:	39 0b       	sbc	r19, r25
     31a:	27 30       	cpi	r18, 0x07	; 7
     31c:	31 05       	cpc	r19, r1
     31e:	0c f0       	brlt	.+2      	; 0x322 <ground_calibrate+0x1e4>
     320:	9e cf       	rjmp	.-196    	; 0x25e <ground_calibrate+0x120>
     322:	80 91 f7 05 	lds	r24, 0x05F7
     326:	8f 5f       	subi	r24, 0xFF	; 255
     328:	80 93 f7 05 	sts	0x05F7, r24
     32c:	08 95       	ret
     32e:	84 2f       	mov	r24, r20
     330:	90 e0       	ldi	r25, 0x00	; 0
     332:	30 e0       	ldi	r19, 0x00	; 0
     334:	28 1b       	sub	r18, r24
     336:	39 0b       	sbc	r19, r25
     338:	25 31       	cpi	r18, 0x15	; 21
     33a:	31 05       	cpc	r19, r1
     33c:	0c f4       	brge	.+2      	; 0x340 <ground_calibrate+0x202>
     33e:	79 cf       	rjmp	.-270    	; 0x232 <ground_calibrate+0xf4>
     340:	fc 01       	movw	r30, r24
     342:	e4 50       	subi	r30, 0x04	; 4
     344:	fa 4f       	sbci	r31, 0xFA	; 250
     346:	25 e0       	ldi	r18, 0x05	; 5
     348:	20 83       	st	Z, r18
     34a:	e1 e0       	ldi	r30, 0x01	; 1
     34c:	e4 0f       	add	r30, r20
     34e:	ef 3f       	cpi	r30, 0xFF	; 255
     350:	09 f4       	brne	.+2      	; 0x354 <ground_calibrate+0x216>
     352:	f8 c0       	rjmp	.+496    	; 0x544 <ground_calibrate+0x406>
     354:	f0 e0       	ldi	r31, 0x00	; 0
     356:	e4 50       	subi	r30, 0x04	; 4
     358:	fa 4f       	sbci	r31, 0xFA	; 250
     35a:	20 83       	st	Z, r18
     35c:	a2 e0       	ldi	r26, 0x02	; 2
     35e:	a4 0f       	add	r26, r20
     360:	af 3f       	cpi	r26, 0xFF	; 255
     362:	09 f4       	brne	.+2      	; 0x366 <ground_calibrate+0x228>
     364:	43 c2       	rjmp	.+1158   	; 0x7ec <ground_calibrate+0x6ae>
     366:	4d 5f       	subi	r20, 0xFD	; 253
     368:	80 91 b2 07 	lds	r24, 0x07B2
     36c:	b0 e0       	ldi	r27, 0x00	; 0
     36e:	a4 50       	subi	r26, 0x04	; 4
     370:	ba 4f       	sbci	r27, 0xFA	; 250
     372:	8c 93       	st	X, r24
     374:	95 e0       	ldi	r25, 0x05	; 5
     376:	98 0f       	add	r25, r24
     378:	86 5f       	subi	r24, 0xF6	; 246
     37a:	4f 3f       	cpi	r20, 0xFF	; 255
     37c:	09 f0       	breq	.+2      	; 0x380 <ground_calibrate+0x242>
     37e:	ef c0       	rjmp	.+478    	; 0x55e <ground_calibrate+0x420>
     380:	20 91 b3 07 	lds	r18, 0x07B3
     384:	20 93 fc 05 	sts	0x05FC, r18
     388:	92 0f       	add	r25, r18
     38a:	89 0f       	add	r24, r25
     38c:	20 91 b4 07 	lds	r18, 0x07B4
     390:	20 93 fd 05 	sts	0x05FD, r18
     394:	92 0f       	add	r25, r18
     396:	89 0f       	add	r24, r25
     398:	42 e0       	ldi	r20, 0x02	; 2
     39a:	a1 e0       	ldi	r26, 0x01	; 1
     39c:	a4 0f       	add	r26, r20
     39e:	20 91 b5 07 	lds	r18, 0x07B5
     3a2:	e4 2f       	mov	r30, r20
     3a4:	f0 e0       	ldi	r31, 0x00	; 0
     3a6:	e4 50       	subi	r30, 0x04	; 4
     3a8:	fa 4f       	sbci	r31, 0xFA	; 250
     3aa:	20 83       	st	Z, r18
     3ac:	92 0f       	add	r25, r18
     3ae:	89 0f       	add	r24, r25
     3b0:	af 3f       	cpi	r26, 0xFF	; 255
     3b2:	09 f0       	breq	.+2      	; 0x3b6 <ground_calibrate+0x278>
     3b4:	94 c1       	rjmp	.+808    	; 0x6de <ground_calibrate+0x5a0>
     3b6:	20 91 ca 07 	lds	r18, 0x07CA
     3ba:	20 93 fc 05 	sts	0x05FC, r18
     3be:	92 0f       	add	r25, r18
     3c0:	89 0f       	add	r24, r25
     3c2:	20 91 cb 07 	lds	r18, 0x07CB
     3c6:	20 93 fd 05 	sts	0x05FD, r18
     3ca:	92 0f       	add	r25, r18
     3cc:	89 0f       	add	r24, r25
     3ce:	a2 e0       	ldi	r26, 0x02	; 2
     3d0:	e1 e0       	ldi	r30, 0x01	; 1
     3d2:	ea 0f       	add	r30, r26
     3d4:	20 91 cc 07 	lds	r18, 0x07CC
     3d8:	b0 e0       	ldi	r27, 0x00	; 0
     3da:	a4 50       	subi	r26, 0x04	; 4
     3dc:	ba 4f       	sbci	r27, 0xFA	; 250
     3de:	2c 93       	st	X, r18
     3e0:	92 0f       	add	r25, r18
     3e2:	89 0f       	add	r24, r25
     3e4:	ef 3f       	cpi	r30, 0xFF	; 255
     3e6:	09 f0       	breq	.+2      	; 0x3ea <ground_calibrate+0x2ac>
     3e8:	94 c1       	rjmp	.+808    	; 0x712 <ground_calibrate+0x5d4>
     3ea:	20 91 cd 07 	lds	r18, 0x07CD
     3ee:	20 93 fc 05 	sts	0x05FC, r18
     3f2:	92 0f       	add	r25, r18
     3f4:	89 0f       	add	r24, r25
     3f6:	20 91 aa 07 	lds	r18, 0x07AA
     3fa:	20 93 fd 05 	sts	0x05FD, r18
     3fe:	92 0f       	add	r25, r18
     400:	89 0f       	add	r24, r25
     402:	e2 e0       	ldi	r30, 0x02	; 2
     404:	a1 e0       	ldi	r26, 0x01	; 1
     406:	ae 0f       	add	r26, r30
     408:	20 91 ab 07 	lds	r18, 0x07AB
     40c:	f0 e0       	ldi	r31, 0x00	; 0
     40e:	e4 50       	subi	r30, 0x04	; 4
     410:	fa 4f       	sbci	r31, 0xFA	; 250
     412:	20 83       	st	Z, r18
     414:	92 0f       	add	r25, r18
     416:	89 0f       	add	r24, r25
     418:	af 3f       	cpi	r26, 0xFF	; 255
     41a:	09 f0       	breq	.+2      	; 0x41e <ground_calibrate+0x2e0>
     41c:	94 c1       	rjmp	.+808    	; 0x746 <ground_calibrate+0x608>
     41e:	20 91 ac 07 	lds	r18, 0x07AC
     422:	20 93 fc 05 	sts	0x05FC, r18
     426:	92 0f       	add	r25, r18
     428:	89 0f       	add	r24, r25
     42a:	20 91 ad 07 	lds	r18, 0x07AD
     42e:	20 93 fd 05 	sts	0x05FD, r18
     432:	92 0f       	add	r25, r18
     434:	89 0f       	add	r24, r25
     436:	a2 e0       	ldi	r26, 0x02	; 2
     438:	e1 e0       	ldi	r30, 0x01	; 1
     43a:	ea 0f       	add	r30, r26
     43c:	20 91 09 01 	lds	r18, 0x0109
     440:	b0 e0       	ldi	r27, 0x00	; 0
     442:	a4 50       	subi	r26, 0x04	; 4
     444:	ba 4f       	sbci	r27, 0xFA	; 250
     446:	2c 93       	st	X, r18
     448:	92 0f       	add	r25, r18
     44a:	89 0f       	add	r24, r25
     44c:	ef 3f       	cpi	r30, 0xFF	; 255
     44e:	09 f0       	breq	.+2      	; 0x452 <ground_calibrate+0x314>
     450:	94 c1       	rjmp	.+808    	; 0x77a <ground_calibrate+0x63c>
     452:	20 91 0a 01 	lds	r18, 0x010A
     456:	20 93 fc 05 	sts	0x05FC, r18
     45a:	92 0f       	add	r25, r18
     45c:	89 0f       	add	r24, r25
     45e:	20 91 07 01 	lds	r18, 0x0107
     462:	20 93 fd 05 	sts	0x05FD, r18
     466:	92 0f       	add	r25, r18
     468:	89 0f       	add	r24, r25
     46a:	e2 e0       	ldi	r30, 0x02	; 2
     46c:	a1 e0       	ldi	r26, 0x01	; 1
     46e:	ae 0f       	add	r26, r30
     470:	20 91 08 01 	lds	r18, 0x0108
     474:	f0 e0       	ldi	r31, 0x00	; 0
     476:	e4 50       	subi	r30, 0x04	; 4
     478:	fa 4f       	sbci	r31, 0xFA	; 250
     47a:	20 83       	st	Z, r18
     47c:	92 0f       	add	r25, r18
     47e:	90 93 fb 06 	sts	0x06FB, r25
     482:	89 0f       	add	r24, r25
     484:	80 93 f6 05 	sts	0x05F6, r24
     488:	af 3f       	cpi	r26, 0xFF	; 255
     48a:	09 f0       	breq	.+2      	; 0x48e <ground_calibrate+0x350>
     48c:	94 c1       	rjmp	.+808    	; 0x7b6 <ground_calibrate+0x678>
     48e:	90 93 fc 05 	sts	0x05FC, r25
     492:	80 93 fd 05 	sts	0x05FD, r24
     496:	92 e0       	ldi	r25, 0x02	; 2
     498:	90 93 f9 05 	sts	0x05F9, r25
     49c:	09 b6       	in	r0, 0x39	; 57
     49e:	04 fc       	sbrc	r0, 4
     4a0:	1a c0       	rjmp	.+52     	; 0x4d6 <ground_calibrate+0x398>
     4a2:	e0 91 fa 05 	lds	r30, 0x05FA
     4a6:	f0 e0       	ldi	r31, 0x00	; 0
     4a8:	e4 50       	subi	r30, 0x04	; 4
     4aa:	fa 4f       	sbci	r31, 0xFA	; 250
     4ac:	80 81       	ld	r24, Z
     4ae:	80 93 f8 05 	sts	0x05F8, r24
     4b2:	10 92 fb 05 	sts	0x05FB, r1
     4b6:	80 91 fa 05 	lds	r24, 0x05FA
     4ba:	8f 5f       	subi	r24, 0xFF	; 255
     4bc:	80 93 fa 05 	sts	0x05FA, r24
     4c0:	80 91 fa 05 	lds	r24, 0x05FA
     4c4:	8f 3f       	cpi	r24, 0xFF	; 255
     4c6:	09 f4       	brne	.+2      	; 0x4ca <ground_calibrate+0x38c>
     4c8:	9c c1       	rjmp	.+824    	; 0x802 <ground_calibrate+0x6c4>
     4ca:	88 b7       	in	r24, 0x38	; 56
     4cc:	81 60       	ori	r24, 0x01	; 1
     4ce:	88 bf       	out	0x38, r24	; 56
     4d0:	89 b7       	in	r24, 0x39	; 57
     4d2:	80 61       	ori	r24, 0x10	; 16
     4d4:	89 bf       	out	0x39, r24	; 57
     4d6:	40 91 f9 05 	lds	r20, 0x05F9
     4da:	84 2f       	mov	r24, r20
     4dc:	90 e0       	ldi	r25, 0x00	; 0
     4de:	ae ce       	rjmp	.-676    	; 0x23c <ground_calibrate+0xfe>
     4e0:	84 2f       	mov	r24, r20
     4e2:	90 e0       	ldi	r25, 0x00	; 0
     4e4:	28 1b       	sub	r18, r24
     4e6:	39 0b       	sbc	r19, r25
     4e8:	26 30       	cpi	r18, 0x06	; 6
     4ea:	3f 4f       	sbci	r19, 0xFF	; 255
     4ec:	0c f0       	brlt	.+2      	; 0x4f0 <ground_calibrate+0x3b2>
     4ee:	57 ce       	rjmp	.-850    	; 0x19e <ground_calibrate+0x60>
     4f0:	18 cf       	rjmp	.-464    	; 0x322 <ground_calibrate+0x1e4>
     4f2:	83 e0       	ldi	r24, 0x03	; 3
     4f4:	80 93 fc 05 	sts	0x05FC, r24
     4f8:	42 e0       	ldi	r20, 0x02	; 2
     4fa:	a1 e0       	ldi	r26, 0x01	; 1
     4fc:	b0 e0       	ldi	r27, 0x00	; 0
     4fe:	80 91 0b 01 	lds	r24, 0x010B
     502:	a4 50       	subi	r26, 0x04	; 4
     504:	ba 4f       	sbci	r27, 0xFA	; 250
     506:	8c 93       	st	X, r24
     508:	93 e0       	ldi	r25, 0x03	; 3
     50a:	98 0f       	add	r25, r24
     50c:	8a 5f       	subi	r24, 0xFA	; 250
     50e:	20 91 0c 01 	lds	r18, 0x010C
     512:	e4 2f       	mov	r30, r20
     514:	f0 e0       	ldi	r31, 0x00	; 0
     516:	e4 50       	subi	r30, 0x04	; 4
     518:	fa 4f       	sbci	r31, 0xFA	; 250
     51a:	20 83       	st	Z, r18
     51c:	92 0f       	add	r25, r18
     51e:	90 93 fb 06 	sts	0x06FB, r25
     522:	89 0f       	add	r24, r25
     524:	80 93 f6 05 	sts	0x05F6, r24
     528:	a1 e0       	ldi	r26, 0x01	; 1
     52a:	a4 0f       	add	r26, r20
     52c:	af 3f       	cpi	r26, 0xFF	; 255
     52e:	09 f4       	brne	.+2      	; 0x532 <ground_calibrate+0x3f4>
     530:	51 c1       	rjmp	.+674    	; 0x7d4 <ground_calibrate+0x696>
     532:	4e 5f       	subi	r20, 0xFE	; 254
     534:	b0 e0       	ldi	r27, 0x00	; 0
     536:	a4 50       	subi	r26, 0x04	; 4
     538:	ba 4f       	sbci	r27, 0xFA	; 250
     53a:	9c 93       	st	X, r25
     53c:	4f 3f       	cpi	r20, 0xFF	; 255
     53e:	09 f4       	brne	.+2      	; 0x542 <ground_calibrate+0x404>
     540:	4e ce       	rjmp	.-868    	; 0x1de <ground_calibrate+0xa0>
     542:	bb ce       	rjmp	.-650    	; 0x2ba <ground_calibrate+0x17c>
     544:	20 93 fc 05 	sts	0x05FC, r18
     548:	42 e0       	ldi	r20, 0x02	; 2
     54a:	a1 e0       	ldi	r26, 0x01	; 1
     54c:	b0 e0       	ldi	r27, 0x00	; 0
     54e:	80 91 b2 07 	lds	r24, 0x07B2
     552:	a4 50       	subi	r26, 0x04	; 4
     554:	ba 4f       	sbci	r27, 0xFA	; 250
     556:	8c 93       	st	X, r24
     558:	95 e0       	ldi	r25, 0x05	; 5
     55a:	98 0f       	add	r25, r24
     55c:	86 5f       	subi	r24, 0xF6	; 246
     55e:	20 91 b3 07 	lds	r18, 0x07B3
     562:	e4 2f       	mov	r30, r20
     564:	f0 e0       	ldi	r31, 0x00	; 0
     566:	e4 50       	subi	r30, 0x04	; 4
     568:	fa 4f       	sbci	r31, 0xFA	; 250
     56a:	20 83       	st	Z, r18
     56c:	92 0f       	add	r25, r18
     56e:	89 0f       	add	r24, r25
     570:	a1 e0       	ldi	r26, 0x01	; 1
     572:	a4 0f       	add	r26, r20
     574:	af 3f       	cpi	r26, 0xFF	; 255
     576:	09 f4       	brne	.+2      	; 0x57a <ground_calibrate+0x43c>
     578:	a5 c0       	rjmp	.+330    	; 0x6c4 <ground_calibrate+0x586>
     57a:	4e 5f       	subi	r20, 0xFE	; 254
     57c:	20 91 b4 07 	lds	r18, 0x07B4
     580:	b0 e0       	ldi	r27, 0x00	; 0
     582:	a4 50       	subi	r26, 0x04	; 4
     584:	ba 4f       	sbci	r27, 0xFA	; 250
     586:	2c 93       	st	X, r18
     588:	92 0f       	add	r25, r18
     58a:	89 0f       	add	r24, r25
     58c:	4f 3f       	cpi	r20, 0xFF	; 255
     58e:	09 f0       	breq	.+2      	; 0x592 <ground_calibrate+0x454>
     590:	04 cf       	rjmp	.-504    	; 0x39a <ground_calibrate+0x25c>
     592:	20 91 b5 07 	lds	r18, 0x07B5
     596:	20 93 fc 05 	sts	0x05FC, r18
     59a:	92 0f       	add	r25, r18
     59c:	89 0f       	add	r24, r25
     59e:	20 91 ca 07 	lds	r18, 0x07CA
     5a2:	20 93 fd 05 	sts	0x05FD, r18
     5a6:	92 0f       	add	r25, r18
     5a8:	89 0f       	add	r24, r25
     5aa:	e2 e0       	ldi	r30, 0x02	; 2
     5ac:	a1 e0       	ldi	r26, 0x01	; 1
     5ae:	ae 0f       	add	r26, r30
     5b0:	20 91 cb 07 	lds	r18, 0x07CB
     5b4:	f0 e0       	ldi	r31, 0x00	; 0
     5b6:	e4 50       	subi	r30, 0x04	; 4
     5b8:	fa 4f       	sbci	r31, 0xFA	; 250
     5ba:	20 83       	st	Z, r18
     5bc:	92 0f       	add	r25, r18
     5be:	89 0f       	add	r24, r25
     5c0:	af 3f       	cpi	r26, 0xFF	; 255
     5c2:	09 f0       	breq	.+2      	; 0x5c6 <ground_calibrate+0x488>
     5c4:	05 cf       	rjmp	.-502    	; 0x3d0 <ground_calibrate+0x292>
     5c6:	20 91 cc 07 	lds	r18, 0x07CC
     5ca:	20 93 fc 05 	sts	0x05FC, r18
     5ce:	92 0f       	add	r25, r18
     5d0:	89 0f       	add	r24, r25
     5d2:	20 91 cd 07 	lds	r18, 0x07CD
     5d6:	20 93 fd 05 	sts	0x05FD, r18
     5da:	92 0f       	add	r25, r18
     5dc:	89 0f       	add	r24, r25
     5de:	a2 e0       	ldi	r26, 0x02	; 2
     5e0:	e1 e0       	ldi	r30, 0x01	; 1
     5e2:	ea 0f       	add	r30, r26
     5e4:	20 91 aa 07 	lds	r18, 0x07AA
     5e8:	b0 e0       	ldi	r27, 0x00	; 0
     5ea:	a4 50       	subi	r26, 0x04	; 4
     5ec:	ba 4f       	sbci	r27, 0xFA	; 250
     5ee:	2c 93       	st	X, r18
     5f0:	92 0f       	add	r25, r18
     5f2:	89 0f       	add	r24, r25
     5f4:	ef 3f       	cpi	r30, 0xFF	; 255
     5f6:	09 f0       	breq	.+2      	; 0x5fa <ground_calibrate+0x4bc>
     5f8:	05 cf       	rjmp	.-502    	; 0x404 <ground_calibrate+0x2c6>
     5fa:	20 91 ab 07 	lds	r18, 0x07AB
     5fe:	20 93 fc 05 	sts	0x05FC, r18
     602:	92 0f       	add	r25, r18
     604:	89 0f       	add	r24, r25
     606:	20 91 ac 07 	lds	r18, 0x07AC
     60a:	20 93 fd 05 	sts	0x05FD, r18
     60e:	92 0f       	add	r25, r18
     610:	89 0f       	add	r24, r25
     612:	e2 e0       	ldi	r30, 0x02	; 2
     614:	a1 e0       	ldi	r26, 0x01	; 1
     616:	ae 0f       	add	r26, r30
     618:	20 91 ad 07 	lds	r18, 0x07AD
     61c:	f0 e0       	ldi	r31, 0x00	; 0
     61e:	e4 50       	subi	r30, 0x04	; 4
     620:	fa 4f       	sbci	r31, 0xFA	; 250
     622:	20 83       	st	Z, r18
     624:	92 0f       	add	r25, r18
     626:	89 0f       	add	r24, r25
     628:	af 3f       	cpi	r26, 0xFF	; 255
     62a:	09 f0       	breq	.+2      	; 0x62e <ground_calibrate+0x4f0>
     62c:	05 cf       	rjmp	.-502    	; 0x438 <ground_calibrate+0x2fa>
     62e:	20 91 09 01 	lds	r18, 0x0109
     632:	20 93 fc 05 	sts	0x05FC, r18
     636:	92 0f       	add	r25, r18
     638:	89 0f       	add	r24, r25
     63a:	20 91 0a 01 	lds	r18, 0x010A
     63e:	20 93 fd 05 	sts	0x05FD, r18
     642:	92 0f       	add	r25, r18
     644:	89 0f       	add	r24, r25
     646:	a2 e0       	ldi	r26, 0x02	; 2
     648:	e1 e0       	ldi	r30, 0x01	; 1
     64a:	ea 0f       	add	r30, r26
     64c:	20 91 07 01 	lds	r18, 0x0107
     650:	b0 e0       	ldi	r27, 0x00	; 0
     652:	a4 50       	subi	r26, 0x04	; 4
     654:	ba 4f       	sbci	r27, 0xFA	; 250
     656:	2c 93       	st	X, r18
     658:	92 0f       	add	r25, r18
     65a:	89 0f       	add	r24, r25
     65c:	ef 3f       	cpi	r30, 0xFF	; 255
     65e:	09 f0       	breq	.+2      	; 0x662 <ground_calibrate+0x524>
     660:	05 cf       	rjmp	.-502    	; 0x46c <ground_calibrate+0x32e>
     662:	20 91 08 01 	lds	r18, 0x0108
     666:	20 93 fc 05 	sts	0x05FC, r18
     66a:	92 0f       	add	r25, r18
     66c:	90 93 fb 06 	sts	0x06FB, r25
     670:	89 0f       	add	r24, r25
     672:	80 93 f6 05 	sts	0x05F6, r24
     676:	90 93 fd 05 	sts	0x05FD, r25
     67a:	e2 e0       	ldi	r30, 0x02	; 2
     67c:	91 e0       	ldi	r25, 0x01	; 1
     67e:	9e 0f       	add	r25, r30
     680:	f0 e0       	ldi	r31, 0x00	; 0
     682:	e4 50       	subi	r30, 0x04	; 4
     684:	fa 4f       	sbci	r31, 0xFA	; 250
     686:	80 83       	st	Z, r24
     688:	9f 3f       	cpi	r25, 0xFF	; 255
     68a:	09 f0       	breq	.+2      	; 0x68e <ground_calibrate+0x550>
     68c:	05 cf       	rjmp	.-502    	; 0x498 <ground_calibrate+0x35a>
     68e:	10 92 f9 05 	sts	0x05F9, r1
     692:	04 cf       	rjmp	.-504    	; 0x49c <ground_calibrate+0x35e>
     694:	41 e0       	ldi	r20, 0x01	; 1
     696:	e0 e0       	ldi	r30, 0x00	; 0
     698:	f0 e0       	ldi	r31, 0x00	; 0
     69a:	82 e0       	ldi	r24, 0x02	; 2
     69c:	80 93 fb 06 	sts	0x06FB, r24
     6a0:	80 93 f6 05 	sts	0x05F6, r24
     6a4:	e4 50       	subi	r30, 0x04	; 4
     6a6:	fa 4f       	sbci	r31, 0xFA	; 250
     6a8:	80 83       	st	Z, r24
     6aa:	e4 2f       	mov	r30, r20
     6ac:	f0 e0       	ldi	r31, 0x00	; 0
     6ae:	e4 50       	subi	r30, 0x04	; 4
     6b0:	fa 4f       	sbci	r31, 0xFA	; 250
     6b2:	82 e0       	ldi	r24, 0x02	; 2
     6b4:	80 83       	st	Z, r24
     6b6:	4f 5f       	subi	r20, 0xFF	; 255
     6b8:	4f 3f       	cpi	r20, 0xFF	; 255
     6ba:	09 f4       	brne	.+2      	; 0x6be <ground_calibrate+0x580>
     6bc:	08 ce       	rjmp	.-1008   	; 0x2ce <ground_calibrate+0x190>
     6be:	40 93 f9 05 	sts	0x05F9, r20
     6c2:	07 ce       	rjmp	.-1010   	; 0x2d2 <ground_calibrate+0x194>
     6c4:	20 91 b4 07 	lds	r18, 0x07B4
     6c8:	20 93 fc 05 	sts	0x05FC, r18
     6cc:	92 0f       	add	r25, r18
     6ce:	89 0f       	add	r24, r25
     6d0:	20 91 b5 07 	lds	r18, 0x07B5
     6d4:	20 93 fd 05 	sts	0x05FD, r18
     6d8:	92 0f       	add	r25, r18
     6da:	89 0f       	add	r24, r25
     6dc:	a2 e0       	ldi	r26, 0x02	; 2
     6de:	e1 e0       	ldi	r30, 0x01	; 1
     6e0:	ea 0f       	add	r30, r26
     6e2:	20 91 ca 07 	lds	r18, 0x07CA
     6e6:	b0 e0       	ldi	r27, 0x00	; 0
     6e8:	a4 50       	subi	r26, 0x04	; 4
     6ea:	ba 4f       	sbci	r27, 0xFA	; 250
     6ec:	2c 93       	st	X, r18
     6ee:	92 0f       	add	r25, r18
     6f0:	89 0f       	add	r24, r25
     6f2:	ef 3f       	cpi	r30, 0xFF	; 255
     6f4:	09 f0       	breq	.+2      	; 0x6f8 <ground_calibrate+0x5ba>
     6f6:	5a cf       	rjmp	.-332    	; 0x5ac <ground_calibrate+0x46e>
     6f8:	20 91 cb 07 	lds	r18, 0x07CB
     6fc:	20 93 fc 05 	sts	0x05FC, r18
     700:	92 0f       	add	r25, r18
     702:	89 0f       	add	r24, r25
     704:	20 91 cc 07 	lds	r18, 0x07CC
     708:	20 93 fd 05 	sts	0x05FD, r18
     70c:	92 0f       	add	r25, r18
     70e:	89 0f       	add	r24, r25
     710:	e2 e0       	ldi	r30, 0x02	; 2
     712:	a1 e0       	ldi	r26, 0x01	; 1
     714:	ae 0f       	add	r26, r30
     716:	20 91 cd 07 	lds	r18, 0x07CD
     71a:	f0 e0       	ldi	r31, 0x00	; 0
     71c:	e4 50       	subi	r30, 0x04	; 4
     71e:	fa 4f       	sbci	r31, 0xFA	; 250
     720:	20 83       	st	Z, r18
     722:	92 0f       	add	r25, r18
     724:	89 0f       	add	r24, r25
     726:	af 3f       	cpi	r26, 0xFF	; 255
     728:	09 f0       	breq	.+2      	; 0x72c <ground_calibrate+0x5ee>
     72a:	5a cf       	rjmp	.-332    	; 0x5e0 <ground_calibrate+0x4a2>
     72c:	20 91 aa 07 	lds	r18, 0x07AA
     730:	20 93 fc 05 	sts	0x05FC, r18
     734:	92 0f       	add	r25, r18
     736:	89 0f       	add	r24, r25
     738:	20 91 ab 07 	lds	r18, 0x07AB
     73c:	20 93 fd 05 	sts	0x05FD, r18
     740:	92 0f       	add	r25, r18
     742:	89 0f       	add	r24, r25
     744:	a2 e0       	ldi	r26, 0x02	; 2
     746:	e1 e0       	ldi	r30, 0x01	; 1
     748:	ea 0f       	add	r30, r26
     74a:	20 91 ac 07 	lds	r18, 0x07AC
     74e:	b0 e0       	ldi	r27, 0x00	; 0
     750:	a4 50       	subi	r26, 0x04	; 4
     752:	ba 4f       	sbci	r27, 0xFA	; 250
     754:	2c 93       	st	X, r18
     756:	92 0f       	add	r25, r18
     758:	89 0f       	add	r24, r25
     75a:	ef 3f       	cpi	r30, 0xFF	; 255
     75c:	09 f0       	breq	.+2      	; 0x760 <ground_calibrate+0x622>
     75e:	5a cf       	rjmp	.-332    	; 0x614 <ground_calibrate+0x4d6>
     760:	20 91 ad 07 	lds	r18, 0x07AD
     764:	20 93 fc 05 	sts	0x05FC, r18
     768:	92 0f       	add	r25, r18
     76a:	89 0f       	add	r24, r25
     76c:	20 91 09 01 	lds	r18, 0x0109
     770:	20 93 fd 05 	sts	0x05FD, r18
     774:	92 0f       	add	r25, r18
     776:	89 0f       	add	r24, r25
     778:	e2 e0       	ldi	r30, 0x02	; 2
     77a:	a1 e0       	ldi	r26, 0x01	; 1
     77c:	ae 0f       	add	r26, r30
     77e:	20 91 0a 01 	lds	r18, 0x010A
     782:	f0 e0       	ldi	r31, 0x00	; 0
     784:	e4 50       	subi	r30, 0x04	; 4
     786:	fa 4f       	sbci	r31, 0xFA	; 250
     788:	20 83       	st	Z, r18
     78a:	92 0f       	add	r25, r18
     78c:	89 0f       	add	r24, r25
     78e:	af 3f       	cpi	r26, 0xFF	; 255
     790:	09 f0       	breq	.+2      	; 0x794 <ground_calibrate+0x656>
     792:	5a cf       	rjmp	.-332    	; 0x648 <ground_calibrate+0x50a>
     794:	20 91 07 01 	lds	r18, 0x0107
     798:	20 93 fc 05 	sts	0x05FC, r18
     79c:	92 0f       	add	r25, r18
     79e:	89 0f       	add	r24, r25
     7a0:	20 91 08 01 	lds	r18, 0x0108
     7a4:	20 93 fd 05 	sts	0x05FD, r18
     7a8:	92 0f       	add	r25, r18
     7aa:	90 93 fb 06 	sts	0x06FB, r25
     7ae:	89 0f       	add	r24, r25
     7b0:	80 93 f6 05 	sts	0x05F6, r24
     7b4:	a2 e0       	ldi	r26, 0x02	; 2
     7b6:	e1 e0       	ldi	r30, 0x01	; 1
     7b8:	ea 0f       	add	r30, r26
     7ba:	b0 e0       	ldi	r27, 0x00	; 0
     7bc:	a4 50       	subi	r26, 0x04	; 4
     7be:	ba 4f       	sbci	r27, 0xFA	; 250
     7c0:	9c 93       	st	X, r25
     7c2:	ef 3f       	cpi	r30, 0xFF	; 255
     7c4:	09 f0       	breq	.+2      	; 0x7c8 <ground_calibrate+0x68a>
     7c6:	5a cf       	rjmp	.-332    	; 0x67c <ground_calibrate+0x53e>
     7c8:	80 93 fc 05 	sts	0x05FC, r24
     7cc:	81 e0       	ldi	r24, 0x01	; 1
     7ce:	80 93 f9 05 	sts	0x05F9, r24
     7d2:	64 ce       	rjmp	.-824    	; 0x49c <ground_calibrate+0x35e>
     7d4:	90 93 fc 05 	sts	0x05FC, r25
     7d8:	80 93 fd 05 	sts	0x05FD, r24
     7dc:	92 e0       	ldi	r25, 0x02	; 2
     7de:	90 93 f9 05 	sts	0x05F9, r25
     7e2:	77 cd       	rjmp	.-1298   	; 0x2d2 <ground_calibrate+0x194>
     7e4:	41 e0       	ldi	r20, 0x01	; 1
     7e6:	a0 e0       	ldi	r26, 0x00	; 0
     7e8:	b0 e0       	ldi	r27, 0x00	; 0
     7ea:	89 ce       	rjmp	.-750    	; 0x4fe <ground_calibrate+0x3c0>
     7ec:	41 e0       	ldi	r20, 0x01	; 1
     7ee:	a0 e0       	ldi	r26, 0x00	; 0
     7f0:	b0 e0       	ldi	r27, 0x00	; 0
     7f2:	ad ce       	rjmp	.-678    	; 0x54e <ground_calibrate+0x410>
     7f4:	82 e0       	ldi	r24, 0x02	; 2
     7f6:	80 93 fc 05 	sts	0x05FC, r24
     7fa:	42 e0       	ldi	r20, 0x02	; 2
     7fc:	e1 e0       	ldi	r30, 0x01	; 1
     7fe:	f0 e0       	ldi	r31, 0x00	; 0
     800:	4c cf       	rjmp	.-360    	; 0x69a <ground_calibrate+0x55c>
     802:	10 92 fa 05 	sts	0x05FA, r1
     806:	61 ce       	rjmp	.-830    	; 0x4ca <ground_calibrate+0x38c>

00000808 <pprz_mode_update>:
pprz_mode_update():
     808:	20 91 c8 01 	lds	r18, 0x01C8
     80c:	23 30       	cpi	r18, 0x03	; 3
     80e:	c1 f0       	breq	.+48     	; 0x840 <pprz_mode_update+0x38>
     810:	80 91 1a 07 	lds	r24, 0x071A
     814:	90 91 1b 07 	lds	r25, 0x071B
     818:	81 38       	cpi	r24, 0x81	; 129
     81a:	3c e0       	ldi	r19, 0x0C	; 12
     81c:	93 07       	cpc	r25, r19
     81e:	3c f0       	brlt	.+14     	; 0x82e <pprz_mode_update+0x26>
     820:	32 e0       	ldi	r19, 0x02	; 2
     822:	32 17       	cp	r19, r18
     824:	59 f0       	breq	.+22     	; 0x83c <pprz_mode_update+0x34>
     826:	30 93 c8 01 	sts	0x01C8, r19
     82a:	81 e0       	ldi	r24, 0x01	; 1
     82c:	08 95       	ret
     82e:	31 e0       	ldi	r19, 0x01	; 1
     830:	81 34       	cpi	r24, 0x41	; 65
     832:	9d 4e       	sbci	r25, 0xED	; 237
     834:	b4 f7       	brge	.-20     	; 0x822 <pprz_mode_update+0x1a>
     836:	30 e0       	ldi	r19, 0x00	; 0
     838:	32 13       	cpse	r19, r18
     83a:	f5 cf       	rjmp	.-22     	; 0x826 <pprz_mode_update+0x1e>
     83c:	80 e0       	ldi	r24, 0x00	; 0
     83e:	08 95       	ret
     840:	80 91 eb 05 	lds	r24, 0x05EB
     844:	88 23       	and	r24, r24
     846:	d1 f3       	breq	.-12     	; 0x83c <pprz_mode_update+0x34>
     848:	10 92 eb 05 	sts	0x05EB, r1
     84c:	e1 cf       	rjmp	.-62     	; 0x810 <pprz_mode_update+0x8>

0000084e <ir_estim_mode_update>:
ir_estim_mode_update():
     84e:	21 e0       	ldi	r18, 0x01	; 1
     850:	80 91 20 07 	lds	r24, 0x0720
     854:	90 91 21 07 	lds	r25, 0x0721
     858:	80 38       	cpi	r24, 0x80	; 128
     85a:	9c 40       	sbci	r25, 0x0C	; 12
     85c:	0c f4       	brge	.+2      	; 0x860 <ir_estim_mode_update+0x12>
     85e:	20 e0       	ldi	r18, 0x00	; 0
     860:	80 91 01 01 	lds	r24, 0x0101
     864:	82 17       	cp	r24, r18
     866:	21 f0       	breq	.+8      	; 0x870 <ir_estim_mode_update+0x22>
     868:	20 93 01 01 	sts	0x0101, r18
     86c:	81 e0       	ldi	r24, 0x01	; 1
     86e:	08 95       	ret
     870:	80 e0       	ldi	r24, 0x00	; 0
     872:	08 95       	ret

00000874 <mcu1_status_update>:
mcu1_status_update():
     874:	90 91 25 07 	lds	r25, 0x0725
     878:	20 91 d8 01 	lds	r18, 0x01D8
     87c:	29 17       	cp	r18, r25
     87e:	59 f0       	breq	.+22     	; 0x896 <mcu1_status_update+0x22>
     880:	29 27       	eor	r18, r25
     882:	23 70       	andi	r18, 0x03	; 3
     884:	81 e0       	ldi	r24, 0x01	; 1
     886:	19 f0       	breq	.+6      	; 0x88e <mcu1_status_update+0x1a>
     888:	90 93 d8 01 	sts	0x01D8, r25
     88c:	08 95       	ret
     88e:	80 e0       	ldi	r24, 0x00	; 0
     890:	90 93 d8 01 	sts	0x01D8, r25
     894:	08 95       	ret
     896:	80 e0       	ldi	r24, 0x00	; 0
     898:	08 95       	ret

0000089a <copy_from_to_fbw>:
copy_from_to_fbw():
     89a:	80 91 18 07 	lds	r24, 0x0718
     89e:	90 91 19 07 	lds	r25, 0x0719
     8a2:	90 93 03 07 	sts	0x0703, r25
     8a6:	80 93 02 07 	sts	0x0702, r24
     8aa:	10 92 0f 07 	sts	0x070F, r1
     8ae:	08 95       	ret

000008b0 <reporting_task>:
reporting_task():
     8b0:	80 91 00 01 	lds	r24, 0x0100
     8b4:	88 23       	and	r24, r24
     8b6:	69 f1       	breq	.+90     	; 0x912 <reporting_task+0x62>
     8b8:	40 91 f9 05 	lds	r20, 0x05F9
     8bc:	80 91 fa 05 	lds	r24, 0x05FA
     8c0:	20 91 fa 05 	lds	r18, 0x05FA
     8c4:	48 17       	cp	r20, r24
     8c6:	08 f4       	brcc	.+2      	; 0x8ca <reporting_task+0x1a>
     8c8:	83 c0       	rjmp	.+262    	; 0x9d0 <reporting_task+0x120>
     8ca:	84 2f       	mov	r24, r20
     8cc:	90 e0       	ldi	r25, 0x00	; 0
     8ce:	30 e0       	ldi	r19, 0x00	; 0
     8d0:	28 1b       	sub	r18, r24
     8d2:	39 0b       	sbc	r19, r25
     8d4:	28 30       	cpi	r18, 0x08	; 8
     8d6:	3f 4f       	sbci	r19, 0xFF	; 255
     8d8:	0c f0       	brlt	.+2      	; 0x8dc <reporting_task+0x2c>
     8da:	83 c0       	rjmp	.+262    	; 0x9e2 <reporting_task+0x132>
     8dc:	20 91 f7 05 	lds	r18, 0x05F7
     8e0:	2f 5f       	subi	r18, 0xFF	; 255
     8e2:	20 93 f7 05 	sts	0x05F7, r18
     8e6:	20 91 fa 05 	lds	r18, 0x05FA
     8ea:	42 17       	cp	r20, r18
     8ec:	08 f4       	brcc	.+2      	; 0x8f0 <reporting_task+0x40>
     8ee:	dc c0       	rjmp	.+440    	; 0xaa8 <reporting_task+0x1f8>
     8f0:	20 91 fa 05 	lds	r18, 0x05FA
     8f4:	30 e0       	ldi	r19, 0x00	; 0
     8f6:	28 1b       	sub	r18, r24
     8f8:	39 0b       	sbc	r19, r25
     8fa:	26 31       	cpi	r18, 0x16	; 22
     8fc:	3f 4f       	sbci	r19, 0xFF	; 255
     8fe:	0c f0       	brlt	.+2      	; 0x902 <reporting_task+0x52>
     900:	dc c0       	rjmp	.+440    	; 0xaba <reporting_task+0x20a>
     902:	80 91 f7 05 	lds	r24, 0x05F7
     906:	8f 5f       	subi	r24, 0xFF	; 255
     908:	80 93 f7 05 	sts	0x05F7, r24
     90c:	10 92 00 01 	sts	0x0100, r1
     910:	08 95       	ret
     912:	40 91 d4 01 	lds	r20, 0x01D4
     916:	4f 5f       	subi	r20, 0xFF	; 255
     918:	40 93 d4 01 	sts	0x01D4, r20
     91c:	4a 3f       	cpi	r20, 0xFA	; 250
     91e:	09 f4       	brne	.+2      	; 0x922 <reporting_task+0x72>
     920:	a1 c1       	rjmp	.+834    	; 0xc64 <reporting_task+0x3b4>
     922:	6d ec       	ldi	r22, 0xCD	; 205
     924:	46 9f       	mul	r20, r22
     926:	61 2d       	mov	r22, r1
     928:	11 24       	eor	r1, r1
     92a:	66 95       	lsr	r22
     92c:	66 95       	lsr	r22
     92e:	86 2f       	mov	r24, r22
     930:	88 0f       	add	r24, r24
     932:	88 0f       	add	r24, r24
     934:	86 0f       	add	r24, r22
     936:	64 2f       	mov	r22, r20
     938:	68 1b       	sub	r22, r24
     93a:	09 f4       	brne	.+2      	; 0x93e <reporting_task+0x8e>
     93c:	95 c1       	rjmp	.+810    	; 0xc68 <reporting_task+0x3b8>
     93e:	54 2f       	mov	r21, r20
     940:	61 30       	cpi	r22, 0x01	; 1
     942:	09 f4       	brne	.+2      	; 0x946 <reporting_task+0x96>
     944:	f9 c2       	rjmp	.+1522   	; 0xf38 <reporting_task+0x688>
     946:	62 30       	cpi	r22, 0x02	; 2
     948:	09 f4       	brne	.+2      	; 0x94c <reporting_task+0x9c>
     94a:	5e c6       	rjmp	.+3260   	; 0x1608 <__stack+0x509>
     94c:	8d ec       	ldi	r24, 0xCD	; 205
     94e:	58 9f       	mul	r21, r24
     950:	81 2d       	mov	r24, r1
     952:	11 24       	eor	r1, r1
     954:	86 95       	lsr	r24
     956:	86 95       	lsr	r24
     958:	86 95       	lsr	r24
     95a:	65 2f       	mov	r22, r21
     95c:	2a e0       	ldi	r18, 0x0A	; 10
     95e:	82 9f       	mul	r24, r18
     960:	60 19       	sub	r22, r0
     962:	11 24       	eor	r1, r1
     964:	63 30       	cpi	r22, 0x03	; 3
     966:	09 f4       	brne	.+2      	; 0x96a <reporting_task+0xba>
     968:	e6 c7       	rjmp	.+4044   	; 0x1936 <__stack+0x837>
     96a:	8d ec       	ldi	r24, 0xCD	; 205
     96c:	58 9f       	mul	r21, r24
     96e:	81 2d       	mov	r24, r1
     970:	11 24       	eor	r1, r1
     972:	82 95       	swap	r24
     974:	8f 70       	andi	r24, 0x0F	; 15
     976:	e5 2f       	mov	r30, r21
     978:	94 e1       	ldi	r25, 0x14	; 20
     97a:	89 9f       	mul	r24, r25
     97c:	e0 19       	sub	r30, r0
     97e:	11 24       	eor	r1, r1
     980:	8e 2f       	mov	r24, r30
     982:	e8 30       	cpi	r30, 0x08	; 8
     984:	09 f4       	brne	.+2      	; 0x988 <reporting_task+0xd8>
     986:	3a c7       	rjmp	.+3700   	; 0x17fc <__stack+0x6fd>
     988:	82 31       	cpi	r24, 0x12	; 18
     98a:	09 f4       	brne	.+2      	; 0x98e <reporting_task+0xde>
     98c:	5a c6       	rjmp	.+3252   	; 0x1642 <__stack+0x543>
     98e:	89 e2       	ldi	r24, 0x29	; 41
     990:	58 9f       	mul	r21, r24
     992:	81 2d       	mov	r24, r1
     994:	11 24       	eor	r1, r1
     996:	86 95       	lsr	r24
     998:	86 95       	lsr	r24
     99a:	86 95       	lsr	r24
     99c:	25 2f       	mov	r18, r21
     99e:	f2 e3       	ldi	r31, 0x32	; 50
     9a0:	8f 9f       	mul	r24, r31
     9a2:	20 19       	sub	r18, r0
     9a4:	11 24       	eor	r1, r1
     9a6:	82 2f       	mov	r24, r18
     9a8:	29 30       	cpi	r18, 0x09	; 9
     9aa:	09 f4       	brne	.+2      	; 0x9ae <reporting_task+0xfe>
     9ac:	a8 c5       	rjmp	.+2896   	; 0x14fe <__stack+0x3ff>
     9ae:	8d 31       	cpi	r24, 0x1D	; 29
     9b0:	09 f4       	brne	.+2      	; 0x9b4 <reporting_task+0x104>
     9b2:	34 c5       	rjmp	.+2664   	; 0x141c <__stack+0x31d>
     9b4:	89 e2       	ldi	r24, 0x29	; 41
     9b6:	58 9f       	mul	r21, r24
     9b8:	81 2d       	mov	r24, r1
     9ba:	11 24       	eor	r1, r1
     9bc:	82 95       	swap	r24
     9be:	8f 70       	andi	r24, 0x0F	; 15
     9c0:	74 e6       	ldi	r23, 0x64	; 100
     9c2:	87 9f       	mul	r24, r23
     9c4:	50 19       	sub	r21, r0
     9c6:	11 24       	eor	r1, r1
     9c8:	51 33       	cpi	r21, 0x31	; 49
     9ca:	09 f4       	brne	.+2      	; 0x9ce <reporting_task+0x11e>
     9cc:	f0 c1       	rjmp	.+992    	; 0xdae <reporting_task+0x4fe>
     9ce:	08 95       	ret
     9d0:	84 2f       	mov	r24, r20
     9d2:	90 e0       	ldi	r25, 0x00	; 0
     9d4:	30 e0       	ldi	r19, 0x00	; 0
     9d6:	28 1b       	sub	r18, r24
     9d8:	39 0b       	sbc	r19, r25
     9da:	27 30       	cpi	r18, 0x07	; 7
     9dc:	31 05       	cpc	r19, r1
     9de:	0c f4       	brge	.+2      	; 0x9e2 <reporting_task+0x132>
     9e0:	7d cf       	rjmp	.-262    	; 0x8dc <reporting_task+0x2c>
     9e2:	fc 01       	movw	r30, r24
     9e4:	e4 50       	subi	r30, 0x04	; 4
     9e6:	fa 4f       	sbci	r31, 0xFA	; 250
     9e8:	25 e0       	ldi	r18, 0x05	; 5
     9ea:	20 83       	st	Z, r18
     9ec:	e1 e0       	ldi	r30, 0x01	; 1
     9ee:	e4 0f       	add	r30, r20
     9f0:	ef 3f       	cpi	r30, 0xFF	; 255
     9f2:	09 f4       	brne	.+2      	; 0x9f6 <reporting_task+0x146>
     9f4:	2b c3       	rjmp	.+1622   	; 0x104c <reporting_task+0x79c>
     9f6:	f0 e0       	ldi	r31, 0x00	; 0
     9f8:	e4 50       	subi	r30, 0x04	; 4
     9fa:	fa 4f       	sbci	r31, 0xFA	; 250
     9fc:	81 e0       	ldi	r24, 0x01	; 1
     9fe:	80 83       	st	Z, r24
     a00:	a2 e0       	ldi	r26, 0x02	; 2
     a02:	a4 0f       	add	r26, r20
     a04:	af 3f       	cpi	r26, 0xFF	; 255
     a06:	11 f4       	brne	.+4      	; 0xa0c <reporting_task+0x15c>
     a08:	0c 94 47 0e 	jmp	0x1c8e	; 0x1c8e <__stack+0xb8f>
     a0c:	4d 5f       	subi	r20, 0xFD	; 253
     a0e:	80 91 99 01 	lds	r24, 0x0199
     a12:	b0 e0       	ldi	r27, 0x00	; 0
     a14:	a4 50       	subi	r26, 0x04	; 4
     a16:	ba 4f       	sbci	r27, 0xFA	; 250
     a18:	8c 93       	st	X, r24
     a1a:	21 e0       	ldi	r18, 0x01	; 1
     a1c:	28 0f       	add	r18, r24
     a1e:	8e 5f       	subi	r24, 0xFE	; 254
     a20:	4f 3f       	cpi	r20, 0xFF	; 255
     a22:	09 f0       	breq	.+2      	; 0xa26 <reporting_task+0x176>
     a24:	21 c3       	rjmp	.+1602   	; 0x1068 <reporting_task+0x7b8>
     a26:	90 91 9a 01 	lds	r25, 0x019A
     a2a:	90 93 fc 05 	sts	0x05FC, r25
     a2e:	29 0f       	add	r18, r25
     a30:	20 93 fb 06 	sts	0x06FB, r18
     a34:	82 0f       	add	r24, r18
     a36:	80 93 f6 05 	sts	0x05F6, r24
     a3a:	20 93 fd 05 	sts	0x05FD, r18
     a3e:	42 e0       	ldi	r20, 0x02	; 2
     a40:	91 e0       	ldi	r25, 0x01	; 1
     a42:	94 0f       	add	r25, r20
     a44:	e4 2f       	mov	r30, r20
     a46:	f0 e0       	ldi	r31, 0x00	; 0
     a48:	e4 50       	subi	r30, 0x04	; 4
     a4a:	fa 4f       	sbci	r31, 0xFA	; 250
     a4c:	80 83       	st	Z, r24
     a4e:	9f 3f       	cpi	r25, 0xFF	; 255
     a50:	11 f0       	breq	.+4      	; 0xa56 <reporting_task+0x1a6>
     a52:	0c 94 ba 0d 	jmp	0x1b74	; 0x1b74 <__stack+0xa75>
     a56:	10 92 f9 05 	sts	0x05F9, r1
     a5a:	09 b6       	in	r0, 0x39	; 57
     a5c:	04 fc       	sbrc	r0, 4
     a5e:	1b c0       	rjmp	.+54     	; 0xa96 <reporting_task+0x1e6>
     a60:	e0 91 fa 05 	lds	r30, 0x05FA
     a64:	f0 e0       	ldi	r31, 0x00	; 0
     a66:	e4 50       	subi	r30, 0x04	; 4
     a68:	fa 4f       	sbci	r31, 0xFA	; 250
     a6a:	80 81       	ld	r24, Z
     a6c:	80 93 f8 05 	sts	0x05F8, r24
     a70:	10 92 fb 05 	sts	0x05FB, r1
     a74:	80 91 fa 05 	lds	r24, 0x05FA
     a78:	8f 5f       	subi	r24, 0xFF	; 255
     a7a:	80 93 fa 05 	sts	0x05FA, r24
     a7e:	80 91 fa 05 	lds	r24, 0x05FA
     a82:	8f 3f       	cpi	r24, 0xFF	; 255
     a84:	11 f4       	brne	.+4      	; 0xa8a <reporting_task+0x1da>
     a86:	0c 94 8c 12 	jmp	0x2518	; 0x2518 <__stack+0x1419>
     a8a:	88 b7       	in	r24, 0x38	; 56
     a8c:	81 60       	ori	r24, 0x01	; 1
     a8e:	88 bf       	out	0x38, r24	; 56
     a90:	89 b7       	in	r24, 0x39	; 57
     a92:	80 61       	ori	r24, 0x10	; 16
     a94:	89 bf       	out	0x39, r24	; 57
     a96:	40 91 f9 05 	lds	r20, 0x05F9
     a9a:	84 2f       	mov	r24, r20
     a9c:	90 e0       	ldi	r25, 0x00	; 0
     a9e:	20 91 fa 05 	lds	r18, 0x05FA
     aa2:	42 17       	cp	r20, r18
     aa4:	08 f0       	brcs	.+2      	; 0xaa8 <reporting_task+0x1f8>
     aa6:	24 cf       	rjmp	.-440    	; 0x8f0 <reporting_task+0x40>
     aa8:	20 91 fa 05 	lds	r18, 0x05FA
     aac:	30 e0       	ldi	r19, 0x00	; 0
     aae:	28 1b       	sub	r18, r24
     ab0:	39 0b       	sbc	r19, r25
     ab2:	25 31       	cpi	r18, 0x15	; 21
     ab4:	31 05       	cpc	r19, r1
     ab6:	0c f4       	brge	.+2      	; 0xaba <reporting_task+0x20a>
     ab8:	24 cf       	rjmp	.-440    	; 0x902 <reporting_task+0x52>
     aba:	fc 01       	movw	r30, r24
     abc:	e4 50       	subi	r30, 0x04	; 4
     abe:	fa 4f       	sbci	r31, 0xFA	; 250
     ac0:	25 e0       	ldi	r18, 0x05	; 5
     ac2:	20 83       	st	Z, r18
     ac4:	e1 e0       	ldi	r30, 0x01	; 1
     ac6:	e4 0f       	add	r30, r20
     ac8:	ef 3f       	cpi	r30, 0xFF	; 255
     aca:	09 f4       	brne	.+2      	; 0xace <reporting_task+0x21e>
     acc:	ed c2       	rjmp	.+1498   	; 0x10a8 <reporting_task+0x7f8>
     ace:	f0 e0       	ldi	r31, 0x00	; 0
     ad0:	e4 50       	subi	r30, 0x04	; 4
     ad2:	fa 4f       	sbci	r31, 0xFA	; 250
     ad4:	20 83       	st	Z, r18
     ad6:	a2 e0       	ldi	r26, 0x02	; 2
     ad8:	a4 0f       	add	r26, r20
     ada:	af 3f       	cpi	r26, 0xFF	; 255
     adc:	11 f4       	brne	.+4      	; 0xae2 <reporting_task+0x232>
     ade:	0c 94 66 0e 	jmp	0x1ccc	; 0x1ccc <__stack+0xbcd>
     ae2:	4d 5f       	subi	r20, 0xFD	; 253
     ae4:	80 91 b2 07 	lds	r24, 0x07B2
     ae8:	b0 e0       	ldi	r27, 0x00	; 0
     aea:	a4 50       	subi	r26, 0x04	; 4
     aec:	ba 4f       	sbci	r27, 0xFA	; 250
     aee:	8c 93       	st	X, r24
     af0:	95 e0       	ldi	r25, 0x05	; 5
     af2:	98 0f       	add	r25, r24
     af4:	86 5f       	subi	r24, 0xF6	; 246
     af6:	4f 3f       	cpi	r20, 0xFF	; 255
     af8:	09 f0       	breq	.+2      	; 0xafc <reporting_task+0x24c>
     afa:	e3 c2       	rjmp	.+1478   	; 0x10c2 <reporting_task+0x812>
     afc:	20 91 b3 07 	lds	r18, 0x07B3
     b00:	20 93 fc 05 	sts	0x05FC, r18
     b04:	92 0f       	add	r25, r18
     b06:	89 0f       	add	r24, r25
     b08:	20 91 b4 07 	lds	r18, 0x07B4
     b0c:	20 93 fd 05 	sts	0x05FD, r18
     b10:	92 0f       	add	r25, r18
     b12:	89 0f       	add	r24, r25
     b14:	42 e0       	ldi	r20, 0x02	; 2
     b16:	a1 e0       	ldi	r26, 0x01	; 1
     b18:	a4 0f       	add	r26, r20
     b1a:	20 91 b5 07 	lds	r18, 0x07B5
     b1e:	e4 2f       	mov	r30, r20
     b20:	f0 e0       	ldi	r31, 0x00	; 0
     b22:	e4 50       	subi	r30, 0x04	; 4
     b24:	fa 4f       	sbci	r31, 0xFA	; 250
     b26:	20 83       	st	Z, r18
     b28:	92 0f       	add	r25, r18
     b2a:	89 0f       	add	r24, r25
     b2c:	af 3f       	cpi	r26, 0xFF	; 255
     b2e:	11 f0       	breq	.+4      	; 0xb34 <reporting_task+0x284>
     b30:	0c 94 cb 0d 	jmp	0x1b96	; 0x1b96 <__stack+0xa97>
     b34:	20 91 ca 07 	lds	r18, 0x07CA
     b38:	20 93 fc 05 	sts	0x05FC, r18
     b3c:	92 0f       	add	r25, r18
     b3e:	89 0f       	add	r24, r25
     b40:	20 91 cb 07 	lds	r18, 0x07CB
     b44:	20 93 fd 05 	sts	0x05FD, r18
     b48:	92 0f       	add	r25, r18
     b4a:	89 0f       	add	r24, r25
     b4c:	a2 e0       	ldi	r26, 0x02	; 2
     b4e:	e1 e0       	ldi	r30, 0x01	; 1
     b50:	ea 0f       	add	r30, r26
     b52:	20 91 cc 07 	lds	r18, 0x07CC
     b56:	b0 e0       	ldi	r27, 0x00	; 0
     b58:	a4 50       	subi	r26, 0x04	; 4
     b5a:	ba 4f       	sbci	r27, 0xFA	; 250
     b5c:	2c 93       	st	X, r18
     b5e:	92 0f       	add	r25, r18
     b60:	89 0f       	add	r24, r25
     b62:	ef 3f       	cpi	r30, 0xFF	; 255
     b64:	11 f0       	breq	.+4      	; 0xb6a <reporting_task+0x2ba>
     b66:	0c 94 e5 0d 	jmp	0x1bca	; 0x1bca <__stack+0xacb>
     b6a:	20 91 cd 07 	lds	r18, 0x07CD
     b6e:	20 93 fc 05 	sts	0x05FC, r18
     b72:	92 0f       	add	r25, r18
     b74:	89 0f       	add	r24, r25
     b76:	20 91 aa 07 	lds	r18, 0x07AA
     b7a:	20 93 fd 05 	sts	0x05FD, r18
     b7e:	92 0f       	add	r25, r18
     b80:	89 0f       	add	r24, r25
     b82:	e2 e0       	ldi	r30, 0x02	; 2
     b84:	a1 e0       	ldi	r26, 0x01	; 1
     b86:	ae 0f       	add	r26, r30
     b88:	20 91 ab 07 	lds	r18, 0x07AB
     b8c:	f0 e0       	ldi	r31, 0x00	; 0
     b8e:	e4 50       	subi	r30, 0x04	; 4
     b90:	fa 4f       	sbci	r31, 0xFA	; 250
     b92:	20 83       	st	Z, r18
     b94:	92 0f       	add	r25, r18
     b96:	89 0f       	add	r24, r25
     b98:	af 3f       	cpi	r26, 0xFF	; 255
     b9a:	11 f0       	breq	.+4      	; 0xba0 <reporting_task+0x2f0>
     b9c:	0c 94 ff 0d 	jmp	0x1bfe	; 0x1bfe <__stack+0xaff>
     ba0:	20 91 ac 07 	lds	r18, 0x07AC
     ba4:	20 93 fc 05 	sts	0x05FC, r18
     ba8:	92 0f       	add	r25, r18
     baa:	89 0f       	add	r24, r25
     bac:	20 91 ad 07 	lds	r18, 0x07AD
     bb0:	20 93 fd 05 	sts	0x05FD, r18
     bb4:	92 0f       	add	r25, r18
     bb6:	89 0f       	add	r24, r25
     bb8:	a2 e0       	ldi	r26, 0x02	; 2
     bba:	e1 e0       	ldi	r30, 0x01	; 1
     bbc:	ea 0f       	add	r30, r26
     bbe:	20 91 09 01 	lds	r18, 0x0109
     bc2:	b0 e0       	ldi	r27, 0x00	; 0
     bc4:	a4 50       	subi	r26, 0x04	; 4
     bc6:	ba 4f       	sbci	r27, 0xFA	; 250
     bc8:	2c 93       	st	X, r18
     bca:	92 0f       	add	r25, r18
     bcc:	89 0f       	add	r24, r25
     bce:	ef 3f       	cpi	r30, 0xFF	; 255
     bd0:	11 f0       	breq	.+4      	; 0xbd6 <reporting_task+0x326>
     bd2:	0c 94 19 0e 	jmp	0x1c32	; 0x1c32 <__stack+0xb33>
     bd6:	20 91 0a 01 	lds	r18, 0x010A
     bda:	20 93 fc 05 	sts	0x05FC, r18
     bde:	92 0f       	add	r25, r18
     be0:	89 0f       	add	r24, r25
     be2:	20 91 07 01 	lds	r18, 0x0107
     be6:	20 93 fd 05 	sts	0x05FD, r18
     bea:	92 0f       	add	r25, r18
     bec:	89 0f       	add	r24, r25
     bee:	e2 e0       	ldi	r30, 0x02	; 2
     bf0:	a1 e0       	ldi	r26, 0x01	; 1
     bf2:	ae 0f       	add	r26, r30
     bf4:	20 91 08 01 	lds	r18, 0x0108
     bf8:	f0 e0       	ldi	r31, 0x00	; 0
     bfa:	e4 50       	subi	r30, 0x04	; 4
     bfc:	fa 4f       	sbci	r31, 0xFA	; 250
     bfe:	20 83       	st	Z, r18
     c00:	92 0f       	add	r25, r18
     c02:	90 93 fb 06 	sts	0x06FB, r25
     c06:	89 0f       	add	r24, r25
     c08:	80 93 f6 05 	sts	0x05F6, r24
     c0c:	af 3f       	cpi	r26, 0xFF	; 255
     c0e:	11 f0       	breq	.+4      	; 0xc14 <reporting_task+0x364>
     c10:	0c 94 37 0e 	jmp	0x1c6e	; 0x1c6e <__stack+0xb6f>
     c14:	90 93 fc 05 	sts	0x05FC, r25
     c18:	80 93 fd 05 	sts	0x05FD, r24
     c1c:	92 e0       	ldi	r25, 0x02	; 2
     c1e:	90 93 f9 05 	sts	0x05F9, r25
     c22:	09 b6       	in	r0, 0x39	; 57
     c24:	04 fc       	sbrc	r0, 4
     c26:	72 ce       	rjmp	.-796    	; 0x90c <reporting_task+0x5c>
     c28:	e0 91 fa 05 	lds	r30, 0x05FA
     c2c:	f0 e0       	ldi	r31, 0x00	; 0
     c2e:	e4 50       	subi	r30, 0x04	; 4
     c30:	fa 4f       	sbci	r31, 0xFA	; 250
     c32:	80 81       	ld	r24, Z
     c34:	80 93 f8 05 	sts	0x05F8, r24
     c38:	10 92 fb 05 	sts	0x05FB, r1
     c3c:	80 91 fa 05 	lds	r24, 0x05FA
     c40:	8f 5f       	subi	r24, 0xFF	; 255
     c42:	80 93 fa 05 	sts	0x05FA, r24
     c46:	80 91 fa 05 	lds	r24, 0x05FA
     c4a:	8f 3f       	cpi	r24, 0xFF	; 255
     c4c:	11 f4       	brne	.+4      	; 0xc52 <reporting_task+0x3a2>
     c4e:	0c 94 ef 11 	jmp	0x23de	; 0x23de <__stack+0x12df>
     c52:	88 b7       	in	r24, 0x38	; 56
     c54:	81 60       	ori	r24, 0x01	; 1
     c56:	88 bf       	out	0x38, r24	; 56
     c58:	89 b7       	in	r24, 0x39	; 57
     c5a:	80 61       	ori	r24, 0x10	; 16
     c5c:	89 bf       	out	0x39, r24	; 57
     c5e:	10 92 00 01 	sts	0x0100, r1
     c62:	08 95       	ret
     c64:	10 92 d4 01 	sts	0x01D4, r1
     c68:	40 91 f9 05 	lds	r20, 0x05F9
     c6c:	80 91 fa 05 	lds	r24, 0x05FA
     c70:	20 91 fa 05 	lds	r18, 0x05FA
     c74:	30 e0       	ldi	r19, 0x00	; 0
     c76:	48 17       	cp	r20, r24
     c78:	08 f4       	brcc	.+2      	; 0xc7c <reporting_task+0x3cc>
     c7a:	3f c1       	rjmp	.+638    	; 0xefa <reporting_task+0x64a>
     c7c:	84 2f       	mov	r24, r20
     c7e:	90 e0       	ldi	r25, 0x00	; 0
     c80:	28 1b       	sub	r18, r24
     c82:	39 0b       	sbc	r19, r25
     c84:	22 31       	cpi	r18, 0x12	; 18
     c86:	3f 4f       	sbci	r19, 0xFF	; 255
     c88:	0c f4       	brge	.+2      	; 0xc8c <reporting_task+0x3dc>
     c8a:	3f c1       	rjmp	.+638    	; 0xf0a <reporting_task+0x65a>
     c8c:	fc 01       	movw	r30, r24
     c8e:	e4 50       	subi	r30, 0x04	; 4
     c90:	fa 4f       	sbci	r31, 0xFA	; 250
     c92:	25 e0       	ldi	r18, 0x05	; 5
     c94:	20 83       	st	Z, r18
     c96:	e1 e0       	ldi	r30, 0x01	; 1
     c98:	e4 0f       	add	r30, r20
     c9a:	ef 3f       	cpi	r30, 0xFF	; 255
     c9c:	11 f4       	brne	.+4      	; 0xca2 <reporting_task+0x3f2>
     c9e:	0c 94 ae 12 	jmp	0x255c	; 0x255c <__stack+0x145d>
     ca2:	f0 e0       	ldi	r31, 0x00	; 0
     ca4:	e4 50       	subi	r30, 0x04	; 4
     ca6:	fa 4f       	sbci	r31, 0xFA	; 250
     ca8:	86 e0       	ldi	r24, 0x06	; 6
     caa:	80 83       	st	Z, r24
     cac:	a2 e0       	ldi	r26, 0x02	; 2
     cae:	a4 0f       	add	r26, r20
     cb0:	af 3f       	cpi	r26, 0xFF	; 255
     cb2:	09 f4       	brne	.+2      	; 0xcb6 <reporting_task+0x406>
     cb4:	af c2       	rjmp	.+1374   	; 0x1214 <__stack+0x115>
     cb6:	4d 5f       	subi	r20, 0xFD	; 253
     cb8:	80 91 ba 07 	lds	r24, 0x07BA
     cbc:	b0 e0       	ldi	r27, 0x00	; 0
     cbe:	a4 50       	subi	r26, 0x04	; 4
     cc0:	ba 4f       	sbci	r27, 0xFA	; 250
     cc2:	8c 93       	st	X, r24
     cc4:	96 e0       	ldi	r25, 0x06	; 6
     cc6:	98 0f       	add	r25, r24
     cc8:	84 5f       	subi	r24, 0xF4	; 244
     cca:	4f 3f       	cpi	r20, 0xFF	; 255
     ccc:	09 f0       	breq	.+2      	; 0xcd0 <reporting_task+0x420>
     cce:	ad c2       	rjmp	.+1370   	; 0x122a <__stack+0x12b>
     cd0:	20 91 bb 07 	lds	r18, 0x07BB
     cd4:	20 93 fc 05 	sts	0x05FC, r18
     cd8:	92 0f       	add	r25, r18
     cda:	89 0f       	add	r24, r25
     cdc:	20 91 bc 07 	lds	r18, 0x07BC
     ce0:	20 93 fd 05 	sts	0x05FD, r18
     ce4:	92 0f       	add	r25, r18
     ce6:	89 0f       	add	r24, r25
     ce8:	42 e0       	ldi	r20, 0x02	; 2
     cea:	a1 e0       	ldi	r26, 0x01	; 1
     cec:	a4 0f       	add	r26, r20
     cee:	20 91 bd 07 	lds	r18, 0x07BD
     cf2:	e4 2f       	mov	r30, r20
     cf4:	f0 e0       	ldi	r31, 0x00	; 0
     cf6:	e4 50       	subi	r30, 0x04	; 4
     cf8:	fa 4f       	sbci	r31, 0xFA	; 250
     cfa:	20 83       	st	Z, r18
     cfc:	92 0f       	add	r25, r18
     cfe:	89 0f       	add	r24, r25
     d00:	af 3f       	cpi	r26, 0xFF	; 255
     d02:	09 f0       	breq	.+2      	; 0xd06 <reporting_task+0x456>
     d04:	31 c3       	rjmp	.+1634   	; 0x1368 <__stack+0x269>
     d06:	20 91 9e 07 	lds	r18, 0x079E
     d0a:	20 93 fc 05 	sts	0x05FC, r18
     d0e:	92 0f       	add	r25, r18
     d10:	89 0f       	add	r24, r25
     d12:	20 91 9f 07 	lds	r18, 0x079F
     d16:	20 93 fd 05 	sts	0x05FD, r18
     d1a:	92 0f       	add	r25, r18
     d1c:	89 0f       	add	r24, r25
     d1e:	a2 e0       	ldi	r26, 0x02	; 2
     d20:	e1 e0       	ldi	r30, 0x01	; 1
     d22:	ea 0f       	add	r30, r26
     d24:	20 91 a0 07 	lds	r18, 0x07A0
     d28:	b0 e0       	ldi	r27, 0x00	; 0
     d2a:	a4 50       	subi	r26, 0x04	; 4
     d2c:	ba 4f       	sbci	r27, 0xFA	; 250
     d2e:	2c 93       	st	X, r18
     d30:	92 0f       	add	r25, r18
     d32:	89 0f       	add	r24, r25
     d34:	ef 3f       	cpi	r30, 0xFF	; 255
     d36:	09 f0       	breq	.+2      	; 0xd3a <reporting_task+0x48a>
     d38:	31 c3       	rjmp	.+1634   	; 0x139c <__stack+0x29d>
     d3a:	20 91 a1 07 	lds	r18, 0x07A1
     d3e:	20 93 fc 05 	sts	0x05FC, r18
     d42:	92 0f       	add	r25, r18
     d44:	89 0f       	add	r24, r25
     d46:	20 91 ae 07 	lds	r18, 0x07AE
     d4a:	20 93 fd 05 	sts	0x05FD, r18
     d4e:	92 0f       	add	r25, r18
     d50:	89 0f       	add	r24, r25
     d52:	e2 e0       	ldi	r30, 0x02	; 2
     d54:	a1 e0       	ldi	r26, 0x01	; 1
     d56:	ae 0f       	add	r26, r30
     d58:	20 91 af 07 	lds	r18, 0x07AF
     d5c:	f0 e0       	ldi	r31, 0x00	; 0
     d5e:	e4 50       	subi	r30, 0x04	; 4
     d60:	fa 4f       	sbci	r31, 0xFA	; 250
     d62:	20 83       	st	Z, r18
     d64:	92 0f       	add	r25, r18
     d66:	89 0f       	add	r24, r25
     d68:	af 3f       	cpi	r26, 0xFF	; 255
     d6a:	09 f0       	breq	.+2      	; 0xd6e <reporting_task+0x4be>
     d6c:	31 c3       	rjmp	.+1634   	; 0x13d0 <__stack+0x2d1>
     d6e:	20 91 b0 07 	lds	r18, 0x07B0
     d72:	20 93 fc 05 	sts	0x05FC, r18
     d76:	92 0f       	add	r25, r18
     d78:	89 0f       	add	r24, r25
     d7a:	20 91 b1 07 	lds	r18, 0x07B1
     d7e:	20 93 fd 05 	sts	0x05FD, r18
     d82:	92 0f       	add	r25, r18
     d84:	90 93 fb 06 	sts	0x06FB, r25
     d88:	89 0f       	add	r24, r25
     d8a:	80 93 f6 05 	sts	0x05F6, r24
     d8e:	a2 e0       	ldi	r26, 0x02	; 2
     d90:	e1 e0       	ldi	r30, 0x01	; 1
     d92:	ea 0f       	add	r30, r26
     d94:	b0 e0       	ldi	r27, 0x00	; 0
     d96:	a4 50       	subi	r26, 0x04	; 4
     d98:	ba 4f       	sbci	r27, 0xFA	; 250
     d9a:	9c 93       	st	X, r25
     d9c:	ef 3f       	cpi	r30, 0xFF	; 255
     d9e:	09 f0       	breq	.+2      	; 0xda2 <reporting_task+0x4f2>
     da0:	31 c3       	rjmp	.+1634   	; 0x1404 <__stack+0x305>
     da2:	80 93 fc 05 	sts	0x05FC, r24
     da6:	81 e0       	ldi	r24, 0x01	; 1
     da8:	80 93 f9 05 	sts	0x05F9, r24
     dac:	b1 c2       	rjmp	.+1378   	; 0x1310 <__stack+0x211>
     dae:	40 91 f9 05 	lds	r20, 0x05F9
     db2:	80 91 fa 05 	lds	r24, 0x05FA
     db6:	20 91 fa 05 	lds	r18, 0x05FA
     dba:	30 e0       	ldi	r19, 0x00	; 0
     dbc:	48 17       	cp	r20, r24
     dbe:	08 f4       	brcc	.+2      	; 0xdc2 <reporting_task+0x512>
     dc0:	1b c2       	rjmp	.+1078   	; 0x11f8 <__stack+0xf9>
     dc2:	84 2f       	mov	r24, r20
     dc4:	90 e0       	ldi	r25, 0x00	; 0
     dc6:	28 1b       	sub	r18, r24
     dc8:	39 0b       	sbc	r19, r25
     dca:	2e 30       	cpi	r18, 0x0E	; 14
     dcc:	3f 4f       	sbci	r19, 0xFF	; 255
     dce:	0c f4       	brge	.+2      	; 0xdd2 <reporting_task+0x522>
     dd0:	1b c2       	rjmp	.+1078   	; 0x1208 <__stack+0x109>
     dd2:	fc 01       	movw	r30, r24
     dd4:	e4 50       	subi	r30, 0x04	; 4
     dd6:	fa 4f       	sbci	r31, 0xFA	; 250
     dd8:	25 e0       	ldi	r18, 0x05	; 5
     dda:	20 83       	st	Z, r18
     ddc:	e1 e0       	ldi	r30, 0x01	; 1
     dde:	e4 0f       	add	r30, r20
     de0:	ef 3f       	cpi	r30, 0xFF	; 255
     de2:	11 f4       	brne	.+4      	; 0xde8 <reporting_task+0x538>
     de4:	0c 94 83 14 	jmp	0x2906	; 0x2906 <__stack+0x1807>
     de8:	f0 e0       	ldi	r31, 0x00	; 0
     dea:	e4 50       	subi	r30, 0x04	; 4
     dec:	fa 4f       	sbci	r31, 0xFA	; 250
     dee:	89 e0       	ldi	r24, 0x09	; 9
     df0:	80 83       	st	Z, r24
     df2:	a2 e0       	ldi	r26, 0x02	; 2
     df4:	a4 0f       	add	r26, r20
     df6:	af 3f       	cpi	r26, 0xFF	; 255
     df8:	11 f4       	brne	.+4      	; 0xdfe <reporting_task+0x54e>
     dfa:	0c 94 07 0f 	jmp	0x1e0e	; 0x1e0e <__stack+0xd0f>
     dfe:	4d 5f       	subi	r20, 0xFD	; 253
     e00:	80 91 9f 01 	lds	r24, 0x019F
     e04:	b0 e0       	ldi	r27, 0x00	; 0
     e06:	a4 50       	subi	r26, 0x04	; 4
     e08:	ba 4f       	sbci	r27, 0xFA	; 250
     e0a:	8c 93       	st	X, r24
     e0c:	29 e0       	ldi	r18, 0x09	; 9
     e0e:	28 0f       	add	r18, r24
     e10:	8e 5e       	subi	r24, 0xEE	; 238
     e12:	4f 3f       	cpi	r20, 0xFF	; 255
     e14:	11 f0       	breq	.+4      	; 0xe1a <reporting_task+0x56a>
     e16:	0c 94 12 0f 	jmp	0x1e24	; 0x1e24 <__stack+0xd25>
     e1a:	90 91 a0 01 	lds	r25, 0x01A0
     e1e:	90 93 fc 05 	sts	0x05FC, r25
     e22:	92 0f       	add	r25, r18
     e24:	89 0f       	add	r24, r25
     e26:	30 91 a1 01 	lds	r19, 0x01A1
     e2a:	30 93 fd 05 	sts	0x05FD, r19
     e2e:	93 0f       	add	r25, r19
     e30:	89 0f       	add	r24, r25
     e32:	42 e0       	ldi	r20, 0x02	; 2
     e34:	a1 e0       	ldi	r26, 0x01	; 1
     e36:	a4 0f       	add	r26, r20
     e38:	30 91 a2 01 	lds	r19, 0x01A2
     e3c:	e4 2f       	mov	r30, r20
     e3e:	f0 e0       	ldi	r31, 0x00	; 0
     e40:	e4 50       	subi	r30, 0x04	; 4
     e42:	fa 4f       	sbci	r31, 0xFA	; 250
     e44:	30 83       	st	Z, r19
     e46:	93 0f       	add	r25, r19
     e48:	89 0f       	add	r24, r25
     e4a:	af 3f       	cpi	r26, 0xFF	; 255
     e4c:	11 f0       	breq	.+4      	; 0xe52 <reporting_task+0x5a2>
     e4e:	0c 94 00 12 	jmp	0x2400	; 0x2400 <__stack+0x1301>
     e52:	30 91 9b 01 	lds	r19, 0x019B
     e56:	30 93 fc 05 	sts	0x05FC, r19
     e5a:	93 0f       	add	r25, r19
     e5c:	89 0f       	add	r24, r25
     e5e:	20 91 9c 01 	lds	r18, 0x019C
     e62:	20 93 fd 05 	sts	0x05FD, r18
     e66:	39 2f       	mov	r19, r25
     e68:	32 0f       	add	r19, r18
     e6a:	83 0f       	add	r24, r19
     e6c:	a2 e0       	ldi	r26, 0x02	; 2
     e6e:	e1 e0       	ldi	r30, 0x01	; 1
     e70:	ea 0f       	add	r30, r26
     e72:	20 91 9d 01 	lds	r18, 0x019D
     e76:	b0 e0       	ldi	r27, 0x00	; 0
     e78:	a4 50       	subi	r26, 0x04	; 4
     e7a:	ba 4f       	sbci	r27, 0xFA	; 250
     e7c:	2c 93       	st	X, r18
     e7e:	23 0f       	add	r18, r19
     e80:	82 0f       	add	r24, r18
     e82:	ef 3f       	cpi	r30, 0xFF	; 255
     e84:	11 f0       	breq	.+4      	; 0xe8a <reporting_task+0x5da>
     e86:	0c 94 1b 12 	jmp	0x2436	; 0x2436 <__stack+0x1337>
     e8a:	90 91 9e 01 	lds	r25, 0x019E
     e8e:	90 93 fc 05 	sts	0x05FC, r25
     e92:	29 0f       	add	r18, r25
     e94:	20 93 fb 06 	sts	0x06FB, r18
     e98:	82 0f       	add	r24, r18
     e9a:	80 93 f6 05 	sts	0x05F6, r24
     e9e:	20 93 fd 05 	sts	0x05FD, r18
     ea2:	e2 e0       	ldi	r30, 0x02	; 2
     ea4:	91 e0       	ldi	r25, 0x01	; 1
     ea6:	9e 0f       	add	r25, r30
     ea8:	f0 e0       	ldi	r31, 0x00	; 0
     eaa:	e4 50       	subi	r30, 0x04	; 4
     eac:	fa 4f       	sbci	r31, 0xFA	; 250
     eae:	80 83       	st	Z, r24
     eb0:	9f 3f       	cpi	r25, 0xFF	; 255
     eb2:	11 f0       	breq	.+4      	; 0xeb8 <reporting_task+0x608>
     eb4:	0c 94 31 12 	jmp	0x2462	; 0x2462 <__stack+0x1363>
     eb8:	10 92 f9 05 	sts	0x05F9, r1
     ebc:	09 b6       	in	r0, 0x39	; 57
     ebe:	04 fc       	sbrc	r0, 4
     ec0:	86 cd       	rjmp	.-1268   	; 0x9ce <reporting_task+0x11e>
     ec2:	e0 91 fa 05 	lds	r30, 0x05FA
     ec6:	f0 e0       	ldi	r31, 0x00	; 0
     ec8:	e4 50       	subi	r30, 0x04	; 4
     eca:	fa 4f       	sbci	r31, 0xFA	; 250
     ecc:	80 81       	ld	r24, Z
     ece:	80 93 f8 05 	sts	0x05F8, r24
     ed2:	10 92 fb 05 	sts	0x05FB, r1
     ed6:	80 91 fa 05 	lds	r24, 0x05FA
     eda:	8f 5f       	subi	r24, 0xFF	; 255
     edc:	80 93 fa 05 	sts	0x05FA, r24
     ee0:	80 91 fa 05 	lds	r24, 0x05FA
     ee4:	8f 3f       	cpi	r24, 0xFF	; 255
     ee6:	11 f4       	brne	.+4      	; 0xeec <reporting_task+0x63c>
     ee8:	10 92 fa 05 	sts	0x05FA, r1
     eec:	88 b7       	in	r24, 0x38	; 56
     eee:	81 60       	ori	r24, 0x01	; 1
     ef0:	88 bf       	out	0x38, r24	; 56
     ef2:	89 b7       	in	r24, 0x39	; 57
     ef4:	80 61       	ori	r24, 0x10	; 16
     ef6:	89 bf       	out	0x39, r24	; 57
     ef8:	08 95       	ret
     efa:	84 2f       	mov	r24, r20
     efc:	90 e0       	ldi	r25, 0x00	; 0
     efe:	28 1b       	sub	r18, r24
     f00:	39 0b       	sbc	r19, r25
     f02:	21 31       	cpi	r18, 0x11	; 17
     f04:	31 05       	cpc	r19, r1
     f06:	0c f0       	brlt	.+2      	; 0xf0a <reporting_task+0x65a>
     f08:	c1 ce       	rjmp	.-638    	; 0xc8c <reporting_task+0x3dc>
     f0a:	80 91 f7 05 	lds	r24, 0x05F7
     f0e:	8f 5f       	subi	r24, 0xFF	; 255
     f10:	80 93 f7 05 	sts	0x05F7, r24
     f14:	40 91 d4 01 	lds	r20, 0x01D4
     f18:	54 2f       	mov	r21, r20
     f1a:	6d ec       	ldi	r22, 0xCD	; 205
     f1c:	46 9f       	mul	r20, r22
     f1e:	61 2d       	mov	r22, r1
     f20:	11 24       	eor	r1, r1
     f22:	66 95       	lsr	r22
     f24:	66 95       	lsr	r22
     f26:	86 2f       	mov	r24, r22
     f28:	88 0f       	add	r24, r24
     f2a:	88 0f       	add	r24, r24
     f2c:	86 0f       	add	r24, r22
     f2e:	64 2f       	mov	r22, r20
     f30:	68 1b       	sub	r22, r24
     f32:	61 30       	cpi	r22, 0x01	; 1
     f34:	09 f0       	breq	.+2      	; 0xf38 <reporting_task+0x688>
     f36:	07 cd       	rjmp	.-1522   	; 0x946 <reporting_task+0x96>
     f38:	70 91 f9 05 	lds	r23, 0x05F9
     f3c:	80 91 fa 05 	lds	r24, 0x05FA
     f40:	20 91 fa 05 	lds	r18, 0x05FA
     f44:	30 e0       	ldi	r19, 0x00	; 0
     f46:	78 17       	cp	r23, r24
     f48:	08 f4       	brcc	.+2      	; 0xf4c <reporting_task+0x69c>
     f4a:	b7 c6       	rjmp	.+3438   	; 0x1cba <__stack+0xbbb>
     f4c:	87 2f       	mov	r24, r23
     f4e:	90 e0       	ldi	r25, 0x00	; 0
     f50:	28 1b       	sub	r18, r24
     f52:	39 0b       	sbc	r19, r25
     f54:	2a 30       	cpi	r18, 0x0A	; 10
     f56:	3f 4f       	sbci	r19, 0xFF	; 255
     f58:	0c f4       	brge	.+2      	; 0xf5c <reporting_task+0x6ac>
     f5a:	6d c3       	rjmp	.+1754   	; 0x1636 <__stack+0x537>
     f5c:	fc 01       	movw	r30, r24
     f5e:	e4 50       	subi	r30, 0x04	; 4
     f60:	fa 4f       	sbci	r31, 0xFA	; 250
     f62:	25 e0       	ldi	r18, 0x05	; 5
     f64:	20 83       	st	Z, r18
     f66:	e1 e0       	ldi	r30, 0x01	; 1
     f68:	e7 0f       	add	r30, r23
     f6a:	ef 3f       	cpi	r30, 0xFF	; 255
     f6c:	11 f4       	brne	.+4      	; 0xf72 <reporting_task+0x6c2>
     f6e:	0c 94 09 15 	jmp	0x2a12	; 0x2a12 <__stack+0x1913>
     f72:	f0 e0       	ldi	r31, 0x00	; 0
     f74:	e4 50       	subi	r30, 0x04	; 4
     f76:	fa 4f       	sbci	r31, 0xFA	; 250
     f78:	87 e0       	ldi	r24, 0x07	; 7
     f7a:	80 83       	st	Z, r24
     f7c:	a2 e0       	ldi	r26, 0x02	; 2
     f7e:	a7 0f       	add	r26, r23
     f80:	af 3f       	cpi	r26, 0xFF	; 255
     f82:	09 f4       	brne	.+2      	; 0xf86 <reporting_task+0x6d6>
     f84:	ec c7       	rjmp	.+4056   	; 0x1f5e <__stack+0xe5f>
     f86:	63 e0       	ldi	r22, 0x03	; 3
     f88:	67 0f       	add	r22, r23
     f8a:	80 91 66 07 	lds	r24, 0x0766
     f8e:	b0 e0       	ldi	r27, 0x00	; 0
     f90:	a4 50       	subi	r26, 0x04	; 4
     f92:	ba 4f       	sbci	r27, 0xFA	; 250
     f94:	8c 93       	st	X, r24
     f96:	97 e0       	ldi	r25, 0x07	; 7
     f98:	98 0f       	add	r25, r24
     f9a:	82 5f       	subi	r24, 0xF2	; 242
     f9c:	6f 3f       	cpi	r22, 0xFF	; 255
     f9e:	09 f0       	breq	.+2      	; 0xfa2 <reporting_task+0x6f2>
     fa0:	e8 c7       	rjmp	.+4048   	; 0x1f72 <__stack+0xe73>
     fa2:	20 91 67 07 	lds	r18, 0x0767
     fa6:	20 93 fc 05 	sts	0x05FC, r18
     faa:	29 0f       	add	r18, r25
     fac:	82 0f       	add	r24, r18
     fae:	30 91 64 07 	lds	r19, 0x0764
     fb2:	30 93 fd 05 	sts	0x05FD, r19
     fb6:	23 0f       	add	r18, r19
     fb8:	82 0f       	add	r24, r18
     fba:	62 e0       	ldi	r22, 0x02	; 2
     fbc:	a1 e0       	ldi	r26, 0x01	; 1
     fbe:	a6 0f       	add	r26, r22
     fc0:	90 91 65 07 	lds	r25, 0x0765
     fc4:	e6 2f       	mov	r30, r22
     fc6:	f0 e0       	ldi	r31, 0x00	; 0
     fc8:	e4 50       	subi	r30, 0x04	; 4
     fca:	fa 4f       	sbci	r31, 0xFA	; 250
     fcc:	90 83       	st	Z, r25
     fce:	92 0f       	add	r25, r18
     fd0:	90 93 fb 06 	sts	0x06FB, r25
     fd4:	89 0f       	add	r24, r25
     fd6:	80 93 f6 05 	sts	0x05F6, r24
     fda:	af 3f       	cpi	r26, 0xFF	; 255
     fdc:	11 f0       	breq	.+4      	; 0xfe2 <reporting_task+0x732>
     fde:	0c 94 73 14 	jmp	0x28e6	; 0x28e6 <__stack+0x17e7>
     fe2:	90 93 fc 05 	sts	0x05FC, r25
     fe6:	80 93 fd 05 	sts	0x05FD, r24
     fea:	92 e0       	ldi	r25, 0x02	; 2
     fec:	90 93 f9 05 	sts	0x05F9, r25
     ff0:	09 b6       	in	r0, 0x39	; 57
     ff2:	04 fc       	sbrc	r0, 4
     ff4:	1d c0       	rjmp	.+58     	; 0x1030 <reporting_task+0x780>
     ff6:	e0 91 fa 05 	lds	r30, 0x05FA
     ffa:	f0 e0       	ldi	r31, 0x00	; 0
     ffc:	e4 50       	subi	r30, 0x04	; 4
     ffe:	fa 4f       	sbci	r31, 0xFA	; 250
    1000:	80 81       	ld	r24, Z
    1002:	80 93 f8 05 	sts	0x05F8, r24
    1006:	10 92 fb 05 	sts	0x05FB, r1
    100a:	80 91 fa 05 	lds	r24, 0x05FA
    100e:	8f 5f       	subi	r24, 0xFF	; 255
    1010:	80 93 fa 05 	sts	0x05FA, r24
    1014:	80 91 fa 05 	lds	r24, 0x05FA
    1018:	8f 3f       	cpi	r24, 0xFF	; 255
    101a:	11 f4       	brne	.+4      	; 0x1020 <reporting_task+0x770>
    101c:	0c 94 64 15 	jmp	0x2ac8	; 0x2ac8 <__stack+0x19c9>
    1020:	88 b7       	in	r24, 0x38	; 56
    1022:	81 60       	ori	r24, 0x01	; 1
    1024:	88 bf       	out	0x38, r24	; 56
    1026:	89 b7       	in	r24, 0x39	; 57
    1028:	80 61       	ori	r24, 0x10	; 16
    102a:	89 bf       	out	0x39, r24	; 57
    102c:	40 91 d4 01 	lds	r20, 0x01D4
    1030:	54 2f       	mov	r21, r20
    1032:	6d ec       	ldi	r22, 0xCD	; 205
    1034:	46 9f       	mul	r20, r22
    1036:	61 2d       	mov	r22, r1
    1038:	11 24       	eor	r1, r1
    103a:	66 95       	lsr	r22
    103c:	66 95       	lsr	r22
    103e:	86 2f       	mov	r24, r22
    1040:	88 0f       	add	r24, r24
    1042:	88 0f       	add	r24, r24
    1044:	86 0f       	add	r24, r22
    1046:	64 2f       	mov	r22, r20
    1048:	68 1b       	sub	r22, r24
    104a:	7d cc       	rjmp	.-1798   	; 0x946 <reporting_task+0x96>
    104c:	81 e0       	ldi	r24, 0x01	; 1
    104e:	80 93 fc 05 	sts	0x05FC, r24
    1052:	42 e0       	ldi	r20, 0x02	; 2
    1054:	a1 e0       	ldi	r26, 0x01	; 1
    1056:	b0 e0       	ldi	r27, 0x00	; 0
    1058:	80 91 99 01 	lds	r24, 0x0199
    105c:	a4 50       	subi	r26, 0x04	; 4
    105e:	ba 4f       	sbci	r27, 0xFA	; 250
    1060:	8c 93       	st	X, r24
    1062:	21 e0       	ldi	r18, 0x01	; 1
    1064:	28 0f       	add	r18, r24
    1066:	8e 5f       	subi	r24, 0xFE	; 254
    1068:	90 91 9a 01 	lds	r25, 0x019A
    106c:	e4 2f       	mov	r30, r20
    106e:	f0 e0       	ldi	r31, 0x00	; 0
    1070:	e4 50       	subi	r30, 0x04	; 4
    1072:	fa 4f       	sbci	r31, 0xFA	; 250
    1074:	90 83       	st	Z, r25
    1076:	92 0f       	add	r25, r18
    1078:	90 93 fb 06 	sts	0x06FB, r25
    107c:	89 0f       	add	r24, r25
    107e:	80 93 f6 05 	sts	0x05F6, r24
    1082:	a1 e0       	ldi	r26, 0x01	; 1
    1084:	a4 0f       	add	r26, r20
    1086:	af 3f       	cpi	r26, 0xFF	; 255
    1088:	09 f4       	brne	.+2      	; 0x108c <reporting_task+0x7dc>
    108a:	6f c5       	rjmp	.+2782   	; 0x1b6a <__stack+0xa6b>
    108c:	4e 5f       	subi	r20, 0xFE	; 254
    108e:	b0 e0       	ldi	r27, 0x00	; 0
    1090:	a4 50       	subi	r26, 0x04	; 4
    1092:	ba 4f       	sbci	r27, 0xFA	; 250
    1094:	9c 93       	st	X, r25
    1096:	4f 3f       	cpi	r20, 0xFF	; 255
    1098:	09 f0       	breq	.+2      	; 0x109c <reporting_task+0x7ec>
    109a:	d2 cc       	rjmp	.-1628   	; 0xa40 <reporting_task+0x190>
    109c:	80 93 fc 05 	sts	0x05FC, r24
    10a0:	81 e0       	ldi	r24, 0x01	; 1
    10a2:	80 93 f9 05 	sts	0x05F9, r24
    10a6:	d9 cc       	rjmp	.-1614   	; 0xa5a <reporting_task+0x1aa>
    10a8:	20 93 fc 05 	sts	0x05FC, r18
    10ac:	42 e0       	ldi	r20, 0x02	; 2
    10ae:	a1 e0       	ldi	r26, 0x01	; 1
    10b0:	b0 e0       	ldi	r27, 0x00	; 0
    10b2:	80 91 b2 07 	lds	r24, 0x07B2
    10b6:	a4 50       	subi	r26, 0x04	; 4
    10b8:	ba 4f       	sbci	r27, 0xFA	; 250
    10ba:	8c 93       	st	X, r24
    10bc:	95 e0       	ldi	r25, 0x05	; 5
    10be:	98 0f       	add	r25, r24
    10c0:	86 5f       	subi	r24, 0xF6	; 246
    10c2:	20 91 b3 07 	lds	r18, 0x07B3
    10c6:	e4 2f       	mov	r30, r20
    10c8:	f0 e0       	ldi	r31, 0x00	; 0
    10ca:	e4 50       	subi	r30, 0x04	; 4
    10cc:	fa 4f       	sbci	r31, 0xFA	; 250
    10ce:	20 83       	st	Z, r18
    10d0:	92 0f       	add	r25, r18
    10d2:	89 0f       	add	r24, r25
    10d4:	a1 e0       	ldi	r26, 0x01	; 1
    10d6:	a4 0f       	add	r26, r20
    10d8:	af 3f       	cpi	r26, 0xFF	; 255
    10da:	09 f4       	brne	.+2      	; 0x10de <reporting_task+0x82e>
    10dc:	4f c5       	rjmp	.+2718   	; 0x1b7c <__stack+0xa7d>
    10de:	4e 5f       	subi	r20, 0xFE	; 254
    10e0:	20 91 b4 07 	lds	r18, 0x07B4
    10e4:	b0 e0       	ldi	r27, 0x00	; 0
    10e6:	a4 50       	subi	r26, 0x04	; 4
    10e8:	ba 4f       	sbci	r27, 0xFA	; 250
    10ea:	2c 93       	st	X, r18
    10ec:	92 0f       	add	r25, r18
    10ee:	89 0f       	add	r24, r25
    10f0:	4f 3f       	cpi	r20, 0xFF	; 255
    10f2:	09 f0       	breq	.+2      	; 0x10f6 <reporting_task+0x846>
    10f4:	10 cd       	rjmp	.-1504   	; 0xb16 <reporting_task+0x266>
    10f6:	20 91 b5 07 	lds	r18, 0x07B5
    10fa:	20 93 fc 05 	sts	0x05FC, r18
    10fe:	92 0f       	add	r25, r18
    1100:	89 0f       	add	r24, r25
    1102:	20 91 ca 07 	lds	r18, 0x07CA
    1106:	20 93 fd 05 	sts	0x05FD, r18
    110a:	92 0f       	add	r25, r18
    110c:	89 0f       	add	r24, r25
    110e:	e2 e0       	ldi	r30, 0x02	; 2
    1110:	a1 e0       	ldi	r26, 0x01	; 1
    1112:	ae 0f       	add	r26, r30
    1114:	20 91 cb 07 	lds	r18, 0x07CB
    1118:	f0 e0       	ldi	r31, 0x00	; 0
    111a:	e4 50       	subi	r30, 0x04	; 4
    111c:	fa 4f       	sbci	r31, 0xFA	; 250
    111e:	20 83       	st	Z, r18
    1120:	92 0f       	add	r25, r18
    1122:	89 0f       	add	r24, r25
    1124:	af 3f       	cpi	r26, 0xFF	; 255
    1126:	09 f0       	breq	.+2      	; 0x112a <__stack+0x2b>
    1128:	12 cd       	rjmp	.-1500   	; 0xb4e <reporting_task+0x29e>
    112a:	20 91 cc 07 	lds	r18, 0x07CC
    112e:	20 93 fc 05 	sts	0x05FC, r18
    1132:	92 0f       	add	r25, r18
    1134:	89 0f       	add	r24, r25
    1136:	20 91 cd 07 	lds	r18, 0x07CD
    113a:	20 93 fd 05 	sts	0x05FD, r18
    113e:	92 0f       	add	r25, r18
    1140:	89 0f       	add	r24, r25
    1142:	a2 e0       	ldi	r26, 0x02	; 2
    1144:	e1 e0       	ldi	r30, 0x01	; 1
    1146:	ea 0f       	add	r30, r26
    1148:	20 91 aa 07 	lds	r18, 0x07AA
    114c:	b0 e0       	ldi	r27, 0x00	; 0
    114e:	a4 50       	subi	r26, 0x04	; 4
    1150:	ba 4f       	sbci	r27, 0xFA	; 250
    1152:	2c 93       	st	X, r18
    1154:	92 0f       	add	r25, r18
    1156:	89 0f       	add	r24, r25
    1158:	ef 3f       	cpi	r30, 0xFF	; 255
    115a:	09 f0       	breq	.+2      	; 0x115e <__stack+0x5f>
    115c:	13 cd       	rjmp	.-1498   	; 0xb84 <reporting_task+0x2d4>
    115e:	20 91 ab 07 	lds	r18, 0x07AB
    1162:	20 93 fc 05 	sts	0x05FC, r18
    1166:	92 0f       	add	r25, r18
    1168:	89 0f       	add	r24, r25
    116a:	20 91 ac 07 	lds	r18, 0x07AC
    116e:	20 93 fd 05 	sts	0x05FD, r18
    1172:	92 0f       	add	r25, r18
    1174:	89 0f       	add	r24, r25
    1176:	e2 e0       	ldi	r30, 0x02	; 2
    1178:	a1 e0       	ldi	r26, 0x01	; 1
    117a:	ae 0f       	add	r26, r30
    117c:	20 91 ad 07 	lds	r18, 0x07AD
    1180:	f0 e0       	ldi	r31, 0x00	; 0
    1182:	e4 50       	subi	r30, 0x04	; 4
    1184:	fa 4f       	sbci	r31, 0xFA	; 250
    1186:	20 83       	st	Z, r18
    1188:	92 0f       	add	r25, r18
    118a:	89 0f       	add	r24, r25
    118c:	af 3f       	cpi	r26, 0xFF	; 255
    118e:	09 f0       	breq	.+2      	; 0x1192 <__stack+0x93>
    1190:	14 cd       	rjmp	.-1496   	; 0xbba <reporting_task+0x30a>
    1192:	20 91 09 01 	lds	r18, 0x0109
    1196:	20 93 fc 05 	sts	0x05FC, r18
    119a:	92 0f       	add	r25, r18
    119c:	89 0f       	add	r24, r25
    119e:	20 91 0a 01 	lds	r18, 0x010A
    11a2:	20 93 fd 05 	sts	0x05FD, r18
    11a6:	92 0f       	add	r25, r18
    11a8:	89 0f       	add	r24, r25
    11aa:	a2 e0       	ldi	r26, 0x02	; 2
    11ac:	e1 e0       	ldi	r30, 0x01	; 1
    11ae:	ea 0f       	add	r30, r26
    11b0:	20 91 07 01 	lds	r18, 0x0107
    11b4:	b0 e0       	ldi	r27, 0x00	; 0
    11b6:	a4 50       	subi	r26, 0x04	; 4
    11b8:	ba 4f       	sbci	r27, 0xFA	; 250
    11ba:	2c 93       	st	X, r18
    11bc:	92 0f       	add	r25, r18
    11be:	89 0f       	add	r24, r25
    11c0:	ef 3f       	cpi	r30, 0xFF	; 255
    11c2:	09 f0       	breq	.+2      	; 0x11c6 <__stack+0xc7>
    11c4:	15 cd       	rjmp	.-1494   	; 0xbf0 <reporting_task+0x340>
    11c6:	20 91 08 01 	lds	r18, 0x0108
    11ca:	20 93 fc 05 	sts	0x05FC, r18
    11ce:	92 0f       	add	r25, r18
    11d0:	90 93 fb 06 	sts	0x06FB, r25
    11d4:	89 0f       	add	r24, r25
    11d6:	80 93 f6 05 	sts	0x05F6, r24
    11da:	90 93 fd 05 	sts	0x05FD, r25
    11de:	e2 e0       	ldi	r30, 0x02	; 2
    11e0:	91 e0       	ldi	r25, 0x01	; 1
    11e2:	9e 0f       	add	r25, r30
    11e4:	f0 e0       	ldi	r31, 0x00	; 0
    11e6:	e4 50       	subi	r30, 0x04	; 4
    11e8:	fa 4f       	sbci	r31, 0xFA	; 250
    11ea:	80 83       	st	Z, r24
    11ec:	9f 3f       	cpi	r25, 0xFF	; 255
    11ee:	09 f0       	breq	.+2      	; 0x11f2 <__stack+0xf3>
    11f0:	16 cd       	rjmp	.-1492   	; 0xc1e <reporting_task+0x36e>
    11f2:	10 92 f9 05 	sts	0x05F9, r1
    11f6:	15 cd       	rjmp	.-1494   	; 0xc22 <reporting_task+0x372>
    11f8:	84 2f       	mov	r24, r20
    11fa:	90 e0       	ldi	r25, 0x00	; 0
    11fc:	28 1b       	sub	r18, r24
    11fe:	39 0b       	sbc	r19, r25
    1200:	2d 30       	cpi	r18, 0x0D	; 13
    1202:	31 05       	cpc	r19, r1
    1204:	0c f0       	brlt	.+2      	; 0x1208 <__stack+0x109>
    1206:	e5 cd       	rjmp	.-1078   	; 0xdd2 <reporting_task+0x522>
    1208:	80 91 f7 05 	lds	r24, 0x05F7
    120c:	8f 5f       	subi	r24, 0xFF	; 255
    120e:	80 93 f7 05 	sts	0x05F7, r24
    1212:	08 95       	ret
    1214:	41 e0       	ldi	r20, 0x01	; 1
    1216:	a0 e0       	ldi	r26, 0x00	; 0
    1218:	b0 e0       	ldi	r27, 0x00	; 0
    121a:	80 91 ba 07 	lds	r24, 0x07BA
    121e:	a4 50       	subi	r26, 0x04	; 4
    1220:	ba 4f       	sbci	r27, 0xFA	; 250
    1222:	8c 93       	st	X, r24
    1224:	96 e0       	ldi	r25, 0x06	; 6
    1226:	98 0f       	add	r25, r24
    1228:	84 5f       	subi	r24, 0xF4	; 244
    122a:	20 91 bb 07 	lds	r18, 0x07BB
    122e:	e4 2f       	mov	r30, r20
    1230:	f0 e0       	ldi	r31, 0x00	; 0
    1232:	e4 50       	subi	r30, 0x04	; 4
    1234:	fa 4f       	sbci	r31, 0xFA	; 250
    1236:	20 83       	st	Z, r18
    1238:	92 0f       	add	r25, r18
    123a:	89 0f       	add	r24, r25
    123c:	a1 e0       	ldi	r26, 0x01	; 1
    123e:	a4 0f       	add	r26, r20
    1240:	af 3f       	cpi	r26, 0xFF	; 255
    1242:	09 f4       	brne	.+2      	; 0x1246 <__stack+0x147>
    1244:	84 c0       	rjmp	.+264    	; 0x134e <__stack+0x24f>
    1246:	4e 5f       	subi	r20, 0xFE	; 254
    1248:	20 91 bc 07 	lds	r18, 0x07BC
    124c:	b0 e0       	ldi	r27, 0x00	; 0
    124e:	a4 50       	subi	r26, 0x04	; 4
    1250:	ba 4f       	sbci	r27, 0xFA	; 250
    1252:	2c 93       	st	X, r18
    1254:	92 0f       	add	r25, r18
    1256:	89 0f       	add	r24, r25
    1258:	4f 3f       	cpi	r20, 0xFF	; 255
    125a:	09 f0       	breq	.+2      	; 0x125e <__stack+0x15f>
    125c:	46 cd       	rjmp	.-1396   	; 0xcea <reporting_task+0x43a>
    125e:	20 91 bd 07 	lds	r18, 0x07BD
    1262:	20 93 fc 05 	sts	0x05FC, r18
    1266:	92 0f       	add	r25, r18
    1268:	89 0f       	add	r24, r25
    126a:	20 91 9e 07 	lds	r18, 0x079E
    126e:	20 93 fd 05 	sts	0x05FD, r18
    1272:	92 0f       	add	r25, r18
    1274:	89 0f       	add	r24, r25
    1276:	e2 e0       	ldi	r30, 0x02	; 2
    1278:	a1 e0       	ldi	r26, 0x01	; 1
    127a:	ae 0f       	add	r26, r30
    127c:	20 91 9f 07 	lds	r18, 0x079F
    1280:	f0 e0       	ldi	r31, 0x00	; 0
    1282:	e4 50       	subi	r30, 0x04	; 4
    1284:	fa 4f       	sbci	r31, 0xFA	; 250
    1286:	20 83       	st	Z, r18
    1288:	92 0f       	add	r25, r18
    128a:	89 0f       	add	r24, r25
    128c:	af 3f       	cpi	r26, 0xFF	; 255
    128e:	09 f0       	breq	.+2      	; 0x1292 <__stack+0x193>
    1290:	47 cd       	rjmp	.-1394   	; 0xd20 <reporting_task+0x470>
    1292:	20 91 a0 07 	lds	r18, 0x07A0
    1296:	20 93 fc 05 	sts	0x05FC, r18
    129a:	92 0f       	add	r25, r18
    129c:	89 0f       	add	r24, r25
    129e:	20 91 a1 07 	lds	r18, 0x07A1
    12a2:	20 93 fd 05 	sts	0x05FD, r18
    12a6:	92 0f       	add	r25, r18
    12a8:	89 0f       	add	r24, r25
    12aa:	a2 e0       	ldi	r26, 0x02	; 2
    12ac:	e1 e0       	ldi	r30, 0x01	; 1
    12ae:	ea 0f       	add	r30, r26
    12b0:	20 91 ae 07 	lds	r18, 0x07AE
    12b4:	b0 e0       	ldi	r27, 0x00	; 0
    12b6:	a4 50       	subi	r26, 0x04	; 4
    12b8:	ba 4f       	sbci	r27, 0xFA	; 250
    12ba:	2c 93       	st	X, r18
    12bc:	92 0f       	add	r25, r18
    12be:	89 0f       	add	r24, r25
    12c0:	ef 3f       	cpi	r30, 0xFF	; 255
    12c2:	09 f0       	breq	.+2      	; 0x12c6 <__stack+0x1c7>
    12c4:	47 cd       	rjmp	.-1394   	; 0xd54 <reporting_task+0x4a4>
    12c6:	20 91 af 07 	lds	r18, 0x07AF
    12ca:	20 93 fc 05 	sts	0x05FC, r18
    12ce:	92 0f       	add	r25, r18
    12d0:	89 0f       	add	r24, r25
    12d2:	20 91 b0 07 	lds	r18, 0x07B0
    12d6:	20 93 fd 05 	sts	0x05FD, r18
    12da:	92 0f       	add	r25, r18
    12dc:	89 0f       	add	r24, r25
    12de:	e2 e0       	ldi	r30, 0x02	; 2
    12e0:	a1 e0       	ldi	r26, 0x01	; 1
    12e2:	ae 0f       	add	r26, r30
    12e4:	20 91 b1 07 	lds	r18, 0x07B1
    12e8:	f0 e0       	ldi	r31, 0x00	; 0
    12ea:	e4 50       	subi	r30, 0x04	; 4
    12ec:	fa 4f       	sbci	r31, 0xFA	; 250
    12ee:	20 83       	st	Z, r18
    12f0:	92 0f       	add	r25, r18
    12f2:	90 93 fb 06 	sts	0x06FB, r25
    12f6:	89 0f       	add	r24, r25
    12f8:	80 93 f6 05 	sts	0x05F6, r24
    12fc:	af 3f       	cpi	r26, 0xFF	; 255
    12fe:	09 f0       	breq	.+2      	; 0x1302 <__stack+0x203>
    1300:	47 cd       	rjmp	.-1394   	; 0xd90 <reporting_task+0x4e0>
    1302:	90 93 fc 05 	sts	0x05FC, r25
    1306:	80 93 fd 05 	sts	0x05FD, r24
    130a:	92 e0       	ldi	r25, 0x02	; 2
    130c:	90 93 f9 05 	sts	0x05F9, r25
    1310:	09 b6       	in	r0, 0x39	; 57
    1312:	04 fc       	sbrc	r0, 4
    1314:	ff cd       	rjmp	.-1026   	; 0xf14 <reporting_task+0x664>
    1316:	e0 91 fa 05 	lds	r30, 0x05FA
    131a:	f0 e0       	ldi	r31, 0x00	; 0
    131c:	e4 50       	subi	r30, 0x04	; 4
    131e:	fa 4f       	sbci	r31, 0xFA	; 250
    1320:	80 81       	ld	r24, Z
    1322:	80 93 f8 05 	sts	0x05F8, r24
    1326:	10 92 fb 05 	sts	0x05FB, r1
    132a:	80 91 fa 05 	lds	r24, 0x05FA
    132e:	8f 5f       	subi	r24, 0xFF	; 255
    1330:	80 93 fa 05 	sts	0x05FA, r24
    1334:	80 91 fa 05 	lds	r24, 0x05FA
    1338:	8f 3f       	cpi	r24, 0xFF	; 255
    133a:	11 f4       	brne	.+4      	; 0x1340 <__stack+0x241>
    133c:	0c 94 eb 11 	jmp	0x23d6	; 0x23d6 <__stack+0x12d7>
    1340:	88 b7       	in	r24, 0x38	; 56
    1342:	81 60       	ori	r24, 0x01	; 1
    1344:	88 bf       	out	0x38, r24	; 56
    1346:	89 b7       	in	r24, 0x39	; 57
    1348:	80 61       	ori	r24, 0x10	; 16
    134a:	89 bf       	out	0x39, r24	; 57
    134c:	e3 cd       	rjmp	.-1082   	; 0xf14 <reporting_task+0x664>
    134e:	20 91 bc 07 	lds	r18, 0x07BC
    1352:	20 93 fc 05 	sts	0x05FC, r18
    1356:	92 0f       	add	r25, r18
    1358:	89 0f       	add	r24, r25
    135a:	20 91 bd 07 	lds	r18, 0x07BD
    135e:	20 93 fd 05 	sts	0x05FD, r18
    1362:	92 0f       	add	r25, r18
    1364:	89 0f       	add	r24, r25
    1366:	a2 e0       	ldi	r26, 0x02	; 2
    1368:	e1 e0       	ldi	r30, 0x01	; 1
    136a:	ea 0f       	add	r30, r26
    136c:	20 91 9e 07 	lds	r18, 0x079E
    1370:	b0 e0       	ldi	r27, 0x00	; 0
    1372:	a4 50       	subi	r26, 0x04	; 4
    1374:	ba 4f       	sbci	r27, 0xFA	; 250
    1376:	2c 93       	st	X, r18
    1378:	92 0f       	add	r25, r18
    137a:	89 0f       	add	r24, r25
    137c:	ef 3f       	cpi	r30, 0xFF	; 255
    137e:	09 f0       	breq	.+2      	; 0x1382 <__stack+0x283>
    1380:	7b cf       	rjmp	.-266    	; 0x1278 <__stack+0x179>
    1382:	20 91 9f 07 	lds	r18, 0x079F
    1386:	20 93 fc 05 	sts	0x05FC, r18
    138a:	92 0f       	add	r25, r18
    138c:	89 0f       	add	r24, r25
    138e:	20 91 a0 07 	lds	r18, 0x07A0
    1392:	20 93 fd 05 	sts	0x05FD, r18
    1396:	92 0f       	add	r25, r18
    1398:	89 0f       	add	r24, r25
    139a:	e2 e0       	ldi	r30, 0x02	; 2
    139c:	a1 e0       	ldi	r26, 0x01	; 1
    139e:	ae 0f       	add	r26, r30
    13a0:	20 91 a1 07 	lds	r18, 0x07A1
    13a4:	f0 e0       	ldi	r31, 0x00	; 0
    13a6:	e4 50       	subi	r30, 0x04	; 4
    13a8:	fa 4f       	sbci	r31, 0xFA	; 250
    13aa:	20 83       	st	Z, r18
    13ac:	92 0f       	add	r25, r18
    13ae:	89 0f       	add	r24, r25
    13b0:	af 3f       	cpi	r26, 0xFF	; 255
    13b2:	09 f0       	breq	.+2      	; 0x13b6 <__stack+0x2b7>
    13b4:	7b cf       	rjmp	.-266    	; 0x12ac <__stack+0x1ad>
    13b6:	20 91 ae 07 	lds	r18, 0x07AE
    13ba:	20 93 fc 05 	sts	0x05FC, r18
    13be:	92 0f       	add	r25, r18
    13c0:	89 0f       	add	r24, r25
    13c2:	20 91 af 07 	lds	r18, 0x07AF
    13c6:	20 93 fd 05 	sts	0x05FD, r18
    13ca:	92 0f       	add	r25, r18
    13cc:	89 0f       	add	r24, r25
    13ce:	a2 e0       	ldi	r26, 0x02	; 2
    13d0:	e1 e0       	ldi	r30, 0x01	; 1
    13d2:	ea 0f       	add	r30, r26
    13d4:	20 91 b0 07 	lds	r18, 0x07B0
    13d8:	b0 e0       	ldi	r27, 0x00	; 0
    13da:	a4 50       	subi	r26, 0x04	; 4
    13dc:	ba 4f       	sbci	r27, 0xFA	; 250
    13de:	2c 93       	st	X, r18
    13e0:	92 0f       	add	r25, r18
    13e2:	89 0f       	add	r24, r25
    13e4:	ef 3f       	cpi	r30, 0xFF	; 255
    13e6:	09 f0       	breq	.+2      	; 0x13ea <__stack+0x2eb>
    13e8:	7b cf       	rjmp	.-266    	; 0x12e0 <__stack+0x1e1>
    13ea:	20 91 b1 07 	lds	r18, 0x07B1
    13ee:	20 93 fc 05 	sts	0x05FC, r18
    13f2:	92 0f       	add	r25, r18
    13f4:	90 93 fb 06 	sts	0x06FB, r25
    13f8:	89 0f       	add	r24, r25
    13fa:	80 93 f6 05 	sts	0x05F6, r24
    13fe:	90 93 fd 05 	sts	0x05FD, r25
    1402:	e2 e0       	ldi	r30, 0x02	; 2
    1404:	91 e0       	ldi	r25, 0x01	; 1
    1406:	9e 0f       	add	r25, r30
    1408:	f0 e0       	ldi	r31, 0x00	; 0
    140a:	e4 50       	subi	r30, 0x04	; 4
    140c:	fa 4f       	sbci	r31, 0xFA	; 250
    140e:	80 83       	st	Z, r24
    1410:	9f 3f       	cpi	r25, 0xFF	; 255
    1412:	09 f0       	breq	.+2      	; 0x1416 <__stack+0x317>
    1414:	7b cf       	rjmp	.-266    	; 0x130c <__stack+0x20d>
    1416:	10 92 f9 05 	sts	0x05F9, r1
    141a:	7a cf       	rjmp	.-268    	; 0x1310 <__stack+0x211>
    141c:	a0 91 f9 05 	lds	r26, 0x05F9
    1420:	80 91 fa 05 	lds	r24, 0x05FA
    1424:	20 91 fa 05 	lds	r18, 0x05FA
    1428:	30 e0       	ldi	r19, 0x00	; 0
    142a:	a8 17       	cp	r26, r24
    142c:	08 f4       	brcc	.+2      	; 0x1430 <__stack+0x331>
    142e:	33 c4       	rjmp	.+2150   	; 0x1c96 <__stack+0xb97>
    1430:	8a 2f       	mov	r24, r26
    1432:	90 e0       	ldi	r25, 0x00	; 0
    1434:	28 1b       	sub	r18, r24
    1436:	39 0b       	sbc	r19, r25
    1438:	2b 30       	cpi	r18, 0x0B	; 11
    143a:	3f 4f       	sbci	r19, 0xFF	; 255
    143c:	0c f4       	brge	.+2      	; 0x1440 <__stack+0x341>
    143e:	6f c0       	rjmp	.+222    	; 0x151e <__stack+0x41f>
    1440:	fc 01       	movw	r30, r24
    1442:	e4 50       	subi	r30, 0x04	; 4
    1444:	fa 4f       	sbci	r31, 0xFA	; 250
    1446:	25 e0       	ldi	r18, 0x05	; 5
    1448:	20 83       	st	Z, r18
    144a:	e1 e0       	ldi	r30, 0x01	; 1
    144c:	ea 0f       	add	r30, r26
    144e:	e0 93 f9 05 	sts	0x05F9, r30
    1452:	ef 3f       	cpi	r30, 0xFF	; 255
    1454:	11 f4       	brne	.+4      	; 0x145a <__stack+0x35b>
    1456:	0c 94 10 15 	jmp	0x2a20	; 0x2a20 <__stack+0x1921>
    145a:	f0 e0       	ldi	r31, 0x00	; 0
    145c:	e4 50       	subi	r30, 0x04	; 4
    145e:	fa 4f       	sbci	r31, 0xFA	; 250
    1460:	8d e0       	ldi	r24, 0x0D	; 13
    1462:	80 83       	st	Z, r24
    1464:	e2 e0       	ldi	r30, 0x02	; 2
    1466:	ea 0f       	add	r30, r26
    1468:	ef 3f       	cpi	r30, 0xFF	; 255
    146a:	09 f4       	brne	.+2      	; 0x146e <__stack+0x36f>
    146c:	7c c6       	rjmp	.+3320   	; 0x2166 <__stack+0x1067>
    146e:	ad 5f       	subi	r26, 0xFD	; 253
    1470:	80 91 29 07 	lds	r24, 0x0729
    1474:	f0 e0       	ldi	r31, 0x00	; 0
    1476:	e4 50       	subi	r30, 0x04	; 4
    1478:	fa 4f       	sbci	r31, 0xFA	; 250
    147a:	80 83       	st	Z, r24
    147c:	2d e0       	ldi	r18, 0x0D	; 13
    147e:	28 0f       	add	r18, r24
    1480:	86 5e       	subi	r24, 0xE6	; 230
    1482:	af 3f       	cpi	r26, 0xFF	; 255
    1484:	09 f0       	breq	.+2      	; 0x1488 <__stack+0x389>
    1486:	7a c6       	rjmp	.+3316   	; 0x217c <__stack+0x107d>
    1488:	90 91 28 07 	lds	r25, 0x0728
    148c:	90 93 fc 05 	sts	0x05FC, r25
    1490:	92 0f       	add	r25, r18
    1492:	89 0f       	add	r24, r25
    1494:	30 91 f7 05 	lds	r19, 0x05F7
    1498:	30 93 fd 05 	sts	0x05FD, r19
    149c:	93 0f       	add	r25, r19
    149e:	89 0f       	add	r24, r25
    14a0:	a2 e0       	ldi	r26, 0x02	; 2
    14a2:	e1 e0       	ldi	r30, 0x01	; 1
    14a4:	ea 0f       	add	r30, r26
    14a6:	20 91 59 07 	lds	r18, 0x0759
    14aa:	b0 e0       	ldi	r27, 0x00	; 0
    14ac:	a4 50       	subi	r26, 0x04	; 4
    14ae:	ba 4f       	sbci	r27, 0xFA	; 250
    14b0:	2c 93       	st	X, r18
    14b2:	92 0f       	add	r25, r18
    14b4:	89 0f       	add	r24, r25
    14b6:	ef 3f       	cpi	r30, 0xFF	; 255
    14b8:	11 f0       	breq	.+4      	; 0x14be <__stack+0x3bf>
    14ba:	0c 94 c3 12 	jmp	0x2586	; 0x2586 <__stack+0x1487>
    14be:	20 91 d7 01 	lds	r18, 0x01D7
    14c2:	20 93 fc 05 	sts	0x05FC, r18
    14c6:	92 0f       	add	r25, r18
    14c8:	90 93 fb 06 	sts	0x06FB, r25
    14cc:	89 0f       	add	r24, r25
    14ce:	80 93 f6 05 	sts	0x05F6, r24
    14d2:	90 93 fd 05 	sts	0x05FD, r25
    14d6:	e2 e0       	ldi	r30, 0x02	; 2
    14d8:	91 e0       	ldi	r25, 0x01	; 1
    14da:	9e 0f       	add	r25, r30
    14dc:	f0 e0       	ldi	r31, 0x00	; 0
    14de:	e4 50       	subi	r30, 0x04	; 4
    14e0:	fa 4f       	sbci	r31, 0xFA	; 250
    14e2:	80 83       	st	Z, r24
    14e4:	9f 3f       	cpi	r25, 0xFF	; 255
    14e6:	11 f0       	breq	.+4      	; 0x14ec <__stack+0x3ed>
    14e8:	0c 94 d9 12 	jmp	0x25b2	; 0x25b2 <__stack+0x14b3>
    14ec:	10 92 f9 05 	sts	0x05F9, r1
    14f0:	09 b6       	in	r0, 0x39	; 57
    14f2:	04 fc       	sbrc	r0, 4
    14f4:	02 c0       	rjmp	.+4      	; 0x14fa <__stack+0x3fb>
    14f6:	0c 94 90 12 	jmp	0x2520	; 0x2520 <__stack+0x1421>
    14fa:	54 2f       	mov	r21, r20
    14fc:	5b ca       	rjmp	.-2890   	; 0x9b4 <reporting_task+0x104>
    14fe:	a0 91 f9 05 	lds	r26, 0x05F9
    1502:	80 91 fa 05 	lds	r24, 0x05FA
    1506:	20 91 fa 05 	lds	r18, 0x05FA
    150a:	30 e0       	ldi	r19, 0x00	; 0
    150c:	a8 17       	cp	r26, r24
    150e:	68 f0       	brcs	.+26     	; 0x152a <__stack+0x42b>
    1510:	8a 2f       	mov	r24, r26
    1512:	90 e0       	ldi	r25, 0x00	; 0
    1514:	28 1b       	sub	r18, r24
    1516:	39 0b       	sbc	r19, r25
    1518:	2b 30       	cpi	r18, 0x0B	; 11
    151a:	3f 4f       	sbci	r19, 0xFF	; 255
    151c:	6c f4       	brge	.+26     	; 0x1538 <__stack+0x439>
    151e:	80 91 f7 05 	lds	r24, 0x05F7
    1522:	8f 5f       	subi	r24, 0xFF	; 255
    1524:	80 93 f7 05 	sts	0x05F7, r24
    1528:	45 ca       	rjmp	.-2934   	; 0x9b4 <reporting_task+0x104>
    152a:	8a 2f       	mov	r24, r26
    152c:	90 e0       	ldi	r25, 0x00	; 0
    152e:	28 1b       	sub	r18, r24
    1530:	39 0b       	sbc	r19, r25
    1532:	2a 30       	cpi	r18, 0x0A	; 10
    1534:	31 05       	cpc	r19, r1
    1536:	9c f3       	brlt	.-26     	; 0x151e <__stack+0x41f>
    1538:	fc 01       	movw	r30, r24
    153a:	e4 50       	subi	r30, 0x04	; 4
    153c:	fa 4f       	sbci	r31, 0xFA	; 250
    153e:	25 e0       	ldi	r18, 0x05	; 5
    1540:	20 83       	st	Z, r18
    1542:	e1 e0       	ldi	r30, 0x01	; 1
    1544:	ea 0f       	add	r30, r26
    1546:	ef 3f       	cpi	r30, 0xFF	; 255
    1548:	11 f4       	brne	.+4      	; 0x154e <__stack+0x44f>
    154a:	0c 94 fb 14 	jmp	0x29f6	; 0x29f6 <__stack+0x18f7>
    154e:	f0 e0       	ldi	r31, 0x00	; 0
    1550:	e4 50       	subi	r30, 0x04	; 4
    1552:	fa 4f       	sbci	r31, 0xFA	; 250
    1554:	8b e0       	ldi	r24, 0x0B	; 11
    1556:	80 83       	st	Z, r24
    1558:	e2 e0       	ldi	r30, 0x02	; 2
    155a:	ea 0f       	add	r30, r26
    155c:	ef 3f       	cpi	r30, 0xFF	; 255
    155e:	09 f4       	brne	.+2      	; 0x1562 <__stack+0x463>
    1560:	b9 c4       	rjmp	.+2418   	; 0x1ed4 <__stack+0xdd5>
    1562:	ad 5f       	subi	r26, 0xFD	; 253
    1564:	80 91 c8 01 	lds	r24, 0x01C8
    1568:	f0 e0       	ldi	r31, 0x00	; 0
    156a:	e4 50       	subi	r30, 0x04	; 4
    156c:	fa 4f       	sbci	r31, 0xFA	; 250
    156e:	80 83       	st	Z, r24
    1570:	2b e0       	ldi	r18, 0x0B	; 11
    1572:	28 0f       	add	r18, r24
    1574:	8a 5e       	subi	r24, 0xEA	; 234
    1576:	af 3f       	cpi	r26, 0xFF	; 255
    1578:	09 f0       	breq	.+2      	; 0x157c <__stack+0x47d>
    157a:	b7 c4       	rjmp	.+2414   	; 0x1eea <__stack+0xdeb>
    157c:	90 91 c7 01 	lds	r25, 0x01C7
    1580:	90 93 fc 05 	sts	0x05FC, r25
    1584:	92 0f       	add	r25, r18
    1586:	89 0f       	add	r24, r25
    1588:	30 91 da 05 	lds	r19, 0x05DA
    158c:	30 93 fd 05 	sts	0x05FD, r19
    1590:	93 0f       	add	r25, r19
    1592:	89 0f       	add	r24, r25
    1594:	a2 e0       	ldi	r26, 0x02	; 2
    1596:	e1 e0       	ldi	r30, 0x01	; 1
    1598:	ea 0f       	add	r30, r26
    159a:	20 91 d8 01 	lds	r18, 0x01D8
    159e:	b0 e0       	ldi	r27, 0x00	; 0
    15a0:	a4 50       	subi	r26, 0x04	; 4
    15a2:	ba 4f       	sbci	r27, 0xFA	; 250
    15a4:	2c 93       	st	X, r18
    15a6:	92 0f       	add	r25, r18
    15a8:	89 0f       	add	r24, r25
    15aa:	ef 3f       	cpi	r30, 0xFF	; 255
    15ac:	11 f0       	breq	.+4      	; 0x15b2 <__stack+0x4b3>
    15ae:	0c 94 92 13 	jmp	0x2724	; 0x2724 <__stack+0x1625>
    15b2:	20 91 01 01 	lds	r18, 0x0101
    15b6:	20 93 fc 05 	sts	0x05FC, r18
    15ba:	92 0f       	add	r25, r18
    15bc:	90 93 fb 06 	sts	0x06FB, r25
    15c0:	89 0f       	add	r24, r25
    15c2:	80 93 f6 05 	sts	0x05F6, r24
    15c6:	90 93 fd 05 	sts	0x05FD, r25
    15ca:	e2 e0       	ldi	r30, 0x02	; 2
    15cc:	91 e0       	ldi	r25, 0x01	; 1
    15ce:	9e 0f       	add	r25, r30
    15d0:	f0 e0       	ldi	r31, 0x00	; 0
    15d2:	e4 50       	subi	r30, 0x04	; 4
    15d4:	fa 4f       	sbci	r31, 0xFA	; 250
    15d6:	80 83       	st	Z, r24
    15d8:	9f 3f       	cpi	r25, 0xFF	; 255
    15da:	11 f0       	breq	.+4      	; 0x15e0 <__stack+0x4e1>
    15dc:	0c 94 a8 13 	jmp	0x2750	; 0x2750 <__stack+0x1651>
    15e0:	10 92 f9 05 	sts	0x05F9, r1
    15e4:	09 b6       	in	r0, 0x39	; 57
    15e6:	04 fe       	sbrs	r0, 4
    15e8:	40 c7       	rjmp	.+3712   	; 0x246a <__stack+0x136b>
    15ea:	54 2f       	mov	r21, r20
    15ec:	89 e2       	ldi	r24, 0x29	; 41
    15ee:	48 9f       	mul	r20, r24
    15f0:	81 2d       	mov	r24, r1
    15f2:	11 24       	eor	r1, r1
    15f4:	86 95       	lsr	r24
    15f6:	86 95       	lsr	r24
    15f8:	86 95       	lsr	r24
    15fa:	94 2f       	mov	r25, r20
    15fc:	72 e3       	ldi	r23, 0x32	; 50
    15fe:	87 9f       	mul	r24, r23
    1600:	90 19       	sub	r25, r0
    1602:	11 24       	eor	r1, r1
    1604:	89 2f       	mov	r24, r25
    1606:	d3 c9       	rjmp	.-3162   	; 0x9ae <reporting_task+0xfe>
    1608:	70 91 da 05 	lds	r23, 0x05DA
    160c:	77 23       	and	r23, r23
    160e:	09 f4       	brne	.+2      	; 0x1612 <__stack+0x513>
    1610:	9d c9       	rjmp	.-3270   	; 0x94c <reporting_task+0x9c>
    1612:	e0 91 f9 05 	lds	r30, 0x05F9
    1616:	80 91 fa 05 	lds	r24, 0x05FA
    161a:	20 91 fa 05 	lds	r18, 0x05FA
    161e:	30 e0       	ldi	r19, 0x00	; 0
    1620:	e8 17       	cp	r30, r24
    1622:	08 f4       	brcc	.+2      	; 0x1626 <__stack+0x527>
    1624:	57 c3       	rjmp	.+1710   	; 0x1cd4 <__stack+0xbd5>
    1626:	8e 2f       	mov	r24, r30
    1628:	90 e0       	ldi	r25, 0x00	; 0
    162a:	28 1b       	sub	r18, r24
    162c:	39 0b       	sbc	r19, r25
    162e:	2f 30       	cpi	r18, 0x0F	; 15
    1630:	3f 4f       	sbci	r19, 0xFF	; 255
    1632:	0c f0       	brlt	.+2      	; 0x1636 <__stack+0x537>
    1634:	57 c3       	rjmp	.+1710   	; 0x1ce4 <__stack+0xbe5>
    1636:	80 91 f7 05 	lds	r24, 0x05F7
    163a:	8f 5f       	subi	r24, 0xFF	; 255
    163c:	80 93 f7 05 	sts	0x05F7, r24
    1640:	85 c9       	rjmp	.-3318   	; 0x94c <reporting_task+0x9c>
    1642:	60 91 f9 05 	lds	r22, 0x05F9
    1646:	80 91 fa 05 	lds	r24, 0x05FA
    164a:	20 91 fa 05 	lds	r18, 0x05FA
    164e:	30 e0       	ldi	r19, 0x00	; 0
    1650:	68 17       	cp	r22, r24
    1652:	08 f4       	brcc	.+2      	; 0x1656 <__stack+0x557>
    1654:	29 c3       	rjmp	.+1618   	; 0x1ca8 <__stack+0xba9>
    1656:	86 2f       	mov	r24, r22
    1658:	90 e0       	ldi	r25, 0x00	; 0
    165a:	28 1b       	sub	r18, r24
    165c:	39 0b       	sbc	r19, r25
    165e:	24 31       	cpi	r18, 0x14	; 20
    1660:	3f 4f       	sbci	r19, 0xFF	; 255
    1662:	0c f4       	brge	.+2      	; 0x1666 <__stack+0x567>
    1664:	db c0       	rjmp	.+438    	; 0x181c <__stack+0x71d>
    1666:	fc 01       	movw	r30, r24
    1668:	e4 50       	subi	r30, 0x04	; 4
    166a:	fa 4f       	sbci	r31, 0xFA	; 250
    166c:	25 e0       	ldi	r18, 0x05	; 5
    166e:	20 83       	st	Z, r18
    1670:	e1 e0       	ldi	r30, 0x01	; 1
    1672:	e6 0f       	add	r30, r22
    1674:	ef 3f       	cpi	r30, 0xFF	; 255
    1676:	11 f4       	brne	.+4      	; 0x167c <__stack+0x57d>
    1678:	0c 94 02 15 	jmp	0x2a04	; 0x2a04 <__stack+0x1905>
    167c:	f0 e0       	ldi	r31, 0x00	; 0
    167e:	e4 50       	subi	r30, 0x04	; 4
    1680:	fa 4f       	sbci	r31, 0xFA	; 250
    1682:	8e e0       	ldi	r24, 0x0E	; 14
    1684:	80 83       	st	Z, r24
    1686:	a2 e0       	ldi	r26, 0x02	; 2
    1688:	a6 0f       	add	r26, r22
    168a:	af 3f       	cpi	r26, 0xFF	; 255
    168c:	09 f4       	brne	.+2      	; 0x1690 <__stack+0x591>
    168e:	0f c6       	rjmp	.+3102   	; 0x22ae <__stack+0x11af>
    1690:	6d 5f       	subi	r22, 0xFD	; 253
    1692:	80 91 68 07 	lds	r24, 0x0768
    1696:	b0 e0       	ldi	r27, 0x00	; 0
    1698:	a4 50       	subi	r26, 0x04	; 4
    169a:	ba 4f       	sbci	r27, 0xFA	; 250
    169c:	8c 93       	st	X, r24
    169e:	2e e0       	ldi	r18, 0x0E	; 14
    16a0:	28 0f       	add	r18, r24
    16a2:	84 5e       	subi	r24, 0xE4	; 228
    16a4:	6f 3f       	cpi	r22, 0xFF	; 255
    16a6:	09 f0       	breq	.+2      	; 0x16aa <__stack+0x5ab>
    16a8:	0d c6       	rjmp	.+3098   	; 0x22c4 <__stack+0x11c5>
    16aa:	90 91 69 07 	lds	r25, 0x0769
    16ae:	90 93 fc 05 	sts	0x05FC, r25
    16b2:	92 0f       	add	r25, r18
    16b4:	89 0f       	add	r24, r25
    16b6:	30 91 88 03 	lds	r19, 0x0388
    16ba:	30 93 fd 05 	sts	0x05FD, r19
    16be:	93 0f       	add	r25, r19
    16c0:	89 0f       	add	r24, r25
    16c2:	62 e0       	ldi	r22, 0x02	; 2
    16c4:	a1 e0       	ldi	r26, 0x01	; 1
    16c6:	a6 0f       	add	r26, r22
    16c8:	20 91 89 03 	lds	r18, 0x0389
    16cc:	e6 2f       	mov	r30, r22
    16ce:	f0 e0       	ldi	r31, 0x00	; 0
    16d0:	e4 50       	subi	r30, 0x04	; 4
    16d2:	fa 4f       	sbci	r31, 0xFA	; 250
    16d4:	20 83       	st	Z, r18
    16d6:	92 0f       	add	r25, r18
    16d8:	89 0f       	add	r24, r25
    16da:	af 3f       	cpi	r26, 0xFF	; 255
    16dc:	11 f0       	breq	.+4      	; 0x16e2 <__stack+0x5e3>
    16de:	0c 94 f9 13 	jmp	0x27f2	; 0x27f2 <__stack+0x16f3>
    16e2:	20 91 8a 03 	lds	r18, 0x038A
    16e6:	20 93 fc 05 	sts	0x05FC, r18
    16ea:	92 0f       	add	r25, r18
    16ec:	89 0f       	add	r24, r25
    16ee:	20 91 8b 03 	lds	r18, 0x038B
    16f2:	20 93 fd 05 	sts	0x05FD, r18
    16f6:	29 0f       	add	r18, r25
    16f8:	82 0f       	add	r24, r18
    16fa:	a2 e0       	ldi	r26, 0x02	; 2
    16fc:	e1 e0       	ldi	r30, 0x01	; 1
    16fe:	ea 0f       	add	r30, r26
    1700:	90 91 80 03 	lds	r25, 0x0380
    1704:	b0 e0       	ldi	r27, 0x00	; 0
    1706:	a4 50       	subi	r26, 0x04	; 4
    1708:	ba 4f       	sbci	r27, 0xFA	; 250
    170a:	9c 93       	st	X, r25
    170c:	29 0f       	add	r18, r25
    170e:	82 0f       	add	r24, r18
    1710:	ef 3f       	cpi	r30, 0xFF	; 255
    1712:	11 f0       	breq	.+4      	; 0x1718 <__stack+0x619>
    1714:	0c 94 13 14 	jmp	0x2826	; 0x2826 <__stack+0x1727>
    1718:	90 91 81 03 	lds	r25, 0x0381
    171c:	90 93 fc 05 	sts	0x05FC, r25
    1720:	29 0f       	add	r18, r25
    1722:	82 0f       	add	r24, r18
    1724:	90 91 82 03 	lds	r25, 0x0382
    1728:	90 93 fd 05 	sts	0x05FD, r25
    172c:	29 0f       	add	r18, r25
    172e:	82 0f       	add	r24, r18
    1730:	e2 e0       	ldi	r30, 0x02	; 2
    1732:	a1 e0       	ldi	r26, 0x01	; 1
    1734:	ae 0f       	add	r26, r30
    1736:	90 91 83 03 	lds	r25, 0x0383
    173a:	f0 e0       	ldi	r31, 0x00	; 0
    173c:	e4 50       	subi	r30, 0x04	; 4
    173e:	fa 4f       	sbci	r31, 0xFA	; 250
    1740:	90 83       	st	Z, r25
    1742:	29 0f       	add	r18, r25
    1744:	82 0f       	add	r24, r18
    1746:	af 3f       	cpi	r26, 0xFF	; 255
    1748:	11 f0       	breq	.+4      	; 0x174e <__stack+0x64f>
    174a:	0c 94 2d 14 	jmp	0x285a	; 0x285a <__stack+0x175b>
    174e:	30 91 a7 01 	lds	r19, 0x01A7
    1752:	30 93 fc 05 	sts	0x05FC, r19
    1756:	23 0f       	add	r18, r19
    1758:	82 0f       	add	r24, r18
    175a:	50 91 a8 01 	lds	r21, 0x01A8
    175e:	50 93 fd 05 	sts	0x05FD, r21
    1762:	32 2f       	mov	r19, r18
    1764:	35 0f       	add	r19, r21
    1766:	83 0f       	add	r24, r19
    1768:	a2 e0       	ldi	r26, 0x02	; 2
    176a:	e1 e0       	ldi	r30, 0x01	; 1
    176c:	ea 0f       	add	r30, r26
    176e:	20 91 a9 01 	lds	r18, 0x01A9
    1772:	b0 e0       	ldi	r27, 0x00	; 0
    1774:	a4 50       	subi	r26, 0x04	; 4
    1776:	ba 4f       	sbci	r27, 0xFA	; 250
    1778:	2c 93       	st	X, r18
    177a:	23 0f       	add	r18, r19
    177c:	82 0f       	add	r24, r18
    177e:	ef 3f       	cpi	r30, 0xFF	; 255
    1780:	11 f0       	breq	.+4      	; 0x1786 <__stack+0x687>
    1782:	0c 94 48 14 	jmp	0x2890	; 0x2890 <__stack+0x1791>
    1786:	90 91 aa 01 	lds	r25, 0x01AA
    178a:	90 93 fc 05 	sts	0x05FC, r25
    178e:	29 0f       	add	r18, r25
    1790:	20 93 fb 06 	sts	0x06FB, r18
    1794:	82 0f       	add	r24, r18
    1796:	80 93 f6 05 	sts	0x05F6, r24
    179a:	20 93 fd 05 	sts	0x05FD, r18
    179e:	e2 e0       	ldi	r30, 0x02	; 2
    17a0:	91 e0       	ldi	r25, 0x01	; 1
    17a2:	9e 0f       	add	r25, r30
    17a4:	f0 e0       	ldi	r31, 0x00	; 0
    17a6:	e4 50       	subi	r30, 0x04	; 4
    17a8:	fa 4f       	sbci	r31, 0xFA	; 250
    17aa:	80 83       	st	Z, r24
    17ac:	9f 3f       	cpi	r25, 0xFF	; 255
    17ae:	11 f0       	breq	.+4      	; 0x17b4 <__stack+0x6b5>
    17b0:	0c 94 5e 14 	jmp	0x28bc	; 0x28bc <__stack+0x17bd>
    17b4:	10 92 f9 05 	sts	0x05F9, r1
    17b8:	09 b6       	in	r0, 0x39	; 57
    17ba:	04 fc       	sbrc	r0, 4
    17bc:	1d c0       	rjmp	.+58     	; 0x17f8 <__stack+0x6f9>
    17be:	e0 91 fa 05 	lds	r30, 0x05FA
    17c2:	f0 e0       	ldi	r31, 0x00	; 0
    17c4:	e4 50       	subi	r30, 0x04	; 4
    17c6:	fa 4f       	sbci	r31, 0xFA	; 250
    17c8:	80 81       	ld	r24, Z
    17ca:	80 93 f8 05 	sts	0x05F8, r24
    17ce:	10 92 fb 05 	sts	0x05FB, r1
    17d2:	80 91 fa 05 	lds	r24, 0x05FA
    17d6:	8f 5f       	subi	r24, 0xFF	; 255
    17d8:	80 93 fa 05 	sts	0x05FA, r24
    17dc:	80 91 fa 05 	lds	r24, 0x05FA
    17e0:	8f 3f       	cpi	r24, 0xFF	; 255
    17e2:	11 f4       	brne	.+4      	; 0x17e8 <__stack+0x6e9>
    17e4:	0c 94 6e 15 	jmp	0x2adc	; 0x2adc <__stack+0x19dd>
    17e8:	88 b7       	in	r24, 0x38	; 56
    17ea:	81 60       	ori	r24, 0x01	; 1
    17ec:	88 bf       	out	0x38, r24	; 56
    17ee:	89 b7       	in	r24, 0x39	; 57
    17f0:	80 61       	ori	r24, 0x10	; 16
    17f2:	89 bf       	out	0x39, r24	; 57
    17f4:	40 91 d4 01 	lds	r20, 0x01D4
    17f8:	54 2f       	mov	r21, r20
    17fa:	c9 c8       	rjmp	.-3694   	; 0x98e <reporting_task+0xde>
    17fc:	60 91 f9 05 	lds	r22, 0x05F9
    1800:	80 91 fa 05 	lds	r24, 0x05FA
    1804:	20 91 fa 05 	lds	r18, 0x05FA
    1808:	30 e0       	ldi	r19, 0x00	; 0
    180a:	68 17       	cp	r22, r24
    180c:	68 f0       	brcs	.+26     	; 0x1828 <__stack+0x729>
    180e:	86 2f       	mov	r24, r22
    1810:	90 e0       	ldi	r25, 0x00	; 0
    1812:	28 1b       	sub	r18, r24
    1814:	39 0b       	sbc	r19, r25
    1816:	2e 30       	cpi	r18, 0x0E	; 14
    1818:	3f 4f       	sbci	r19, 0xFF	; 255
    181a:	6c f4       	brge	.+26     	; 0x1836 <__stack+0x737>
    181c:	80 91 f7 05 	lds	r24, 0x05F7
    1820:	8f 5f       	subi	r24, 0xFF	; 255
    1822:	80 93 f7 05 	sts	0x05F7, r24
    1826:	b3 c8       	rjmp	.-3738   	; 0x98e <reporting_task+0xde>
    1828:	86 2f       	mov	r24, r22
    182a:	90 e0       	ldi	r25, 0x00	; 0
    182c:	28 1b       	sub	r18, r24
    182e:	39 0b       	sbc	r19, r25
    1830:	2d 30       	cpi	r18, 0x0D	; 13
    1832:	31 05       	cpc	r19, r1
    1834:	9c f3       	brlt	.-26     	; 0x181c <__stack+0x71d>
    1836:	fc 01       	movw	r30, r24
    1838:	e4 50       	subi	r30, 0x04	; 4
    183a:	fa 4f       	sbci	r31, 0xFA	; 250
    183c:	25 e0       	ldi	r18, 0x05	; 5
    183e:	20 83       	st	Z, r18
    1840:	e1 e0       	ldi	r30, 0x01	; 1
    1842:	e6 0f       	add	r30, r22
    1844:	ef 3f       	cpi	r30, 0xFF	; 255
    1846:	11 f4       	brne	.+4      	; 0x184c <__stack+0x74d>
    1848:	0c 94 f4 14 	jmp	0x29e8	; 0x29e8 <__stack+0x18e9>
    184c:	f0 e0       	ldi	r31, 0x00	; 0
    184e:	e4 50       	subi	r30, 0x04	; 4
    1850:	fa 4f       	sbci	r31, 0xFA	; 250
    1852:	8c e0       	ldi	r24, 0x0C	; 12
    1854:	80 83       	st	Z, r24
    1856:	a2 e0       	ldi	r26, 0x02	; 2
    1858:	a6 0f       	add	r26, r22
    185a:	af 3f       	cpi	r26, 0xFF	; 255
    185c:	09 f4       	brne	.+2      	; 0x1860 <__stack+0x761>
    185e:	c8 c4       	rjmp	.+2448   	; 0x21f0 <__stack+0x10f1>
    1860:	6d 5f       	subi	r22, 0xFD	; 253
    1862:	80 91 f5 05 	lds	r24, 0x05F5
    1866:	b0 e0       	ldi	r27, 0x00	; 0
    1868:	a4 50       	subi	r26, 0x04	; 4
    186a:	ba 4f       	sbci	r27, 0xFA	; 250
    186c:	8c 93       	st	X, r24
    186e:	2c e0       	ldi	r18, 0x0C	; 12
    1870:	28 0f       	add	r18, r24
    1872:	88 5e       	subi	r24, 0xE8	; 232
    1874:	6f 3f       	cpi	r22, 0xFF	; 255
    1876:	09 f0       	breq	.+2      	; 0x187a <__stack+0x77b>
    1878:	c6 c4       	rjmp	.+2444   	; 0x2206 <__stack+0x1107>
    187a:	90 91 98 07 	lds	r25, 0x0798
    187e:	90 93 fc 05 	sts	0x05FC, r25
    1882:	29 0f       	add	r18, r25
    1884:	82 0f       	add	r24, r18
    1886:	90 91 99 07 	lds	r25, 0x0799
    188a:	90 93 fd 05 	sts	0x05FD, r25
    188e:	92 0f       	add	r25, r18
    1890:	89 0f       	add	r24, r25
    1892:	62 e0       	ldi	r22, 0x02	; 2
    1894:	a1 e0       	ldi	r26, 0x01	; 1
    1896:	a6 0f       	add	r26, r22
    1898:	20 91 d6 01 	lds	r18, 0x01D6
    189c:	e6 2f       	mov	r30, r22
    189e:	f0 e0       	ldi	r31, 0x00	; 0
    18a0:	e4 50       	subi	r30, 0x04	; 4
    18a2:	fa 4f       	sbci	r31, 0xFA	; 250
    18a4:	20 83       	st	Z, r18
    18a6:	92 0f       	add	r25, r18
    18a8:	89 0f       	add	r24, r25
    18aa:	af 3f       	cpi	r26, 0xFF	; 255
    18ac:	09 f0       	breq	.+2      	; 0x18b0 <__stack+0x7b1>
    18ae:	61 c7       	rjmp	.+3778   	; 0x2772 <__stack+0x1673>
    18b0:	20 91 92 07 	lds	r18, 0x0792
    18b4:	20 93 fc 05 	sts	0x05FC, r18
    18b8:	92 0f       	add	r25, r18
    18ba:	89 0f       	add	r24, r25
    18bc:	20 91 93 07 	lds	r18, 0x0793
    18c0:	20 93 fd 05 	sts	0x05FD, r18
    18c4:	92 0f       	add	r25, r18
    18c6:	89 0f       	add	r24, r25
    18c8:	a2 e0       	ldi	r26, 0x02	; 2
    18ca:	e1 e0       	ldi	r30, 0x01	; 1
    18cc:	ea 0f       	add	r30, r26
    18ce:	20 91 90 07 	lds	r18, 0x0790
    18d2:	b0 e0       	ldi	r27, 0x00	; 0
    18d4:	a4 50       	subi	r26, 0x04	; 4
    18d6:	ba 4f       	sbci	r27, 0xFA	; 250
    18d8:	2c 93       	st	X, r18
    18da:	92 0f       	add	r25, r18
    18dc:	89 0f       	add	r24, r25
    18de:	ef 3f       	cpi	r30, 0xFF	; 255
    18e0:	09 f0       	breq	.+2      	; 0x18e4 <__stack+0x7e5>
    18e2:	61 c7       	rjmp	.+3778   	; 0x27a6 <__stack+0x16a7>
    18e4:	20 91 91 07 	lds	r18, 0x0791
    18e8:	20 93 fc 05 	sts	0x05FC, r18
    18ec:	92 0f       	add	r25, r18
    18ee:	90 93 fb 06 	sts	0x06FB, r25
    18f2:	89 0f       	add	r24, r25
    18f4:	80 93 f6 05 	sts	0x05F6, r24
    18f8:	90 93 fd 05 	sts	0x05FD, r25
    18fc:	e2 e0       	ldi	r30, 0x02	; 2
    18fe:	91 e0       	ldi	r25, 0x01	; 1
    1900:	9e 0f       	add	r25, r30
    1902:	f0 e0       	ldi	r31, 0x00	; 0
    1904:	e4 50       	subi	r30, 0x04	; 4
    1906:	fa 4f       	sbci	r31, 0xFA	; 250
    1908:	80 83       	st	Z, r24
    190a:	9f 3f       	cpi	r25, 0xFF	; 255
    190c:	09 f0       	breq	.+2      	; 0x1910 <__stack+0x811>
    190e:	61 c7       	rjmp	.+3778   	; 0x27d2 <__stack+0x16d3>
    1910:	10 92 f9 05 	sts	0x05F9, r1
    1914:	09 b6       	in	r0, 0x39	; 57
    1916:	04 fe       	sbrs	r0, 4
    1918:	d4 c5       	rjmp	.+2984   	; 0x24c2 <__stack+0x13c3>
    191a:	54 2f       	mov	r21, r20
    191c:	8d ec       	ldi	r24, 0xCD	; 205
    191e:	48 9f       	mul	r20, r24
    1920:	81 2d       	mov	r24, r1
    1922:	11 24       	eor	r1, r1
    1924:	82 95       	swap	r24
    1926:	8f 70       	andi	r24, 0x0F	; 15
    1928:	64 2f       	mov	r22, r20
    192a:	24 e1       	ldi	r18, 0x14	; 20
    192c:	82 9f       	mul	r24, r18
    192e:	60 19       	sub	r22, r0
    1930:	11 24       	eor	r1, r1
    1932:	86 2f       	mov	r24, r22
    1934:	29 c8       	rjmp	.-4014   	; 0x988 <reporting_task+0xd8>
    1936:	60 91 f9 05 	lds	r22, 0x05F9
    193a:	80 91 fa 05 	lds	r24, 0x05FA
    193e:	20 91 fa 05 	lds	r18, 0x05FA
    1942:	30 e0       	ldi	r19, 0x00	; 0
    1944:	68 17       	cp	r22, r24
    1946:	08 f4       	brcc	.+2      	; 0x194a <__stack+0x84b>
    1948:	01 c1       	rjmp	.+514    	; 0x1b4c <__stack+0xa4d>
    194a:	86 2f       	mov	r24, r22
    194c:	90 e0       	ldi	r25, 0x00	; 0
    194e:	28 1b       	sub	r18, r24
    1950:	39 0b       	sbc	r19, r25
    1952:	2a 31       	cpi	r18, 0x1A	; 26
    1954:	3f 4f       	sbci	r19, 0xFF	; 255
    1956:	0c f4       	brge	.+2      	; 0x195a <__stack+0x85b>
    1958:	01 c1       	rjmp	.+514    	; 0x1b5c <__stack+0xa5d>
    195a:	fc 01       	movw	r30, r24
    195c:	e4 50       	subi	r30, 0x04	; 4
    195e:	fa 4f       	sbci	r31, 0xFA	; 250
    1960:	25 e0       	ldi	r18, 0x05	; 5
    1962:	20 83       	st	Z, r18
    1964:	e1 e0       	ldi	r30, 0x01	; 1
    1966:	e6 0f       	add	r30, r22
    1968:	ef 3f       	cpi	r30, 0xFF	; 255
    196a:	11 f4       	brne	.+4      	; 0x1970 <__stack+0x871>
    196c:	0c 94 ed 14 	jmp	0x29da	; 0x29da <__stack+0x18db>
    1970:	f0 e0       	ldi	r31, 0x00	; 0
    1972:	e4 50       	subi	r30, 0x04	; 4
    1974:	fa 4f       	sbci	r31, 0xFA	; 250
    1976:	82 e1       	ldi	r24, 0x12	; 18
    1978:	80 83       	st	Z, r24
    197a:	a2 e0       	ldi	r26, 0x02	; 2
    197c:	a6 0f       	add	r26, r22
    197e:	af 3f       	cpi	r26, 0xFF	; 255
    1980:	09 f4       	brne	.+2      	; 0x1984 <__stack+0x885>
    1982:	2a c3       	rjmp	.+1620   	; 0x1fd8 <__stack+0xed9>
    1984:	6d 5f       	subi	r22, 0xFD	; 253
    1986:	80 91 9c 03 	lds	r24, 0x039C
    198a:	b0 e0       	ldi	r27, 0x00	; 0
    198c:	a4 50       	subi	r26, 0x04	; 4
    198e:	ba 4f       	sbci	r27, 0xFA	; 250
    1990:	8c 93       	st	X, r24
    1992:	22 e1       	ldi	r18, 0x12	; 18
    1994:	28 0f       	add	r18, r24
    1996:	8c 5d       	subi	r24, 0xDC	; 220
    1998:	6f 3f       	cpi	r22, 0xFF	; 255
    199a:	09 f0       	breq	.+2      	; 0x199e <__stack+0x89f>
    199c:	28 c3       	rjmp	.+1616   	; 0x1fee <__stack+0xeef>
    199e:	90 91 9d 03 	lds	r25, 0x039D
    19a2:	90 93 fc 05 	sts	0x05FC, r25
    19a6:	29 0f       	add	r18, r25
    19a8:	82 0f       	add	r24, r18
    19aa:	90 91 9e 03 	lds	r25, 0x039E
    19ae:	90 93 fd 05 	sts	0x05FD, r25
    19b2:	92 0f       	add	r25, r18
    19b4:	89 0f       	add	r24, r25
    19b6:	62 e0       	ldi	r22, 0x02	; 2
    19b8:	a1 e0       	ldi	r26, 0x01	; 1
    19ba:	a6 0f       	add	r26, r22
    19bc:	20 91 9f 03 	lds	r18, 0x039F
    19c0:	e6 2f       	mov	r30, r22
    19c2:	f0 e0       	ldi	r31, 0x00	; 0
    19c4:	e4 50       	subi	r30, 0x04	; 4
    19c6:	fa 4f       	sbci	r31, 0xFA	; 250
    19c8:	20 83       	st	Z, r18
    19ca:	92 0f       	add	r25, r18
    19cc:	89 0f       	add	r24, r25
    19ce:	af 3f       	cpi	r26, 0xFF	; 255
    19d0:	09 f0       	breq	.+2      	; 0x19d4 <__stack+0x8d5>
    19d2:	00 c6       	rjmp	.+3072   	; 0x25d4 <__stack+0x14d5>
    19d4:	20 91 98 03 	lds	r18, 0x0398
    19d8:	20 93 fc 05 	sts	0x05FC, r18
    19dc:	92 0f       	add	r25, r18
    19de:	89 0f       	add	r24, r25
    19e0:	20 91 99 03 	lds	r18, 0x0399
    19e4:	20 93 fd 05 	sts	0x05FD, r18
    19e8:	92 0f       	add	r25, r18
    19ea:	89 0f       	add	r24, r25
    19ec:	a2 e0       	ldi	r26, 0x02	; 2
    19ee:	e1 e0       	ldi	r30, 0x01	; 1
    19f0:	ea 0f       	add	r30, r26
    19f2:	20 91 9a 03 	lds	r18, 0x039A
    19f6:	b0 e0       	ldi	r27, 0x00	; 0
    19f8:	a4 50       	subi	r26, 0x04	; 4
    19fa:	ba 4f       	sbci	r27, 0xFA	; 250
    19fc:	2c 93       	st	X, r18
    19fe:	92 0f       	add	r25, r18
    1a00:	89 0f       	add	r24, r25
    1a02:	ef 3f       	cpi	r30, 0xFF	; 255
    1a04:	09 f0       	breq	.+2      	; 0x1a08 <__stack+0x909>
    1a06:	00 c6       	rjmp	.+3072   	; 0x2608 <__stack+0x1509>
    1a08:	20 91 9b 03 	lds	r18, 0x039B
    1a0c:	20 93 fc 05 	sts	0x05FC, r18
    1a10:	92 0f       	add	r25, r18
    1a12:	89 0f       	add	r24, r25
    1a14:	20 91 72 07 	lds	r18, 0x0772
    1a18:	20 93 fd 05 	sts	0x05FD, r18
    1a1c:	92 0f       	add	r25, r18
    1a1e:	89 0f       	add	r24, r25
    1a20:	e2 e0       	ldi	r30, 0x02	; 2
    1a22:	a1 e0       	ldi	r26, 0x01	; 1
    1a24:	ae 0f       	add	r26, r30
    1a26:	20 91 73 07 	lds	r18, 0x0773
    1a2a:	f0 e0       	ldi	r31, 0x00	; 0
    1a2c:	e4 50       	subi	r30, 0x04	; 4
    1a2e:	fa 4f       	sbci	r31, 0xFA	; 250
    1a30:	20 83       	st	Z, r18
    1a32:	92 0f       	add	r25, r18
    1a34:	89 0f       	add	r24, r25
    1a36:	af 3f       	cpi	r26, 0xFF	; 255
    1a38:	09 f0       	breq	.+2      	; 0x1a3c <__stack+0x93d>
    1a3a:	00 c6       	rjmp	.+3072   	; 0x263c <__stack+0x153d>
    1a3c:	20 91 74 07 	lds	r18, 0x0774
    1a40:	20 93 fc 05 	sts	0x05FC, r18
    1a44:	92 0f       	add	r25, r18
    1a46:	89 0f       	add	r24, r25
    1a48:	20 91 75 07 	lds	r18, 0x0775
    1a4c:	20 93 fd 05 	sts	0x05FD, r18
    1a50:	92 0f       	add	r25, r18
    1a52:	89 0f       	add	r24, r25
    1a54:	a2 e0       	ldi	r26, 0x02	; 2
    1a56:	e1 e0       	ldi	r30, 0x01	; 1
    1a58:	ea 0f       	add	r30, r26
    1a5a:	20 91 7a 07 	lds	r18, 0x077A
    1a5e:	b0 e0       	ldi	r27, 0x00	; 0
    1a60:	a4 50       	subi	r26, 0x04	; 4
    1a62:	ba 4f       	sbci	r27, 0xFA	; 250
    1a64:	2c 93       	st	X, r18
    1a66:	92 0f       	add	r25, r18
    1a68:	89 0f       	add	r24, r25
    1a6a:	ef 3f       	cpi	r30, 0xFF	; 255
    1a6c:	09 f0       	breq	.+2      	; 0x1a70 <__stack+0x971>
    1a6e:	00 c6       	rjmp	.+3072   	; 0x2670 <__stack+0x1571>
    1a70:	20 91 7b 07 	lds	r18, 0x077B
    1a74:	20 93 fc 05 	sts	0x05FC, r18
    1a78:	92 0f       	add	r25, r18
    1a7a:	89 0f       	add	r24, r25
    1a7c:	20 91 7c 07 	lds	r18, 0x077C
    1a80:	20 93 fd 05 	sts	0x05FD, r18
    1a84:	92 0f       	add	r25, r18
    1a86:	89 0f       	add	r24, r25
    1a88:	e2 e0       	ldi	r30, 0x02	; 2
    1a8a:	a1 e0       	ldi	r26, 0x01	; 1
    1a8c:	ae 0f       	add	r26, r30
    1a8e:	20 91 7d 07 	lds	r18, 0x077D
    1a92:	f0 e0       	ldi	r31, 0x00	; 0
    1a94:	e4 50       	subi	r30, 0x04	; 4
    1a96:	fa 4f       	sbci	r31, 0xFA	; 250
    1a98:	20 83       	st	Z, r18
    1a9a:	92 0f       	add	r25, r18
    1a9c:	89 0f       	add	r24, r25
    1a9e:	af 3f       	cpi	r26, 0xFF	; 255
    1aa0:	09 f0       	breq	.+2      	; 0x1aa4 <__stack+0x9a5>
    1aa2:	00 c6       	rjmp	.+3072   	; 0x26a4 <__stack+0x15a5>
    1aa4:	20 91 95 01 	lds	r18, 0x0195
    1aa8:	20 93 fc 05 	sts	0x05FC, r18
    1aac:	92 0f       	add	r25, r18
    1aae:	89 0f       	add	r24, r25
    1ab0:	20 91 96 01 	lds	r18, 0x0196
    1ab4:	20 93 fd 05 	sts	0x05FD, r18
    1ab8:	92 0f       	add	r25, r18
    1aba:	89 0f       	add	r24, r25
    1abc:	a2 e0       	ldi	r26, 0x02	; 2
    1abe:	e1 e0       	ldi	r30, 0x01	; 1
    1ac0:	ea 0f       	add	r30, r26
    1ac2:	20 91 97 01 	lds	r18, 0x0197
    1ac6:	b0 e0       	ldi	r27, 0x00	; 0
    1ac8:	a4 50       	subi	r26, 0x04	; 4
    1aca:	ba 4f       	sbci	r27, 0xFA	; 250
    1acc:	2c 93       	st	X, r18
    1ace:	92 0f       	add	r25, r18
    1ad0:	89 0f       	add	r24, r25
    1ad2:	ef 3f       	cpi	r30, 0xFF	; 255
    1ad4:	09 f0       	breq	.+2      	; 0x1ad8 <__stack+0x9d9>
    1ad6:	00 c6       	rjmp	.+3072   	; 0x26d8 <__stack+0x15d9>
    1ad8:	20 91 98 01 	lds	r18, 0x0198
    1adc:	20 93 fc 05 	sts	0x05FC, r18
    1ae0:	92 0f       	add	r25, r18
    1ae2:	90 93 fb 06 	sts	0x06FB, r25
    1ae6:	89 0f       	add	r24, r25
    1ae8:	80 93 f6 05 	sts	0x05F6, r24
    1aec:	90 93 fd 05 	sts	0x05FD, r25
    1af0:	e2 e0       	ldi	r30, 0x02	; 2
    1af2:	91 e0       	ldi	r25, 0x01	; 1
    1af4:	9e 0f       	add	r25, r30
    1af6:	f0 e0       	ldi	r31, 0x00	; 0
    1af8:	e4 50       	subi	r30, 0x04	; 4
    1afa:	fa 4f       	sbci	r31, 0xFA	; 250
    1afc:	80 83       	st	Z, r24
    1afe:	9f 3f       	cpi	r25, 0xFF	; 255
    1b00:	09 f0       	breq	.+2      	; 0x1b04 <__stack+0xa05>
    1b02:	00 c6       	rjmp	.+3072   	; 0x2704 <__stack+0x1605>
    1b04:	10 92 f9 05 	sts	0x05F9, r1
    1b08:	09 b6       	in	r0, 0x39	; 57
    1b0a:	04 fc       	sbrc	r0, 4
    1b0c:	1c c0       	rjmp	.+56     	; 0x1b46 <__stack+0xa47>
    1b0e:	e0 91 fa 05 	lds	r30, 0x05FA
    1b12:	f0 e0       	ldi	r31, 0x00	; 0
    1b14:	e4 50       	subi	r30, 0x04	; 4
    1b16:	fa 4f       	sbci	r31, 0xFA	; 250
    1b18:	80 81       	ld	r24, Z
    1b1a:	80 93 f8 05 	sts	0x05F8, r24
    1b1e:	10 92 fb 05 	sts	0x05FB, r1
    1b22:	80 91 fa 05 	lds	r24, 0x05FA
    1b26:	8f 5f       	subi	r24, 0xFF	; 255
    1b28:	80 93 fa 05 	sts	0x05FA, r24
    1b2c:	80 91 fa 05 	lds	r24, 0x05FA
    1b30:	8f 3f       	cpi	r24, 0xFF	; 255
    1b32:	09 f4       	brne	.+2      	; 0x1b36 <__stack+0xa37>
    1b34:	d0 c7       	rjmp	.+4000   	; 0x2ad6 <__stack+0x19d7>
    1b36:	88 b7       	in	r24, 0x38	; 56
    1b38:	81 60       	ori	r24, 0x01	; 1
    1b3a:	88 bf       	out	0x38, r24	; 56
    1b3c:	89 b7       	in	r24, 0x39	; 57
    1b3e:	80 61       	ori	r24, 0x10	; 16
    1b40:	89 bf       	out	0x39, r24	; 57
    1b42:	40 91 d4 01 	lds	r20, 0x01D4
    1b46:	54 2f       	mov	r21, r20
    1b48:	0c 94 b5 04 	jmp	0x96a	; 0x96a <reporting_task+0xba>
    1b4c:	86 2f       	mov	r24, r22
    1b4e:	90 e0       	ldi	r25, 0x00	; 0
    1b50:	28 1b       	sub	r18, r24
    1b52:	39 0b       	sbc	r19, r25
    1b54:	29 31       	cpi	r18, 0x19	; 25
    1b56:	31 05       	cpc	r19, r1
    1b58:	0c f0       	brlt	.+2      	; 0x1b5c <__stack+0xa5d>
    1b5a:	ff ce       	rjmp	.-514    	; 0x195a <__stack+0x85b>
    1b5c:	80 91 f7 05 	lds	r24, 0x05F7
    1b60:	8f 5f       	subi	r24, 0xFF	; 255
    1b62:	80 93 f7 05 	sts	0x05F7, r24
    1b66:	0c 94 b5 04 	jmp	0x96a	; 0x96a <reporting_task+0xba>
    1b6a:	90 93 fc 05 	sts	0x05FC, r25
    1b6e:	80 93 fd 05 	sts	0x05FD, r24
    1b72:	92 e0       	ldi	r25, 0x02	; 2
    1b74:	90 93 f9 05 	sts	0x05F9, r25
    1b78:	0c 94 2d 05 	jmp	0xa5a	; 0xa5a <reporting_task+0x1aa>
    1b7c:	20 91 b4 07 	lds	r18, 0x07B4
    1b80:	20 93 fc 05 	sts	0x05FC, r18
    1b84:	92 0f       	add	r25, r18
    1b86:	89 0f       	add	r24, r25
    1b88:	20 91 b5 07 	lds	r18, 0x07B5
    1b8c:	20 93 fd 05 	sts	0x05FD, r18
    1b90:	92 0f       	add	r25, r18
    1b92:	89 0f       	add	r24, r25
    1b94:	a2 e0       	ldi	r26, 0x02	; 2
    1b96:	e1 e0       	ldi	r30, 0x01	; 1
    1b98:	ea 0f       	add	r30, r26
    1b9a:	20 91 ca 07 	lds	r18, 0x07CA
    1b9e:	b0 e0       	ldi	r27, 0x00	; 0
    1ba0:	a4 50       	subi	r26, 0x04	; 4
    1ba2:	ba 4f       	sbci	r27, 0xFA	; 250
    1ba4:	2c 93       	st	X, r18
    1ba6:	92 0f       	add	r25, r18
    1ba8:	89 0f       	add	r24, r25
    1baa:	ef 3f       	cpi	r30, 0xFF	; 255
    1bac:	09 f0       	breq	.+2      	; 0x1bb0 <__stack+0xab1>
    1bae:	b0 ca       	rjmp	.-2720   	; 0x1110 <__stack+0x11>
    1bb0:	20 91 cb 07 	lds	r18, 0x07CB
    1bb4:	20 93 fc 05 	sts	0x05FC, r18
    1bb8:	92 0f       	add	r25, r18
    1bba:	89 0f       	add	r24, r25
    1bbc:	20 91 cc 07 	lds	r18, 0x07CC
    1bc0:	20 93 fd 05 	sts	0x05FD, r18
    1bc4:	92 0f       	add	r25, r18
    1bc6:	89 0f       	add	r24, r25
    1bc8:	e2 e0       	ldi	r30, 0x02	; 2
    1bca:	a1 e0       	ldi	r26, 0x01	; 1
    1bcc:	ae 0f       	add	r26, r30
    1bce:	20 91 cd 07 	lds	r18, 0x07CD
    1bd2:	f0 e0       	ldi	r31, 0x00	; 0
    1bd4:	e4 50       	subi	r30, 0x04	; 4
    1bd6:	fa 4f       	sbci	r31, 0xFA	; 250
    1bd8:	20 83       	st	Z, r18
    1bda:	92 0f       	add	r25, r18
    1bdc:	89 0f       	add	r24, r25
    1bde:	af 3f       	cpi	r26, 0xFF	; 255
    1be0:	09 f0       	breq	.+2      	; 0x1be4 <__stack+0xae5>
    1be2:	b0 ca       	rjmp	.-2720   	; 0x1144 <__stack+0x45>
    1be4:	20 91 aa 07 	lds	r18, 0x07AA
    1be8:	20 93 fc 05 	sts	0x05FC, r18
    1bec:	92 0f       	add	r25, r18
    1bee:	89 0f       	add	r24, r25
    1bf0:	20 91 ab 07 	lds	r18, 0x07AB
    1bf4:	20 93 fd 05 	sts	0x05FD, r18
    1bf8:	92 0f       	add	r25, r18
    1bfa:	89 0f       	add	r24, r25
    1bfc:	a2 e0       	ldi	r26, 0x02	; 2
    1bfe:	e1 e0       	ldi	r30, 0x01	; 1
    1c00:	ea 0f       	add	r30, r26
    1c02:	20 91 ac 07 	lds	r18, 0x07AC
    1c06:	b0 e0       	ldi	r27, 0x00	; 0
    1c08:	a4 50       	subi	r26, 0x04	; 4
    1c0a:	ba 4f       	sbci	r27, 0xFA	; 250
    1c0c:	2c 93       	st	X, r18
    1c0e:	92 0f       	add	r25, r18
    1c10:	89 0f       	add	r24, r25
    1c12:	ef 3f       	cpi	r30, 0xFF	; 255
    1c14:	09 f0       	breq	.+2      	; 0x1c18 <__stack+0xb19>
    1c16:	b0 ca       	rjmp	.-2720   	; 0x1178 <__stack+0x79>
    1c18:	20 91 ad 07 	lds	r18, 0x07AD
    1c1c:	20 93 fc 05 	sts	0x05FC, r18
    1c20:	92 0f       	add	r25, r18
    1c22:	89 0f       	add	r24, r25
    1c24:	20 91 09 01 	lds	r18, 0x0109
    1c28:	20 93 fd 05 	sts	0x05FD, r18
    1c2c:	92 0f       	add	r25, r18
    1c2e:	89 0f       	add	r24, r25
    1c30:	e2 e0       	ldi	r30, 0x02	; 2
    1c32:	a1 e0       	ldi	r26, 0x01	; 1
    1c34:	ae 0f       	add	r26, r30
    1c36:	20 91 0a 01 	lds	r18, 0x010A
    1c3a:	f0 e0       	ldi	r31, 0x00	; 0
    1c3c:	e4 50       	subi	r30, 0x04	; 4
    1c3e:	fa 4f       	sbci	r31, 0xFA	; 250
    1c40:	20 83       	st	Z, r18
    1c42:	92 0f       	add	r25, r18
    1c44:	89 0f       	add	r24, r25
    1c46:	af 3f       	cpi	r26, 0xFF	; 255
    1c48:	09 f0       	breq	.+2      	; 0x1c4c <__stack+0xb4d>
    1c4a:	b0 ca       	rjmp	.-2720   	; 0x11ac <__stack+0xad>
    1c4c:	20 91 07 01 	lds	r18, 0x0107
    1c50:	20 93 fc 05 	sts	0x05FC, r18
    1c54:	92 0f       	add	r25, r18
    1c56:	89 0f       	add	r24, r25
    1c58:	20 91 08 01 	lds	r18, 0x0108
    1c5c:	20 93 fd 05 	sts	0x05FD, r18
    1c60:	92 0f       	add	r25, r18
    1c62:	90 93 fb 06 	sts	0x06FB, r25
    1c66:	89 0f       	add	r24, r25
    1c68:	80 93 f6 05 	sts	0x05F6, r24
    1c6c:	a2 e0       	ldi	r26, 0x02	; 2
    1c6e:	e1 e0       	ldi	r30, 0x01	; 1
    1c70:	ea 0f       	add	r30, r26
    1c72:	b0 e0       	ldi	r27, 0x00	; 0
    1c74:	a4 50       	subi	r26, 0x04	; 4
    1c76:	ba 4f       	sbci	r27, 0xFA	; 250
    1c78:	9c 93       	st	X, r25
    1c7a:	ef 3f       	cpi	r30, 0xFF	; 255
    1c7c:	09 f0       	breq	.+2      	; 0x1c80 <__stack+0xb81>
    1c7e:	b0 ca       	rjmp	.-2720   	; 0x11e0 <__stack+0xe1>
    1c80:	80 93 fc 05 	sts	0x05FC, r24
    1c84:	81 e0       	ldi	r24, 0x01	; 1
    1c86:	80 93 f9 05 	sts	0x05F9, r24
    1c8a:	0c 94 11 06 	jmp	0xc22	; 0xc22 <reporting_task+0x372>
    1c8e:	41 e0       	ldi	r20, 0x01	; 1
    1c90:	a0 e0       	ldi	r26, 0x00	; 0
    1c92:	b0 e0       	ldi	r27, 0x00	; 0
    1c94:	e1 c9       	rjmp	.-3134   	; 0x1058 <reporting_task+0x7a8>
    1c96:	8a 2f       	mov	r24, r26
    1c98:	90 e0       	ldi	r25, 0x00	; 0
    1c9a:	28 1b       	sub	r18, r24
    1c9c:	39 0b       	sbc	r19, r25
    1c9e:	2a 30       	cpi	r18, 0x0A	; 10
    1ca0:	31 05       	cpc	r19, r1
    1ca2:	0c f4       	brge	.+2      	; 0x1ca6 <__stack+0xba7>
    1ca4:	3c cc       	rjmp	.-1928   	; 0x151e <__stack+0x41f>
    1ca6:	cc cb       	rjmp	.-2152   	; 0x1440 <__stack+0x341>
    1ca8:	86 2f       	mov	r24, r22
    1caa:	90 e0       	ldi	r25, 0x00	; 0
    1cac:	28 1b       	sub	r18, r24
    1cae:	39 0b       	sbc	r19, r25
    1cb0:	23 31       	cpi	r18, 0x13	; 19
    1cb2:	31 05       	cpc	r19, r1
    1cb4:	0c f4       	brge	.+2      	; 0x1cb8 <__stack+0xbb9>
    1cb6:	b2 cd       	rjmp	.-1180   	; 0x181c <__stack+0x71d>
    1cb8:	d6 cc       	rjmp	.-1620   	; 0x1666 <__stack+0x567>
    1cba:	87 2f       	mov	r24, r23
    1cbc:	90 e0       	ldi	r25, 0x00	; 0
    1cbe:	28 1b       	sub	r18, r24
    1cc0:	39 0b       	sbc	r19, r25
    1cc2:	29 30       	cpi	r18, 0x09	; 9
    1cc4:	31 05       	cpc	r19, r1
    1cc6:	0c f4       	brge	.+2      	; 0x1cca <__stack+0xbcb>
    1cc8:	b6 cc       	rjmp	.-1684   	; 0x1636 <__stack+0x537>
    1cca:	48 c9       	rjmp	.-3440   	; 0xf5c <reporting_task+0x6ac>
    1ccc:	41 e0       	ldi	r20, 0x01	; 1
    1cce:	a0 e0       	ldi	r26, 0x00	; 0
    1cd0:	b0 e0       	ldi	r27, 0x00	; 0
    1cd2:	ef c9       	rjmp	.-3106   	; 0x10b2 <reporting_task+0x802>
    1cd4:	8e 2f       	mov	r24, r30
    1cd6:	90 e0       	ldi	r25, 0x00	; 0
    1cd8:	28 1b       	sub	r18, r24
    1cda:	39 0b       	sbc	r19, r25
    1cdc:	2e 30       	cpi	r18, 0x0E	; 14
    1cde:	31 05       	cpc	r19, r1
    1ce0:	0c f4       	brge	.+2      	; 0x1ce4 <__stack+0xbe5>
    1ce2:	a9 cc       	rjmp	.-1710   	; 0x1636 <__stack+0x537>
    1ce4:	dc 01       	movw	r26, r24
    1ce6:	a4 50       	subi	r26, 0x04	; 4
    1ce8:	ba 4f       	sbci	r27, 0xFA	; 250
    1cea:	25 e0       	ldi	r18, 0x05	; 5
    1cec:	2c 93       	st	X, r18
    1cee:	a1 e0       	ldi	r26, 0x01	; 1
    1cf0:	ae 0f       	add	r26, r30
    1cf2:	af 3f       	cpi	r26, 0xFF	; 255
    1cf4:	09 f4       	brne	.+2      	; 0x1cf8 <__stack+0xbf9>
    1cf6:	f6 c6       	rjmp	.+3564   	; 0x2ae4 <__stack+0x19e5>
    1cf8:	b0 e0       	ldi	r27, 0x00	; 0
    1cfa:	a4 50       	subi	r26, 0x04	; 4
    1cfc:	ba 4f       	sbci	r27, 0xFA	; 250
    1cfe:	81 e1       	ldi	r24, 0x11	; 17
    1d00:	8c 93       	st	X, r24
    1d02:	a2 e0       	ldi	r26, 0x02	; 2
    1d04:	ae 0f       	add	r26, r30
    1d06:	af 3f       	cpi	r26, 0xFF	; 255
    1d08:	09 f4       	brne	.+2      	; 0x1d0c <__stack+0xc0d>
    1d0a:	04 c6       	rjmp	.+3080   	; 0x2914 <__stack+0x1815>
    1d0c:	ed 5f       	subi	r30, 0xFD	; 253
    1d0e:	b0 e0       	ldi	r27, 0x00	; 0
    1d10:	a4 50       	subi	r26, 0x04	; 4
    1d12:	ba 4f       	sbci	r27, 0xFA	; 250
    1d14:	7c 93       	st	X, r23
    1d16:	91 e1       	ldi	r25, 0x11	; 17
    1d18:	97 0f       	add	r25, r23
    1d1a:	7e 5d       	subi	r23, 0xDE	; 222
    1d1c:	ef 3f       	cpi	r30, 0xFF	; 255
    1d1e:	09 f0       	breq	.+2      	; 0x1d22 <__stack+0xc23>
    1d20:	02 c6       	rjmp	.+3076   	; 0x2926 <__stack+0x1827>
    1d22:	80 91 f0 05 	lds	r24, 0x05F0
    1d26:	80 93 fc 05 	sts	0x05FC, r24
    1d2a:	98 0f       	add	r25, r24
    1d2c:	79 0f       	add	r23, r25
    1d2e:	80 91 f1 05 	lds	r24, 0x05F1
    1d32:	80 93 fd 05 	sts	0x05FD, r24
    1d36:	89 0f       	add	r24, r25
    1d38:	78 0f       	add	r23, r24
    1d3a:	e2 e0       	ldi	r30, 0x02	; 2
    1d3c:	a1 e0       	ldi	r26, 0x01	; 1
    1d3e:	ae 0f       	add	r26, r30
    1d40:	90 91 f2 05 	lds	r25, 0x05F2
    1d44:	f0 e0       	ldi	r31, 0x00	; 0
    1d46:	e4 50       	subi	r30, 0x04	; 4
    1d48:	fa 4f       	sbci	r31, 0xFA	; 250
    1d4a:	90 83       	st	Z, r25
    1d4c:	89 0f       	add	r24, r25
    1d4e:	78 0f       	add	r23, r24
    1d50:	af 3f       	cpi	r26, 0xFF	; 255
    1d52:	09 f0       	breq	.+2      	; 0x1d56 <__stack+0xc57>
    1d54:	79 c6       	rjmp	.+3314   	; 0x2a48 <__stack+0x1949>
    1d56:	90 91 f3 05 	lds	r25, 0x05F3
    1d5a:	90 93 fc 05 	sts	0x05FC, r25
    1d5e:	98 0f       	add	r25, r24
    1d60:	89 2f       	mov	r24, r25
    1d62:	87 0f       	add	r24, r23
    1d64:	20 91 ec 05 	lds	r18, 0x05EC
    1d68:	20 93 fd 05 	sts	0x05FD, r18
    1d6c:	92 0f       	add	r25, r18
    1d6e:	89 0f       	add	r24, r25
    1d70:	a2 e0       	ldi	r26, 0x02	; 2
    1d72:	e1 e0       	ldi	r30, 0x01	; 1
    1d74:	ea 0f       	add	r30, r26
    1d76:	20 91 ed 05 	lds	r18, 0x05ED
    1d7a:	b0 e0       	ldi	r27, 0x00	; 0
    1d7c:	a4 50       	subi	r26, 0x04	; 4
    1d7e:	ba 4f       	sbci	r27, 0xFA	; 250
    1d80:	2c 93       	st	X, r18
    1d82:	92 0f       	add	r25, r18
    1d84:	89 0f       	add	r24, r25
    1d86:	ef 3f       	cpi	r30, 0xFF	; 255
    1d88:	09 f0       	breq	.+2      	; 0x1d8c <__stack+0xc8d>
    1d8a:	79 c6       	rjmp	.+3314   	; 0x2a7e <__stack+0x197f>
    1d8c:	20 91 ee 05 	lds	r18, 0x05EE
    1d90:	20 93 fc 05 	sts	0x05FC, r18
    1d94:	92 0f       	add	r25, r18
    1d96:	89 0f       	add	r24, r25
    1d98:	20 91 ef 05 	lds	r18, 0x05EF
    1d9c:	20 93 fd 05 	sts	0x05FD, r18
    1da0:	92 0f       	add	r25, r18
    1da2:	90 93 fb 06 	sts	0x06FB, r25
    1da6:	89 0f       	add	r24, r25
    1da8:	80 93 f6 05 	sts	0x05F6, r24
    1dac:	e2 e0       	ldi	r30, 0x02	; 2
    1dae:	61 e0       	ldi	r22, 0x01	; 1
    1db0:	6e 0f       	add	r22, r30
    1db2:	f0 e0       	ldi	r31, 0x00	; 0
    1db4:	e4 50       	subi	r30, 0x04	; 4
    1db6:	fa 4f       	sbci	r31, 0xFA	; 250
    1db8:	90 83       	st	Z, r25
    1dba:	6f 3f       	cpi	r22, 0xFF	; 255
    1dbc:	09 f0       	breq	.+2      	; 0x1dc0 <__stack+0xcc1>
    1dbe:	78 c6       	rjmp	.+3312   	; 0x2ab0 <__stack+0x19b1>
    1dc0:	80 93 fc 05 	sts	0x05FC, r24
    1dc4:	81 e0       	ldi	r24, 0x01	; 1
    1dc6:	80 93 f9 05 	sts	0x05F9, r24
    1dca:	09 b6       	in	r0, 0x39	; 57
    1dcc:	04 fc       	sbrc	r0, 4
    1dce:	1c c0       	rjmp	.+56     	; 0x1e08 <__stack+0xd09>
    1dd0:	e0 91 fa 05 	lds	r30, 0x05FA
    1dd4:	f0 e0       	ldi	r31, 0x00	; 0
    1dd6:	e4 50       	subi	r30, 0x04	; 4
    1dd8:	fa 4f       	sbci	r31, 0xFA	; 250
    1dda:	80 81       	ld	r24, Z
    1ddc:	80 93 f8 05 	sts	0x05F8, r24
    1de0:	10 92 fb 05 	sts	0x05FB, r1
    1de4:	80 91 fa 05 	lds	r24, 0x05FA
    1de8:	8f 5f       	subi	r24, 0xFF	; 255
    1dea:	80 93 fa 05 	sts	0x05FA, r24
    1dee:	80 91 fa 05 	lds	r24, 0x05FA
    1df2:	8f 3f       	cpi	r24, 0xFF	; 255
    1df4:	09 f4       	brne	.+2      	; 0x1df8 <__stack+0xcf9>
    1df6:	83 c6       	rjmp	.+3334   	; 0x2afe <__stack+0x19ff>
    1df8:	88 b7       	in	r24, 0x38	; 56
    1dfa:	81 60       	ori	r24, 0x01	; 1
    1dfc:	88 bf       	out	0x38, r24	; 56
    1dfe:	89 b7       	in	r24, 0x39	; 57
    1e00:	80 61       	ori	r24, 0x10	; 16
    1e02:	89 bf       	out	0x39, r24	; 57
    1e04:	40 91 d4 01 	lds	r20, 0x01D4
    1e08:	54 2f       	mov	r21, r20
    1e0a:	0c 94 a6 04 	jmp	0x94c	; 0x94c <reporting_task+0x9c>
    1e0e:	41 e0       	ldi	r20, 0x01	; 1
    1e10:	a0 e0       	ldi	r26, 0x00	; 0
    1e12:	b0 e0       	ldi	r27, 0x00	; 0
    1e14:	80 91 9f 01 	lds	r24, 0x019F
    1e18:	a4 50       	subi	r26, 0x04	; 4
    1e1a:	ba 4f       	sbci	r27, 0xFA	; 250
    1e1c:	8c 93       	st	X, r24
    1e1e:	29 e0       	ldi	r18, 0x09	; 9
    1e20:	28 0f       	add	r18, r24
    1e22:	8e 5e       	subi	r24, 0xEE	; 238
    1e24:	90 91 a0 01 	lds	r25, 0x01A0
    1e28:	e4 2f       	mov	r30, r20
    1e2a:	f0 e0       	ldi	r31, 0x00	; 0
    1e2c:	e4 50       	subi	r30, 0x04	; 4
    1e2e:	fa 4f       	sbci	r31, 0xFA	; 250
    1e30:	90 83       	st	Z, r25
    1e32:	92 0f       	add	r25, r18
    1e34:	89 0f       	add	r24, r25
    1e36:	a1 e0       	ldi	r26, 0x01	; 1
    1e38:	a4 0f       	add	r26, r20
    1e3a:	af 3f       	cpi	r26, 0xFF	; 255
    1e3c:	09 f4       	brne	.+2      	; 0x1e40 <__stack+0xd41>
    1e3e:	d3 c2       	rjmp	.+1446   	; 0x23e6 <__stack+0x12e7>
    1e40:	4e 5f       	subi	r20, 0xFE	; 254
    1e42:	30 91 a1 01 	lds	r19, 0x01A1
    1e46:	b0 e0       	ldi	r27, 0x00	; 0
    1e48:	a4 50       	subi	r26, 0x04	; 4
    1e4a:	ba 4f       	sbci	r27, 0xFA	; 250
    1e4c:	3c 93       	st	X, r19
    1e4e:	93 0f       	add	r25, r19
    1e50:	89 0f       	add	r24, r25
    1e52:	4f 3f       	cpi	r20, 0xFF	; 255
    1e54:	11 f0       	breq	.+4      	; 0x1e5a <__stack+0xd5b>
    1e56:	0c 94 1a 07 	jmp	0xe34	; 0xe34 <reporting_task+0x584>
    1e5a:	30 91 a2 01 	lds	r19, 0x01A2
    1e5e:	30 93 fc 05 	sts	0x05FC, r19
    1e62:	93 0f       	add	r25, r19
    1e64:	89 0f       	add	r24, r25
    1e66:	20 91 9b 01 	lds	r18, 0x019B
    1e6a:	20 93 fd 05 	sts	0x05FD, r18
    1e6e:	92 0f       	add	r25, r18
    1e70:	89 0f       	add	r24, r25
    1e72:	e2 e0       	ldi	r30, 0x02	; 2
    1e74:	a1 e0       	ldi	r26, 0x01	; 1
    1e76:	ae 0f       	add	r26, r30
    1e78:	30 91 9c 01 	lds	r19, 0x019C
    1e7c:	f0 e0       	ldi	r31, 0x00	; 0
    1e7e:	e4 50       	subi	r30, 0x04	; 4
    1e80:	fa 4f       	sbci	r31, 0xFA	; 250
    1e82:	30 83       	st	Z, r19
    1e84:	39 0f       	add	r19, r25
    1e86:	83 0f       	add	r24, r19
    1e88:	af 3f       	cpi	r26, 0xFF	; 255
    1e8a:	11 f0       	breq	.+4      	; 0x1e90 <__stack+0xd91>
    1e8c:	0c 94 37 07 	jmp	0xe6e	; 0xe6e <reporting_task+0x5be>
    1e90:	90 91 9d 01 	lds	r25, 0x019D
    1e94:	90 93 fc 05 	sts	0x05FC, r25
    1e98:	93 0f       	add	r25, r19
    1e9a:	89 0f       	add	r24, r25
    1e9c:	40 91 9e 01 	lds	r20, 0x019E
    1ea0:	40 93 fd 05 	sts	0x05FD, r20
    1ea4:	94 0f       	add	r25, r20
    1ea6:	90 93 fb 06 	sts	0x06FB, r25
    1eaa:	89 0f       	add	r24, r25
    1eac:	80 93 f6 05 	sts	0x05F6, r24
    1eb0:	a2 e0       	ldi	r26, 0x02	; 2
    1eb2:	e1 e0       	ldi	r30, 0x01	; 1
    1eb4:	ea 0f       	add	r30, r26
    1eb6:	b0 e0       	ldi	r27, 0x00	; 0
    1eb8:	a4 50       	subi	r26, 0x04	; 4
    1eba:	ba 4f       	sbci	r27, 0xFA	; 250
    1ebc:	9c 93       	st	X, r25
    1ebe:	ef 3f       	cpi	r30, 0xFF	; 255
    1ec0:	11 f0       	breq	.+4      	; 0x1ec6 <__stack+0xdc7>
    1ec2:	0c 94 52 07 	jmp	0xea4	; 0xea4 <reporting_task+0x5f4>
    1ec6:	80 93 fc 05 	sts	0x05FC, r24
    1eca:	81 e0       	ldi	r24, 0x01	; 1
    1ecc:	80 93 f9 05 	sts	0x05F9, r24
    1ed0:	0c 94 5e 07 	jmp	0xebc	; 0xebc <reporting_task+0x60c>
    1ed4:	a1 e0       	ldi	r26, 0x01	; 1
    1ed6:	e0 e0       	ldi	r30, 0x00	; 0
    1ed8:	f0 e0       	ldi	r31, 0x00	; 0
    1eda:	80 91 c8 01 	lds	r24, 0x01C8
    1ede:	e4 50       	subi	r30, 0x04	; 4
    1ee0:	fa 4f       	sbci	r31, 0xFA	; 250
    1ee2:	80 83       	st	Z, r24
    1ee4:	2b e0       	ldi	r18, 0x0B	; 11
    1ee6:	28 0f       	add	r18, r24
    1ee8:	8a 5e       	subi	r24, 0xEA	; 234
    1eea:	90 91 c7 01 	lds	r25, 0x01C7
    1eee:	ea 2f       	mov	r30, r26
    1ef0:	f0 e0       	ldi	r31, 0x00	; 0
    1ef2:	e4 50       	subi	r30, 0x04	; 4
    1ef4:	fa 4f       	sbci	r31, 0xFA	; 250
    1ef6:	90 83       	st	Z, r25
    1ef8:	92 0f       	add	r25, r18
    1efa:	89 0f       	add	r24, r25
    1efc:	e1 e0       	ldi	r30, 0x01	; 1
    1efe:	ea 0f       	add	r30, r26
    1f00:	ef 3f       	cpi	r30, 0xFF	; 255
    1f02:	09 f4       	brne	.+2      	; 0x1f06 <__stack+0xe07>
    1f04:	02 c4       	rjmp	.+2052   	; 0x270a <__stack+0x160b>
    1f06:	ae 5f       	subi	r26, 0xFE	; 254
    1f08:	20 91 da 05 	lds	r18, 0x05DA
    1f0c:	f0 e0       	ldi	r31, 0x00	; 0
    1f0e:	e4 50       	subi	r30, 0x04	; 4
    1f10:	fa 4f       	sbci	r31, 0xFA	; 250
    1f12:	20 83       	st	Z, r18
    1f14:	92 0f       	add	r25, r18
    1f16:	89 0f       	add	r24, r25
    1f18:	af 3f       	cpi	r26, 0xFF	; 255
    1f1a:	09 f0       	breq	.+2      	; 0x1f1e <__stack+0xe1f>
    1f1c:	3c cb       	rjmp	.-2440   	; 0x1596 <__stack+0x497>
    1f1e:	20 91 d8 01 	lds	r18, 0x01D8
    1f22:	20 93 fc 05 	sts	0x05FC, r18
    1f26:	92 0f       	add	r25, r18
    1f28:	89 0f       	add	r24, r25
    1f2a:	20 91 01 01 	lds	r18, 0x0101
    1f2e:	20 93 fd 05 	sts	0x05FD, r18
    1f32:	92 0f       	add	r25, r18
    1f34:	90 93 fb 06 	sts	0x06FB, r25
    1f38:	89 0f       	add	r24, r25
    1f3a:	80 93 f6 05 	sts	0x05F6, r24
    1f3e:	a2 e0       	ldi	r26, 0x02	; 2
    1f40:	e1 e0       	ldi	r30, 0x01	; 1
    1f42:	ea 0f       	add	r30, r26
    1f44:	b0 e0       	ldi	r27, 0x00	; 0
    1f46:	a4 50       	subi	r26, 0x04	; 4
    1f48:	ba 4f       	sbci	r27, 0xFA	; 250
    1f4a:	9c 93       	st	X, r25
    1f4c:	ef 3f       	cpi	r30, 0xFF	; 255
    1f4e:	09 f0       	breq	.+2      	; 0x1f52 <__stack+0xe53>
    1f50:	3d cb       	rjmp	.-2438   	; 0x15cc <__stack+0x4cd>
    1f52:	80 93 fc 05 	sts	0x05FC, r24
    1f56:	81 e0       	ldi	r24, 0x01	; 1
    1f58:	80 93 f9 05 	sts	0x05F9, r24
    1f5c:	43 cb       	rjmp	.-2426   	; 0x15e4 <__stack+0x4e5>
    1f5e:	a0 e0       	ldi	r26, 0x00	; 0
    1f60:	b0 e0       	ldi	r27, 0x00	; 0
    1f62:	80 91 66 07 	lds	r24, 0x0766
    1f66:	a4 50       	subi	r26, 0x04	; 4
    1f68:	ba 4f       	sbci	r27, 0xFA	; 250
    1f6a:	8c 93       	st	X, r24
    1f6c:	97 e0       	ldi	r25, 0x07	; 7
    1f6e:	98 0f       	add	r25, r24
    1f70:	82 5f       	subi	r24, 0xF2	; 242
    1f72:	20 91 67 07 	lds	r18, 0x0767
    1f76:	e6 2f       	mov	r30, r22
    1f78:	f0 e0       	ldi	r31, 0x00	; 0
    1f7a:	e4 50       	subi	r30, 0x04	; 4
    1f7c:	fa 4f       	sbci	r31, 0xFA	; 250
    1f7e:	20 83       	st	Z, r18
    1f80:	29 0f       	add	r18, r25
    1f82:	82 0f       	add	r24, r18
    1f84:	a1 e0       	ldi	r26, 0x01	; 1
    1f86:	a6 0f       	add	r26, r22
    1f88:	af 3f       	cpi	r26, 0xFF	; 255
    1f8a:	09 f4       	brne	.+2      	; 0x1f8e <__stack+0xe8f>
    1f8c:	9b c4       	rjmp	.+2358   	; 0x28c4 <__stack+0x17c5>
    1f8e:	6e 5f       	subi	r22, 0xFE	; 254
    1f90:	90 91 64 07 	lds	r25, 0x0764
    1f94:	b0 e0       	ldi	r27, 0x00	; 0
    1f96:	a4 50       	subi	r26, 0x04	; 4
    1f98:	ba 4f       	sbci	r27, 0xFA	; 250
    1f9a:	9c 93       	st	X, r25
    1f9c:	29 0f       	add	r18, r25
    1f9e:	82 0f       	add	r24, r18
    1fa0:	6f 3f       	cpi	r22, 0xFF	; 255
    1fa2:	09 f0       	breq	.+2      	; 0x1fa6 <__stack+0xea7>
    1fa4:	0b c8       	rjmp	.-4074   	; 0xfbc <reporting_task+0x70c>
    1fa6:	90 91 65 07 	lds	r25, 0x0765
    1faa:	90 93 fc 05 	sts	0x05FC, r25
    1fae:	29 0f       	add	r18, r25
    1fb0:	20 93 fb 06 	sts	0x06FB, r18
    1fb4:	82 0f       	add	r24, r18
    1fb6:	80 93 f6 05 	sts	0x05F6, r24
    1fba:	20 93 fd 05 	sts	0x05FD, r18
    1fbe:	e2 e0       	ldi	r30, 0x02	; 2
    1fc0:	91 e0       	ldi	r25, 0x01	; 1
    1fc2:	9e 0f       	add	r25, r30
    1fc4:	f0 e0       	ldi	r31, 0x00	; 0
    1fc6:	e4 50       	subi	r30, 0x04	; 4
    1fc8:	fa 4f       	sbci	r31, 0xFA	; 250
    1fca:	80 83       	st	Z, r24
    1fcc:	9f 3f       	cpi	r25, 0xFF	; 255
    1fce:	09 f0       	breq	.+2      	; 0x1fd2 <__stack+0xed3>
    1fd0:	0d c8       	rjmp	.-4070   	; 0xfec <reporting_task+0x73c>
    1fd2:	10 92 f9 05 	sts	0x05F9, r1
    1fd6:	0c c8       	rjmp	.-4072   	; 0xff0 <reporting_task+0x740>
    1fd8:	61 e0       	ldi	r22, 0x01	; 1
    1fda:	a0 e0       	ldi	r26, 0x00	; 0
    1fdc:	b0 e0       	ldi	r27, 0x00	; 0
    1fde:	80 91 9c 03 	lds	r24, 0x039C
    1fe2:	a4 50       	subi	r26, 0x04	; 4
    1fe4:	ba 4f       	sbci	r27, 0xFA	; 250
    1fe6:	8c 93       	st	X, r24
    1fe8:	22 e1       	ldi	r18, 0x12	; 18
    1fea:	28 0f       	add	r18, r24
    1fec:	8c 5d       	subi	r24, 0xDC	; 220
    1fee:	90 91 9d 03 	lds	r25, 0x039D
    1ff2:	e6 2f       	mov	r30, r22
    1ff4:	f0 e0       	ldi	r31, 0x00	; 0
    1ff6:	e4 50       	subi	r30, 0x04	; 4
    1ff8:	fa 4f       	sbci	r31, 0xFA	; 250
    1ffa:	90 83       	st	Z, r25
    1ffc:	92 0f       	add	r25, r18
    1ffe:	89 0f       	add	r24, r25
    2000:	a1 e0       	ldi	r26, 0x01	; 1
    2002:	a6 0f       	add	r26, r22
    2004:	af 3f       	cpi	r26, 0xFF	; 255
    2006:	09 f4       	brne	.+2      	; 0x200a <__stack+0xf0b>
    2008:	d8 c2       	rjmp	.+1456   	; 0x25ba <__stack+0x14bb>
    200a:	6e 5f       	subi	r22, 0xFE	; 254
    200c:	20 91 9e 03 	lds	r18, 0x039E
    2010:	b0 e0       	ldi	r27, 0x00	; 0
    2012:	a4 50       	subi	r26, 0x04	; 4
    2014:	ba 4f       	sbci	r27, 0xFA	; 250
    2016:	2c 93       	st	X, r18
    2018:	92 0f       	add	r25, r18
    201a:	89 0f       	add	r24, r25
    201c:	6f 3f       	cpi	r22, 0xFF	; 255
    201e:	09 f0       	breq	.+2      	; 0x2022 <__stack+0xf23>
    2020:	cb cc       	rjmp	.-1642   	; 0x19b8 <__stack+0x8b9>
    2022:	20 91 9f 03 	lds	r18, 0x039F
    2026:	20 93 fc 05 	sts	0x05FC, r18
    202a:	92 0f       	add	r25, r18
    202c:	89 0f       	add	r24, r25
    202e:	20 91 98 03 	lds	r18, 0x0398
    2032:	20 93 fd 05 	sts	0x05FD, r18
    2036:	92 0f       	add	r25, r18
    2038:	89 0f       	add	r24, r25
    203a:	e2 e0       	ldi	r30, 0x02	; 2
    203c:	a1 e0       	ldi	r26, 0x01	; 1
    203e:	ae 0f       	add	r26, r30
    2040:	20 91 99 03 	lds	r18, 0x0399
    2044:	f0 e0       	ldi	r31, 0x00	; 0
    2046:	e4 50       	subi	r30, 0x04	; 4
    2048:	fa 4f       	sbci	r31, 0xFA	; 250
    204a:	20 83       	st	Z, r18
    204c:	92 0f       	add	r25, r18
    204e:	89 0f       	add	r24, r25
    2050:	af 3f       	cpi	r26, 0xFF	; 255
    2052:	09 f0       	breq	.+2      	; 0x2056 <__stack+0xf57>
    2054:	cc cc       	rjmp	.-1640   	; 0x19ee <__stack+0x8ef>
    2056:	20 91 9a 03 	lds	r18, 0x039A
    205a:	20 93 fc 05 	sts	0x05FC, r18
    205e:	92 0f       	add	r25, r18
    2060:	89 0f       	add	r24, r25
    2062:	20 91 9b 03 	lds	r18, 0x039B
    2066:	20 93 fd 05 	sts	0x05FD, r18
    206a:	92 0f       	add	r25, r18
    206c:	89 0f       	add	r24, r25
    206e:	a2 e0       	ldi	r26, 0x02	; 2
    2070:	e1 e0       	ldi	r30, 0x01	; 1
    2072:	ea 0f       	add	r30, r26
    2074:	20 91 72 07 	lds	r18, 0x0772
    2078:	b0 e0       	ldi	r27, 0x00	; 0
    207a:	a4 50       	subi	r26, 0x04	; 4
    207c:	ba 4f       	sbci	r27, 0xFA	; 250
    207e:	2c 93       	st	X, r18
    2080:	92 0f       	add	r25, r18
    2082:	89 0f       	add	r24, r25
    2084:	ef 3f       	cpi	r30, 0xFF	; 255
    2086:	09 f0       	breq	.+2      	; 0x208a <__stack+0xf8b>
    2088:	cc cc       	rjmp	.-1640   	; 0x1a22 <__stack+0x923>
    208a:	20 91 73 07 	lds	r18, 0x0773
    208e:	20 93 fc 05 	sts	0x05FC, r18
    2092:	92 0f       	add	r25, r18
    2094:	89 0f       	add	r24, r25
    2096:	20 91 74 07 	lds	r18, 0x0774
    209a:	20 93 fd 05 	sts	0x05FD, r18
    209e:	92 0f       	add	r25, r18
    20a0:	89 0f       	add	r24, r25
    20a2:	e2 e0       	ldi	r30, 0x02	; 2
    20a4:	a1 e0       	ldi	r26, 0x01	; 1
    20a6:	ae 0f       	add	r26, r30
    20a8:	20 91 75 07 	lds	r18, 0x0775
    20ac:	f0 e0       	ldi	r31, 0x00	; 0
    20ae:	e4 50       	subi	r30, 0x04	; 4
    20b0:	fa 4f       	sbci	r31, 0xFA	; 250
    20b2:	20 83       	st	Z, r18
    20b4:	92 0f       	add	r25, r18
    20b6:	89 0f       	add	r24, r25
    20b8:	af 3f       	cpi	r26, 0xFF	; 255
    20ba:	09 f0       	breq	.+2      	; 0x20be <__stack+0xfbf>
    20bc:	cc cc       	rjmp	.-1640   	; 0x1a56 <__stack+0x957>
    20be:	20 91 7a 07 	lds	r18, 0x077A
    20c2:	20 93 fc 05 	sts	0x05FC, r18
    20c6:	92 0f       	add	r25, r18
    20c8:	89 0f       	add	r24, r25
    20ca:	20 91 7b 07 	lds	r18, 0x077B
    20ce:	20 93 fd 05 	sts	0x05FD, r18
    20d2:	92 0f       	add	r25, r18
    20d4:	89 0f       	add	r24, r25
    20d6:	a2 e0       	ldi	r26, 0x02	; 2
    20d8:	e1 e0       	ldi	r30, 0x01	; 1
    20da:	ea 0f       	add	r30, r26
    20dc:	20 91 7c 07 	lds	r18, 0x077C
    20e0:	b0 e0       	ldi	r27, 0x00	; 0
    20e2:	a4 50       	subi	r26, 0x04	; 4
    20e4:	ba 4f       	sbci	r27, 0xFA	; 250
    20e6:	2c 93       	st	X, r18
    20e8:	92 0f       	add	r25, r18
    20ea:	89 0f       	add	r24, r25
    20ec:	ef 3f       	cpi	r30, 0xFF	; 255
    20ee:	09 f0       	breq	.+2      	; 0x20f2 <__stack+0xff3>
    20f0:	cc cc       	rjmp	.-1640   	; 0x1a8a <__stack+0x98b>
    20f2:	20 91 7d 07 	lds	r18, 0x077D
    20f6:	20 93 fc 05 	sts	0x05FC, r18
    20fa:	92 0f       	add	r25, r18
    20fc:	89 0f       	add	r24, r25
    20fe:	20 91 95 01 	lds	r18, 0x0195
    2102:	20 93 fd 05 	sts	0x05FD, r18
    2106:	92 0f       	add	r25, r18
    2108:	89 0f       	add	r24, r25
    210a:	e2 e0       	ldi	r30, 0x02	; 2
    210c:	a1 e0       	ldi	r26, 0x01	; 1
    210e:	ae 0f       	add	r26, r30
    2110:	20 91 96 01 	lds	r18, 0x0196
    2114:	f0 e0       	ldi	r31, 0x00	; 0
    2116:	e4 50       	subi	r30, 0x04	; 4
    2118:	fa 4f       	sbci	r31, 0xFA	; 250
    211a:	20 83       	st	Z, r18
    211c:	92 0f       	add	r25, r18
    211e:	89 0f       	add	r24, r25
    2120:	af 3f       	cpi	r26, 0xFF	; 255
    2122:	09 f0       	breq	.+2      	; 0x2126 <__stack+0x1027>
    2124:	cc cc       	rjmp	.-1640   	; 0x1abe <__stack+0x9bf>
    2126:	20 91 97 01 	lds	r18, 0x0197
    212a:	20 93 fc 05 	sts	0x05FC, r18
    212e:	92 0f       	add	r25, r18
    2130:	89 0f       	add	r24, r25
    2132:	20 91 98 01 	lds	r18, 0x0198
    2136:	20 93 fd 05 	sts	0x05FD, r18
    213a:	92 0f       	add	r25, r18
    213c:	90 93 fb 06 	sts	0x06FB, r25
    2140:	89 0f       	add	r24, r25
    2142:	80 93 f6 05 	sts	0x05F6, r24
    2146:	a2 e0       	ldi	r26, 0x02	; 2
    2148:	e1 e0       	ldi	r30, 0x01	; 1
    214a:	ea 0f       	add	r30, r26
    214c:	b0 e0       	ldi	r27, 0x00	; 0
    214e:	a4 50       	subi	r26, 0x04	; 4
    2150:	ba 4f       	sbci	r27, 0xFA	; 250
    2152:	9c 93       	st	X, r25
    2154:	ef 3f       	cpi	r30, 0xFF	; 255
    2156:	09 f0       	breq	.+2      	; 0x215a <__stack+0x105b>
    2158:	cc cc       	rjmp	.-1640   	; 0x1af2 <__stack+0x9f3>
    215a:	80 93 fc 05 	sts	0x05FC, r24
    215e:	81 e0       	ldi	r24, 0x01	; 1
    2160:	80 93 f9 05 	sts	0x05F9, r24
    2164:	d1 cc       	rjmp	.-1630   	; 0x1b08 <__stack+0xa09>
    2166:	a1 e0       	ldi	r26, 0x01	; 1
    2168:	e0 e0       	ldi	r30, 0x00	; 0
    216a:	f0 e0       	ldi	r31, 0x00	; 0
    216c:	80 91 29 07 	lds	r24, 0x0729
    2170:	e4 50       	subi	r30, 0x04	; 4
    2172:	fa 4f       	sbci	r31, 0xFA	; 250
    2174:	80 83       	st	Z, r24
    2176:	2d e0       	ldi	r18, 0x0D	; 13
    2178:	28 0f       	add	r18, r24
    217a:	86 5e       	subi	r24, 0xE6	; 230
    217c:	90 91 28 07 	lds	r25, 0x0728
    2180:	ea 2f       	mov	r30, r26
    2182:	f0 e0       	ldi	r31, 0x00	; 0
    2184:	e4 50       	subi	r30, 0x04	; 4
    2186:	fa 4f       	sbci	r31, 0xFA	; 250
    2188:	90 83       	st	Z, r25
    218a:	92 0f       	add	r25, r18
    218c:	89 0f       	add	r24, r25
    218e:	e1 e0       	ldi	r30, 0x01	; 1
    2190:	ea 0f       	add	r30, r26
    2192:	ef 3f       	cpi	r30, 0xFF	; 255
    2194:	09 f4       	brne	.+2      	; 0x2198 <__stack+0x1099>
    2196:	ea c1       	rjmp	.+980    	; 0x256c <__stack+0x146d>
    2198:	ae 5f       	subi	r26, 0xFE	; 254
    219a:	20 91 f7 05 	lds	r18, 0x05F7
    219e:	f0 e0       	ldi	r31, 0x00	; 0
    21a0:	e4 50       	subi	r30, 0x04	; 4
    21a2:	fa 4f       	sbci	r31, 0xFA	; 250
    21a4:	20 83       	st	Z, r18
    21a6:	92 0f       	add	r25, r18
    21a8:	89 0f       	add	r24, r25
    21aa:	af 3f       	cpi	r26, 0xFF	; 255
    21ac:	09 f0       	breq	.+2      	; 0x21b0 <__stack+0x10b1>
    21ae:	79 c9       	rjmp	.-3342   	; 0x14a2 <__stack+0x3a3>
    21b0:	20 91 59 07 	lds	r18, 0x0759
    21b4:	20 93 fc 05 	sts	0x05FC, r18
    21b8:	92 0f       	add	r25, r18
    21ba:	89 0f       	add	r24, r25
    21bc:	20 91 d7 01 	lds	r18, 0x01D7
    21c0:	20 93 fd 05 	sts	0x05FD, r18
    21c4:	92 0f       	add	r25, r18
    21c6:	90 93 fb 06 	sts	0x06FB, r25
    21ca:	89 0f       	add	r24, r25
    21cc:	80 93 f6 05 	sts	0x05F6, r24
    21d0:	a2 e0       	ldi	r26, 0x02	; 2
    21d2:	e1 e0       	ldi	r30, 0x01	; 1
    21d4:	ea 0f       	add	r30, r26
    21d6:	b0 e0       	ldi	r27, 0x00	; 0
    21d8:	a4 50       	subi	r26, 0x04	; 4
    21da:	ba 4f       	sbci	r27, 0xFA	; 250
    21dc:	9c 93       	st	X, r25
    21de:	ef 3f       	cpi	r30, 0xFF	; 255
    21e0:	09 f0       	breq	.+2      	; 0x21e4 <__stack+0x10e5>
    21e2:	7a c9       	rjmp	.-3340   	; 0x14d8 <__stack+0x3d9>
    21e4:	80 93 fc 05 	sts	0x05FC, r24
    21e8:	81 e0       	ldi	r24, 0x01	; 1
    21ea:	80 93 f9 05 	sts	0x05F9, r24
    21ee:	80 c9       	rjmp	.-3328   	; 0x14f0 <__stack+0x3f1>
    21f0:	61 e0       	ldi	r22, 0x01	; 1
    21f2:	a0 e0       	ldi	r26, 0x00	; 0
    21f4:	b0 e0       	ldi	r27, 0x00	; 0
    21f6:	80 91 f5 05 	lds	r24, 0x05F5
    21fa:	a4 50       	subi	r26, 0x04	; 4
    21fc:	ba 4f       	sbci	r27, 0xFA	; 250
    21fe:	8c 93       	st	X, r24
    2200:	2c e0       	ldi	r18, 0x0C	; 12
    2202:	28 0f       	add	r18, r24
    2204:	88 5e       	subi	r24, 0xE8	; 232
    2206:	90 91 98 07 	lds	r25, 0x0798
    220a:	e6 2f       	mov	r30, r22
    220c:	f0 e0       	ldi	r31, 0x00	; 0
    220e:	e4 50       	subi	r30, 0x04	; 4
    2210:	fa 4f       	sbci	r31, 0xFA	; 250
    2212:	90 83       	st	Z, r25
    2214:	92 0f       	add	r25, r18
    2216:	89 0f       	add	r24, r25
    2218:	a1 e0       	ldi	r26, 0x01	; 1
    221a:	a6 0f       	add	r26, r22
    221c:	af 3f       	cpi	r26, 0xFF	; 255
    221e:	09 f4       	brne	.+2      	; 0x2222 <__stack+0x1123>
    2220:	9b c2       	rjmp	.+1334   	; 0x2758 <__stack+0x1659>
    2222:	6e 5f       	subi	r22, 0xFE	; 254
    2224:	20 91 99 07 	lds	r18, 0x0799
    2228:	b0 e0       	ldi	r27, 0x00	; 0
    222a:	a4 50       	subi	r26, 0x04	; 4
    222c:	ba 4f       	sbci	r27, 0xFA	; 250
    222e:	2c 93       	st	X, r18
    2230:	92 0f       	add	r25, r18
    2232:	89 0f       	add	r24, r25
    2234:	6f 3f       	cpi	r22, 0xFF	; 255
    2236:	09 f0       	breq	.+2      	; 0x223a <__stack+0x113b>
    2238:	2d cb       	rjmp	.-2470   	; 0x1894 <__stack+0x795>
    223a:	20 91 d6 01 	lds	r18, 0x01D6
    223e:	20 93 fc 05 	sts	0x05FC, r18
    2242:	92 0f       	add	r25, r18
    2244:	89 0f       	add	r24, r25
    2246:	20 91 92 07 	lds	r18, 0x0792
    224a:	20 93 fd 05 	sts	0x05FD, r18
    224e:	92 0f       	add	r25, r18
    2250:	89 0f       	add	r24, r25
    2252:	e2 e0       	ldi	r30, 0x02	; 2
    2254:	a1 e0       	ldi	r26, 0x01	; 1
    2256:	ae 0f       	add	r26, r30
    2258:	20 91 93 07 	lds	r18, 0x0793
    225c:	f0 e0       	ldi	r31, 0x00	; 0
    225e:	e4 50       	subi	r30, 0x04	; 4
    2260:	fa 4f       	sbci	r31, 0xFA	; 250
    2262:	20 83       	st	Z, r18
    2264:	92 0f       	add	r25, r18
    2266:	89 0f       	add	r24, r25
    2268:	af 3f       	cpi	r26, 0xFF	; 255
    226a:	09 f0       	breq	.+2      	; 0x226e <__stack+0x116f>
    226c:	2e cb       	rjmp	.-2468   	; 0x18ca <__stack+0x7cb>
    226e:	20 91 90 07 	lds	r18, 0x0790
    2272:	20 93 fc 05 	sts	0x05FC, r18
    2276:	92 0f       	add	r25, r18
    2278:	89 0f       	add	r24, r25
    227a:	20 91 91 07 	lds	r18, 0x0791
    227e:	20 93 fd 05 	sts	0x05FD, r18
    2282:	92 0f       	add	r25, r18
    2284:	90 93 fb 06 	sts	0x06FB, r25
    2288:	89 0f       	add	r24, r25
    228a:	80 93 f6 05 	sts	0x05F6, r24
    228e:	a2 e0       	ldi	r26, 0x02	; 2
    2290:	e1 e0       	ldi	r30, 0x01	; 1
    2292:	ea 0f       	add	r30, r26
    2294:	b0 e0       	ldi	r27, 0x00	; 0
    2296:	a4 50       	subi	r26, 0x04	; 4
    2298:	ba 4f       	sbci	r27, 0xFA	; 250
    229a:	9c 93       	st	X, r25
    229c:	ef 3f       	cpi	r30, 0xFF	; 255
    229e:	09 f0       	breq	.+2      	; 0x22a2 <__stack+0x11a3>
    22a0:	2e cb       	rjmp	.-2468   	; 0x18fe <__stack+0x7ff>
    22a2:	80 93 fc 05 	sts	0x05FC, r24
    22a6:	81 e0       	ldi	r24, 0x01	; 1
    22a8:	80 93 f9 05 	sts	0x05F9, r24
    22ac:	33 cb       	rjmp	.-2458   	; 0x1914 <__stack+0x815>
    22ae:	61 e0       	ldi	r22, 0x01	; 1
    22b0:	a0 e0       	ldi	r26, 0x00	; 0
    22b2:	b0 e0       	ldi	r27, 0x00	; 0
    22b4:	80 91 68 07 	lds	r24, 0x0768
    22b8:	a4 50       	subi	r26, 0x04	; 4
    22ba:	ba 4f       	sbci	r27, 0xFA	; 250
    22bc:	8c 93       	st	X, r24
    22be:	2e e0       	ldi	r18, 0x0E	; 14
    22c0:	28 0f       	add	r18, r24
    22c2:	84 5e       	subi	r24, 0xE4	; 228
    22c4:	90 91 69 07 	lds	r25, 0x0769
    22c8:	e6 2f       	mov	r30, r22
    22ca:	f0 e0       	ldi	r31, 0x00	; 0
    22cc:	e4 50       	subi	r30, 0x04	; 4
    22ce:	fa 4f       	sbci	r31, 0xFA	; 250
    22d0:	90 83       	st	Z, r25
    22d2:	92 0f       	add	r25, r18
    22d4:	89 0f       	add	r24, r25
    22d6:	a1 e0       	ldi	r26, 0x01	; 1
    22d8:	a6 0f       	add	r26, r22
    22da:	af 3f       	cpi	r26, 0xFF	; 255
    22dc:	09 f4       	brne	.+2      	; 0x22e0 <__stack+0x11e1>
    22de:	7c c2       	rjmp	.+1272   	; 0x27d8 <__stack+0x16d9>
    22e0:	6e 5f       	subi	r22, 0xFE	; 254
    22e2:	20 91 88 03 	lds	r18, 0x0388
    22e6:	b0 e0       	ldi	r27, 0x00	; 0
    22e8:	a4 50       	subi	r26, 0x04	; 4
    22ea:	ba 4f       	sbci	r27, 0xFA	; 250
    22ec:	2c 93       	st	X, r18
    22ee:	92 0f       	add	r25, r18
    22f0:	89 0f       	add	r24, r25
    22f2:	6f 3f       	cpi	r22, 0xFF	; 255
    22f4:	09 f0       	breq	.+2      	; 0x22f8 <__stack+0x11f9>
    22f6:	e6 c9       	rjmp	.-3124   	; 0x16c4 <__stack+0x5c5>
    22f8:	20 91 89 03 	lds	r18, 0x0389
    22fc:	20 93 fc 05 	sts	0x05FC, r18
    2300:	92 0f       	add	r25, r18
    2302:	89 0f       	add	r24, r25
    2304:	20 91 8a 03 	lds	r18, 0x038A
    2308:	20 93 fd 05 	sts	0x05FD, r18
    230c:	29 0f       	add	r18, r25
    230e:	82 0f       	add	r24, r18
    2310:	e2 e0       	ldi	r30, 0x02	; 2
    2312:	a1 e0       	ldi	r26, 0x01	; 1
    2314:	ae 0f       	add	r26, r30
    2316:	90 91 8b 03 	lds	r25, 0x038B
    231a:	f0 e0       	ldi	r31, 0x00	; 0
    231c:	e4 50       	subi	r30, 0x04	; 4
    231e:	fa 4f       	sbci	r31, 0xFA	; 250
    2320:	90 83       	st	Z, r25
    2322:	29 0f       	add	r18, r25
    2324:	82 0f       	add	r24, r18
    2326:	af 3f       	cpi	r26, 0xFF	; 255
    2328:	09 f0       	breq	.+2      	; 0x232c <__stack+0x122d>
    232a:	e8 c9       	rjmp	.-3120   	; 0x16fc <__stack+0x5fd>
    232c:	90 91 80 03 	lds	r25, 0x0380
    2330:	90 93 fc 05 	sts	0x05FC, r25
    2334:	29 0f       	add	r18, r25
    2336:	82 0f       	add	r24, r18
    2338:	90 91 81 03 	lds	r25, 0x0381
    233c:	90 93 fd 05 	sts	0x05FD, r25
    2340:	29 0f       	add	r18, r25
    2342:	82 0f       	add	r24, r18
    2344:	a2 e0       	ldi	r26, 0x02	; 2
    2346:	e1 e0       	ldi	r30, 0x01	; 1
    2348:	ea 0f       	add	r30, r26
    234a:	90 91 82 03 	lds	r25, 0x0382
    234e:	b0 e0       	ldi	r27, 0x00	; 0
    2350:	a4 50       	subi	r26, 0x04	; 4
    2352:	ba 4f       	sbci	r27, 0xFA	; 250
    2354:	9c 93       	st	X, r25
    2356:	29 0f       	add	r18, r25
    2358:	82 0f       	add	r24, r18
    235a:	ef 3f       	cpi	r30, 0xFF	; 255
    235c:	09 f0       	breq	.+2      	; 0x2360 <__stack+0x1261>
    235e:	e9 c9       	rjmp	.-3118   	; 0x1732 <__stack+0x633>
    2360:	90 91 83 03 	lds	r25, 0x0383
    2364:	90 93 fc 05 	sts	0x05FC, r25
    2368:	29 0f       	add	r18, r25
    236a:	82 0f       	add	r24, r18
    236c:	30 91 a7 01 	lds	r19, 0x01A7
    2370:	30 93 fd 05 	sts	0x05FD, r19
    2374:	92 2f       	mov	r25, r18
    2376:	93 0f       	add	r25, r19
    2378:	89 0f       	add	r24, r25
    237a:	e2 e0       	ldi	r30, 0x02	; 2
    237c:	a1 e0       	ldi	r26, 0x01	; 1
    237e:	ae 0f       	add	r26, r30
    2380:	30 91 a8 01 	lds	r19, 0x01A8
    2384:	f0 e0       	ldi	r31, 0x00	; 0
    2386:	e4 50       	subi	r30, 0x04	; 4
    2388:	fa 4f       	sbci	r31, 0xFA	; 250
    238a:	30 83       	st	Z, r19
    238c:	39 0f       	add	r19, r25
    238e:	83 0f       	add	r24, r19
    2390:	af 3f       	cpi	r26, 0xFF	; 255
    2392:	09 f0       	breq	.+2      	; 0x2396 <__stack+0x1297>
    2394:	ea c9       	rjmp	.-3116   	; 0x176a <__stack+0x66b>
    2396:	90 91 a9 01 	lds	r25, 0x01A9
    239a:	90 93 fc 05 	sts	0x05FC, r25
    239e:	93 0f       	add	r25, r19
    23a0:	89 0f       	add	r24, r25
    23a2:	50 91 aa 01 	lds	r21, 0x01AA
    23a6:	50 93 fd 05 	sts	0x05FD, r21
    23aa:	95 0f       	add	r25, r21
    23ac:	90 93 fb 06 	sts	0x06FB, r25
    23b0:	89 0f       	add	r24, r25
    23b2:	80 93 f6 05 	sts	0x05F6, r24
    23b6:	a2 e0       	ldi	r26, 0x02	; 2
    23b8:	e1 e0       	ldi	r30, 0x01	; 1
    23ba:	ea 0f       	add	r30, r26
    23bc:	b0 e0       	ldi	r27, 0x00	; 0
    23be:	a4 50       	subi	r26, 0x04	; 4
    23c0:	ba 4f       	sbci	r27, 0xFA	; 250
    23c2:	9c 93       	st	X, r25
    23c4:	ef 3f       	cpi	r30, 0xFF	; 255
    23c6:	09 f0       	breq	.+2      	; 0x23ca <__stack+0x12cb>
    23c8:	eb c9       	rjmp	.-3114   	; 0x17a0 <__stack+0x6a1>
    23ca:	80 93 fc 05 	sts	0x05FC, r24
    23ce:	81 e0       	ldi	r24, 0x01	; 1
    23d0:	80 93 f9 05 	sts	0x05F9, r24
    23d4:	f1 c9       	rjmp	.-3102   	; 0x17b8 <__stack+0x6b9>
    23d6:	10 92 fa 05 	sts	0x05FA, r1
    23da:	0c 94 a0 09 	jmp	0x1340	; 0x1340 <__stack+0x241>
    23de:	10 92 fa 05 	sts	0x05FA, r1
    23e2:	0c 94 29 06 	jmp	0xc52	; 0xc52 <reporting_task+0x3a2>
    23e6:	20 91 a1 01 	lds	r18, 0x01A1
    23ea:	20 93 fc 05 	sts	0x05FC, r18
    23ee:	92 0f       	add	r25, r18
    23f0:	89 0f       	add	r24, r25
    23f2:	20 91 a2 01 	lds	r18, 0x01A2
    23f6:	20 93 fd 05 	sts	0x05FD, r18
    23fa:	92 0f       	add	r25, r18
    23fc:	89 0f       	add	r24, r25
    23fe:	a2 e0       	ldi	r26, 0x02	; 2
    2400:	e1 e0       	ldi	r30, 0x01	; 1
    2402:	ea 0f       	add	r30, r26
    2404:	30 91 9b 01 	lds	r19, 0x019B
    2408:	b0 e0       	ldi	r27, 0x00	; 0
    240a:	a4 50       	subi	r26, 0x04	; 4
    240c:	ba 4f       	sbci	r27, 0xFA	; 250
    240e:	3c 93       	st	X, r19
    2410:	93 0f       	add	r25, r19
    2412:	89 0f       	add	r24, r25
    2414:	ef 3f       	cpi	r30, 0xFF	; 255
    2416:	09 f0       	breq	.+2      	; 0x241a <__stack+0x131b>
    2418:	2d cd       	rjmp	.-1446   	; 0x1e74 <__stack+0xd75>
    241a:	20 91 9c 01 	lds	r18, 0x019C
    241e:	20 93 fc 05 	sts	0x05FC, r18
    2422:	92 0f       	add	r25, r18
    2424:	89 0f       	add	r24, r25
    2426:	40 91 9d 01 	lds	r20, 0x019D
    242a:	40 93 fd 05 	sts	0x05FD, r20
    242e:	29 2f       	mov	r18, r25
    2430:	24 0f       	add	r18, r20
    2432:	82 0f       	add	r24, r18
    2434:	e2 e0       	ldi	r30, 0x02	; 2
    2436:	a1 e0       	ldi	r26, 0x01	; 1
    2438:	ae 0f       	add	r26, r30
    243a:	90 91 9e 01 	lds	r25, 0x019E
    243e:	f0 e0       	ldi	r31, 0x00	; 0
    2440:	e4 50       	subi	r30, 0x04	; 4
    2442:	fa 4f       	sbci	r31, 0xFA	; 250
    2444:	90 83       	st	Z, r25
    2446:	92 0f       	add	r25, r18
    2448:	90 93 fb 06 	sts	0x06FB, r25
    244c:	89 0f       	add	r24, r25
    244e:	80 93 f6 05 	sts	0x05F6, r24
    2452:	af 3f       	cpi	r26, 0xFF	; 255
    2454:	09 f0       	breq	.+2      	; 0x2458 <__stack+0x1359>
    2456:	2d cd       	rjmp	.-1446   	; 0x1eb2 <__stack+0xdb3>
    2458:	90 93 fc 05 	sts	0x05FC, r25
    245c:	80 93 fd 05 	sts	0x05FD, r24
    2460:	92 e0       	ldi	r25, 0x02	; 2
    2462:	90 93 f9 05 	sts	0x05F9, r25
    2466:	0c 94 5e 07 	jmp	0xebc	; 0xebc <reporting_task+0x60c>
    246a:	e0 91 fa 05 	lds	r30, 0x05FA
    246e:	f0 e0       	ldi	r31, 0x00	; 0
    2470:	e4 50       	subi	r30, 0x04	; 4
    2472:	fa 4f       	sbci	r31, 0xFA	; 250
    2474:	80 81       	ld	r24, Z
    2476:	80 93 f8 05 	sts	0x05F8, r24
    247a:	10 92 fb 05 	sts	0x05FB, r1
    247e:	80 91 fa 05 	lds	r24, 0x05FA
    2482:	8f 5f       	subi	r24, 0xFF	; 255
    2484:	80 93 fa 05 	sts	0x05FA, r24
    2488:	80 91 fa 05 	lds	r24, 0x05FA
    248c:	8f 3f       	cpi	r24, 0xFF	; 255
    248e:	09 f4       	brne	.+2      	; 0x2492 <__stack+0x1393>
    2490:	1f c3       	rjmp	.+1598   	; 0x2ad0 <__stack+0x19d1>
    2492:	88 b7       	in	r24, 0x38	; 56
    2494:	81 60       	ori	r24, 0x01	; 1
    2496:	88 bf       	out	0x38, r24	; 56
    2498:	89 b7       	in	r24, 0x39	; 57
    249a:	80 61       	ori	r24, 0x10	; 16
    249c:	89 bf       	out	0x39, r24	; 57
    249e:	40 91 d4 01 	lds	r20, 0x01D4
    24a2:	54 2f       	mov	r21, r20
    24a4:	89 e2       	ldi	r24, 0x29	; 41
    24a6:	48 9f       	mul	r20, r24
    24a8:	81 2d       	mov	r24, r1
    24aa:	11 24       	eor	r1, r1
    24ac:	86 95       	lsr	r24
    24ae:	86 95       	lsr	r24
    24b0:	86 95       	lsr	r24
    24b2:	f4 2f       	mov	r31, r20
    24b4:	e2 e3       	ldi	r30, 0x32	; 50
    24b6:	8e 9f       	mul	r24, r30
    24b8:	f0 19       	sub	r31, r0
    24ba:	11 24       	eor	r1, r1
    24bc:	8f 2f       	mov	r24, r31
    24be:	0c 94 d7 04 	jmp	0x9ae	; 0x9ae <reporting_task+0xfe>
    24c2:	e0 91 fa 05 	lds	r30, 0x05FA
    24c6:	f0 e0       	ldi	r31, 0x00	; 0
    24c8:	e4 50       	subi	r30, 0x04	; 4
    24ca:	fa 4f       	sbci	r31, 0xFA	; 250
    24cc:	80 81       	ld	r24, Z
    24ce:	80 93 f8 05 	sts	0x05F8, r24
    24d2:	10 92 fb 05 	sts	0x05FB, r1
    24d6:	80 91 fa 05 	lds	r24, 0x05FA
    24da:	8f 5f       	subi	r24, 0xFF	; 255
    24dc:	80 93 fa 05 	sts	0x05FA, r24
    24e0:	80 91 fa 05 	lds	r24, 0x05FA
    24e4:	8f 3f       	cpi	r24, 0xFF	; 255
    24e6:	09 f4       	brne	.+2      	; 0x24ea <__stack+0x13eb>
    24e8:	04 c3       	rjmp	.+1544   	; 0x2af2 <__stack+0x19f3>
    24ea:	88 b7       	in	r24, 0x38	; 56
    24ec:	81 60       	ori	r24, 0x01	; 1
    24ee:	88 bf       	out	0x38, r24	; 56
    24f0:	89 b7       	in	r24, 0x39	; 57
    24f2:	80 61       	ori	r24, 0x10	; 16
    24f4:	89 bf       	out	0x39, r24	; 57
    24f6:	40 91 d4 01 	lds	r20, 0x01D4
    24fa:	54 2f       	mov	r21, r20
    24fc:	8d ec       	ldi	r24, 0xCD	; 205
    24fe:	48 9f       	mul	r20, r24
    2500:	81 2d       	mov	r24, r1
    2502:	11 24       	eor	r1, r1
    2504:	82 95       	swap	r24
    2506:	8f 70       	andi	r24, 0x0F	; 15
    2508:	94 2f       	mov	r25, r20
    250a:	74 e1       	ldi	r23, 0x14	; 20
    250c:	87 9f       	mul	r24, r23
    250e:	90 19       	sub	r25, r0
    2510:	11 24       	eor	r1, r1
    2512:	89 2f       	mov	r24, r25
    2514:	0c 94 c4 04 	jmp	0x988	; 0x988 <reporting_task+0xd8>
    2518:	10 92 fa 05 	sts	0x05FA, r1
    251c:	0c 94 45 05 	jmp	0xa8a	; 0xa8a <reporting_task+0x1da>
    2520:	e0 91 fa 05 	lds	r30, 0x05FA
    2524:	f0 e0       	ldi	r31, 0x00	; 0
    2526:	e4 50       	subi	r30, 0x04	; 4
    2528:	fa 4f       	sbci	r31, 0xFA	; 250
    252a:	80 81       	ld	r24, Z
    252c:	80 93 f8 05 	sts	0x05F8, r24
    2530:	10 92 fb 05 	sts	0x05FB, r1
    2534:	80 91 fa 05 	lds	r24, 0x05FA
    2538:	8f 5f       	subi	r24, 0xFF	; 255
    253a:	80 93 fa 05 	sts	0x05FA, r24
    253e:	80 91 fa 05 	lds	r24, 0x05FA
    2542:	8f 3f       	cpi	r24, 0xFF	; 255
    2544:	09 f4       	brne	.+2      	; 0x2548 <__stack+0x1449>
    2546:	d8 c2       	rjmp	.+1456   	; 0x2af8 <__stack+0x19f9>
    2548:	88 b7       	in	r24, 0x38	; 56
    254a:	81 60       	ori	r24, 0x01	; 1
    254c:	88 bf       	out	0x38, r24	; 56
    254e:	89 b7       	in	r24, 0x39	; 57
    2550:	80 61       	ori	r24, 0x10	; 16
    2552:	89 bf       	out	0x39, r24	; 57
    2554:	50 91 d4 01 	lds	r21, 0x01D4
    2558:	0c 94 da 04 	jmp	0x9b4	; 0x9b4 <reporting_task+0x104>
    255c:	86 e0       	ldi	r24, 0x06	; 6
    255e:	80 93 fc 05 	sts	0x05FC, r24
    2562:	42 e0       	ldi	r20, 0x02	; 2
    2564:	a1 e0       	ldi	r26, 0x01	; 1
    2566:	b0 e0       	ldi	r27, 0x00	; 0
    2568:	0c 94 0d 09 	jmp	0x121a	; 0x121a <__stack+0x11b>
    256c:	20 91 f7 05 	lds	r18, 0x05F7
    2570:	20 93 fc 05 	sts	0x05FC, r18
    2574:	92 0f       	add	r25, r18
    2576:	89 0f       	add	r24, r25
    2578:	20 91 59 07 	lds	r18, 0x0759
    257c:	20 93 fd 05 	sts	0x05FD, r18
    2580:	92 0f       	add	r25, r18
    2582:	89 0f       	add	r24, r25
    2584:	e2 e0       	ldi	r30, 0x02	; 2
    2586:	a1 e0       	ldi	r26, 0x01	; 1
    2588:	ae 0f       	add	r26, r30
    258a:	20 91 d7 01 	lds	r18, 0x01D7
    258e:	f0 e0       	ldi	r31, 0x00	; 0
    2590:	e4 50       	subi	r30, 0x04	; 4
    2592:	fa 4f       	sbci	r31, 0xFA	; 250
    2594:	20 83       	st	Z, r18
    2596:	92 0f       	add	r25, r18
    2598:	90 93 fb 06 	sts	0x06FB, r25
    259c:	89 0f       	add	r24, r25
    259e:	80 93 f6 05 	sts	0x05F6, r24
    25a2:	af 3f       	cpi	r26, 0xFF	; 255
    25a4:	09 f0       	breq	.+2      	; 0x25a8 <__stack+0x14a9>
    25a6:	15 ce       	rjmp	.-982    	; 0x21d2 <__stack+0x10d3>
    25a8:	90 93 fc 05 	sts	0x05FC, r25
    25ac:	80 93 fd 05 	sts	0x05FD, r24
    25b0:	92 e0       	ldi	r25, 0x02	; 2
    25b2:	90 93 f9 05 	sts	0x05F9, r25
    25b6:	0c 94 78 0a 	jmp	0x14f0	; 0x14f0 <__stack+0x3f1>
    25ba:	20 91 9e 03 	lds	r18, 0x039E
    25be:	20 93 fc 05 	sts	0x05FC, r18
    25c2:	92 0f       	add	r25, r18
    25c4:	89 0f       	add	r24, r25
    25c6:	20 91 9f 03 	lds	r18, 0x039F
    25ca:	20 93 fd 05 	sts	0x05FD, r18
    25ce:	92 0f       	add	r25, r18
    25d0:	89 0f       	add	r24, r25
    25d2:	a2 e0       	ldi	r26, 0x02	; 2
    25d4:	e1 e0       	ldi	r30, 0x01	; 1
    25d6:	ea 0f       	add	r30, r26
    25d8:	20 91 98 03 	lds	r18, 0x0398
    25dc:	b0 e0       	ldi	r27, 0x00	; 0
    25de:	a4 50       	subi	r26, 0x04	; 4
    25e0:	ba 4f       	sbci	r27, 0xFA	; 250
    25e2:	2c 93       	st	X, r18
    25e4:	92 0f       	add	r25, r18
    25e6:	89 0f       	add	r24, r25
    25e8:	ef 3f       	cpi	r30, 0xFF	; 255
    25ea:	09 f0       	breq	.+2      	; 0x25ee <__stack+0x14ef>
    25ec:	27 cd       	rjmp	.-1458   	; 0x203c <__stack+0xf3d>
    25ee:	20 91 99 03 	lds	r18, 0x0399
    25f2:	20 93 fc 05 	sts	0x05FC, r18
    25f6:	92 0f       	add	r25, r18
    25f8:	89 0f       	add	r24, r25
    25fa:	20 91 9a 03 	lds	r18, 0x039A
    25fe:	20 93 fd 05 	sts	0x05FD, r18
    2602:	92 0f       	add	r25, r18
    2604:	89 0f       	add	r24, r25
    2606:	e2 e0       	ldi	r30, 0x02	; 2
    2608:	a1 e0       	ldi	r26, 0x01	; 1
    260a:	ae 0f       	add	r26, r30
    260c:	20 91 9b 03 	lds	r18, 0x039B
    2610:	f0 e0       	ldi	r31, 0x00	; 0
    2612:	e4 50       	subi	r30, 0x04	; 4
    2614:	fa 4f       	sbci	r31, 0xFA	; 250
    2616:	20 83       	st	Z, r18
    2618:	92 0f       	add	r25, r18
    261a:	89 0f       	add	r24, r25
    261c:	af 3f       	cpi	r26, 0xFF	; 255
    261e:	09 f0       	breq	.+2      	; 0x2622 <__stack+0x1523>
    2620:	27 cd       	rjmp	.-1458   	; 0x2070 <__stack+0xf71>
    2622:	20 91 72 07 	lds	r18, 0x0772
    2626:	20 93 fc 05 	sts	0x05FC, r18
    262a:	92 0f       	add	r25, r18
    262c:	89 0f       	add	r24, r25
    262e:	20 91 73 07 	lds	r18, 0x0773
    2632:	20 93 fd 05 	sts	0x05FD, r18
    2636:	92 0f       	add	r25, r18
    2638:	89 0f       	add	r24, r25
    263a:	a2 e0       	ldi	r26, 0x02	; 2
    263c:	e1 e0       	ldi	r30, 0x01	; 1
    263e:	ea 0f       	add	r30, r26
    2640:	20 91 74 07 	lds	r18, 0x0774
    2644:	b0 e0       	ldi	r27, 0x00	; 0
    2646:	a4 50       	subi	r26, 0x04	; 4
    2648:	ba 4f       	sbci	r27, 0xFA	; 250
    264a:	2c 93       	st	X, r18
    264c:	92 0f       	add	r25, r18
    264e:	89 0f       	add	r24, r25
    2650:	ef 3f       	cpi	r30, 0xFF	; 255
    2652:	09 f0       	breq	.+2      	; 0x2656 <__stack+0x1557>
    2654:	27 cd       	rjmp	.-1458   	; 0x20a4 <__stack+0xfa5>
    2656:	20 91 75 07 	lds	r18, 0x0775
    265a:	20 93 fc 05 	sts	0x05FC, r18
    265e:	92 0f       	add	r25, r18
    2660:	89 0f       	add	r24, r25
    2662:	20 91 7a 07 	lds	r18, 0x077A
    2666:	20 93 fd 05 	sts	0x05FD, r18
    266a:	92 0f       	add	r25, r18
    266c:	89 0f       	add	r24, r25
    266e:	e2 e0       	ldi	r30, 0x02	; 2
    2670:	a1 e0       	ldi	r26, 0x01	; 1
    2672:	ae 0f       	add	r26, r30
    2674:	20 91 7b 07 	lds	r18, 0x077B
    2678:	f0 e0       	ldi	r31, 0x00	; 0
    267a:	e4 50       	subi	r30, 0x04	; 4
    267c:	fa 4f       	sbci	r31, 0xFA	; 250
    267e:	20 83       	st	Z, r18
    2680:	92 0f       	add	r25, r18
    2682:	89 0f       	add	r24, r25
    2684:	af 3f       	cpi	r26, 0xFF	; 255
    2686:	09 f0       	breq	.+2      	; 0x268a <__stack+0x158b>
    2688:	27 cd       	rjmp	.-1458   	; 0x20d8 <__stack+0xfd9>
    268a:	20 91 7c 07 	lds	r18, 0x077C
    268e:	20 93 fc 05 	sts	0x05FC, r18
    2692:	92 0f       	add	r25, r18
    2694:	89 0f       	add	r24, r25
    2696:	20 91 7d 07 	lds	r18, 0x077D
    269a:	20 93 fd 05 	sts	0x05FD, r18
    269e:	92 0f       	add	r25, r18
    26a0:	89 0f       	add	r24, r25
    26a2:	a2 e0       	ldi	r26, 0x02	; 2
    26a4:	e1 e0       	ldi	r30, 0x01	; 1
    26a6:	ea 0f       	add	r30, r26
    26a8:	20 91 95 01 	lds	r18, 0x0195
    26ac:	b0 e0       	ldi	r27, 0x00	; 0
    26ae:	a4 50       	subi	r26, 0x04	; 4
    26b0:	ba 4f       	sbci	r27, 0xFA	; 250
    26b2:	2c 93       	st	X, r18
    26b4:	92 0f       	add	r25, r18
    26b6:	89 0f       	add	r24, r25
    26b8:	ef 3f       	cpi	r30, 0xFF	; 255
    26ba:	09 f0       	breq	.+2      	; 0x26be <__stack+0x15bf>
    26bc:	27 cd       	rjmp	.-1458   	; 0x210c <__stack+0x100d>
    26be:	20 91 96 01 	lds	r18, 0x0196
    26c2:	20 93 fc 05 	sts	0x05FC, r18
    26c6:	92 0f       	add	r25, r18
    26c8:	89 0f       	add	r24, r25
    26ca:	20 91 97 01 	lds	r18, 0x0197
    26ce:	20 93 fd 05 	sts	0x05FD, r18
    26d2:	92 0f       	add	r25, r18
    26d4:	89 0f       	add	r24, r25
    26d6:	e2 e0       	ldi	r30, 0x02	; 2
    26d8:	a1 e0       	ldi	r26, 0x01	; 1
    26da:	ae 0f       	add	r26, r30
    26dc:	20 91 98 01 	lds	r18, 0x0198
    26e0:	f0 e0       	ldi	r31, 0x00	; 0
    26e2:	e4 50       	subi	r30, 0x04	; 4
    26e4:	fa 4f       	sbci	r31, 0xFA	; 250
    26e6:	20 83       	st	Z, r18
    26e8:	92 0f       	add	r25, r18
    26ea:	90 93 fb 06 	sts	0x06FB, r25
    26ee:	89 0f       	add	r24, r25
    26f0:	80 93 f6 05 	sts	0x05F6, r24
    26f4:	af 3f       	cpi	r26, 0xFF	; 255
    26f6:	09 f0       	breq	.+2      	; 0x26fa <__stack+0x15fb>
    26f8:	27 cd       	rjmp	.-1458   	; 0x2148 <__stack+0x1049>
    26fa:	90 93 fc 05 	sts	0x05FC, r25
    26fe:	80 93 fd 05 	sts	0x05FD, r24
    2702:	92 e0       	ldi	r25, 0x02	; 2
    2704:	90 93 f9 05 	sts	0x05F9, r25
    2708:	ff c9       	rjmp	.-3074   	; 0x1b08 <__stack+0xa09>
    270a:	20 91 da 05 	lds	r18, 0x05DA
    270e:	20 93 fc 05 	sts	0x05FC, r18
    2712:	92 0f       	add	r25, r18
    2714:	89 0f       	add	r24, r25
    2716:	20 91 d8 01 	lds	r18, 0x01D8
    271a:	20 93 fd 05 	sts	0x05FD, r18
    271e:	92 0f       	add	r25, r18
    2720:	89 0f       	add	r24, r25
    2722:	e2 e0       	ldi	r30, 0x02	; 2
    2724:	a1 e0       	ldi	r26, 0x01	; 1
    2726:	ae 0f       	add	r26, r30
    2728:	20 91 01 01 	lds	r18, 0x0101
    272c:	f0 e0       	ldi	r31, 0x00	; 0
    272e:	e4 50       	subi	r30, 0x04	; 4
    2730:	fa 4f       	sbci	r31, 0xFA	; 250
    2732:	20 83       	st	Z, r18
    2734:	92 0f       	add	r25, r18
    2736:	90 93 fb 06 	sts	0x06FB, r25
    273a:	89 0f       	add	r24, r25
    273c:	80 93 f6 05 	sts	0x05F6, r24
    2740:	af 3f       	cpi	r26, 0xFF	; 255
    2742:	09 f0       	breq	.+2      	; 0x2746 <__stack+0x1647>
    2744:	fd cb       	rjmp	.-2054   	; 0x1f40 <__stack+0xe41>
    2746:	90 93 fc 05 	sts	0x05FC, r25
    274a:	80 93 fd 05 	sts	0x05FD, r24
    274e:	92 e0       	ldi	r25, 0x02	; 2
    2750:	90 93 f9 05 	sts	0x05F9, r25
    2754:	0c 94 f2 0a 	jmp	0x15e4	; 0x15e4 <__stack+0x4e5>
    2758:	20 91 99 07 	lds	r18, 0x0799
    275c:	20 93 fc 05 	sts	0x05FC, r18
    2760:	92 0f       	add	r25, r18
    2762:	89 0f       	add	r24, r25
    2764:	20 91 d6 01 	lds	r18, 0x01D6
    2768:	20 93 fd 05 	sts	0x05FD, r18
    276c:	92 0f       	add	r25, r18
    276e:	89 0f       	add	r24, r25
    2770:	a2 e0       	ldi	r26, 0x02	; 2
    2772:	e1 e0       	ldi	r30, 0x01	; 1
    2774:	ea 0f       	add	r30, r26
    2776:	20 91 92 07 	lds	r18, 0x0792
    277a:	b0 e0       	ldi	r27, 0x00	; 0
    277c:	a4 50       	subi	r26, 0x04	; 4
    277e:	ba 4f       	sbci	r27, 0xFA	; 250
    2780:	2c 93       	st	X, r18
    2782:	92 0f       	add	r25, r18
    2784:	89 0f       	add	r24, r25
    2786:	ef 3f       	cpi	r30, 0xFF	; 255
    2788:	09 f0       	breq	.+2      	; 0x278c <__stack+0x168d>
    278a:	64 cd       	rjmp	.-1336   	; 0x2254 <__stack+0x1155>
    278c:	20 91 93 07 	lds	r18, 0x0793
    2790:	20 93 fc 05 	sts	0x05FC, r18
    2794:	92 0f       	add	r25, r18
    2796:	89 0f       	add	r24, r25
    2798:	20 91 90 07 	lds	r18, 0x0790
    279c:	20 93 fd 05 	sts	0x05FD, r18
    27a0:	92 0f       	add	r25, r18
    27a2:	89 0f       	add	r24, r25
    27a4:	e2 e0       	ldi	r30, 0x02	; 2
    27a6:	a1 e0       	ldi	r26, 0x01	; 1
    27a8:	ae 0f       	add	r26, r30
    27aa:	20 91 91 07 	lds	r18, 0x0791
    27ae:	f0 e0       	ldi	r31, 0x00	; 0
    27b0:	e4 50       	subi	r30, 0x04	; 4
    27b2:	fa 4f       	sbci	r31, 0xFA	; 250
    27b4:	20 83       	st	Z, r18
    27b6:	92 0f       	add	r25, r18
    27b8:	90 93 fb 06 	sts	0x06FB, r25
    27bc:	89 0f       	add	r24, r25
    27be:	80 93 f6 05 	sts	0x05F6, r24
    27c2:	af 3f       	cpi	r26, 0xFF	; 255
    27c4:	09 f0       	breq	.+2      	; 0x27c8 <__stack+0x16c9>
    27c6:	64 cd       	rjmp	.-1336   	; 0x2290 <__stack+0x1191>
    27c8:	90 93 fc 05 	sts	0x05FC, r25
    27cc:	80 93 fd 05 	sts	0x05FD, r24
    27d0:	92 e0       	ldi	r25, 0x02	; 2
    27d2:	90 93 f9 05 	sts	0x05F9, r25
    27d6:	9e c8       	rjmp	.-3780   	; 0x1914 <__stack+0x815>
    27d8:	20 91 88 03 	lds	r18, 0x0388
    27dc:	20 93 fc 05 	sts	0x05FC, r18
    27e0:	92 0f       	add	r25, r18
    27e2:	89 0f       	add	r24, r25
    27e4:	20 91 89 03 	lds	r18, 0x0389
    27e8:	20 93 fd 05 	sts	0x05FD, r18
    27ec:	92 0f       	add	r25, r18
    27ee:	89 0f       	add	r24, r25
    27f0:	a2 e0       	ldi	r26, 0x02	; 2
    27f2:	e1 e0       	ldi	r30, 0x01	; 1
    27f4:	ea 0f       	add	r30, r26
    27f6:	20 91 8a 03 	lds	r18, 0x038A
    27fa:	b0 e0       	ldi	r27, 0x00	; 0
    27fc:	a4 50       	subi	r26, 0x04	; 4
    27fe:	ba 4f       	sbci	r27, 0xFA	; 250
    2800:	2c 93       	st	X, r18
    2802:	29 0f       	add	r18, r25
    2804:	82 0f       	add	r24, r18
    2806:	ef 3f       	cpi	r30, 0xFF	; 255
    2808:	09 f0       	breq	.+2      	; 0x280c <__stack+0x170d>
    280a:	83 cd       	rjmp	.-1274   	; 0x2312 <__stack+0x1213>
    280c:	90 91 8b 03 	lds	r25, 0x038B
    2810:	90 93 fc 05 	sts	0x05FC, r25
    2814:	29 0f       	add	r18, r25
    2816:	82 0f       	add	r24, r18
    2818:	90 91 80 03 	lds	r25, 0x0380
    281c:	90 93 fd 05 	sts	0x05FD, r25
    2820:	29 0f       	add	r18, r25
    2822:	82 0f       	add	r24, r18
    2824:	e2 e0       	ldi	r30, 0x02	; 2
    2826:	a1 e0       	ldi	r26, 0x01	; 1
    2828:	ae 0f       	add	r26, r30
    282a:	90 91 81 03 	lds	r25, 0x0381
    282e:	f0 e0       	ldi	r31, 0x00	; 0
    2830:	e4 50       	subi	r30, 0x04	; 4
    2832:	fa 4f       	sbci	r31, 0xFA	; 250
    2834:	90 83       	st	Z, r25
    2836:	29 0f       	add	r18, r25
    2838:	82 0f       	add	r24, r18
    283a:	af 3f       	cpi	r26, 0xFF	; 255
    283c:	09 f0       	breq	.+2      	; 0x2840 <__stack+0x1741>
    283e:	83 cd       	rjmp	.-1274   	; 0x2346 <__stack+0x1247>
    2840:	90 91 82 03 	lds	r25, 0x0382
    2844:	90 93 fc 05 	sts	0x05FC, r25
    2848:	29 0f       	add	r18, r25
    284a:	82 0f       	add	r24, r18
    284c:	90 91 83 03 	lds	r25, 0x0383
    2850:	90 93 fd 05 	sts	0x05FD, r25
    2854:	29 0f       	add	r18, r25
    2856:	82 0f       	add	r24, r18
    2858:	a2 e0       	ldi	r26, 0x02	; 2
    285a:	e1 e0       	ldi	r30, 0x01	; 1
    285c:	ea 0f       	add	r30, r26
    285e:	90 91 a7 01 	lds	r25, 0x01A7
    2862:	b0 e0       	ldi	r27, 0x00	; 0
    2864:	a4 50       	subi	r26, 0x04	; 4
    2866:	ba 4f       	sbci	r27, 0xFA	; 250
    2868:	9c 93       	st	X, r25
    286a:	92 0f       	add	r25, r18
    286c:	89 0f       	add	r24, r25
    286e:	ef 3f       	cpi	r30, 0xFF	; 255
    2870:	09 f0       	breq	.+2      	; 0x2874 <__stack+0x1775>
    2872:	84 cd       	rjmp	.-1272   	; 0x237c <__stack+0x127d>
    2874:	20 91 a8 01 	lds	r18, 0x01A8
    2878:	20 93 fc 05 	sts	0x05FC, r18
    287c:	92 0f       	add	r25, r18
    287e:	89 0f       	add	r24, r25
    2880:	50 91 a9 01 	lds	r21, 0x01A9
    2884:	50 93 fd 05 	sts	0x05FD, r21
    2888:	29 2f       	mov	r18, r25
    288a:	25 0f       	add	r18, r21
    288c:	82 0f       	add	r24, r18
    288e:	e2 e0       	ldi	r30, 0x02	; 2
    2890:	a1 e0       	ldi	r26, 0x01	; 1
    2892:	ae 0f       	add	r26, r30
    2894:	90 91 aa 01 	lds	r25, 0x01AA
    2898:	f0 e0       	ldi	r31, 0x00	; 0
    289a:	e4 50       	subi	r30, 0x04	; 4
    289c:	fa 4f       	sbci	r31, 0xFA	; 250
    289e:	90 83       	st	Z, r25
    28a0:	92 0f       	add	r25, r18
    28a2:	90 93 fb 06 	sts	0x06FB, r25
    28a6:	89 0f       	add	r24, r25
    28a8:	80 93 f6 05 	sts	0x05F6, r24
    28ac:	af 3f       	cpi	r26, 0xFF	; 255
    28ae:	09 f0       	breq	.+2      	; 0x28b2 <__stack+0x17b3>
    28b0:	83 cd       	rjmp	.-1274   	; 0x23b8 <__stack+0x12b9>
    28b2:	90 93 fc 05 	sts	0x05FC, r25
    28b6:	80 93 fd 05 	sts	0x05FD, r24
    28ba:	92 e0       	ldi	r25, 0x02	; 2
    28bc:	90 93 f9 05 	sts	0x05F9, r25
    28c0:	0c 94 dc 0b 	jmp	0x17b8	; 0x17b8 <__stack+0x6b9>
    28c4:	90 91 64 07 	lds	r25, 0x0764
    28c8:	90 93 fc 05 	sts	0x05FC, r25
    28cc:	29 0f       	add	r18, r25
    28ce:	82 0f       	add	r24, r18
    28d0:	90 91 65 07 	lds	r25, 0x0765
    28d4:	90 93 fd 05 	sts	0x05FD, r25
    28d8:	92 0f       	add	r25, r18
    28da:	90 93 fb 06 	sts	0x06FB, r25
    28de:	89 0f       	add	r24, r25
    28e0:	80 93 f6 05 	sts	0x05F6, r24
    28e4:	a2 e0       	ldi	r26, 0x02	; 2
    28e6:	e1 e0       	ldi	r30, 0x01	; 1
    28e8:	ea 0f       	add	r30, r26
    28ea:	b0 e0       	ldi	r27, 0x00	; 0
    28ec:	a4 50       	subi	r26, 0x04	; 4
    28ee:	ba 4f       	sbci	r27, 0xFA	; 250
    28f0:	9c 93       	st	X, r25
    28f2:	ef 3f       	cpi	r30, 0xFF	; 255
    28f4:	09 f0       	breq	.+2      	; 0x28f8 <__stack+0x17f9>
    28f6:	64 cb       	rjmp	.-2360   	; 0x1fc0 <__stack+0xec1>
    28f8:	80 93 fc 05 	sts	0x05FC, r24
    28fc:	81 e0       	ldi	r24, 0x01	; 1
    28fe:	80 93 f9 05 	sts	0x05F9, r24
    2902:	0c 94 f8 07 	jmp	0xff0	; 0xff0 <reporting_task+0x740>
    2906:	89 e0       	ldi	r24, 0x09	; 9
    2908:	80 93 fc 05 	sts	0x05FC, r24
    290c:	42 e0       	ldi	r20, 0x02	; 2
    290e:	a1 e0       	ldi	r26, 0x01	; 1
    2910:	b0 e0       	ldi	r27, 0x00	; 0
    2912:	80 ca       	rjmp	.-2816   	; 0x1e14 <__stack+0xd15>
    2914:	e1 e0       	ldi	r30, 0x01	; 1
    2916:	a0 e0       	ldi	r26, 0x00	; 0
    2918:	b0 e0       	ldi	r27, 0x00	; 0
    291a:	a4 50       	subi	r26, 0x04	; 4
    291c:	ba 4f       	sbci	r27, 0xFA	; 250
    291e:	7c 93       	st	X, r23
    2920:	91 e1       	ldi	r25, 0x11	; 17
    2922:	97 0f       	add	r25, r23
    2924:	7e 5d       	subi	r23, 0xDE	; 222
    2926:	80 91 f0 05 	lds	r24, 0x05F0
    292a:	ae 2f       	mov	r26, r30
    292c:	b0 e0       	ldi	r27, 0x00	; 0
    292e:	a4 50       	subi	r26, 0x04	; 4
    2930:	ba 4f       	sbci	r27, 0xFA	; 250
    2932:	8c 93       	st	X, r24
    2934:	89 0f       	add	r24, r25
    2936:	78 0f       	add	r23, r24
    2938:	a1 e0       	ldi	r26, 0x01	; 1
    293a:	ae 0f       	add	r26, r30
    293c:	af 3f       	cpi	r26, 0xFF	; 255
    293e:	09 f4       	brne	.+2      	; 0x2942 <__stack+0x1843>
    2940:	76 c0       	rjmp	.+236    	; 0x2a2e <__stack+0x192f>
    2942:	ee 5f       	subi	r30, 0xFE	; 254
    2944:	90 91 f1 05 	lds	r25, 0x05F1
    2948:	b0 e0       	ldi	r27, 0x00	; 0
    294a:	a4 50       	subi	r26, 0x04	; 4
    294c:	ba 4f       	sbci	r27, 0xFA	; 250
    294e:	9c 93       	st	X, r25
    2950:	89 0f       	add	r24, r25
    2952:	78 0f       	add	r23, r24
    2954:	ef 3f       	cpi	r30, 0xFF	; 255
    2956:	09 f0       	breq	.+2      	; 0x295a <__stack+0x185b>
    2958:	f1 c9       	rjmp	.-3102   	; 0x1d3c <__stack+0xc3d>
    295a:	90 91 f2 05 	lds	r25, 0x05F2
    295e:	90 93 fc 05 	sts	0x05FC, r25
    2962:	98 0f       	add	r25, r24
    2964:	89 2f       	mov	r24, r25
    2966:	87 0f       	add	r24, r23
    2968:	20 91 f3 05 	lds	r18, 0x05F3
    296c:	20 93 fd 05 	sts	0x05FD, r18
    2970:	92 0f       	add	r25, r18
    2972:	89 0f       	add	r24, r25
    2974:	e2 e0       	ldi	r30, 0x02	; 2
    2976:	a1 e0       	ldi	r26, 0x01	; 1
    2978:	ae 0f       	add	r26, r30
    297a:	20 91 ec 05 	lds	r18, 0x05EC
    297e:	f0 e0       	ldi	r31, 0x00	; 0
    2980:	e4 50       	subi	r30, 0x04	; 4
    2982:	fa 4f       	sbci	r31, 0xFA	; 250
    2984:	20 83       	st	Z, r18
    2986:	92 0f       	add	r25, r18
    2988:	89 0f       	add	r24, r25
    298a:	af 3f       	cpi	r26, 0xFF	; 255
    298c:	09 f0       	breq	.+2      	; 0x2990 <__stack+0x1891>
    298e:	f1 c9       	rjmp	.-3102   	; 0x1d72 <__stack+0xc73>
    2990:	20 91 ed 05 	lds	r18, 0x05ED
    2994:	20 93 fc 05 	sts	0x05FC, r18
    2998:	92 0f       	add	r25, r18
    299a:	89 0f       	add	r24, r25
    299c:	20 91 ee 05 	lds	r18, 0x05EE
    29a0:	20 93 fd 05 	sts	0x05FD, r18
    29a4:	92 0f       	add	r25, r18
    29a6:	89 0f       	add	r24, r25
    29a8:	a2 e0       	ldi	r26, 0x02	; 2
    29aa:	e1 e0       	ldi	r30, 0x01	; 1
    29ac:	ea 0f       	add	r30, r26
    29ae:	20 91 ef 05 	lds	r18, 0x05EF
    29b2:	b0 e0       	ldi	r27, 0x00	; 0
    29b4:	a4 50       	subi	r26, 0x04	; 4
    29b6:	ba 4f       	sbci	r27, 0xFA	; 250
    29b8:	2c 93       	st	X, r18
    29ba:	92 0f       	add	r25, r18
    29bc:	90 93 fb 06 	sts	0x06FB, r25
    29c0:	89 0f       	add	r24, r25
    29c2:	80 93 f6 05 	sts	0x05F6, r24
    29c6:	ef 3f       	cpi	r30, 0xFF	; 255
    29c8:	09 f0       	breq	.+2      	; 0x29cc <__stack+0x18cd>
    29ca:	f1 c9       	rjmp	.-3102   	; 0x1dae <__stack+0xcaf>
    29cc:	90 93 fc 05 	sts	0x05FC, r25
    29d0:	80 93 fd 05 	sts	0x05FD, r24
    29d4:	60 93 f9 05 	sts	0x05F9, r22
    29d8:	f8 c9       	rjmp	.-3088   	; 0x1dca <__stack+0xccb>
    29da:	82 e1       	ldi	r24, 0x12	; 18
    29dc:	80 93 fc 05 	sts	0x05FC, r24
    29e0:	62 e0       	ldi	r22, 0x02	; 2
    29e2:	a1 e0       	ldi	r26, 0x01	; 1
    29e4:	b0 e0       	ldi	r27, 0x00	; 0
    29e6:	fb ca       	rjmp	.-2570   	; 0x1fde <__stack+0xedf>
    29e8:	8c e0       	ldi	r24, 0x0C	; 12
    29ea:	80 93 fc 05 	sts	0x05FC, r24
    29ee:	62 e0       	ldi	r22, 0x02	; 2
    29f0:	a1 e0       	ldi	r26, 0x01	; 1
    29f2:	b0 e0       	ldi	r27, 0x00	; 0
    29f4:	00 cc       	rjmp	.-2048   	; 0x21f6 <__stack+0x10f7>
    29f6:	8b e0       	ldi	r24, 0x0B	; 11
    29f8:	80 93 fc 05 	sts	0x05FC, r24
    29fc:	a2 e0       	ldi	r26, 0x02	; 2
    29fe:	e1 e0       	ldi	r30, 0x01	; 1
    2a00:	f0 e0       	ldi	r31, 0x00	; 0
    2a02:	6b ca       	rjmp	.-2858   	; 0x1eda <__stack+0xddb>
    2a04:	8e e0       	ldi	r24, 0x0E	; 14
    2a06:	80 93 fc 05 	sts	0x05FC, r24
    2a0a:	62 e0       	ldi	r22, 0x02	; 2
    2a0c:	a1 e0       	ldi	r26, 0x01	; 1
    2a0e:	b0 e0       	ldi	r27, 0x00	; 0
    2a10:	51 cc       	rjmp	.-1886   	; 0x22b4 <__stack+0x11b5>
    2a12:	87 e0       	ldi	r24, 0x07	; 7
    2a14:	80 93 fc 05 	sts	0x05FC, r24
    2a18:	62 e0       	ldi	r22, 0x02	; 2
    2a1a:	a1 e0       	ldi	r26, 0x01	; 1
    2a1c:	b0 e0       	ldi	r27, 0x00	; 0
    2a1e:	a1 ca       	rjmp	.-2750   	; 0x1f62 <__stack+0xe63>
    2a20:	8d e0       	ldi	r24, 0x0D	; 13
    2a22:	80 93 fc 05 	sts	0x05FC, r24
    2a26:	a2 e0       	ldi	r26, 0x02	; 2
    2a28:	e1 e0       	ldi	r30, 0x01	; 1
    2a2a:	f0 e0       	ldi	r31, 0x00	; 0
    2a2c:	9f cb       	rjmp	.-2242   	; 0x216c <__stack+0x106d>
    2a2e:	90 91 f1 05 	lds	r25, 0x05F1
    2a32:	90 93 fc 05 	sts	0x05FC, r25
    2a36:	89 0f       	add	r24, r25
    2a38:	78 0f       	add	r23, r24
    2a3a:	90 91 f2 05 	lds	r25, 0x05F2
    2a3e:	90 93 fd 05 	sts	0x05FD, r25
    2a42:	89 0f       	add	r24, r25
    2a44:	78 0f       	add	r23, r24
    2a46:	a2 e0       	ldi	r26, 0x02	; 2
    2a48:	e1 e0       	ldi	r30, 0x01	; 1
    2a4a:	ea 0f       	add	r30, r26
    2a4c:	90 91 f3 05 	lds	r25, 0x05F3
    2a50:	b0 e0       	ldi	r27, 0x00	; 0
    2a52:	a4 50       	subi	r26, 0x04	; 4
    2a54:	ba 4f       	sbci	r27, 0xFA	; 250
    2a56:	9c 93       	st	X, r25
    2a58:	98 0f       	add	r25, r24
    2a5a:	89 2f       	mov	r24, r25
    2a5c:	87 0f       	add	r24, r23
    2a5e:	ef 3f       	cpi	r30, 0xFF	; 255
    2a60:	09 f0       	breq	.+2      	; 0x2a64 <__stack+0x1965>
    2a62:	89 cf       	rjmp	.-238    	; 0x2976 <__stack+0x1877>
    2a64:	20 91 ec 05 	lds	r18, 0x05EC
    2a68:	20 93 fc 05 	sts	0x05FC, r18
    2a6c:	92 0f       	add	r25, r18
    2a6e:	89 0f       	add	r24, r25
    2a70:	20 91 ed 05 	lds	r18, 0x05ED
    2a74:	20 93 fd 05 	sts	0x05FD, r18
    2a78:	92 0f       	add	r25, r18
    2a7a:	89 0f       	add	r24, r25
    2a7c:	e2 e0       	ldi	r30, 0x02	; 2
    2a7e:	a1 e0       	ldi	r26, 0x01	; 1
    2a80:	ae 0f       	add	r26, r30
    2a82:	20 91 ee 05 	lds	r18, 0x05EE
    2a86:	f0 e0       	ldi	r31, 0x00	; 0
    2a88:	e4 50       	subi	r30, 0x04	; 4
    2a8a:	fa 4f       	sbci	r31, 0xFA	; 250
    2a8c:	20 83       	st	Z, r18
    2a8e:	92 0f       	add	r25, r18
    2a90:	89 0f       	add	r24, r25
    2a92:	af 3f       	cpi	r26, 0xFF	; 255
    2a94:	09 f0       	breq	.+2      	; 0x2a98 <__stack+0x1999>
    2a96:	89 cf       	rjmp	.-238    	; 0x29aa <__stack+0x18ab>
    2a98:	20 91 ef 05 	lds	r18, 0x05EF
    2a9c:	20 93 fc 05 	sts	0x05FC, r18
    2aa0:	92 0f       	add	r25, r18
    2aa2:	90 93 fb 06 	sts	0x06FB, r25
    2aa6:	89 0f       	add	r24, r25
    2aa8:	80 93 f6 05 	sts	0x05F6, r24
    2aac:	90 93 fd 05 	sts	0x05FD, r25
    2ab0:	e6 2f       	mov	r30, r22
    2ab2:	f0 e0       	ldi	r31, 0x00	; 0
    2ab4:	6f 5f       	subi	r22, 0xFF	; 255
    2ab6:	e4 50       	subi	r30, 0x04	; 4
    2ab8:	fa 4f       	sbci	r31, 0xFA	; 250
    2aba:	80 83       	st	Z, r24
    2abc:	6f 3f       	cpi	r22, 0xFF	; 255
    2abe:	09 f0       	breq	.+2      	; 0x2ac2 <__stack+0x19c3>
    2ac0:	89 cf       	rjmp	.-238    	; 0x29d4 <__stack+0x18d5>
    2ac2:	10 92 f9 05 	sts	0x05F9, r1
    2ac6:	81 c9       	rjmp	.-3326   	; 0x1dca <__stack+0xccb>
    2ac8:	10 92 fa 05 	sts	0x05FA, r1
    2acc:	0c 94 10 08 	jmp	0x1020	; 0x1020 <reporting_task+0x770>
    2ad0:	10 92 fa 05 	sts	0x05FA, r1
    2ad4:	de cc       	rjmp	.-1604   	; 0x2492 <__stack+0x1393>
    2ad6:	10 92 fa 05 	sts	0x05FA, r1
    2ada:	2d c8       	rjmp	.-4006   	; 0x1b36 <__stack+0xa37>
    2adc:	10 92 fa 05 	sts	0x05FA, r1
    2ae0:	0c 94 f4 0b 	jmp	0x17e8	; 0x17e8 <__stack+0x6e9>
    2ae4:	81 e1       	ldi	r24, 0x11	; 17
    2ae6:	80 93 fc 05 	sts	0x05FC, r24
    2aea:	e2 e0       	ldi	r30, 0x02	; 2
    2aec:	a1 e0       	ldi	r26, 0x01	; 1
    2aee:	b0 e0       	ldi	r27, 0x00	; 0
    2af0:	14 cf       	rjmp	.-472    	; 0x291a <__stack+0x181b>
    2af2:	10 92 fa 05 	sts	0x05FA, r1
    2af6:	f9 cc       	rjmp	.-1550   	; 0x24ea <__stack+0x13eb>
    2af8:	10 92 fa 05 	sts	0x05FA, r1
    2afc:	25 cd       	rjmp	.-1462   	; 0x2548 <__stack+0x1449>
    2afe:	10 92 fa 05 	sts	0x05FA, r1
    2b02:	7a c9       	rjmp	.-3340   	; 0x1df8 <__stack+0xcf9>

00002b04 <inflight_calib_mode_update>:
inflight_calib_mode_update():
    2b04:	80 91 22 07 	lds	r24, 0x0722
    2b08:	90 91 23 07 	lds	r25, 0x0723
    2b0c:	80 34       	cpi	r24, 0x40	; 64
    2b0e:	2d ee       	ldi	r18, 0xED	; 237
    2b10:	92 07       	cpc	r25, r18
    2b12:	64 f0       	brlt	.+24     	; 0x2b2c <inflight_calib_mode_update+0x28>
    2b14:	21 e0       	ldi	r18, 0x01	; 1
    2b16:	80 38       	cpi	r24, 0x80	; 128
    2b18:	9c 40       	sbci	r25, 0x0C	; 12
    2b1a:	7c f0       	brlt	.+30     	; 0x2b3a <inflight_calib_mode_update+0x36>
    2b1c:	80 91 da 05 	lds	r24, 0x05DA
    2b20:	28 17       	cp	r18, r24
    2b22:	49 f0       	breq	.+18     	; 0x2b36 <inflight_calib_mode_update+0x32>
    2b24:	20 93 da 05 	sts	0x05DA, r18
    2b28:	81 e0       	ldi	r24, 0x01	; 1
    2b2a:	08 95       	ret
    2b2c:	22 e0       	ldi	r18, 0x02	; 2
    2b2e:	80 91 da 05 	lds	r24, 0x05DA
    2b32:	28 13       	cpse	r18, r24
    2b34:	f7 cf       	rjmp	.-18     	; 0x2b24 <inflight_calib_mode_update+0x20>
    2b36:	80 e0       	ldi	r24, 0x00	; 0
    2b38:	08 95       	ret
    2b3a:	20 e0       	ldi	r18, 0x00	; 0
    2b3c:	ef cf       	rjmp	.-34     	; 0x2b1c <inflight_calib_mode_update+0x18>

00002b3e <radio_control_task>:
radio_control_task():
    2b3e:	cf 93       	push	r28
    2b40:	df 93       	push	r29
    2b42:	80 91 db 01 	lds	r24, 0x01DB
    2b46:	88 23       	and	r24, r24
    2b48:	09 f4       	brne	.+2      	; 0x2b4c <radio_control_task+0xe>
    2b4a:	ba c0       	rjmp	.+372    	; 0x2cc0 <radio_control_task+0x182>
    2b4c:	80 91 18 07 	lds	r24, 0x0718
    2b50:	90 91 19 07 	lds	r25, 0x0719
    2b54:	90 93 03 07 	sts	0x0703, r25
    2b58:	80 93 02 07 	sts	0x0702, r24
    2b5c:	10 92 0f 07 	sts	0x070F, r1
    2b60:	80 91 25 07 	lds	r24, 0x0725
    2b64:	81 ff       	sbrs	r24, 1
    2b66:	04 c0       	rjmp	.+8      	; 0x2b70 <radio_control_task+0x32>
    2b68:	80 91 c8 01 	lds	r24, 0x01C8
    2b6c:	82 30       	cpi	r24, 0x02	; 2
    2b6e:	28 f0       	brcs	.+10     	; 0x2b7a <radio_control_task+0x3c>
    2b70:	80 91 85 07 	lds	r24, 0x0785
    2b74:	88 23       	and	r24, r24
    2b76:	09 f4       	brne	.+2      	; 0x2b7a <radio_control_task+0x3c>
    2b78:	a6 c0       	rjmp	.+332    	; 0x2cc6 <radio_control_task+0x188>
    2b7a:	83 e0       	ldi	r24, 0x03	; 3
    2b7c:	80 93 c8 01 	sts	0x01C8, r24
    2b80:	21 e0       	ldi	r18, 0x01	; 1
    2b82:	80 91 25 07 	lds	r24, 0x0725
    2b86:	82 fd       	sbrc	r24, 2
    2b88:	a3 c0       	rjmp	.+326    	; 0x2cd0 <radio_control_task+0x192>
    2b8a:	80 91 25 07 	lds	r24, 0x0725
    2b8e:	90 91 d8 01 	lds	r25, 0x01D8
    2b92:	89 17       	cp	r24, r25
    2b94:	09 f4       	brne	.+2      	; 0x2b98 <radio_control_task+0x5a>
    2b96:	ea c0       	rjmp	.+468    	; 0x2d6c <radio_control_task+0x22e>
    2b98:	98 27       	eor	r25, r24
    2b9a:	93 70       	andi	r25, 0x03	; 3
    2b9c:	31 e0       	ldi	r19, 0x01	; 1
    2b9e:	09 f4       	brne	.+2      	; 0x2ba2 <radio_control_task+0x64>
    2ba0:	30 e0       	ldi	r19, 0x00	; 0
    2ba2:	80 93 d8 01 	sts	0x01D8, r24
    2ba6:	83 2f       	mov	r24, r19
    2ba8:	28 2b       	or	r18, r24
    2baa:	09 f4       	brne	.+2      	; 0x2bae <radio_control_task+0x70>
    2bac:	e3 c0       	rjmp	.+454    	; 0x2d74 <radio_control_task+0x236>
    2bae:	a0 91 f9 05 	lds	r26, 0x05F9
    2bb2:	80 91 fa 05 	lds	r24, 0x05FA
    2bb6:	20 91 fa 05 	lds	r18, 0x05FA
    2bba:	30 e0       	ldi	r19, 0x00	; 0
    2bbc:	a8 17       	cp	r26, r24
    2bbe:	08 f0       	brcs	.+2      	; 0x2bc2 <radio_control_task+0x84>
    2bc0:	26 c1       	rjmp	.+588    	; 0x2e0e <radio_control_task+0x2d0>
    2bc2:	8a 2f       	mov	r24, r26
    2bc4:	90 e0       	ldi	r25, 0x00	; 0
    2bc6:	28 1b       	sub	r18, r24
    2bc8:	39 0b       	sbc	r19, r25
    2bca:	2a 30       	cpi	r18, 0x0A	; 10
    2bcc:	31 05       	cpc	r19, r1
    2bce:	0c f4       	brge	.+2      	; 0x2bd2 <radio_control_task+0x94>
    2bd0:	26 c1       	rjmp	.+588    	; 0x2e1e <radio_control_task+0x2e0>
    2bd2:	fc 01       	movw	r30, r24
    2bd4:	e4 50       	subi	r30, 0x04	; 4
    2bd6:	fa 4f       	sbci	r31, 0xFA	; 250
    2bd8:	25 e0       	ldi	r18, 0x05	; 5
    2bda:	20 83       	st	Z, r18
    2bdc:	e1 e0       	ldi	r30, 0x01	; 1
    2bde:	ea 0f       	add	r30, r26
    2be0:	ef 3f       	cpi	r30, 0xFF	; 255
    2be2:	09 f4       	brne	.+2      	; 0x2be6 <radio_control_task+0xa8>
    2be4:	22 c1       	rjmp	.+580    	; 0x2e2a <radio_control_task+0x2ec>
    2be6:	f0 e0       	ldi	r31, 0x00	; 0
    2be8:	e4 50       	subi	r30, 0x04	; 4
    2bea:	fa 4f       	sbci	r31, 0xFA	; 250
    2bec:	8b e0       	ldi	r24, 0x0B	; 11
    2bee:	80 83       	st	Z, r24
    2bf0:	e2 e0       	ldi	r30, 0x02	; 2
    2bf2:	ea 0f       	add	r30, r26
    2bf4:	ef 3f       	cpi	r30, 0xFF	; 255
    2bf6:	09 f4       	brne	.+2      	; 0x2bfa <radio_control_task+0xbc>
    2bf8:	0a c2       	rjmp	.+1044   	; 0x300e <radio_control_task+0x4d0>
    2bfa:	ad 5f       	subi	r26, 0xFD	; 253
    2bfc:	80 91 c8 01 	lds	r24, 0x01C8
    2c00:	f0 e0       	ldi	r31, 0x00	; 0
    2c02:	e4 50       	subi	r30, 0x04	; 4
    2c04:	fa 4f       	sbci	r31, 0xFA	; 250
    2c06:	80 83       	st	Z, r24
    2c08:	2b e0       	ldi	r18, 0x0B	; 11
    2c0a:	28 0f       	add	r18, r24
    2c0c:	96 e1       	ldi	r25, 0x16	; 22
    2c0e:	98 0f       	add	r25, r24
    2c10:	af 3f       	cpi	r26, 0xFF	; 255
    2c12:	09 f0       	breq	.+2      	; 0x2c16 <radio_control_task+0xd8>
    2c14:	19 c1       	rjmp	.+562    	; 0x2e48 <radio_control_task+0x30a>
    2c16:	30 91 c7 01 	lds	r19, 0x01C7
    2c1a:	30 93 fc 05 	sts	0x05FC, r19
    2c1e:	23 0f       	add	r18, r19
    2c20:	92 0f       	add	r25, r18
    2c22:	c0 91 da 05 	lds	r28, 0x05DA
    2c26:	c0 93 fd 05 	sts	0x05FD, r28
    2c2a:	2c 0f       	add	r18, r28
    2c2c:	92 0f       	add	r25, r18
    2c2e:	a2 e0       	ldi	r26, 0x02	; 2
    2c30:	e1 e0       	ldi	r30, 0x01	; 1
    2c32:	ea 0f       	add	r30, r26
    2c34:	30 91 d8 01 	lds	r19, 0x01D8
    2c38:	b0 e0       	ldi	r27, 0x00	; 0
    2c3a:	a4 50       	subi	r26, 0x04	; 4
    2c3c:	ba 4f       	sbci	r27, 0xFA	; 250
    2c3e:	3c 93       	st	X, r19
    2c40:	23 0f       	add	r18, r19
    2c42:	92 0f       	add	r25, r18
    2c44:	ef 3f       	cpi	r30, 0xFF	; 255
    2c46:	09 f0       	breq	.+2      	; 0x2c4a <radio_control_task+0x10c>
    2c48:	45 c1       	rjmp	.+650    	; 0x2ed4 <radio_control_task+0x396>
    2c4a:	30 91 01 01 	lds	r19, 0x0101
    2c4e:	30 93 fc 05 	sts	0x05FC, r19
    2c52:	23 0f       	add	r18, r19
    2c54:	20 93 fb 06 	sts	0x06FB, r18
    2c58:	92 0f       	add	r25, r18
    2c5a:	90 93 f6 05 	sts	0x05F6, r25
    2c5e:	20 93 fd 05 	sts	0x05FD, r18
    2c62:	e2 e0       	ldi	r30, 0x02	; 2
    2c64:	21 e0       	ldi	r18, 0x01	; 1
    2c66:	2e 0f       	add	r18, r30
    2c68:	f0 e0       	ldi	r31, 0x00	; 0
    2c6a:	e4 50       	subi	r30, 0x04	; 4
    2c6c:	fa 4f       	sbci	r31, 0xFA	; 250
    2c6e:	90 83       	st	Z, r25
    2c70:	2f 3f       	cpi	r18, 0xFF	; 255
    2c72:	09 f0       	breq	.+2      	; 0x2c76 <radio_control_task+0x138>
    2c74:	44 c1       	rjmp	.+648    	; 0x2efe <radio_control_task+0x3c0>
    2c76:	10 92 f9 05 	sts	0x05F9, r1
    2c7a:	43 c1       	rjmp	.+646    	; 0x2f02 <radio_control_task+0x3c4>
    2c7c:	10 92 d3 01 	sts	0x01D3, r1
    2c80:	10 92 d2 01 	sts	0x01D2, r1
    2c84:	10 92 eb 05 	sts	0x05EB, r1
    2c88:	10 92 d1 01 	sts	0x01D1, r1
    2c8c:	10 92 d0 01 	sts	0x01D0, r1
    2c90:	10 92 f4 05 	sts	0x05F4, r1
    2c94:	80 91 98 07 	lds	r24, 0x0798
    2c98:	90 91 99 07 	lds	r25, 0x0799
    2c9c:	89 2b       	or	r24, r25
    2c9e:	81 f4       	brne	.+32     	; 0x2cc0 <radio_control_task+0x182>
    2ca0:	0e 94 9f 00 	call	0x13e	; 0x13e <ground_calibrate>
    2ca4:	80 91 c8 01 	lds	r24, 0x01C8
    2ca8:	82 30       	cpi	r24, 0x02	; 2
    2caa:	51 f4       	brne	.+20     	; 0x2cc0 <radio_control_task+0x182>
    2cac:	80 91 12 07 	lds	r24, 0x0712
    2cb0:	90 91 13 07 	lds	r25, 0x0713
    2cb4:	81 3c       	cpi	r24, 0xC1	; 193
    2cb6:	91 42       	sbci	r25, 0x21	; 33
    2cb8:	1c f0       	brlt	.+6      	; 0x2cc0 <radio_control_task+0x182>
    2cba:	81 e0       	ldi	r24, 0x01	; 1
    2cbc:	80 93 c4 01 	sts	0x01C4, r24
    2cc0:	df 91       	pop	r29
    2cc2:	cf 91       	pop	r28
    2cc4:	08 95       	ret
    2cc6:	20 e0       	ldi	r18, 0x00	; 0
    2cc8:	80 91 25 07 	lds	r24, 0x0725
    2ccc:	82 ff       	sbrs	r24, 2
    2cce:	5d cf       	rjmp	.-326    	; 0x2b8a <radio_control_task+0x4c>
    2cd0:	30 91 c8 01 	lds	r19, 0x01C8
    2cd4:	33 30       	cpi	r19, 0x03	; 3
    2cd6:	09 f4       	brne	.+2      	; 0x2cda <radio_control_task+0x19c>
    2cd8:	93 c1       	rjmp	.+806    	; 0x3000 <radio_control_task+0x4c2>
    2cda:	80 91 1a 07 	lds	r24, 0x071A
    2cde:	90 91 1b 07 	lds	r25, 0x071B
    2ce2:	81 38       	cpi	r24, 0x81	; 129
    2ce4:	4c e0       	ldi	r20, 0x0C	; 12
    2ce6:	94 07       	cpc	r25, r20
    2ce8:	0c f0       	brlt	.+2      	; 0x2cec <radio_control_task+0x1ae>
    2cea:	7e c1       	rjmp	.+764    	; 0x2fe8 <radio_control_task+0x4aa>
    2cec:	41 e0       	ldi	r20, 0x01	; 1
    2cee:	81 34       	cpi	r24, 0x41	; 65
    2cf0:	9d 4e       	sbci	r25, 0xED	; 237
    2cf2:	0c f4       	brge	.+2      	; 0x2cf6 <radio_control_task+0x1b8>
    2cf4:	7f c1       	rjmp	.+766    	; 0x2ff4 <radio_control_task+0x4b6>
    2cf6:	34 17       	cp	r19, r20
    2cf8:	09 f4       	brne	.+2      	; 0x2cfc <radio_control_task+0x1be>
    2cfa:	78 c1       	rjmp	.+752    	; 0x2fec <radio_control_task+0x4ae>
    2cfc:	40 93 c8 01 	sts	0x01C8, r20
    2d00:	81 e0       	ldi	r24, 0x01	; 1
    2d02:	d8 2f       	mov	r29, r24
    2d04:	d2 2b       	or	r29, r18
    2d06:	91 e0       	ldi	r25, 0x01	; 1
    2d08:	20 91 20 07 	lds	r18, 0x0720
    2d0c:	30 91 21 07 	lds	r19, 0x0721
    2d10:	20 38       	cpi	r18, 0x80	; 128
    2d12:	3c 40       	sbci	r19, 0x0C	; 12
    2d14:	0c f4       	brge	.+2      	; 0x2d18 <radio_control_task+0x1da>
    2d16:	90 e0       	ldi	r25, 0x00	; 0
    2d18:	30 91 01 01 	lds	r19, 0x0101
    2d1c:	93 17       	cp	r25, r19
    2d1e:	09 f4       	brne	.+2      	; 0x2d22 <radio_control_task+0x1e4>
    2d20:	6b c1       	rjmp	.+726    	; 0x2ff8 <radio_control_task+0x4ba>
    2d22:	90 93 01 01 	sts	0x0101, r25
    2d26:	91 e0       	ldi	r25, 0x01	; 1
    2d28:	d9 2b       	or	r29, r25
    2d2a:	20 91 22 07 	lds	r18, 0x0722
    2d2e:	30 91 23 07 	lds	r19, 0x0723
    2d32:	20 34       	cpi	r18, 0x40	; 64
    2d34:	5d ee       	ldi	r21, 0xED	; 237
    2d36:	35 07       	cpc	r19, r21
    2d38:	0c f4       	brge	.+2      	; 0x2d3c <radio_control_task+0x1fe>
    2d3a:	54 c1       	rjmp	.+680    	; 0x2fe4 <radio_control_task+0x4a6>
    2d3c:	91 e0       	ldi	r25, 0x01	; 1
    2d3e:	20 38       	cpi	r18, 0x80	; 128
    2d40:	3c 40       	sbci	r19, 0x0C	; 12
    2d42:	0c f4       	brge	.+2      	; 0x2d46 <radio_control_task+0x208>
    2d44:	55 c1       	rjmp	.+682    	; 0x2ff0 <radio_control_task+0x4b2>
    2d46:	20 91 da 05 	lds	r18, 0x05DA
    2d4a:	29 17       	cp	r18, r25
    2d4c:	09 f4       	brne	.+2      	; 0x2d50 <radio_control_task+0x212>
    2d4e:	56 c1       	rjmp	.+684    	; 0x2ffc <radio_control_task+0x4be>
    2d50:	90 93 da 05 	sts	0x05DA, r25
    2d54:	81 e0       	ldi	r24, 0x01	; 1
    2d56:	c1 e0       	ldi	r28, 0x01	; 1
    2d58:	0e 94 c3 3d 	call	0x7b86	; 0x7b86 <inflight_calib>
    2d5c:	2d 2f       	mov	r18, r29
    2d5e:	2c 2b       	or	r18, r28
    2d60:	80 91 25 07 	lds	r24, 0x0725
    2d64:	90 91 d8 01 	lds	r25, 0x01D8
    2d68:	89 13       	cpse	r24, r25
    2d6a:	16 cf       	rjmp	.-468    	; 0x2b98 <radio_control_task+0x5a>
    2d6c:	80 e0       	ldi	r24, 0x00	; 0
    2d6e:	28 2b       	or	r18, r24
    2d70:	09 f0       	breq	.+2      	; 0x2d74 <radio_control_task+0x236>
    2d72:	1d cf       	rjmp	.-454    	; 0x2bae <radio_control_task+0x70>
    2d74:	80 91 c8 01 	lds	r24, 0x01C8
    2d78:	c0 91 da 05 	lds	r28, 0x05DA
    2d7c:	81 30       	cpi	r24, 0x01	; 1
    2d7e:	09 f4       	brne	.+2      	; 0x2d82 <radio_control_task+0x244>
    2d80:	e2 c0       	rjmp	.+452    	; 0x2f46 <radio_control_task+0x408>
    2d82:	08 f4       	brcc	.+2      	; 0x2d86 <radio_control_task+0x248>
    2d84:	26 c1       	rjmp	.+588    	; 0x2fd2 <radio_control_task+0x494>
    2d86:	80 91 24 07 	lds	r24, 0x0724
    2d8a:	80 93 d7 01 	sts	0x01D7, r24
    2d8e:	80 91 27 07 	lds	r24, 0x0727
    2d92:	80 93 f5 05 	sts	0x05F5, r24
    2d96:	c1 11       	cpse	r28, r1
    2d98:	71 cf       	rjmp	.-286    	; 0x2c7c <radio_control_task+0x13e>
    2d9a:	80 91 1c 07 	lds	r24, 0x071C
    2d9e:	90 91 1d 07 	lds	r25, 0x071D
    2da2:	81 32       	cpi	r24, 0x21	; 33
    2da4:	2c e1       	ldi	r18, 0x1C	; 28
    2da6:	92 07       	cpc	r25, r18
    2da8:	f4 f4       	brge	.+60     	; 0x2de6 <radio_control_task+0x2a8>
    2daa:	10 92 d3 01 	sts	0x01D3, r1
    2dae:	10 92 d2 01 	sts	0x01D2, r1
    2db2:	10 92 eb 05 	sts	0x05EB, r1
    2db6:	80 3e       	cpi	r24, 0xE0	; 224
    2db8:	93 4e       	sbci	r25, 0xE3	; 227
    2dba:	0c f0       	brlt	.+2      	; 0x2dbe <radio_control_task+0x280>
    2dbc:	65 cf       	rjmp	.-310    	; 0x2c88 <radio_control_task+0x14a>
    2dbe:	80 91 d0 01 	lds	r24, 0x01D0
    2dc2:	90 91 d1 01 	lds	r25, 0x01D1
    2dc6:	84 31       	cpi	r24, 0x14	; 20
    2dc8:	91 05       	cpc	r25, r1
    2dca:	08 f0       	brcs	.+2      	; 0x2dce <radio_control_task+0x290>
    2dcc:	63 cf       	rjmp	.-314    	; 0x2c94 <radio_control_task+0x156>
    2dce:	01 96       	adiw	r24, 0x01	; 1
    2dd0:	90 93 d1 01 	sts	0x01D1, r25
    2dd4:	80 93 d0 01 	sts	0x01D0, r24
    2dd8:	44 97       	sbiw	r24, 0x14	; 20
    2dda:	09 f0       	breq	.+2      	; 0x2dde <radio_control_task+0x2a0>
    2ddc:	5b cf       	rjmp	.-330    	; 0x2c94 <radio_control_task+0x156>
    2dde:	81 e0       	ldi	r24, 0x01	; 1
    2de0:	80 93 f4 05 	sts	0x05F4, r24
    2de4:	57 cf       	rjmp	.-338    	; 0x2c94 <radio_control_task+0x156>
    2de6:	80 91 d2 01 	lds	r24, 0x01D2
    2dea:	90 91 d3 01 	lds	r25, 0x01D3
    2dee:	84 31       	cpi	r24, 0x14	; 20
    2df0:	91 05       	cpc	r25, r1
    2df2:	08 f0       	brcs	.+2      	; 0x2df6 <radio_control_task+0x2b8>
    2df4:	49 cf       	rjmp	.-366    	; 0x2c88 <radio_control_task+0x14a>
    2df6:	01 96       	adiw	r24, 0x01	; 1
    2df8:	90 93 d3 01 	sts	0x01D3, r25
    2dfc:	80 93 d2 01 	sts	0x01D2, r24
    2e00:	44 97       	sbiw	r24, 0x14	; 20
    2e02:	09 f0       	breq	.+2      	; 0x2e06 <radio_control_task+0x2c8>
    2e04:	41 cf       	rjmp	.-382    	; 0x2c88 <radio_control_task+0x14a>
    2e06:	81 e0       	ldi	r24, 0x01	; 1
    2e08:	80 93 eb 05 	sts	0x05EB, r24
    2e0c:	3d cf       	rjmp	.-390    	; 0x2c88 <radio_control_task+0x14a>
    2e0e:	8a 2f       	mov	r24, r26
    2e10:	90 e0       	ldi	r25, 0x00	; 0
    2e12:	28 1b       	sub	r18, r24
    2e14:	39 0b       	sbc	r19, r25
    2e16:	2b 30       	cpi	r18, 0x0B	; 11
    2e18:	3f 4f       	sbci	r19, 0xFF	; 255
    2e1a:	0c f0       	brlt	.+2      	; 0x2e1e <radio_control_task+0x2e0>
    2e1c:	da ce       	rjmp	.-588    	; 0x2bd2 <radio_control_task+0x94>
    2e1e:	80 91 f7 05 	lds	r24, 0x05F7
    2e22:	8f 5f       	subi	r24, 0xFF	; 255
    2e24:	80 93 f7 05 	sts	0x05F7, r24
    2e28:	a5 cf       	rjmp	.-182    	; 0x2d74 <radio_control_task+0x236>
    2e2a:	8b e0       	ldi	r24, 0x0B	; 11
    2e2c:	80 93 fc 05 	sts	0x05FC, r24
    2e30:	a2 e0       	ldi	r26, 0x02	; 2
    2e32:	e1 e0       	ldi	r30, 0x01	; 1
    2e34:	f0 e0       	ldi	r31, 0x00	; 0
    2e36:	80 91 c8 01 	lds	r24, 0x01C8
    2e3a:	e4 50       	subi	r30, 0x04	; 4
    2e3c:	fa 4f       	sbci	r31, 0xFA	; 250
    2e3e:	80 83       	st	Z, r24
    2e40:	2b e0       	ldi	r18, 0x0B	; 11
    2e42:	28 0f       	add	r18, r24
    2e44:	96 e1       	ldi	r25, 0x16	; 22
    2e46:	98 0f       	add	r25, r24
    2e48:	30 91 c7 01 	lds	r19, 0x01C7
    2e4c:	ea 2f       	mov	r30, r26
    2e4e:	f0 e0       	ldi	r31, 0x00	; 0
    2e50:	e4 50       	subi	r30, 0x04	; 4
    2e52:	fa 4f       	sbci	r31, 0xFA	; 250
    2e54:	30 83       	st	Z, r19
    2e56:	23 0f       	add	r18, r19
    2e58:	92 0f       	add	r25, r18
    2e5a:	e1 e0       	ldi	r30, 0x01	; 1
    2e5c:	ea 0f       	add	r30, r26
    2e5e:	ef 3f       	cpi	r30, 0xFF	; 255
    2e60:	61 f1       	breq	.+88     	; 0x2eba <radio_control_task+0x37c>
    2e62:	ae 5f       	subi	r26, 0xFE	; 254
    2e64:	c0 91 da 05 	lds	r28, 0x05DA
    2e68:	f0 e0       	ldi	r31, 0x00	; 0
    2e6a:	e4 50       	subi	r30, 0x04	; 4
    2e6c:	fa 4f       	sbci	r31, 0xFA	; 250
    2e6e:	c0 83       	st	Z, r28
    2e70:	2c 0f       	add	r18, r28
    2e72:	92 0f       	add	r25, r18
    2e74:	af 3f       	cpi	r26, 0xFF	; 255
    2e76:	09 f0       	breq	.+2      	; 0x2e7a <radio_control_task+0x33c>
    2e78:	db ce       	rjmp	.-586    	; 0x2c30 <radio_control_task+0xf2>
    2e7a:	30 91 d8 01 	lds	r19, 0x01D8
    2e7e:	30 93 fc 05 	sts	0x05FC, r19
    2e82:	23 0f       	add	r18, r19
    2e84:	92 0f       	add	r25, r18
    2e86:	30 91 01 01 	lds	r19, 0x0101
    2e8a:	30 93 fd 05 	sts	0x05FD, r19
    2e8e:	23 0f       	add	r18, r19
    2e90:	20 93 fb 06 	sts	0x06FB, r18
    2e94:	92 0f       	add	r25, r18
    2e96:	90 93 f6 05 	sts	0x05F6, r25
    2e9a:	a2 e0       	ldi	r26, 0x02	; 2
    2e9c:	e1 e0       	ldi	r30, 0x01	; 1
    2e9e:	ea 0f       	add	r30, r26
    2ea0:	b0 e0       	ldi	r27, 0x00	; 0
    2ea2:	a4 50       	subi	r26, 0x04	; 4
    2ea4:	ba 4f       	sbci	r27, 0xFA	; 250
    2ea6:	2c 93       	st	X, r18
    2ea8:	ef 3f       	cpi	r30, 0xFF	; 255
    2eaa:	09 f0       	breq	.+2      	; 0x2eae <radio_control_task+0x370>
    2eac:	db ce       	rjmp	.-586    	; 0x2c64 <radio_control_task+0x126>
    2eae:	90 93 fc 05 	sts	0x05FC, r25
    2eb2:	91 e0       	ldi	r25, 0x01	; 1
    2eb4:	90 93 f9 05 	sts	0x05F9, r25
    2eb8:	24 c0       	rjmp	.+72     	; 0x2f02 <radio_control_task+0x3c4>
    2eba:	c0 91 da 05 	lds	r28, 0x05DA
    2ebe:	c0 93 fc 05 	sts	0x05FC, r28
    2ec2:	2c 0f       	add	r18, r28
    2ec4:	92 0f       	add	r25, r18
    2ec6:	30 91 d8 01 	lds	r19, 0x01D8
    2eca:	30 93 fd 05 	sts	0x05FD, r19
    2ece:	23 0f       	add	r18, r19
    2ed0:	92 0f       	add	r25, r18
    2ed2:	e2 e0       	ldi	r30, 0x02	; 2
    2ed4:	a1 e0       	ldi	r26, 0x01	; 1
    2ed6:	ae 0f       	add	r26, r30
    2ed8:	30 91 01 01 	lds	r19, 0x0101
    2edc:	f0 e0       	ldi	r31, 0x00	; 0
    2ede:	e4 50       	subi	r30, 0x04	; 4
    2ee0:	fa 4f       	sbci	r31, 0xFA	; 250
    2ee2:	30 83       	st	Z, r19
    2ee4:	23 0f       	add	r18, r19
    2ee6:	20 93 fb 06 	sts	0x06FB, r18
    2eea:	92 0f       	add	r25, r18
    2eec:	90 93 f6 05 	sts	0x05F6, r25
    2ef0:	af 3f       	cpi	r26, 0xFF	; 255
    2ef2:	a1 f6       	brne	.-88     	; 0x2e9c <radio_control_task+0x35e>
    2ef4:	20 93 fc 05 	sts	0x05FC, r18
    2ef8:	90 93 fd 05 	sts	0x05FD, r25
    2efc:	22 e0       	ldi	r18, 0x02	; 2
    2efe:	20 93 f9 05 	sts	0x05F9, r18
    2f02:	09 b6       	in	r0, 0x39	; 57
    2f04:	04 fc       	sbrc	r0, 4
    2f06:	3a cf       	rjmp	.-396    	; 0x2d7c <radio_control_task+0x23e>
    2f08:	e0 91 fa 05 	lds	r30, 0x05FA
    2f0c:	f0 e0       	ldi	r31, 0x00	; 0
    2f0e:	e4 50       	subi	r30, 0x04	; 4
    2f10:	fa 4f       	sbci	r31, 0xFA	; 250
    2f12:	80 81       	ld	r24, Z
    2f14:	80 93 f8 05 	sts	0x05F8, r24
    2f18:	10 92 fb 05 	sts	0x05FB, r1
    2f1c:	80 91 fa 05 	lds	r24, 0x05FA
    2f20:	8f 5f       	subi	r24, 0xFF	; 255
    2f22:	80 93 fa 05 	sts	0x05FA, r24
    2f26:	80 91 fa 05 	lds	r24, 0x05FA
    2f2a:	8f 3f       	cpi	r24, 0xFF	; 255
    2f2c:	09 f4       	brne	.+2      	; 0x2f30 <radio_control_task+0x3f2>
    2f2e:	73 c0       	rjmp	.+230    	; 0x3016 <radio_control_task+0x4d8>
    2f30:	88 b7       	in	r24, 0x38	; 56
    2f32:	81 60       	ori	r24, 0x01	; 1
    2f34:	88 bf       	out	0x38, r24	; 56
    2f36:	89 b7       	in	r24, 0x39	; 57
    2f38:	80 61       	ori	r24, 0x10	; 16
    2f3a:	89 bf       	out	0x39, r24	; 57
    2f3c:	80 91 c8 01 	lds	r24, 0x01C8
    2f40:	c0 91 da 05 	lds	r28, 0x05DA
    2f44:	1b cf       	rjmp	.-458    	; 0x2d7c <radio_control_task+0x23e>
    2f46:	60 91 14 07 	lds	r22, 0x0714
    2f4a:	70 91 15 07 	lds	r23, 0x0715
    2f4e:	88 27       	eor	r24, r24
    2f50:	77 fd       	sbrc	r23, 7
    2f52:	80 95       	com	r24
    2f54:	98 2f       	mov	r25, r24
    2f56:	0e 94 db 40 	call	0x81b6	; 0x81b6 <__floatsisf>
    2f5a:	20 e0       	ldi	r18, 0x00	; 0
    2f5c:	30 e0       	ldi	r19, 0x00	; 0
    2f5e:	46 e1       	ldi	r20, 0x16	; 22
    2f60:	56 e4       	ldi	r21, 0x46	; 70
    2f62:	0e 94 40 40 	call	0x8080	; 0x8080 <__divsf3>
    2f66:	2a e9       	ldi	r18, 0x9A	; 154
    2f68:	39 e9       	ldi	r19, 0x99	; 153
    2f6a:	49 e1       	ldi	r20, 0x19	; 25
    2f6c:	5f eb       	ldi	r21, 0xBF	; 191
    2f6e:	0e 94 f4 41 	call	0x83e8	; 0x83e8 <__mulsf3>
    2f72:	20 e0       	ldi	r18, 0x00	; 0
    2f74:	30 e0       	ldi	r19, 0x00	; 0
    2f76:	a9 01       	movw	r20, r18
    2f78:	0e 94 73 3f 	call	0x7ee6	; 0x7ee6 <__addsf3>
    2f7c:	60 93 9c 03 	sts	0x039C, r22
    2f80:	70 93 9d 03 	sts	0x039D, r23
    2f84:	80 93 9e 03 	sts	0x039E, r24
    2f88:	90 93 9f 03 	sts	0x039F, r25
    2f8c:	60 91 16 07 	lds	r22, 0x0716
    2f90:	70 91 17 07 	lds	r23, 0x0717
    2f94:	88 27       	eor	r24, r24
    2f96:	77 fd       	sbrc	r23, 7
    2f98:	80 95       	com	r24
    2f9a:	98 2f       	mov	r25, r24
    2f9c:	0e 94 db 40 	call	0x81b6	; 0x81b6 <__floatsisf>
    2fa0:	20 e0       	ldi	r18, 0x00	; 0
    2fa2:	30 e0       	ldi	r19, 0x00	; 0
    2fa4:	46 e1       	ldi	r20, 0x16	; 22
    2fa6:	56 e4       	ldi	r21, 0x46	; 70
    2fa8:	0e 94 40 40 	call	0x8080	; 0x8080 <__divsf3>
    2fac:	20 e0       	ldi	r18, 0x00	; 0
    2fae:	30 e0       	ldi	r19, 0x00	; 0
    2fb0:	40 e0       	ldi	r20, 0x00	; 0
    2fb2:	5f e3       	ldi	r21, 0x3F	; 63
    2fb4:	0e 94 f4 41 	call	0x83e8	; 0x83e8 <__mulsf3>
    2fb8:	20 e0       	ldi	r18, 0x00	; 0
    2fba:	30 e0       	ldi	r19, 0x00	; 0
    2fbc:	a9 01       	movw	r20, r18
    2fbe:	0e 94 73 3f 	call	0x7ee6	; 0x7ee6 <__addsf3>
    2fc2:	60 93 98 03 	sts	0x0398, r22
    2fc6:	70 93 99 03 	sts	0x0399, r23
    2fca:	80 93 9a 03 	sts	0x039A, r24
    2fce:	90 93 9b 03 	sts	0x039B, r25
    2fd2:	80 91 12 07 	lds	r24, 0x0712
    2fd6:	90 91 13 07 	lds	r25, 0x0713
    2fda:	90 93 69 07 	sts	0x0769, r25
    2fde:	80 93 68 07 	sts	0x0768, r24
    2fe2:	d1 ce       	rjmp	.-606    	; 0x2d86 <radio_control_task+0x248>
    2fe4:	92 e0       	ldi	r25, 0x02	; 2
    2fe6:	af ce       	rjmp	.-674    	; 0x2d46 <radio_control_task+0x208>
    2fe8:	42 e0       	ldi	r20, 0x02	; 2
    2fea:	85 ce       	rjmp	.-758    	; 0x2cf6 <radio_control_task+0x1b8>
    2fec:	80 e0       	ldi	r24, 0x00	; 0
    2fee:	89 ce       	rjmp	.-750    	; 0x2d02 <radio_control_task+0x1c4>
    2ff0:	90 e0       	ldi	r25, 0x00	; 0
    2ff2:	a9 ce       	rjmp	.-686    	; 0x2d46 <radio_control_task+0x208>
    2ff4:	40 e0       	ldi	r20, 0x00	; 0
    2ff6:	7f ce       	rjmp	.-770    	; 0x2cf6 <radio_control_task+0x1b8>
    2ff8:	90 e0       	ldi	r25, 0x00	; 0
    2ffa:	96 ce       	rjmp	.-724    	; 0x2d28 <radio_control_task+0x1ea>
    2ffc:	c0 e0       	ldi	r28, 0x00	; 0
    2ffe:	ac ce       	rjmp	.-680    	; 0x2d58 <radio_control_task+0x21a>
    3000:	80 91 eb 05 	lds	r24, 0x05EB
    3004:	88 23       	and	r24, r24
    3006:	91 f3       	breq	.-28     	; 0x2fec <radio_control_task+0x4ae>
    3008:	10 92 eb 05 	sts	0x05EB, r1
    300c:	66 ce       	rjmp	.-820    	; 0x2cda <radio_control_task+0x19c>
    300e:	a1 e0       	ldi	r26, 0x01	; 1
    3010:	e0 e0       	ldi	r30, 0x00	; 0
    3012:	f0 e0       	ldi	r31, 0x00	; 0
    3014:	10 cf       	rjmp	.-480    	; 0x2e36 <radio_control_task+0x2f8>
    3016:	10 92 fa 05 	sts	0x05FA, r1
    301a:	8a cf       	rjmp	.-236    	; 0x2f30 <radio_control_task+0x3f2>

0000301c <navigation_task>:
navigation_task():
    301c:	83 e0       	ldi	r24, 0x03	; 3
    301e:	80 93 c6 01 	sts	0x01C6, r24
    3022:	80 91 c8 01 	lds	r24, 0x01C8
    3026:	83 30       	cpi	r24, 0x03	; 3
    3028:	09 f4       	brne	.+2      	; 0x302c <navigation_task+0x10>
    302a:	40 c3       	rjmp	.+1664   	; 0x36ac <navigation_task+0x690>
    302c:	0e 94 01 2f 	call	0x5e02	; 0x5e02 <nav_update>
    3030:	40 91 f9 05 	lds	r20, 0x05F9
    3034:	80 91 fa 05 	lds	r24, 0x05FA
    3038:	20 91 fa 05 	lds	r18, 0x05FA
    303c:	30 e0       	ldi	r19, 0x00	; 0
    303e:	48 17       	cp	r20, r24
    3040:	98 f0       	brcs	.+38     	; 0x3068 <navigation_task+0x4c>
    3042:	84 2f       	mov	r24, r20
    3044:	90 e0       	ldi	r25, 0x00	; 0
    3046:	28 1b       	sub	r18, r24
    3048:	39 0b       	sbc	r19, r25
    304a:	20 32       	cpi	r18, 0x20	; 32
    304c:	3f 4f       	sbci	r19, 0xFF	; 255
    304e:	9c f4       	brge	.+38     	; 0x3076 <navigation_task+0x5a>
    3050:	80 91 f7 05 	lds	r24, 0x05F7
    3054:	8f 5f       	subi	r24, 0xFF	; 255
    3056:	80 93 f7 05 	sts	0x05F7, r24
    305a:	80 91 c8 01 	lds	r24, 0x01C8
    305e:	82 50       	subi	r24, 0x02	; 2
    3060:	82 30       	cpi	r24, 0x02	; 2
    3062:	08 f4       	brcc	.+2      	; 0x3066 <navigation_task+0x4a>
    3064:	0e c3       	rjmp	.+1564   	; 0x3682 <navigation_task+0x666>
    3066:	08 95       	ret
    3068:	84 2f       	mov	r24, r20
    306a:	90 e0       	ldi	r25, 0x00	; 0
    306c:	28 1b       	sub	r18, r24
    306e:	39 0b       	sbc	r19, r25
    3070:	2f 31       	cpi	r18, 0x1F	; 31
    3072:	31 05       	cpc	r19, r1
    3074:	6c f3       	brlt	.-38     	; 0x3050 <navigation_task+0x34>
    3076:	fc 01       	movw	r30, r24
    3078:	e4 50       	subi	r30, 0x04	; 4
    307a:	fa 4f       	sbci	r31, 0xFA	; 250
    307c:	25 e0       	ldi	r18, 0x05	; 5
    307e:	20 83       	st	Z, r18
    3080:	e1 e0       	ldi	r30, 0x01	; 1
    3082:	e4 0f       	add	r30, r20
    3084:	ef 3f       	cpi	r30, 0xFF	; 255
    3086:	09 f4       	brne	.+2      	; 0x308a <navigation_task+0x6e>
    3088:	01 c1       	rjmp	.+514    	; 0x328c <navigation_task+0x270>
    308a:	f0 e0       	ldi	r31, 0x00	; 0
    308c:	e4 50       	subi	r30, 0x04	; 4
    308e:	fa 4f       	sbci	r31, 0xFA	; 250
    3090:	8a e0       	ldi	r24, 0x0A	; 10
    3092:	80 83       	st	Z, r24
    3094:	a2 e0       	ldi	r26, 0x02	; 2
    3096:	a4 0f       	add	r26, r20
    3098:	af 3f       	cpi	r26, 0xFF	; 255
    309a:	09 f4       	brne	.+2      	; 0x309e <navigation_task+0x82>
    309c:	0d c3       	rjmp	.+1562   	; 0x36b8 <navigation_task+0x69c>
    309e:	4d 5f       	subi	r20, 0xFD	; 253
    30a0:	80 91 84 07 	lds	r24, 0x0784
    30a4:	b0 e0       	ldi	r27, 0x00	; 0
    30a6:	a4 50       	subi	r26, 0x04	; 4
    30a8:	ba 4f       	sbci	r27, 0xFA	; 250
    30aa:	8c 93       	st	X, r24
    30ac:	9a e0       	ldi	r25, 0x0A	; 10
    30ae:	98 0f       	add	r25, r24
    30b0:	8c 5e       	subi	r24, 0xEC	; 236
    30b2:	4f 3f       	cpi	r20, 0xFF	; 255
    30b4:	09 f0       	breq	.+2      	; 0x30b8 <navigation_task+0x9c>
    30b6:	f8 c0       	rjmp	.+496    	; 0x32a8 <navigation_task+0x28c>
    30b8:	20 91 8f 07 	lds	r18, 0x078F
    30bc:	20 93 fc 05 	sts	0x05FC, r18
    30c0:	92 0f       	add	r25, r18
    30c2:	89 0f       	add	r24, r25
    30c4:	20 91 c6 07 	lds	r18, 0x07C6
    30c8:	20 93 fd 05 	sts	0x05FD, r18
    30cc:	92 0f       	add	r25, r18
    30ce:	89 0f       	add	r24, r25
    30d0:	42 e0       	ldi	r20, 0x02	; 2
    30d2:	a1 e0       	ldi	r26, 0x01	; 1
    30d4:	a4 0f       	add	r26, r20
    30d6:	20 91 c7 07 	lds	r18, 0x07C7
    30da:	e4 2f       	mov	r30, r20
    30dc:	f0 e0       	ldi	r31, 0x00	; 0
    30de:	e4 50       	subi	r30, 0x04	; 4
    30e0:	fa 4f       	sbci	r31, 0xFA	; 250
    30e2:	20 83       	st	Z, r18
    30e4:	92 0f       	add	r25, r18
    30e6:	89 0f       	add	r24, r25
    30e8:	af 3f       	cpi	r26, 0xFF	; 255
    30ea:	09 f0       	breq	.+2      	; 0x30ee <navigation_task+0xd2>
    30ec:	da c1       	rjmp	.+948    	; 0x34a2 <navigation_task+0x486>
    30ee:	20 91 c8 07 	lds	r18, 0x07C8
    30f2:	20 93 fc 05 	sts	0x05FC, r18
    30f6:	92 0f       	add	r25, r18
    30f8:	89 0f       	add	r24, r25
    30fa:	20 91 c9 07 	lds	r18, 0x07C9
    30fe:	20 93 fd 05 	sts	0x05FD, r18
    3102:	92 0f       	add	r25, r18
    3104:	89 0f       	add	r24, r25
    3106:	a2 e0       	ldi	r26, 0x02	; 2
    3108:	e1 e0       	ldi	r30, 0x01	; 1
    310a:	ea 0f       	add	r30, r26
    310c:	20 91 da 07 	lds	r18, 0x07DA
    3110:	b0 e0       	ldi	r27, 0x00	; 0
    3112:	a4 50       	subi	r26, 0x04	; 4
    3114:	ba 4f       	sbci	r27, 0xFA	; 250
    3116:	2c 93       	st	X, r18
    3118:	92 0f       	add	r25, r18
    311a:	89 0f       	add	r24, r25
    311c:	ef 3f       	cpi	r30, 0xFF	; 255
    311e:	09 f0       	breq	.+2      	; 0x3122 <navigation_task+0x106>
    3120:	da c1       	rjmp	.+948    	; 0x34d6 <navigation_task+0x4ba>
    3122:	20 91 db 07 	lds	r18, 0x07DB
    3126:	20 93 fc 05 	sts	0x05FC, r18
    312a:	92 0f       	add	r25, r18
    312c:	89 0f       	add	r24, r25
    312e:	20 91 dc 07 	lds	r18, 0x07DC
    3132:	20 93 fd 05 	sts	0x05FD, r18
    3136:	92 0f       	add	r25, r18
    3138:	89 0f       	add	r24, r25
    313a:	e2 e0       	ldi	r30, 0x02	; 2
    313c:	a1 e0       	ldi	r26, 0x01	; 1
    313e:	ae 0f       	add	r26, r30
    3140:	20 91 dd 07 	lds	r18, 0x07DD
    3144:	f0 e0       	ldi	r31, 0x00	; 0
    3146:	e4 50       	subi	r30, 0x04	; 4
    3148:	fa 4f       	sbci	r31, 0xFA	; 250
    314a:	20 83       	st	Z, r18
    314c:	92 0f       	add	r25, r18
    314e:	89 0f       	add	r24, r25
    3150:	af 3f       	cpi	r26, 0xFF	; 255
    3152:	09 f0       	breq	.+2      	; 0x3156 <navigation_task+0x13a>
    3154:	da c1       	rjmp	.+948    	; 0x350a <navigation_task+0x4ee>
    3156:	20 91 8c 03 	lds	r18, 0x038C
    315a:	20 93 fc 05 	sts	0x05FC, r18
    315e:	92 0f       	add	r25, r18
    3160:	89 0f       	add	r24, r25
    3162:	20 91 8d 03 	lds	r18, 0x038D
    3166:	20 93 fd 05 	sts	0x05FD, r18
    316a:	92 0f       	add	r25, r18
    316c:	89 0f       	add	r24, r25
    316e:	a2 e0       	ldi	r26, 0x02	; 2
    3170:	e1 e0       	ldi	r30, 0x01	; 1
    3172:	ea 0f       	add	r30, r26
    3174:	20 91 8e 03 	lds	r18, 0x038E
    3178:	b0 e0       	ldi	r27, 0x00	; 0
    317a:	a4 50       	subi	r26, 0x04	; 4
    317c:	ba 4f       	sbci	r27, 0xFA	; 250
    317e:	2c 93       	st	X, r18
    3180:	92 0f       	add	r25, r18
    3182:	89 0f       	add	r24, r25
    3184:	ef 3f       	cpi	r30, 0xFF	; 255
    3186:	09 f0       	breq	.+2      	; 0x318a <navigation_task+0x16e>
    3188:	da c1       	rjmp	.+948    	; 0x353e <navigation_task+0x522>
    318a:	20 91 8f 03 	lds	r18, 0x038F
    318e:	20 93 fc 05 	sts	0x05FC, r18
    3192:	92 0f       	add	r25, r18
    3194:	89 0f       	add	r24, r25
    3196:	20 91 6e 07 	lds	r18, 0x076E
    319a:	20 93 fd 05 	sts	0x05FD, r18
    319e:	92 0f       	add	r25, r18
    31a0:	89 0f       	add	r24, r25
    31a2:	e2 e0       	ldi	r30, 0x02	; 2
    31a4:	a1 e0       	ldi	r26, 0x01	; 1
    31a6:	ae 0f       	add	r26, r30
    31a8:	20 91 6f 07 	lds	r18, 0x076F
    31ac:	f0 e0       	ldi	r31, 0x00	; 0
    31ae:	e4 50       	subi	r30, 0x04	; 4
    31b0:	fa 4f       	sbci	r31, 0xFA	; 250
    31b2:	20 83       	st	Z, r18
    31b4:	92 0f       	add	r25, r18
    31b6:	89 0f       	add	r24, r25
    31b8:	af 3f       	cpi	r26, 0xFF	; 255
    31ba:	09 f0       	breq	.+2      	; 0x31be <navigation_task+0x1a2>
    31bc:	da c1       	rjmp	.+948    	; 0x3572 <navigation_task+0x556>
    31be:	20 91 70 07 	lds	r18, 0x0770
    31c2:	20 93 fc 05 	sts	0x05FC, r18
    31c6:	92 0f       	add	r25, r18
    31c8:	89 0f       	add	r24, r25
    31ca:	20 91 71 07 	lds	r18, 0x0771
    31ce:	20 93 fd 05 	sts	0x05FD, r18
    31d2:	92 0f       	add	r25, r18
    31d4:	89 0f       	add	r24, r25
    31d6:	a2 e0       	ldi	r26, 0x02	; 2
    31d8:	e1 e0       	ldi	r30, 0x01	; 1
    31da:	ea 0f       	add	r30, r26
    31dc:	20 91 25 01 	lds	r18, 0x0125
    31e0:	b0 e0       	ldi	r27, 0x00	; 0
    31e2:	a4 50       	subi	r26, 0x04	; 4
    31e4:	ba 4f       	sbci	r27, 0xFA	; 250
    31e6:	2c 93       	st	X, r18
    31e8:	92 0f       	add	r25, r18
    31ea:	89 0f       	add	r24, r25
    31ec:	ef 3f       	cpi	r30, 0xFF	; 255
    31ee:	09 f0       	breq	.+2      	; 0x31f2 <navigation_task+0x1d6>
    31f0:	da c1       	rjmp	.+948    	; 0x35a6 <navigation_task+0x58a>
    31f2:	20 91 26 01 	lds	r18, 0x0126
    31f6:	20 93 fc 05 	sts	0x05FC, r18
    31fa:	92 0f       	add	r25, r18
    31fc:	89 0f       	add	r24, r25
    31fe:	20 91 27 01 	lds	r18, 0x0127
    3202:	20 93 fd 05 	sts	0x05FD, r18
    3206:	92 0f       	add	r25, r18
    3208:	89 0f       	add	r24, r25
    320a:	e2 e0       	ldi	r30, 0x02	; 2
    320c:	a1 e0       	ldi	r26, 0x01	; 1
    320e:	ae 0f       	add	r26, r30
    3210:	20 91 28 01 	lds	r18, 0x0128
    3214:	f0 e0       	ldi	r31, 0x00	; 0
    3216:	e4 50       	subi	r30, 0x04	; 4
    3218:	fa 4f       	sbci	r31, 0xFA	; 250
    321a:	20 83       	st	Z, r18
    321c:	92 0f       	add	r25, r18
    321e:	89 0f       	add	r24, r25
    3220:	af 3f       	cpi	r26, 0xFF	; 255
    3222:	09 f0       	breq	.+2      	; 0x3226 <navigation_task+0x20a>
    3224:	da c1       	rjmp	.+948    	; 0x35da <navigation_task+0x5be>
    3226:	20 91 8b 07 	lds	r18, 0x078B
    322a:	20 93 fc 05 	sts	0x05FC, r18
    322e:	92 0f       	add	r25, r18
    3230:	89 0f       	add	r24, r25
    3232:	20 91 8c 07 	lds	r18, 0x078C
    3236:	20 93 fd 05 	sts	0x05FD, r18
    323a:	92 0f       	add	r25, r18
    323c:	89 0f       	add	r24, r25
    323e:	a2 e0       	ldi	r26, 0x02	; 2
    3240:	e1 e0       	ldi	r30, 0x01	; 1
    3242:	ea 0f       	add	r30, r26
    3244:	20 91 8d 07 	lds	r18, 0x078D
    3248:	b0 e0       	ldi	r27, 0x00	; 0
    324a:	a4 50       	subi	r26, 0x04	; 4
    324c:	ba 4f       	sbci	r27, 0xFA	; 250
    324e:	2c 93       	st	X, r18
    3250:	92 0f       	add	r25, r18
    3252:	89 0f       	add	r24, r25
    3254:	ef 3f       	cpi	r30, 0xFF	; 255
    3256:	09 f0       	breq	.+2      	; 0x325a <navigation_task+0x23e>
    3258:	da c1       	rjmp	.+948    	; 0x360e <navigation_task+0x5f2>
    325a:	20 91 8e 07 	lds	r18, 0x078E
    325e:	20 93 fc 05 	sts	0x05FC, r18
    3262:	92 0f       	add	r25, r18
    3264:	90 93 fb 06 	sts	0x06FB, r25
    3268:	89 0f       	add	r24, r25
    326a:	80 93 f6 05 	sts	0x05F6, r24
    326e:	90 93 fd 05 	sts	0x05FD, r25
    3272:	e2 e0       	ldi	r30, 0x02	; 2
    3274:	91 e0       	ldi	r25, 0x01	; 1
    3276:	9e 0f       	add	r25, r30
    3278:	f0 e0       	ldi	r31, 0x00	; 0
    327a:	e4 50       	subi	r30, 0x04	; 4
    327c:	fa 4f       	sbci	r31, 0xFA	; 250
    327e:	80 83       	st	Z, r24
    3280:	9f 3f       	cpi	r25, 0xFF	; 255
    3282:	09 f0       	breq	.+2      	; 0x3286 <navigation_task+0x26a>
    3284:	da c1       	rjmp	.+948    	; 0x363a <navigation_task+0x61e>
    3286:	10 92 f9 05 	sts	0x05F9, r1
    328a:	d9 c1       	rjmp	.+946    	; 0x363e <navigation_task+0x622>
    328c:	8a e0       	ldi	r24, 0x0A	; 10
    328e:	80 93 fc 05 	sts	0x05FC, r24
    3292:	42 e0       	ldi	r20, 0x02	; 2
    3294:	a1 e0       	ldi	r26, 0x01	; 1
    3296:	b0 e0       	ldi	r27, 0x00	; 0
    3298:	80 91 84 07 	lds	r24, 0x0784
    329c:	a4 50       	subi	r26, 0x04	; 4
    329e:	ba 4f       	sbci	r27, 0xFA	; 250
    32a0:	8c 93       	st	X, r24
    32a2:	9a e0       	ldi	r25, 0x0A	; 10
    32a4:	98 0f       	add	r25, r24
    32a6:	8c 5e       	subi	r24, 0xEC	; 236
    32a8:	20 91 8f 07 	lds	r18, 0x078F
    32ac:	e4 2f       	mov	r30, r20
    32ae:	f0 e0       	ldi	r31, 0x00	; 0
    32b0:	e4 50       	subi	r30, 0x04	; 4
    32b2:	fa 4f       	sbci	r31, 0xFA	; 250
    32b4:	20 83       	st	Z, r18
    32b6:	92 0f       	add	r25, r18
    32b8:	89 0f       	add	r24, r25
    32ba:	a1 e0       	ldi	r26, 0x01	; 1
    32bc:	a4 0f       	add	r26, r20
    32be:	af 3f       	cpi	r26, 0xFF	; 255
    32c0:	09 f4       	brne	.+2      	; 0x32c4 <navigation_task+0x2a8>
    32c2:	e2 c0       	rjmp	.+452    	; 0x3488 <navigation_task+0x46c>
    32c4:	4e 5f       	subi	r20, 0xFE	; 254
    32c6:	20 91 c6 07 	lds	r18, 0x07C6
    32ca:	b0 e0       	ldi	r27, 0x00	; 0
    32cc:	a4 50       	subi	r26, 0x04	; 4
    32ce:	ba 4f       	sbci	r27, 0xFA	; 250
    32d0:	2c 93       	st	X, r18
    32d2:	92 0f       	add	r25, r18
    32d4:	89 0f       	add	r24, r25
    32d6:	4f 3f       	cpi	r20, 0xFF	; 255
    32d8:	09 f0       	breq	.+2      	; 0x32dc <navigation_task+0x2c0>
    32da:	fb ce       	rjmp	.-522    	; 0x30d2 <navigation_task+0xb6>
    32dc:	20 91 c7 07 	lds	r18, 0x07C7
    32e0:	20 93 fc 05 	sts	0x05FC, r18
    32e4:	92 0f       	add	r25, r18
    32e6:	89 0f       	add	r24, r25
    32e8:	20 91 c8 07 	lds	r18, 0x07C8
    32ec:	20 93 fd 05 	sts	0x05FD, r18
    32f0:	92 0f       	add	r25, r18
    32f2:	89 0f       	add	r24, r25
    32f4:	e2 e0       	ldi	r30, 0x02	; 2
    32f6:	a1 e0       	ldi	r26, 0x01	; 1
    32f8:	ae 0f       	add	r26, r30
    32fa:	20 91 c9 07 	lds	r18, 0x07C9
    32fe:	f0 e0       	ldi	r31, 0x00	; 0
    3300:	e4 50       	subi	r30, 0x04	; 4
    3302:	fa 4f       	sbci	r31, 0xFA	; 250
    3304:	20 83       	st	Z, r18
    3306:	92 0f       	add	r25, r18
    3308:	89 0f       	add	r24, r25
    330a:	af 3f       	cpi	r26, 0xFF	; 255
    330c:	09 f0       	breq	.+2      	; 0x3310 <navigation_task+0x2f4>
    330e:	fc ce       	rjmp	.-520    	; 0x3108 <navigation_task+0xec>
    3310:	20 91 da 07 	lds	r18, 0x07DA
    3314:	20 93 fc 05 	sts	0x05FC, r18
    3318:	92 0f       	add	r25, r18
    331a:	89 0f       	add	r24, r25
    331c:	20 91 db 07 	lds	r18, 0x07DB
    3320:	20 93 fd 05 	sts	0x05FD, r18
    3324:	92 0f       	add	r25, r18
    3326:	89 0f       	add	r24, r25
    3328:	a2 e0       	ldi	r26, 0x02	; 2
    332a:	e1 e0       	ldi	r30, 0x01	; 1
    332c:	ea 0f       	add	r30, r26
    332e:	20 91 dc 07 	lds	r18, 0x07DC
    3332:	b0 e0       	ldi	r27, 0x00	; 0
    3334:	a4 50       	subi	r26, 0x04	; 4
    3336:	ba 4f       	sbci	r27, 0xFA	; 250
    3338:	2c 93       	st	X, r18
    333a:	92 0f       	add	r25, r18
    333c:	89 0f       	add	r24, r25
    333e:	ef 3f       	cpi	r30, 0xFF	; 255
    3340:	09 f0       	breq	.+2      	; 0x3344 <navigation_task+0x328>
    3342:	fc ce       	rjmp	.-520    	; 0x313c <navigation_task+0x120>
    3344:	20 91 dd 07 	lds	r18, 0x07DD
    3348:	20 93 fc 05 	sts	0x05FC, r18
    334c:	92 0f       	add	r25, r18
    334e:	89 0f       	add	r24, r25
    3350:	20 91 8c 03 	lds	r18, 0x038C
    3354:	20 93 fd 05 	sts	0x05FD, r18
    3358:	92 0f       	add	r25, r18
    335a:	89 0f       	add	r24, r25
    335c:	e2 e0       	ldi	r30, 0x02	; 2
    335e:	a1 e0       	ldi	r26, 0x01	; 1
    3360:	ae 0f       	add	r26, r30
    3362:	20 91 8d 03 	lds	r18, 0x038D
    3366:	f0 e0       	ldi	r31, 0x00	; 0
    3368:	e4 50       	subi	r30, 0x04	; 4
    336a:	fa 4f       	sbci	r31, 0xFA	; 250
    336c:	20 83       	st	Z, r18
    336e:	92 0f       	add	r25, r18
    3370:	89 0f       	add	r24, r25
    3372:	af 3f       	cpi	r26, 0xFF	; 255
    3374:	09 f0       	breq	.+2      	; 0x3378 <navigation_task+0x35c>
    3376:	fc ce       	rjmp	.-520    	; 0x3170 <navigation_task+0x154>
    3378:	20 91 8e 03 	lds	r18, 0x038E
    337c:	20 93 fc 05 	sts	0x05FC, r18
    3380:	92 0f       	add	r25, r18
    3382:	89 0f       	add	r24, r25
    3384:	20 91 8f 03 	lds	r18, 0x038F
    3388:	20 93 fd 05 	sts	0x05FD, r18
    338c:	92 0f       	add	r25, r18
    338e:	89 0f       	add	r24, r25
    3390:	a2 e0       	ldi	r26, 0x02	; 2
    3392:	e1 e0       	ldi	r30, 0x01	; 1
    3394:	ea 0f       	add	r30, r26
    3396:	20 91 6e 07 	lds	r18, 0x076E
    339a:	b0 e0       	ldi	r27, 0x00	; 0
    339c:	a4 50       	subi	r26, 0x04	; 4
    339e:	ba 4f       	sbci	r27, 0xFA	; 250
    33a0:	2c 93       	st	X, r18
    33a2:	92 0f       	add	r25, r18
    33a4:	89 0f       	add	r24, r25
    33a6:	ef 3f       	cpi	r30, 0xFF	; 255
    33a8:	09 f0       	breq	.+2      	; 0x33ac <navigation_task+0x390>
    33aa:	fc ce       	rjmp	.-520    	; 0x31a4 <navigation_task+0x188>
    33ac:	20 91 6f 07 	lds	r18, 0x076F
    33b0:	20 93 fc 05 	sts	0x05FC, r18
    33b4:	92 0f       	add	r25, r18
    33b6:	89 0f       	add	r24, r25
    33b8:	20 91 70 07 	lds	r18, 0x0770
    33bc:	20 93 fd 05 	sts	0x05FD, r18
    33c0:	92 0f       	add	r25, r18
    33c2:	89 0f       	add	r24, r25
    33c4:	e2 e0       	ldi	r30, 0x02	; 2
    33c6:	a1 e0       	ldi	r26, 0x01	; 1
    33c8:	ae 0f       	add	r26, r30
    33ca:	20 91 71 07 	lds	r18, 0x0771
    33ce:	f0 e0       	ldi	r31, 0x00	; 0
    33d0:	e4 50       	subi	r30, 0x04	; 4
    33d2:	fa 4f       	sbci	r31, 0xFA	; 250
    33d4:	20 83       	st	Z, r18
    33d6:	92 0f       	add	r25, r18
    33d8:	89 0f       	add	r24, r25
    33da:	af 3f       	cpi	r26, 0xFF	; 255
    33dc:	09 f0       	breq	.+2      	; 0x33e0 <navigation_task+0x3c4>
    33de:	fc ce       	rjmp	.-520    	; 0x31d8 <navigation_task+0x1bc>
    33e0:	20 91 25 01 	lds	r18, 0x0125
    33e4:	20 93 fc 05 	sts	0x05FC, r18
    33e8:	92 0f       	add	r25, r18
    33ea:	89 0f       	add	r24, r25
    33ec:	20 91 26 01 	lds	r18, 0x0126
    33f0:	20 93 fd 05 	sts	0x05FD, r18
    33f4:	92 0f       	add	r25, r18
    33f6:	89 0f       	add	r24, r25
    33f8:	a2 e0       	ldi	r26, 0x02	; 2
    33fa:	e1 e0       	ldi	r30, 0x01	; 1
    33fc:	ea 0f       	add	r30, r26
    33fe:	20 91 27 01 	lds	r18, 0x0127
    3402:	b0 e0       	ldi	r27, 0x00	; 0
    3404:	a4 50       	subi	r26, 0x04	; 4
    3406:	ba 4f       	sbci	r27, 0xFA	; 250
    3408:	2c 93       	st	X, r18
    340a:	92 0f       	add	r25, r18
    340c:	89 0f       	add	r24, r25
    340e:	ef 3f       	cpi	r30, 0xFF	; 255
    3410:	09 f0       	breq	.+2      	; 0x3414 <navigation_task+0x3f8>
    3412:	fc ce       	rjmp	.-520    	; 0x320c <navigation_task+0x1f0>
    3414:	20 91 28 01 	lds	r18, 0x0128
    3418:	20 93 fc 05 	sts	0x05FC, r18
    341c:	92 0f       	add	r25, r18
    341e:	89 0f       	add	r24, r25
    3420:	20 91 8b 07 	lds	r18, 0x078B
    3424:	20 93 fd 05 	sts	0x05FD, r18
    3428:	92 0f       	add	r25, r18
    342a:	89 0f       	add	r24, r25
    342c:	e2 e0       	ldi	r30, 0x02	; 2
    342e:	a1 e0       	ldi	r26, 0x01	; 1
    3430:	ae 0f       	add	r26, r30
    3432:	20 91 8c 07 	lds	r18, 0x078C
    3436:	f0 e0       	ldi	r31, 0x00	; 0
    3438:	e4 50       	subi	r30, 0x04	; 4
    343a:	fa 4f       	sbci	r31, 0xFA	; 250
    343c:	20 83       	st	Z, r18
    343e:	92 0f       	add	r25, r18
    3440:	89 0f       	add	r24, r25
    3442:	af 3f       	cpi	r26, 0xFF	; 255
    3444:	09 f0       	breq	.+2      	; 0x3448 <navigation_task+0x42c>
    3446:	fc ce       	rjmp	.-520    	; 0x3240 <navigation_task+0x224>
    3448:	20 91 8d 07 	lds	r18, 0x078D
    344c:	20 93 fc 05 	sts	0x05FC, r18
    3450:	92 0f       	add	r25, r18
    3452:	89 0f       	add	r24, r25
    3454:	20 91 8e 07 	lds	r18, 0x078E
    3458:	20 93 fd 05 	sts	0x05FD, r18
    345c:	92 0f       	add	r25, r18
    345e:	90 93 fb 06 	sts	0x06FB, r25
    3462:	89 0f       	add	r24, r25
    3464:	80 93 f6 05 	sts	0x05F6, r24
    3468:	a2 e0       	ldi	r26, 0x02	; 2
    346a:	e1 e0       	ldi	r30, 0x01	; 1
    346c:	ea 0f       	add	r30, r26
    346e:	b0 e0       	ldi	r27, 0x00	; 0
    3470:	a4 50       	subi	r26, 0x04	; 4
    3472:	ba 4f       	sbci	r27, 0xFA	; 250
    3474:	9c 93       	st	X, r25
    3476:	ef 3f       	cpi	r30, 0xFF	; 255
    3478:	09 f0       	breq	.+2      	; 0x347c <navigation_task+0x460>
    347a:	fc ce       	rjmp	.-520    	; 0x3274 <navigation_task+0x258>
    347c:	80 93 fc 05 	sts	0x05FC, r24
    3480:	81 e0       	ldi	r24, 0x01	; 1
    3482:	80 93 f9 05 	sts	0x05F9, r24
    3486:	db c0       	rjmp	.+438    	; 0x363e <navigation_task+0x622>
    3488:	20 91 c6 07 	lds	r18, 0x07C6
    348c:	20 93 fc 05 	sts	0x05FC, r18
    3490:	92 0f       	add	r25, r18
    3492:	89 0f       	add	r24, r25
    3494:	20 91 c7 07 	lds	r18, 0x07C7
    3498:	20 93 fd 05 	sts	0x05FD, r18
    349c:	92 0f       	add	r25, r18
    349e:	89 0f       	add	r24, r25
    34a0:	a2 e0       	ldi	r26, 0x02	; 2
    34a2:	e1 e0       	ldi	r30, 0x01	; 1
    34a4:	ea 0f       	add	r30, r26
    34a6:	20 91 c8 07 	lds	r18, 0x07C8
    34aa:	b0 e0       	ldi	r27, 0x00	; 0
    34ac:	a4 50       	subi	r26, 0x04	; 4
    34ae:	ba 4f       	sbci	r27, 0xFA	; 250
    34b0:	2c 93       	st	X, r18
    34b2:	92 0f       	add	r25, r18
    34b4:	89 0f       	add	r24, r25
    34b6:	ef 3f       	cpi	r30, 0xFF	; 255
    34b8:	09 f0       	breq	.+2      	; 0x34bc <navigation_task+0x4a0>
    34ba:	1d cf       	rjmp	.-454    	; 0x32f6 <navigation_task+0x2da>
    34bc:	20 91 c9 07 	lds	r18, 0x07C9
    34c0:	20 93 fc 05 	sts	0x05FC, r18
    34c4:	92 0f       	add	r25, r18
    34c6:	89 0f       	add	r24, r25
    34c8:	20 91 da 07 	lds	r18, 0x07DA
    34cc:	20 93 fd 05 	sts	0x05FD, r18
    34d0:	92 0f       	add	r25, r18
    34d2:	89 0f       	add	r24, r25
    34d4:	e2 e0       	ldi	r30, 0x02	; 2
    34d6:	a1 e0       	ldi	r26, 0x01	; 1
    34d8:	ae 0f       	add	r26, r30
    34da:	20 91 db 07 	lds	r18, 0x07DB
    34de:	f0 e0       	ldi	r31, 0x00	; 0
    34e0:	e4 50       	subi	r30, 0x04	; 4
    34e2:	fa 4f       	sbci	r31, 0xFA	; 250
    34e4:	20 83       	st	Z, r18
    34e6:	92 0f       	add	r25, r18
    34e8:	89 0f       	add	r24, r25
    34ea:	af 3f       	cpi	r26, 0xFF	; 255
    34ec:	09 f0       	breq	.+2      	; 0x34f0 <navigation_task+0x4d4>
    34ee:	1d cf       	rjmp	.-454    	; 0x332a <navigation_task+0x30e>
    34f0:	20 91 dc 07 	lds	r18, 0x07DC
    34f4:	20 93 fc 05 	sts	0x05FC, r18
    34f8:	92 0f       	add	r25, r18
    34fa:	89 0f       	add	r24, r25
    34fc:	20 91 dd 07 	lds	r18, 0x07DD
    3500:	20 93 fd 05 	sts	0x05FD, r18
    3504:	92 0f       	add	r25, r18
    3506:	89 0f       	add	r24, r25
    3508:	a2 e0       	ldi	r26, 0x02	; 2
    350a:	e1 e0       	ldi	r30, 0x01	; 1
    350c:	ea 0f       	add	r30, r26
    350e:	20 91 8c 03 	lds	r18, 0x038C
    3512:	b0 e0       	ldi	r27, 0x00	; 0
    3514:	a4 50       	subi	r26, 0x04	; 4
    3516:	ba 4f       	sbci	r27, 0xFA	; 250
    3518:	2c 93       	st	X, r18
    351a:	92 0f       	add	r25, r18
    351c:	89 0f       	add	r24, r25
    351e:	ef 3f       	cpi	r30, 0xFF	; 255
    3520:	09 f0       	breq	.+2      	; 0x3524 <navigation_task+0x508>
    3522:	1d cf       	rjmp	.-454    	; 0x335e <navigation_task+0x342>
    3524:	20 91 8d 03 	lds	r18, 0x038D
    3528:	20 93 fc 05 	sts	0x05FC, r18
    352c:	92 0f       	add	r25, r18
    352e:	89 0f       	add	r24, r25
    3530:	20 91 8e 03 	lds	r18, 0x038E
    3534:	20 93 fd 05 	sts	0x05FD, r18
    3538:	92 0f       	add	r25, r18
    353a:	89 0f       	add	r24, r25
    353c:	e2 e0       	ldi	r30, 0x02	; 2
    353e:	a1 e0       	ldi	r26, 0x01	; 1
    3540:	ae 0f       	add	r26, r30
    3542:	20 91 8f 03 	lds	r18, 0x038F
    3546:	f0 e0       	ldi	r31, 0x00	; 0
    3548:	e4 50       	subi	r30, 0x04	; 4
    354a:	fa 4f       	sbci	r31, 0xFA	; 250
    354c:	20 83       	st	Z, r18
    354e:	92 0f       	add	r25, r18
    3550:	89 0f       	add	r24, r25
    3552:	af 3f       	cpi	r26, 0xFF	; 255
    3554:	09 f0       	breq	.+2      	; 0x3558 <navigation_task+0x53c>
    3556:	1d cf       	rjmp	.-454    	; 0x3392 <navigation_task+0x376>
    3558:	20 91 6e 07 	lds	r18, 0x076E
    355c:	20 93 fc 05 	sts	0x05FC, r18
    3560:	92 0f       	add	r25, r18
    3562:	89 0f       	add	r24, r25
    3564:	20 91 6f 07 	lds	r18, 0x076F
    3568:	20 93 fd 05 	sts	0x05FD, r18
    356c:	92 0f       	add	r25, r18
    356e:	89 0f       	add	r24, r25
    3570:	a2 e0       	ldi	r26, 0x02	; 2
    3572:	e1 e0       	ldi	r30, 0x01	; 1
    3574:	ea 0f       	add	r30, r26
    3576:	20 91 70 07 	lds	r18, 0x0770
    357a:	b0 e0       	ldi	r27, 0x00	; 0
    357c:	a4 50       	subi	r26, 0x04	; 4
    357e:	ba 4f       	sbci	r27, 0xFA	; 250
    3580:	2c 93       	st	X, r18
    3582:	92 0f       	add	r25, r18
    3584:	89 0f       	add	r24, r25
    3586:	ef 3f       	cpi	r30, 0xFF	; 255
    3588:	09 f0       	breq	.+2      	; 0x358c <navigation_task+0x570>
    358a:	1d cf       	rjmp	.-454    	; 0x33c6 <navigation_task+0x3aa>
    358c:	20 91 71 07 	lds	r18, 0x0771
    3590:	20 93 fc 05 	sts	0x05FC, r18
    3594:	92 0f       	add	r25, r18
    3596:	89 0f       	add	r24, r25
    3598:	20 91 25 01 	lds	r18, 0x0125
    359c:	20 93 fd 05 	sts	0x05FD, r18
    35a0:	92 0f       	add	r25, r18
    35a2:	89 0f       	add	r24, r25
    35a4:	e2 e0       	ldi	r30, 0x02	; 2
    35a6:	a1 e0       	ldi	r26, 0x01	; 1
    35a8:	ae 0f       	add	r26, r30
    35aa:	20 91 26 01 	lds	r18, 0x0126
    35ae:	f0 e0       	ldi	r31, 0x00	; 0
    35b0:	e4 50       	subi	r30, 0x04	; 4
    35b2:	fa 4f       	sbci	r31, 0xFA	; 250
    35b4:	20 83       	st	Z, r18
    35b6:	92 0f       	add	r25, r18
    35b8:	89 0f       	add	r24, r25
    35ba:	af 3f       	cpi	r26, 0xFF	; 255
    35bc:	09 f0       	breq	.+2      	; 0x35c0 <navigation_task+0x5a4>
    35be:	1d cf       	rjmp	.-454    	; 0x33fa <navigation_task+0x3de>
    35c0:	20 91 27 01 	lds	r18, 0x0127
    35c4:	20 93 fc 05 	sts	0x05FC, r18
    35c8:	92 0f       	add	r25, r18
    35ca:	89 0f       	add	r24, r25
    35cc:	20 91 28 01 	lds	r18, 0x0128
    35d0:	20 93 fd 05 	sts	0x05FD, r18
    35d4:	92 0f       	add	r25, r18
    35d6:	89 0f       	add	r24, r25
    35d8:	a2 e0       	ldi	r26, 0x02	; 2
    35da:	e1 e0       	ldi	r30, 0x01	; 1
    35dc:	ea 0f       	add	r30, r26
    35de:	20 91 8b 07 	lds	r18, 0x078B
    35e2:	b0 e0       	ldi	r27, 0x00	; 0
    35e4:	a4 50       	subi	r26, 0x04	; 4
    35e6:	ba 4f       	sbci	r27, 0xFA	; 250
    35e8:	2c 93       	st	X, r18
    35ea:	92 0f       	add	r25, r18
    35ec:	89 0f       	add	r24, r25
    35ee:	ef 3f       	cpi	r30, 0xFF	; 255
    35f0:	09 f0       	breq	.+2      	; 0x35f4 <navigation_task+0x5d8>
    35f2:	1d cf       	rjmp	.-454    	; 0x342e <navigation_task+0x412>
    35f4:	20 91 8c 07 	lds	r18, 0x078C
    35f8:	20 93 fc 05 	sts	0x05FC, r18
    35fc:	92 0f       	add	r25, r18
    35fe:	89 0f       	add	r24, r25
    3600:	20 91 8d 07 	lds	r18, 0x078D
    3604:	20 93 fd 05 	sts	0x05FD, r18
    3608:	92 0f       	add	r25, r18
    360a:	89 0f       	add	r24, r25
    360c:	e2 e0       	ldi	r30, 0x02	; 2
    360e:	a1 e0       	ldi	r26, 0x01	; 1
    3610:	ae 0f       	add	r26, r30
    3612:	20 91 8e 07 	lds	r18, 0x078E
    3616:	f0 e0       	ldi	r31, 0x00	; 0
    3618:	e4 50       	subi	r30, 0x04	; 4
    361a:	fa 4f       	sbci	r31, 0xFA	; 250
    361c:	20 83       	st	Z, r18
    361e:	92 0f       	add	r25, r18
    3620:	90 93 fb 06 	sts	0x06FB, r25
    3624:	89 0f       	add	r24, r25
    3626:	80 93 f6 05 	sts	0x05F6, r24
    362a:	af 3f       	cpi	r26, 0xFF	; 255
    362c:	09 f0       	breq	.+2      	; 0x3630 <navigation_task+0x614>
    362e:	1d cf       	rjmp	.-454    	; 0x346a <navigation_task+0x44e>
    3630:	90 93 fc 05 	sts	0x05FC, r25
    3634:	80 93 fd 05 	sts	0x05FD, r24
    3638:	92 e0       	ldi	r25, 0x02	; 2
    363a:	90 93 f9 05 	sts	0x05F9, r25
    363e:	09 b6       	in	r0, 0x39	; 57
    3640:	04 fc       	sbrc	r0, 4
    3642:	0b cd       	rjmp	.-1514   	; 0x305a <navigation_task+0x3e>
    3644:	e0 91 fa 05 	lds	r30, 0x05FA
    3648:	f0 e0       	ldi	r31, 0x00	; 0
    364a:	e4 50       	subi	r30, 0x04	; 4
    364c:	fa 4f       	sbci	r31, 0xFA	; 250
    364e:	80 81       	ld	r24, Z
    3650:	80 93 f8 05 	sts	0x05F8, r24
    3654:	10 92 fb 05 	sts	0x05FB, r1
    3658:	80 91 fa 05 	lds	r24, 0x05FA
    365c:	8f 5f       	subi	r24, 0xFF	; 255
    365e:	80 93 fa 05 	sts	0x05FA, r24
    3662:	80 91 fa 05 	lds	r24, 0x05FA
    3666:	8f 3f       	cpi	r24, 0xFF	; 255
    3668:	21 f1       	breq	.+72     	; 0x36b2 <navigation_task+0x696>
    366a:	88 b7       	in	r24, 0x38	; 56
    366c:	81 60       	ori	r24, 0x01	; 1
    366e:	88 bf       	out	0x38, r24	; 56
    3670:	89 b7       	in	r24, 0x39	; 57
    3672:	80 61       	ori	r24, 0x10	; 16
    3674:	89 bf       	out	0x39, r24	; 57
    3676:	80 91 c8 01 	lds	r24, 0x01C8
    367a:	82 50       	subi	r24, 0x02	; 2
    367c:	82 30       	cpi	r24, 0x02	; 2
    367e:	08 f0       	brcs	.+2      	; 0x3682 <navigation_task+0x666>
    3680:	f2 cc       	rjmp	.-1564   	; 0x3066 <navigation_task+0x4a>
    3682:	80 91 c6 01 	lds	r24, 0x01C6
    3686:	83 30       	cpi	r24, 0x03	; 3
    3688:	d8 f4       	brcc	.+54     	; 0x36c0 <navigation_task+0x6a4>
    368a:	80 91 80 07 	lds	r24, 0x0780
    368e:	90 91 81 07 	lds	r25, 0x0781
    3692:	a0 91 82 07 	lds	r26, 0x0782
    3696:	b0 91 83 07 	lds	r27, 0x0783
    369a:	80 93 9c 03 	sts	0x039C, r24
    369e:	90 93 9d 03 	sts	0x039D, r25
    36a2:	a0 93 9e 03 	sts	0x039E, r26
    36a6:	b0 93 9f 03 	sts	0x039F, r27
    36aa:	08 95       	ret
    36ac:	0e 94 44 2d 	call	0x5a88	; 0x5a88 <nav_home>
    36b0:	bf cc       	rjmp	.-1666   	; 0x3030 <navigation_task+0x14>
    36b2:	10 92 fa 05 	sts	0x05FA, r1
    36b6:	d9 cf       	rjmp	.-78     	; 0x366a <navigation_task+0x64e>
    36b8:	41 e0       	ldi	r20, 0x01	; 1
    36ba:	a0 e0       	ldi	r26, 0x00	; 0
    36bc:	b0 e0       	ldi	r27, 0x00	; 0
    36be:	ec cd       	rjmp	.-1064   	; 0x3298 <navigation_task+0x27c>
    36c0:	0e 94 f2 27 	call	0x4fe4	; 0x4fe4 <course_pid_run>
    36c4:	e2 cf       	rjmp	.-60     	; 0x368a <navigation_task+0x66e>

000036c6 <altitude_control_task>:
altitude_control_task():
    36c6:	80 91 c8 01 	lds	r24, 0x01C8
    36ca:	82 50       	subi	r24, 0x02	; 2
    36cc:	82 30       	cpi	r24, 0x02	; 2
    36ce:	08 f0       	brcs	.+2      	; 0x36d2 <altitude_control_task+0xc>
    36d0:	08 95       	ret
    36d2:	80 91 c7 01 	lds	r24, 0x01C7
    36d6:	83 30       	cpi	r24, 0x03	; 3
    36d8:	d9 f7       	brne	.-10     	; 0x36d0 <altitude_control_task+0xa>
    36da:	0c 94 46 2a 	jmp	0x548c	; 0x548c <altitude_pid_run>

000036de <climb_control_task>:
climb_control_task():
    36de:	80 91 c8 01 	lds	r24, 0x01C8
    36e2:	82 50       	subi	r24, 0x02	; 2
    36e4:	82 30       	cpi	r24, 0x02	; 2
    36e6:	08 f0       	brcs	.+2      	; 0x36ea <climb_control_task+0xc>
    36e8:	08 95       	ret
    36ea:	80 91 c7 01 	lds	r24, 0x01C7
    36ee:	82 30       	cpi	r24, 0x02	; 2
    36f0:	20 f0       	brcs	.+8      	; 0x36fa <climb_control_task+0x1c>
    36f2:	0e 94 73 28 	call	0x50e6	; 0x50e6 <climb_pid_run>
    36f6:	80 91 c7 01 	lds	r24, 0x01C7
    36fa:	81 30       	cpi	r24, 0x01	; 1
    36fc:	99 f0       	breq	.+38     	; 0x3724 <climb_control_task+0x46>
    36fe:	80 91 d6 01 	lds	r24, 0x01D6
    3702:	81 11       	cpse	r24, r1
    3704:	0a c0       	rjmp	.+20     	; 0x371a <climb_control_task+0x3c>
    3706:	80 91 98 07 	lds	r24, 0x0798
    370a:	90 91 99 07 	lds	r25, 0x0799
    370e:	89 2b       	or	r24, r25
    3710:	59 f7       	brne	.-42     	; 0x36e8 <climb_control_task+0xa>
    3712:	80 91 c4 01 	lds	r24, 0x01C4
    3716:	81 11       	cpse	r24, r1
    3718:	e7 cf       	rjmp	.-50     	; 0x36e8 <climb_control_task+0xa>
    371a:	10 92 69 07 	sts	0x0769, r1
    371e:	10 92 68 07 	sts	0x0768, r1
    3722:	08 95       	ret
    3724:	80 91 7e 07 	lds	r24, 0x077E
    3728:	90 91 7f 07 	lds	r25, 0x077F
    372c:	90 93 69 07 	sts	0x0769, r25
    3730:	80 93 68 07 	sts	0x0768, r24
    3734:	e4 cf       	rjmp	.-56     	; 0x36fe <climb_control_task+0x20>

00003736 <stabilisation_task>:
stabilisation_task():
    3736:	cf 92       	push	r12
    3738:	df 92       	push	r13
    373a:	ef 92       	push	r14
    373c:	ff 92       	push	r15
    373e:	0e 94 d3 26 	call	0x4da6	; 0x4da6 <ir_update>
    3742:	0e 94 1d 3b 	call	0x763a	; 0x763a <estimator_update_state_infrared>
    3746:	0e 94 2a 27 	call	0x4e54	; 0x4e54 <roll_pitch_pid_run>
    374a:	80 91 68 07 	lds	r24, 0x0768
    374e:	90 91 69 07 	lds	r25, 0x0769
    3752:	90 93 fd 06 	sts	0x06FD, r25
    3756:	80 93 fc 06 	sts	0x06FC, r24
    375a:	80 91 6a 07 	lds	r24, 0x076A
    375e:	90 91 6b 07 	lds	r25, 0x076B
    3762:	90 93 ff 06 	sts	0x06FF, r25
    3766:	80 93 fe 06 	sts	0x06FE, r24
    376a:	80 91 6c 07 	lds	r24, 0x076C
    376e:	90 91 6d 07 	lds	r25, 0x076D
    3772:	90 93 01 07 	sts	0x0701, r25
    3776:	80 93 00 07 	sts	0x0700, r24
    377a:	80 91 ba 07 	lds	r24, 0x07BA
    377e:	90 91 bb 07 	lds	r25, 0x07BB
    3782:	a0 91 bc 07 	lds	r26, 0x07BC
    3786:	b0 91 bd 07 	lds	r27, 0x07BD
    378a:	bc 01       	movw	r22, r24
    378c:	cd 01       	movw	r24, r26
    378e:	90 58       	subi	r25, 0x80	; 128
    3790:	20 e0       	ldi	r18, 0x00	; 0
    3792:	30 e0       	ldi	r19, 0x00	; 0
    3794:	48 e4       	ldi	r20, 0x48	; 72
    3796:	56 e4       	ldi	r21, 0x46	; 70
    3798:	0e 94 f4 41 	call	0x83e8	; 0x83e8 <__mulsf3>
    379c:	6b 01       	movw	r12, r22
    379e:	7c 01       	movw	r14, r24
    37a0:	20 e0       	ldi	r18, 0x00	; 0
    37a2:	30 e0       	ldi	r19, 0x00	; 0
    37a4:	46 e1       	ldi	r20, 0x16	; 22
    37a6:	56 ec       	ldi	r21, 0xC6	; 198
    37a8:	0e 94 39 40 	call	0x8072	; 0x8072 <__cmpsf2>
    37ac:	87 fd       	sbrc	r24, 7
    37ae:	1a c0       	rjmp	.+52     	; 0x37e4 <stabilisation_task+0xae>
    37b0:	20 e0       	ldi	r18, 0x00	; 0
    37b2:	30 e0       	ldi	r19, 0x00	; 0
    37b4:	46 e1       	ldi	r20, 0x16	; 22
    37b6:	56 e4       	ldi	r21, 0x46	; 70
    37b8:	c7 01       	movw	r24, r14
    37ba:	b6 01       	movw	r22, r12
    37bc:	0e 94 e9 41 	call	0x83d2	; 0x83d2 <__gesf2>
    37c0:	18 16       	cp	r1, r24
    37c2:	6c f0       	brlt	.+26     	; 0x37de <stabilisation_task+0xa8>
    37c4:	c7 01       	movw	r24, r14
    37c6:	b6 01       	movw	r22, r12
    37c8:	0e 94 a8 40 	call	0x8150	; 0x8150 <__fixsfsi>
    37cc:	70 93 07 07 	sts	0x0707, r23
    37d0:	60 93 06 07 	sts	0x0706, r22
    37d4:	ff 90       	pop	r15
    37d6:	ef 90       	pop	r14
    37d8:	df 90       	pop	r13
    37da:	cf 90       	pop	r12
    37dc:	08 95       	ret
    37de:	60 e8       	ldi	r22, 0x80	; 128
    37e0:	75 e2       	ldi	r23, 0x25	; 37
    37e2:	f4 cf       	rjmp	.-24     	; 0x37cc <stabilisation_task+0x96>
    37e4:	60 e8       	ldi	r22, 0x80	; 128
    37e6:	7a ed       	ldi	r23, 0xDA	; 218
    37e8:	f1 cf       	rjmp	.-30     	; 0x37cc <stabilisation_task+0x96>

000037ea <periodic_task>:
periodic_task():
    37ea:	cf 93       	push	r28
    37ec:	df 93       	push	r29
    37ee:	2d eb       	ldi	r18, 0xBD	; 189
    37f0:	37 e3       	ldi	r19, 0x37	; 55
    37f2:	46 e8       	ldi	r20, 0x86	; 134
    37f4:	5c e3       	ldi	r21, 0x3C	; 60
    37f6:	60 91 a6 07 	lds	r22, 0x07A6
    37fa:	70 91 a7 07 	lds	r23, 0x07A7
    37fe:	80 91 a8 07 	lds	r24, 0x07A8
    3802:	90 91 a9 07 	lds	r25, 0x07A9
    3806:	0e 94 73 3f 	call	0x7ee6	; 0x7ee6 <__addsf3>
    380a:	60 93 a6 07 	sts	0x07A6, r22
    380e:	70 93 a7 07 	sts	0x07A7, r23
    3812:	80 93 a8 07 	sts	0x07A8, r24
    3816:	90 93 a9 07 	sts	0x07A9, r25
    381a:	80 91 cf 01 	lds	r24, 0x01CF
