
main.elf:     file format elf32-avr


Disassembly of section .data:

00800100 <__data_start>:
	...
__bad_interrupt():
../../../../crt1/gcrt1.S:195
  8001f8:	00 00       	nop
  8001fa:	01 00       	.word	0x0001	; ????
  8001fc:	01 00       	.word	0x0001	; ????
  8001fe:	01 00       	.word	0x0001	; ????
  800200:	01 00       	.word	0x0001	; ????
  800202:	01 00       	.word	0x0001	; ????
  800204:	01 00       	.word	0x0001	; ????
  800206:	01 00       	.word	0x0001	; ????
  800208:	01 00       	.word	0x0001	; ????
  80020a:	01 00       	.word	0x0001	; ????
  80020c:	01 00       	.word	0x0001	; ????
  80020e:	01 00       	.word	0x0001	; ????
  800210:	01 00       	.word	0x0001	; ????
  800212:	01 00       	.word	0x0001	; ????
  800214:	01 00       	.word	0x0001	; ????
  800216:	01 00       	.word	0x0001	; ????
  800218:	01 00       	.word	0x0001	; ????
  80021a:	01 00       	.word	0x0001	; ????
  80021c:	01 00       	.word	0x0001	; ????
  80021e:	01 00       	.word	0x0001	; ????
  800220:	01 00       	.word	0x0001	; ????
  800222:	01 00       	.word	0x0001	; ????
  800224:	01 00       	.word	0x0001	; ????
  800226:	01 00       	.word	0x0001	; ????
  800228:	01 00       	.word	0x0001	; ????
  80022a:	01 00       	.word	0x0001	; ????
  80022c:	01 00       	.word	0x0001	; ????
  80022e:	01 00       	.word	0x0001	; ????
  800230:	01 00       	.word	0x0001	; ????
  800232:	01 00       	.word	0x0001	; ????
  800234:	01 00       	.word	0x0001	; ????
  800236:	01 00       	.word	0x0001	; ????
  800238:	01 00       	.word	0x0001	; ????
  80023a:	01 00       	.word	0x0001	; ????
  80023c:	01 00       	.word	0x0001	; ????
  80023e:	01 00       	.word	0x0001	; ????
  800240:	01 00       	.word	0x0001	; ????
  800242:	01 00       	.word	0x0001	; ????
  800244:	01 00       	.word	0x0001	; ????
  800246:	01 00       	.word	0x0001	; ????
  800248:	01 00       	.word	0x0001	; ????
  80024a:	01 00       	.word	0x0001	; ????
  80024c:	01 00       	.word	0x0001	; ????
  80024e:	01 00       	.word	0x0001	; ????
  800250:	01 00       	.word	0x0001	; ????
  800252:	01 00       	.word	0x0001	; ????
  800254:	01 00       	.word	0x0001	; ????
  800256:	01 00       	.word	0x0001	; ????
  800258:	01 00       	.word	0x0001	; ????
  80025a:	01 00       	.word	0x0001	; ????
  80025c:	01 00       	.word	0x0001	; ????
  80025e:	01 00       	.word	0x0001	; ????
  800260:	01 00       	.word	0x0001	; ????
  800262:	01 00       	.word	0x0001	; ????
  800264:	01 00       	.word	0x0001	; ????
  800266:	01 00       	.word	0x0001	; ????
  800268:	01 00       	.word	0x0001	; ????
  80026a:	01 00       	.word	0x0001	; ????
  80026c:	01 00       	.word	0x0001	; ????
  80026e:	01 00       	.word	0x0001	; ????
  800270:	01 00       	.word	0x0001	; ????
  800272:	01 00       	.word	0x0001	; ????
  800274:	01 00       	.word	0x0001	; ????
  800276:	01 00       	.word	0x0001	; ????
  800278:	01 00       	.word	0x0001	; ????
  80027a:	01 00       	.word	0x0001	; ????
  80027c:	01 00       	.word	0x0001	; ????
  80027e:	01 00       	.word	0x0001	; ????
  800280:	01 00       	.word	0x0001	; ????
  800282:	01 00       	.word	0x0001	; ????
  800284:	01 00       	.word	0x0001	; ????
  800286:	01 00       	.word	0x0001	; ????
  800288:	01 00       	.word	0x0001	; ????
  80028a:	01 00       	.word	0x0001	; ????
  80028c:	01 00       	.word	0x0001	; ????
  80028e:	01 00       	.word	0x0001	; ????
  800290:	01 00       	.word	0x0001	; ????
  800292:	01 00       	.word	0x0001	; ????
  800294:	01 00       	.word	0x0001	; ????
  800296:	01 00       	.word	0x0001	; ????
  800298:	01 00       	.word	0x0001	; ????
  80029a:	01 00       	.word	0x0001	; ????
  80029c:	01 00       	.word	0x0001	; ????
  80029e:	01 00       	.word	0x0001	; ????
  8002a0:	01 00       	.word	0x0001	; ????
  8002a2:	01 00       	.word	0x0001	; ????
  8002a4:	01 00       	.word	0x0001	; ????
  8002a6:	01 00       	.word	0x0001	; ????
  8002a8:	01 00       	.word	0x0001	; ????
  8002aa:	01 00       	.word	0x0001	; ????
  8002ac:	01 00       	.word	0x0001	; ????
  8002ae:	01 00       	.word	0x0001	; ????
  8002b0:	01 00       	.word	0x0001	; ????
  8002b2:	01 00       	.word	0x0001	; ????
  8002b4:	01 00       	.word	0x0001	; ????
  8002b6:	01 00       	.word	0x0001	; ????
  8002b8:	01 00       	.word	0x0001	; ????
  8002ba:	01 00       	.word	0x0001	; ????
  8002bc:	01 00       	.word	0x0001	; ????
  8002be:	01 00       	.word	0x0001	; ????
  8002c0:	01 00       	.word	0x0001	; ????
  8002c2:	01 00       	.word	0x0001	; ????
  8002c4:	01 00       	.word	0x0001	; ????
  8002c6:	01 00       	.word	0x0001	; ????
  8002c8:	01 00       	.word	0x0001	; ????
  8002ca:	01 00       	.word	0x0001	; ????
  8002cc:	01 00       	.word	0x0001	; ????
  8002ce:	01 00       	.word	0x0001	; ????
  8002d0:	01 00       	.word	0x0001	; ????
  8002d2:	01 00       	.word	0x0001	; ????
  8002d4:	01 00       	.word	0x0001	; ????
  8002d6:	01 00       	.word	0x0001	; ????
  8002d8:	01 00       	.word	0x0001	; ????
  8002da:	01 00       	.word	0x0001	; ????
  8002dc:	01 00       	.word	0x0001	; ????
  8002de:	01 00       	.word	0x0001	; ????
  8002e0:	01 00       	.word	0x0001	; ????
  8002e2:	01 00       	.word	0x0001	; ????
  8002e4:	01 00       	.word	0x0001	; ????
  8002e6:	01 00       	.word	0x0001	; ????
  8002e8:	01 00       	.word	0x0001	; ????
  8002ea:	01 00       	.word	0x0001	; ????
  8002ec:	01 00       	.word	0x0001	; ????
  8002ee:	01 00       	.word	0x0001	; ????
  8002f0:	01 00       	.word	0x0001	; ????
  8002f2:	01 00       	.word	0x0001	; ????
  8002f4:	02 00       	.word	0x0002	; ????
  8002f6:	02 00       	.word	0x0002	; ????
  8002f8:	02 00       	.word	0x0002	; ????
  8002fa:	02 00       	.word	0x0002	; ????
  8002fc:	02 00       	.word	0x0002	; ????
  8002fe:	02 00       	.word	0x0002	; ????
  800300:	02 00       	.word	0x0002	; ????
  800302:	02 00       	.word	0x0002	; ????
  800304:	02 00       	.word	0x0002	; ????
  800306:	02 00       	.word	0x0002	; ????
  800308:	02 00       	.word	0x0002	; ????
  80030a:	02 00       	.word	0x0002	; ????
  80030c:	02 00       	.word	0x0002	; ????
  80030e:	02 00       	.word	0x0002	; ????
  800310:	02 00       	.word	0x0002	; ????
  800312:	02 00       	.word	0x0002	; ????
  800314:	02 00       	.word	0x0002	; ????
  800316:	02 00       	.word	0x0002	; ????
  800318:	02 00       	.word	0x0002	; ????
  80031a:	02 00       	.word	0x0002	; ????
  80031c:	02 00       	.word	0x0002	; ????
  80031e:	02 00       	.word	0x0002	; ????
  800320:	02 00       	.word	0x0002	; ????
  800322:	02 00       	.word	0x0002	; ????
  800324:	02 00       	.word	0x0002	; ????
  800326:	02 00       	.word	0x0002	; ????
  800328:	02 00       	.word	0x0002	; ????
  80032a:	02 00       	.word	0x0002	; ????
  80032c:	02 00       	.word	0x0002	; ????
  80032e:	02 00       	.word	0x0002	; ????
  800330:	02 00       	.word	0x0002	; ????
  800332:	02 00       	.word	0x0002	; ????
  800334:	02 00       	.word	0x0002	; ????
  800336:	02 00       	.word	0x0002	; ????
  800338:	02 00       	.word	0x0002	; ????
  80033a:	02 00       	.word	0x0002	; ????
  80033c:	02 00       	.word	0x0002	; ????
  80033e:	02 00       	.word	0x0002	; ????
  800340:	02 00       	.word	0x0002	; ????
  800342:	02 00       	.word	0x0002	; ????
  800344:	02 00       	.word	0x0002	; ????
  800346:	02 00       	.word	0x0002	; ????
  800348:	02 00       	.word	0x0002	; ????
  80034a:	02 00       	.word	0x0002	; ????
  80034c:	02 00       	.word	0x0002	; ????
  80034e:	02 00       	.word	0x0002	; ????
  800350:	02 00       	.word	0x0002	; ????
  800352:	02 00       	.word	0x0002	; ????
  800354:	02 00       	.word	0x0002	; ????
  800356:	02 00       	.word	0x0002	; ????
  800358:	02 00       	.word	0x0002	; ????
  80035a:	02 00       	.word	0x0002	; ????
  80035c:	02 00       	.word	0x0002	; ????
  80035e:	02 00       	.word	0x0002	; ????
  800360:	02 00       	.word	0x0002	; ????
  800362:	02 00       	.word	0x0002	; ????
  800364:	02 00       	.word	0x0002	; ????
  800366:	02 00       	.word	0x0002	; ????
  800368:	02 00       	.word	0x0002	; ????
  80036a:	02 00       	.word	0x0002	; ????
  80036c:	02 00       	.word	0x0002	; ????
  80036e:	02 00       	.word	0x0002	; ????
  800370:	02 00       	.word	0x0002	; ????
  800372:	02 00       	.word	0x0002	; ????
  800374:	02 00       	.word	0x0002	; ????
  800376:	02 00       	.word	0x0002	; ????
  800378:	02 00       	.word	0x0002	; ????
  80037a:	02 00       	.word	0x0002	; ????
  80037c:	02 00       	.word	0x0002	; ????
  80037e:	02 00       	.word	0x0002	; ????
  800380:	02 00       	.word	0x0002	; ????
  800382:	02 00       	.word	0x0002	; ????
  800384:	02 00       	.word	0x0002	; ????
  800386:	02 00       	.word	0x0002	; ????
  800388:	02 00       	.word	0x0002	; ????
  80038a:	02 00       	.word	0x0002	; ????
  80038c:	02 00       	.word	0x0002	; ????
  80038e:	02 00       	.word	0x0002	; ????
  800390:	02 00       	.word	0x0002	; ????
  800392:	02 00       	.word	0x0002	; ????
  800394:	02 00       	.word	0x0002	; ????
  800396:	02 00       	.word	0x0002	; ????
  800398:	02 00       	.word	0x0002	; ????
  80039a:	02 00       	.word	0x0002	; ????
  80039c:	02 00       	.word	0x0002	; ????
  80039e:	02 00       	.word	0x0002	; ????
  8003a0:	02 00       	.word	0x0002	; ????
  8003a2:	02 00       	.word	0x0002	; ????
  8003a4:	02 00       	.word	0x0002	; ????
  8003a6:	02 00       	.word	0x0002	; ????
  8003a8:	02 00       	.word	0x0002	; ????
  8003aa:	02 00       	.word	0x0002	; ????
  8003ac:	02 00       	.word	0x0002	; ????
  8003ae:	02 00       	.word	0x0002	; ????
  8003b0:	02 00       	.word	0x0002	; ????
  8003b2:	02 00       	.word	0x0002	; ????
  8003b4:	02 00       	.word	0x0002	; ????
  8003b6:	02 00       	.word	0x0002	; ????
  8003b8:	02 00       	.word	0x0002	; ????
  8003ba:	02 00       	.word	0x0002	; ????
  8003bc:	02 00       	.word	0x0002	; ????
  8003be:	02 00       	.word	0x0002	; ????
  8003c0:	02 00       	.word	0x0002	; ????
  8003c2:	02 00       	.word	0x0002	; ????
  8003c4:	02 00       	.word	0x0002	; ????
  8003c6:	02 00       	.word	0x0002	; ????
  8003c8:	02 00       	.word	0x0002	; ????
  8003ca:	02 00       	.word	0x0002	; ????
  8003cc:	02 00       	.word	0x0002	; ????
  8003ce:	02 00       	.word	0x0002	; ????
  8003d0:	02 00       	.word	0x0002	; ????
  8003d2:	02 00       	.word	0x0002	; ????
  8003d4:	02 00       	.word	0x0002	; ????
  8003d6:	02 00       	.word	0x0002	; ????
  8003d8:	02 00       	.word	0x0002	; ????
  8003da:	02 00       	.word	0x0002	; ????
  8003dc:	02 00       	.word	0x0002	; ????
  8003de:	02 00       	.word	0x0002	; ????
  8003e0:	02 00       	.word	0x0002	; ????
  8003e2:	02 00       	.word	0x0002	; ????
  8003e4:	02 00       	.word	0x0002	; ????
  8003e6:	02 00       	.word	0x0002	; ????
  8003e8:	02 00       	.word	0x0002	; ????
  8003ea:	02 00       	.word	0x0002	; ????
  8003ec:	02 00       	.word	0x0002	; ????
  8003ee:	03 00       	.word	0x0003	; ????
  8003f0:	03 00       	.word	0x0003	; ????
  8003f2:	03 00       	.word	0x0003	; ????
  8003f4:	03 00       	.word	0x0003	; ????
  8003f6:	03 00       	.word	0x0003	; ????
  8003f8:	03 00       	.word	0x0003	; ????
  8003fa:	03 00       	.word	0x0003	; ????
  8003fc:	03 00       	.word	0x0003	; ????
  8003fe:	03 00       	.word	0x0003	; ????
  800400:	03 00       	.word	0x0003	; ????
  800402:	03 00       	.word	0x0003	; ????
  800404:	03 00       	.word	0x0003	; ????
  800406:	03 00       	.word	0x0003	; ????
  800408:	03 00       	.word	0x0003	; ????
  80040a:	03 00       	.word	0x0003	; ????
  80040c:	03 00       	.word	0x0003	; ????
  80040e:	03 00       	.word	0x0003	; ????
  800410:	03 00       	.word	0x0003	; ????
  800412:	03 00       	.word	0x0003	; ????
  800414:	03 00       	.word	0x0003	; ????
  800416:	03 00       	.word	0x0003	; ????
  800418:	03 00       	.word	0x0003	; ????
  80041a:	03 00       	.word	0x0003	; ????
  80041c:	03 00       	.word	0x0003	; ????
  80041e:	03 00       	.word	0x0003	; ????
  800420:	03 00       	.word	0x0003	; ????
  800422:	03 00       	.word	0x0003	; ????
  800424:	03 00       	.word	0x0003	; ????
  800426:	03 00       	.word	0x0003	; ????
  800428:	03 00       	.word	0x0003	; ????
  80042a:	03 00       	.word	0x0003	; ????
  80042c:	03 00       	.word	0x0003	; ????
  80042e:	03 00       	.word	0x0003	; ????
  800430:	03 00       	.word	0x0003	; ????
  800432:	03 00       	.word	0x0003	; ????
  800434:	03 00       	.word	0x0003	; ????
  800436:	03 00       	.word	0x0003	; ????
  800438:	03 00       	.word	0x0003	; ????
  80043a:	03 00       	.word	0x0003	; ????
  80043c:	03 00       	.word	0x0003	; ????
  80043e:	03 00       	.word	0x0003	; ????
  800440:	03 00       	.word	0x0003	; ????
  800442:	03 00       	.word	0x0003	; ????
  800444:	03 00       	.word	0x0003	; ????
  800446:	03 00       	.word	0x0003	; ????
  800448:	03 00       	.word	0x0003	; ????
  80044a:	03 00       	.word	0x0003	; ????
  80044c:	03 00       	.word	0x0003	; ????
  80044e:	03 00       	.word	0x0003	; ????
  800450:	03 00       	.word	0x0003	; ????
  800452:	03 00       	.word	0x0003	; ????
  800454:	03 00       	.word	0x0003	; ????
  800456:	03 00       	.word	0x0003	; ????
  800458:	03 00       	.word	0x0003	; ????
  80045a:	03 00       	.word	0x0003	; ????
  80045c:	03 00       	.word	0x0003	; ????
  80045e:	03 00       	.word	0x0003	; ????
  800460:	03 00       	.word	0x0003	; ????
  800462:	03 00       	.word	0x0003	; ????
  800464:	03 00       	.word	0x0003	; ????
  800466:	03 00       	.word	0x0003	; ????
  800468:	03 00       	.word	0x0003	; ????
  80046a:	03 00       	.word	0x0003	; ????
  80046c:	03 00       	.word	0x0003	; ????
  80046e:	03 00       	.word	0x0003	; ????
  800470:	03 00       	.word	0x0003	; ????
  800472:	03 00       	.word	0x0003	; ????
  800474:	03 00       	.word	0x0003	; ????
  800476:	03 00       	.word	0x0003	; ????
  800478:	03 00       	.word	0x0003	; ????
  80047a:	03 00       	.word	0x0003	; ????
  80047c:	03 00       	.word	0x0003	; ????
  80047e:	03 00       	.word	0x0003	; ????
  800480:	03 00       	.word	0x0003	; ????
  800482:	03 00       	.word	0x0003	; ????
  800484:	03 00       	.word	0x0003	; ????
  800486:	03 00       	.word	0x0003	; ????
  800488:	03 00       	.word	0x0003	; ????
  80048a:	03 00       	.word	0x0003	; ????
  80048c:	03 00       	.word	0x0003	; ????
  80048e:	03 00       	.word	0x0003	; ????
  800490:	03 00       	.word	0x0003	; ????
  800492:	03 00       	.word	0x0003	; ????
  800494:	03 00       	.word	0x0003	; ????
  800496:	03 00       	.word	0x0003	; ????
  800498:	03 00       	.word	0x0003	; ????
  80049a:	03 00       	.word	0x0003	; ????
  80049c:	03 00       	.word	0x0003	; ????
  80049e:	03 00       	.word	0x0003	; ????
  8004a0:	03 00       	.word	0x0003	; ????
  8004a2:	03 00       	.word	0x0003	; ????
  8004a4:	03 00       	.word	0x0003	; ????
  8004a6:	03 00       	.word	0x0003	; ????
  8004a8:	03 00       	.word	0x0003	; ????
  8004aa:	03 00       	.word	0x0003	; ????
  8004ac:	03 00       	.word	0x0003	; ????
  8004ae:	03 00       	.word	0x0003	; ????
  8004b0:	03 00       	.word	0x0003	; ????
  8004b2:	03 00       	.word	0x0003	; ????
  8004b4:	03 00       	.word	0x0003	; ????
  8004b6:	03 00       	.word	0x0003	; ????
  8004b8:	03 00       	.word	0x0003	; ????
  8004ba:	03 00       	.word	0x0003	; ????
  8004bc:	03 00       	.word	0x0003	; ????
  8004be:	03 00       	.word	0x0003	; ????
  8004c0:	03 00       	.word	0x0003	; ????
  8004c2:	03 00       	.word	0x0003	; ????
  8004c4:	03 00       	.word	0x0003	; ????
  8004c6:	03 00       	.word	0x0003	; ????
  8004c8:	03 00       	.word	0x0003	; ????
  8004ca:	03 00       	.word	0x0003	; ????
  8004cc:	03 00       	.word	0x0003	; ????
  8004ce:	03 00       	.word	0x0003	; ????
  8004d0:	03 00       	.word	0x0003	; ????
  8004d2:	03 00       	.word	0x0003	; ????
  8004d4:	03 00       	.word	0x0003	; ????
  8004d6:	03 00       	.word	0x0003	; ????
  8004d8:	03 00       	.word	0x0003	; ????
  8004da:	03 00       	.word	0x0003	; ????
  8004dc:	03 00       	.word	0x0003	; ????
  8004de:	03 00       	.word	0x0003	; ????
  8004e0:	03 00       	.word	0x0003	; ????
  8004e2:	03 00       	.word	0x0003	; ????
  8004e4:	03 00       	.word	0x0003	; ????
  8004e6:	03 00       	.word	0x0003	; ????
  8004e8:	04 00       	.word	0x0004	; ????
  8004ea:	04 00       	.word	0x0004	; ????
  8004ec:	04 00       	.word	0x0004	; ????
  8004ee:	04 00       	.word	0x0004	; ????
  8004f0:	04 00       	.word	0x0004	; ????
  8004f2:	04 00       	.word	0x0004	; ????
  8004f4:	04 00       	.word	0x0004	; ????
  8004f6:	04 00       	.word	0x0004	; ????
  8004f8:	04 00       	.word	0x0004	; ????
  8004fa:	04 00       	.word	0x0004	; ????
  8004fc:	04 00       	.word	0x0004	; ????
  8004fe:	04 00       	.word	0x0004	; ????
  800500:	04 00       	.word	0x0004	; ????
  800502:	04 00       	.word	0x0004	; ????
  800504:	04 00       	.word	0x0004	; ????
  800506:	04 00       	.word	0x0004	; ????
  800508:	04 00       	.word	0x0004	; ????
  80050a:	04 00       	.word	0x0004	; ????
  80050c:	04 00       	.word	0x0004	; ????
  80050e:	04 00       	.word	0x0004	; ????
  800510:	04 00       	.word	0x0004	; ????
  800512:	04 00       	.word	0x0004	; ????
  800514:	04 00       	.word	0x0004	; ????
  800516:	04 00       	.word	0x0004	; ????
  800518:	04 00       	.word	0x0004	; ????
  80051a:	04 00       	.word	0x0004	; ????
  80051c:	04 00       	.word	0x0004	; ????
  80051e:	04 00       	.word	0x0004	; ????
  800520:	04 00       	.word	0x0004	; ????
  800522:	04 00       	.word	0x0004	; ????
  800524:	04 00       	.word	0x0004	; ????
  800526:	04 00       	.word	0x0004	; ????
  800528:	04 00       	.word	0x0004	; ????
  80052a:	04 00       	.word	0x0004	; ????
  80052c:	04 00       	.word	0x0004	; ????
  80052e:	04 00       	.word	0x0004	; ????
  800530:	04 00       	.word	0x0004	; ????
  800532:	04 00       	.word	0x0004	; ????
  800534:	04 00       	.word	0x0004	; ????
  800536:	04 00       	.word	0x0004	; ????
  800538:	04 00       	.word	0x0004	; ????
  80053a:	04 00       	.word	0x0004	; ????
  80053c:	04 00       	.word	0x0004	; ????
  80053e:	04 00       	.word	0x0004	; ????
  800540:	04 00       	.word	0x0004	; ????
  800542:	04 00       	.word	0x0004	; ????
  800544:	04 00       	.word	0x0004	; ????
  800546:	04 00       	.word	0x0004	; ????
  800548:	04 00       	.word	0x0004	; ????
  80054a:	04 00       	.word	0x0004	; ????
  80054c:	04 00       	.word	0x0004	; ????
  80054e:	04 00       	.word	0x0004	; ????
  800550:	04 00       	.word	0x0004	; ????
  800552:	04 00       	.word	0x0004	; ????
  800554:	04 00       	.word	0x0004	; ????
  800556:	04 00       	.word	0x0004	; ????
  800558:	04 00       	.word	0x0004	; ????
  80055a:	04 00       	.word	0x0004	; ????
  80055c:	04 00       	.word	0x0004	; ????
  80055e:	04 00       	.word	0x0004	; ????
  800560:	04 00       	.word	0x0004	; ????
  800562:	04 00       	.word	0x0004	; ????
  800564:	04 00       	.word	0x0004	; ????
  800566:	04 00       	.word	0x0004	; ????
  800568:	04 00       	.word	0x0004	; ????
  80056a:	04 00       	.word	0x0004	; ????
  80056c:	04 00       	.word	0x0004	; ????
  80056e:	04 00       	.word	0x0004	; ????
  800570:	04 00       	.word	0x0004	; ????
  800572:	04 00       	.word	0x0004	; ????
  800574:	04 00       	.word	0x0004	; ????
  800576:	04 00       	.word	0x0004	; ????
  800578:	04 00       	.word	0x0004	; ????
  80057a:	04 00       	.word	0x0004	; ????
  80057c:	04 00       	.word	0x0004	; ????
  80057e:	04 00       	.word	0x0004	; ????
  800580:	04 00       	.word	0x0004	; ????
  800582:	04 00       	.word	0x0004	; ????
  800584:	04 00       	.word	0x0004	; ????
  800586:	04 00       	.word	0x0004	; ????
  800588:	04 00       	.word	0x0004	; ????
  80058a:	04 00       	.word	0x0004	; ????
  80058c:	04 00       	.word	0x0004	; ????
  80058e:	04 00       	.word	0x0004	; ????
  800590:	04 00       	.word	0x0004	; ????
  800592:	04 00       	.word	0x0004	; ????
  800594:	04 00       	.word	0x0004	; ????
  800596:	04 00       	.word	0x0004	; ????
  800598:	04 00       	.word	0x0004	; ????
  80059a:	04 00       	.word	0x0004	; ????
  80059c:	04 00       	.word	0x0004	; ????
  80059e:	04 00       	.word	0x0004	; ????
  8005a0:	04 00       	.word	0x0004	; ????
  8005a2:	04 00       	.word	0x0004	; ????
  8005a4:	04 00       	.word	0x0004	; ????
  8005a6:	04 00       	.word	0x0004	; ????
  8005a8:	04 00       	.word	0x0004	; ????
  8005aa:	04 00       	.word	0x0004	; ????
  8005ac:	04 00       	.word	0x0004	; ????
  8005ae:	04 00       	.word	0x0004	; ????
  8005b0:	04 00       	.word	0x0004	; ????
  8005b2:	04 00       	.word	0x0004	; ????
  8005b4:	04 00       	.word	0x0004	; ????
  8005b6:	04 00       	.word	0x0004	; ????
  8005b8:	04 00       	.word	0x0004	; ????
  8005ba:	04 00       	.word	0x0004	; ????
  8005bc:	04 00       	.word	0x0004	; ????
  8005be:	04 00       	.word	0x0004	; ????
  8005c0:	04 00       	.word	0x0004	; ????
  8005c2:	04 00       	.word	0x0004	; ????
  8005c4:	04 00       	.word	0x0004	; ????
  8005c6:	04 00       	.word	0x0004	; ????
  8005c8:	04 00       	.word	0x0004	; ????
  8005ca:	04 00       	.word	0x0004	; ????
  8005cc:	04 00       	.word	0x0004	; ????
  8005ce:	04 00       	.word	0x0004	; ????
  8005d0:	04 00       	.word	0x0004	; ????
  8005d2:	04 00       	.word	0x0004	; ????
  8005d4:	04 00       	.word	0x0004	; ????
  8005d6:	04 00       	.word	0x0004	; ????
  8005d8:	04 00       	.word	0x0004	; ????
  8005da:	04 00       	.word	0x0004	; ????
  8005dc:	04 00       	.word	0x0004	; ????
  8005de:	04 00       	.word	0x0004	; ????
  8005e0:	91 01       	movw	r18, r2

008005e2 <answer>:
  8005e2:	7b 00       	.word	0x007b	; ????
  8005e4:	7b 00       	.word	0x007b	; ????
  8005e6:	7b 00       	.word	0x007b	; ????
  8005e8:	7b 00       	.word	0x007b	; ????
  8005ea:	7b 00       	.word	0x007b	; ????
  8005ec:	7b 00       	.word	0x007b	; ????
  8005ee:	7b 00       	.word	0x007b	; ????
  8005f0:	7b 00       	.word	0x007b	; ????
  8005f2:	7b 00       	.word	0x007b	; ????
  8005f4:	7b 00       	.word	0x007b	; ????
  8005f6:	7b 00       	.word	0x007b	; ????
  8005f8:	7b 00       	.word	0x007b	; ????
  8005fa:	7b 00       	.word	0x007b	; ????
  8005fc:	7b 00       	.word	0x007b	; ????
  8005fe:	7b 00       	.word	0x007b	; ????
  800600:	7b 00       	.word	0x007b	; ????
  800602:	7b 00       	.word	0x007b	; ????
  800604:	7b 00       	.word	0x007b	; ????
  800606:	7b 00       	.word	0x007b	; ????
  800608:	7b 00       	.word	0x007b	; ????
  80060a:	7b 00       	.word	0x007b	; ????
  80060c:	7b 00       	.word	0x007b	; ????
  80060e:	7b 00       	.word	0x007b	; ????
  800610:	7b 00       	.word	0x007b	; ????
  800612:	7b 00       	.word	0x007b	; ????
  800614:	7b 00       	.word	0x007b	; ????
  800616:	7b 00       	.word	0x007b	; ????
  800618:	7b 00       	.word	0x007b	; ????
  80061a:	7b 00       	.word	0x007b	; ????
  80061c:	7b 00       	.word	0x007b	; ????
  80061e:	7b 00       	.word	0x007b	; ????
  800620:	7b 00       	.word	0x007b	; ????
  800622:	7b 00       	.word	0x007b	; ????
  800624:	7b 00       	.word	0x007b	; ????
  800626:	7b 00       	.word	0x007b	; ????
  800628:	7b 00       	.word	0x007b	; ????
  80062a:	7b 00       	.word	0x007b	; ????
  80062c:	7b 00       	.word	0x007b	; ????
  80062e:	7b 00       	.word	0x007b	; ????
  800630:	7b 00       	.word	0x007b	; ????
  800632:	7b 00       	.word	0x007b	; ????
  800634:	7b 00       	.word	0x007b	; ????
  800636:	7b 00       	.word	0x007b	; ????
  800638:	7b 00       	.word	0x007b	; ????
  80063a:	7b 00       	.word	0x007b	; ????
  80063c:	7b 00       	.word	0x007b	; ????
  80063e:	7b 00       	.word	0x007b	; ????
  800640:	7b 00       	.word	0x007b	; ????
  800642:	7b 00       	.word	0x007b	; ????
  800644:	7b 00       	.word	0x007b	; ????
  800646:	7b 00       	.word	0x007b	; ????
  800648:	7b 00       	.word	0x007b	; ????
  80064a:	7b 00       	.word	0x007b	; ????
  80064c:	7b 00       	.word	0x007b	; ????
  80064e:	7b 00       	.word	0x007b	; ????
  800650:	7b 00       	.word	0x007b	; ????
  800652:	7b 00       	.word	0x007b	; ????
  800654:	7b 00       	.word	0x007b	; ????
  800656:	7b 00       	.word	0x007b	; ????
  800658:	7b 00       	.word	0x007b	; ????
  80065a:	7b 00       	.word	0x007b	; ????
  80065c:	7b 00       	.word	0x007b	; ????
  80065e:	7b 00       	.word	0x007b	; ????
  800660:	7b 00       	.word	0x007b	; ????
  800662:	7b 00       	.word	0x007b	; ????
  800664:	7b 00       	.word	0x007b	; ????
  800666:	7b 00       	.word	0x007b	; ????
  800668:	7b 00       	.word	0x007b	; ????
  80066a:	7b 00       	.word	0x007b	; ????
  80066c:	7b 00       	.word	0x007b	; ????
  80066e:	7b 00       	.word	0x007b	; ????
  800670:	7b 00       	.word	0x007b	; ????
  800672:	7b 00       	.word	0x007b	; ????
  800674:	7b 00       	.word	0x007b	; ????
  800676:	7b 00       	.word	0x007b	; ????
  800678:	7b 00       	.word	0x007b	; ????
  80067a:	7b 00       	.word	0x007b	; ????
  80067c:	7b 00       	.word	0x007b	; ????
  80067e:	7b 00       	.word	0x007b	; ????
  800680:	7b 00       	.word	0x007b	; ????
  800682:	7b 00       	.word	0x007b	; ????
  800684:	7b 00       	.word	0x007b	; ????
  800686:	7b 00       	.word	0x007b	; ????
  800688:	7b 00       	.word	0x007b	; ????
  80068a:	7b 00       	.word	0x007b	; ????
  80068c:	7b 00       	.word	0x007b	; ????
  80068e:	7b 00       	.word	0x007b	; ????
  800690:	7b 00       	.word	0x007b	; ????
  800692:	7b 00       	.word	0x007b	; ????
  800694:	7b 00       	.word	0x007b	; ????
  800696:	7b 00       	.word	0x007b	; ????
  800698:	7b 00       	.word	0x007b	; ????
  80069a:	7b 00       	.word	0x007b	; ????
  80069c:	7b 00       	.word	0x007b	; ????
  80069e:	7b 00       	.word	0x007b	; ????
  8006a0:	7b 00       	.word	0x007b	; ????
  8006a2:	7b 00       	.word	0x007b	; ????
  8006a4:	7b 00       	.word	0x007b	; ????
  8006a6:	7b 00       	.word	0x007b	; ????
  8006a8:	7b 00       	.word	0x007b	; ????
  8006aa:	7b 00       	.word	0x007b	; ????
  8006ac:	7b 00       	.word	0x007b	; ????
  8006ae:	7b 00       	.word	0x007b	; ????
  8006b0:	7b 00       	.word	0x007b	; ????
  8006b2:	7b 00       	.word	0x007b	; ????
  8006b4:	7b 00       	.word	0x007b	; ????
  8006b6:	7b 00       	.word	0x007b	; ????
  8006b8:	7b 00       	.word	0x007b	; ????
  8006ba:	7b 00       	.word	0x007b	; ????
  8006bc:	7b 00       	.word	0x007b	; ????
  8006be:	7b 00       	.word	0x007b	; ????
  8006c0:	7b 00       	.word	0x007b	; ????
  8006c2:	7b 00       	.word	0x007b	; ????
  8006c4:	7b 00       	.word	0x007b	; ????
  8006c6:	7b 00       	.word	0x007b	; ????
  8006c8:	7b 00       	.word	0x007b	; ????
  8006ca:	7b 00       	.word	0x007b	; ????
  8006cc:	7b 00       	.word	0x007b	; ????
  8006ce:	7b 00       	.word	0x007b	; ????
  8006d0:	7b 00       	.word	0x007b	; ????
  8006d2:	7b 00       	.word	0x007b	; ????
  8006d4:	7b 00       	.word	0x007b	; ????
  8006d6:	7b 00       	.word	0x007b	; ????
  8006d8:	7b 00       	.word	0x007b	; ????
  8006da:	7b 00       	.word	0x007b	; ????
  8006dc:	ea 00       	.word	0x00ea	; ????
  8006de:	ea 00       	.word	0x00ea	; ????
  8006e0:	ea 00       	.word	0x00ea	; ????
  8006e2:	ea 00       	.word	0x00ea	; ????
  8006e4:	ea 00       	.word	0x00ea	; ????
  8006e6:	ea 00       	.word	0x00ea	; ????
  8006e8:	ea 00       	.word	0x00ea	; ????
  8006ea:	ea 00       	.word	0x00ea	; ????
  8006ec:	ea 00       	.word	0x00ea	; ????
  8006ee:	ea 00       	.word	0x00ea	; ????
  8006f0:	ea 00       	.word	0x00ea	; ????
  8006f2:	ea 00       	.word	0x00ea	; ????
  8006f4:	ea 00       	.word	0x00ea	; ????
  8006f6:	ea 00       	.word	0x00ea	; ????
  8006f8:	ea 00       	.word	0x00ea	; ????
  8006fa:	ea 00       	.word	0x00ea	; ????
  8006fc:	ea 00       	.word	0x00ea	; ????
  8006fe:	ea 00       	.word	0x00ea	; ????
  800700:	ea 00       	.word	0x00ea	; ????
  800702:	ea 00       	.word	0x00ea	; ????
  800704:	ea 00       	.word	0x00ea	; ????
  800706:	ea 00       	.word	0x00ea	; ????
  800708:	ea 00       	.word	0x00ea	; ????
  80070a:	ea 00       	.word	0x00ea	; ????
  80070c:	ea 00       	.word	0x00ea	; ????
  80070e:	ea 00       	.word	0x00ea	; ????
  800710:	ea 00       	.word	0x00ea	; ????
  800712:	ea 00       	.word	0x00ea	; ????
  800714:	ea 00       	.word	0x00ea	; ????
  800716:	ea 00       	.word	0x00ea	; ????
  800718:	ea 00       	.word	0x00ea	; ????
  80071a:	ea 00       	.word	0x00ea	; ????
  80071c:	ea 00       	.word	0x00ea	; ????
  80071e:	ea 00       	.word	0x00ea	; ????
  800720:	ea 00       	.word	0x00ea	; ????
  800722:	ea 00       	.word	0x00ea	; ????
  800724:	ea 00       	.word	0x00ea	; ????
  800726:	ea 00       	.word	0x00ea	; ????
  800728:	ea 00       	.word	0x00ea	; ????
  80072a:	ea 00       	.word	0x00ea	; ????
  80072c:	ea 00       	.word	0x00ea	; ????
  80072e:	ea 00       	.word	0x00ea	; ????
  800730:	ea 00       	.word	0x00ea	; ????
  800732:	ea 00       	.word	0x00ea	; ????
  800734:	ea 00       	.word	0x00ea	; ????
  800736:	ea 00       	.word	0x00ea	; ????
  800738:	ea 00       	.word	0x00ea	; ????
  80073a:	ea 00       	.word	0x00ea	; ????
  80073c:	ea 00       	.word	0x00ea	; ????
  80073e:	ea 00       	.word	0x00ea	; ????
  800740:	ea 00       	.word	0x00ea	; ????
  800742:	ea 00       	.word	0x00ea	; ????
  800744:	ea 00       	.word	0x00ea	; ????
  800746:	ea 00       	.word	0x00ea	; ????
  800748:	ea 00       	.word	0x00ea	; ????
  80074a:	ea 00       	.word	0x00ea	; ????
  80074c:	ea 00       	.word	0x00ea	; ????
  80074e:	ea 00       	.word	0x00ea	; ????
  800750:	ea 00       	.word	0x00ea	; ????
  800752:	ea 00       	.word	0x00ea	; ????
  800754:	ea 00       	.word	0x00ea	; ????
  800756:	ea 00       	.word	0x00ea	; ????
  800758:	ea 00       	.word	0x00ea	; ????
  80075a:	ea 00       	.word	0x00ea	; ????
  80075c:	ea 00       	.word	0x00ea	; ????
  80075e:	ea 00       	.word	0x00ea	; ????
  800760:	ea 00       	.word	0x00ea	; ????
  800762:	ea 00       	.word	0x00ea	; ????
  800764:	ea 00       	.word	0x00ea	; ????
  800766:	ea 00       	.word	0x00ea	; ????
  800768:	ea 00       	.word	0x00ea	; ????
  80076a:	ea 00       	.word	0x00ea	; ????
  80076c:	ea 00       	.word	0x00ea	; ????
  80076e:	ea 00       	.word	0x00ea	; ????
  800770:	ea 00       	.word	0x00ea	; ????
  800772:	ea 00       	.word	0x00ea	; ????
  800774:	ea 00       	.word	0x00ea	; ????
  800776:	ea 00       	.word	0x00ea	; ????
  800778:	ea 00       	.word	0x00ea	; ????
  80077a:	ea 00       	.word	0x00ea	; ????
  80077c:	ea 00       	.word	0x00ea	; ????
  80077e:	ea 00       	.word	0x00ea	; ????
  800780:	ea 00       	.word	0x00ea	; ????
  800782:	ea 00       	.word	0x00ea	; ????
  800784:	ea 00       	.word	0x00ea	; ????
  800786:	ea 00       	.word	0x00ea	; ????
  800788:	ea 00       	.word	0x00ea	; ????
  80078a:	ea 00       	.word	0x00ea	; ????
  80078c:	ea 00       	.word	0x00ea	; ????
  80078e:	ea 00       	.word	0x00ea	; ????
  800790:	ea 00       	.word	0x00ea	; ????
  800792:	ea 00       	.word	0x00ea	; ????
  800794:	ea 00       	.word	0x00ea	; ????
  800796:	ea 00       	.word	0x00ea	; ????
  800798:	ea 00       	.word	0x00ea	; ????
  80079a:	ea 00       	.word	0x00ea	; ????
  80079c:	ea 00       	.word	0x00ea	; ????
  80079e:	ea 00       	.word	0x00ea	; ????
  8007a0:	ea 00       	.word	0x00ea	; ????
  8007a2:	ea 00       	.word	0x00ea	; ????
  8007a4:	ea 00       	.word	0x00ea	; ????
  8007a6:	ea 00       	.word	0x00ea	; ????
  8007a8:	ea 00       	.word	0x00ea	; ????
  8007aa:	ea 00       	.word	0x00ea	; ????
  8007ac:	ea 00       	.word	0x00ea	; ????
  8007ae:	ea 00       	.word	0x00ea	; ????
  8007b0:	ea 00       	.word	0x00ea	; ????
  8007b2:	ea 00       	.word	0x00ea	; ????
  8007b4:	ea 00       	.word	0x00ea	; ????
  8007b6:	ea 00       	.word	0x00ea	; ????
  8007b8:	ea 00       	.word	0x00ea	; ????
  8007ba:	ea 00       	.word	0x00ea	; ????
  8007bc:	ea 00       	.word	0x00ea	; ????
  8007be:	ea 00       	.word	0x00ea	; ????
  8007c0:	ea 00       	.word	0x00ea	; ????
  8007c2:	ea 00       	.word	0x00ea	; ????
  8007c4:	ea 00       	.word	0x00ea	; ????
  8007c6:	ea 00       	.word	0x00ea	; ????
  8007c8:	ea 00       	.word	0x00ea	; ????
  8007ca:	ea 00       	.word	0x00ea	; ????
  8007cc:	ea 00       	.word	0x00ea	; ????
  8007ce:	ea 00       	.word	0x00ea	; ????
  8007d0:	ea 00       	.word	0x00ea	; ????
  8007d2:	ea 00       	.word	0x00ea	; ????
  8007d4:	ea 00       	.word	0x00ea	; ????
  8007d6:	59 01       	movw	r10, r18
  8007d8:	59 01       	movw	r10, r18
  8007da:	59 01       	movw	r10, r18
  8007dc:	59 01       	movw	r10, r18
  8007de:	00 00       	nop
  8007e0:	59 01       	movw	r10, r18
  8007e2:	59 01       	movw	r10, r18
  8007e4:	59 01       	movw	r10, r18
  8007e6:	59 01       	movw	r10, r18
  8007e8:	00 00       	nop
  8007ea:	59 01       	movw	r10, r18
  8007ec:	59 01       	movw	r10, r18
  8007ee:	59 01       	movw	r10, r18
  8007f0:	59 01       	movw	r10, r18
  8007f2:	00 00       	nop
  8007f4:	59 01       	movw	r10, r18
  8007f6:	59 01       	movw	r10, r18
  8007f8:	59 01       	movw	r10, r18
  8007fa:	59 01       	movw	r10, r18
  8007fc:	00 00       	nop
  8007fe:	59 01       	movw	r10, r18
  800800:	59 01       	movw	r10, r18
  800802:	59 01       	movw	r10, r18
  800804:	59 01       	movw	r10, r18
  800806:	00 00       	nop
  800808:	59 01       	movw	r10, r18
  80080a:	59 01       	movw	r10, r18
  80080c:	59 01       	movw	r10, r18
  80080e:	59 01       	movw	r10, r18
  800810:	00 00       	nop
  800812:	59 01       	movw	r10, r18
  800814:	59 01       	movw	r10, r18
  800816:	59 01       	movw	r10, r18
  800818:	59 01       	movw	r10, r18
  80081a:	00 00       	nop
  80081c:	59 01       	movw	r10, r18
  80081e:	59 01       	movw	r10, r18
  800820:	59 01       	movw	r10, r18
  800822:	59 01       	movw	r10, r18
  800824:	00 00       	nop
  800826:	59 01       	movw	r10, r18
  800828:	59 01       	movw	r10, r18
  80082a:	59 01       	movw	r10, r18
  80082c:	59 01       	movw	r10, r18
  80082e:	00 00       	nop
  800830:	59 01       	movw	r10, r18
  800832:	59 01       	movw	r10, r18
  800834:	59 01       	movw	r10, r18
  800836:	59 01       	movw	r10, r18
  800838:	00 00       	nop
  80083a:	59 01       	movw	r10, r18
  80083c:	59 01       	movw	r10, r18
  80083e:	59 01       	movw	r10, r18
  800840:	59 01       	movw	r10, r18
  800842:	00 00       	nop
  800844:	59 01       	movw	r10, r18
  800846:	59 01       	movw	r10, r18
  800848:	59 01       	movw	r10, r18
  80084a:	59 01       	movw	r10, r18
  80084c:	00 00       	nop
  80084e:	59 01       	movw	r10, r18
  800850:	59 01       	movw	r10, r18
  800852:	59 01       	movw	r10, r18
  800854:	59 01       	movw	r10, r18
  800856:	00 00       	nop
  800858:	59 01       	movw	r10, r18
  80085a:	59 01       	movw	r10, r18
  80085c:	59 01       	movw	r10, r18
  80085e:	59 01       	movw	r10, r18
  800860:	00 00       	nop
  800862:	59 01       	movw	r10, r18
  800864:	59 01       	movw	r10, r18
  800866:	59 01       	movw	r10, r18
  800868:	59 01       	movw	r10, r18
  80086a:	00 00       	nop
  80086c:	59 01       	movw	r10, r18
  80086e:	59 01       	movw	r10, r18
  800870:	59 01       	movw	r10, r18
  800872:	59 01       	movw	r10, r18
  800874:	00 00       	nop
  800876:	59 01       	movw	r10, r18
  800878:	59 01       	movw	r10, r18
  80087a:	59 01       	movw	r10, r18
  80087c:	59 01       	movw	r10, r18
  80087e:	00 00       	nop
  800880:	59 01       	movw	r10, r18
  800882:	59 01       	movw	r10, r18
  800884:	59 01       	movw	r10, r18
  800886:	59 01       	movw	r10, r18
  800888:	00 00       	nop
  80088a:	59 01       	movw	r10, r18
  80088c:	59 01       	movw	r10, r18
  80088e:	59 01       	movw	r10, r18
  800890:	59 01       	movw	r10, r18
  800892:	00 00       	nop
  800894:	59 01       	movw	r10, r18
  800896:	59 01       	movw	r10, r18
  800898:	59 01       	movw	r10, r18
  80089a:	59 01       	movw	r10, r18
  80089c:	00 00       	nop
  80089e:	59 01       	movw	r10, r18
  8008a0:	59 01       	movw	r10, r18
  8008a2:	59 01       	movw	r10, r18
  8008a4:	59 01       	movw	r10, r18
  8008a6:	00 00       	nop
  8008a8:	59 01       	movw	r10, r18
  8008aa:	59 01       	movw	r10, r18
  8008ac:	59 01       	movw	r10, r18
  8008ae:	59 01       	movw	r10, r18
  8008b0:	00 00       	nop
  8008b2:	59 01       	movw	r10, r18
  8008b4:	59 01       	movw	r10, r18
  8008b6:	59 01       	movw	r10, r18
  8008b8:	59 01       	movw	r10, r18
  8008ba:	00 00       	nop
  8008bc:	59 01       	movw	r10, r18
  8008be:	59 01       	movw	r10, r18
  8008c0:	59 01       	movw	r10, r18
  8008c2:	59 01       	movw	r10, r18
  8008c4:	00 00       	nop
  8008c6:	59 01       	movw	r10, r18
  8008c8:	59 01       	movw	r10, r18
  8008ca:	59 01       	movw	r10, r18
  8008cc:	59 01       	movw	r10, r18
  8008ce:	00 00       	nop
  8008d0:	c8 01       	movw	r24, r16
  8008d2:	c8 01       	movw	r24, r16
  8008d4:	c8 01       	movw	r24, r16
  8008d6:	c8 01       	movw	r24, r16
  8008d8:	c8 01       	movw	r24, r16
  8008da:	c8 01       	movw	r24, r16
  8008dc:	c8 01       	movw	r24, r16
  8008de:	c8 01       	movw	r24, r16
  8008e0:	c8 01       	movw	r24, r16
  8008e2:	c8 01       	movw	r24, r16
  8008e4:	c8 01       	movw	r24, r16
  8008e6:	c8 01       	movw	r24, r16
  8008e8:	c8 01       	movw	r24, r16
  8008ea:	c8 01       	movw	r24, r16
  8008ec:	c8 01       	movw	r24, r16
  8008ee:	c8 01       	movw	r24, r16
  8008f0:	c8 01       	movw	r24, r16
  8008f2:	c8 01       	movw	r24, r16
  8008f4:	c8 01       	movw	r24, r16
  8008f6:	c8 01       	movw	r24, r16
  8008f8:	c8 01       	movw	r24, r16
  8008fa:	c8 01       	movw	r24, r16
  8008fc:	c8 01       	movw	r24, r16
  8008fe:	c8 01       	movw	r24, r16
  800900:	c8 01       	movw	r24, r16
  800902:	c8 01       	movw	r24, r16
  800904:	c8 01       	movw	r24, r16
  800906:	c8 01       	movw	r24, r16
  800908:	c8 01       	movw	r24, r16
  80090a:	c8 01       	movw	r24, r16
  80090c:	c8 01       	movw	r24, r16
  80090e:	c8 01       	movw	r24, r16
  800910:	c8 01       	movw	r24, r16
  800912:	c8 01       	movw	r24, r16
  800914:	c8 01       	movw	r24, r16
  800916:	c8 01       	movw	r24, r16
  800918:	c8 01       	movw	r24, r16
  80091a:	c8 01       	movw	r24, r16
  80091c:	c8 01       	movw	r24, r16
  80091e:	c8 01       	movw	r24, r16
  800920:	c8 01       	movw	r24, r16
  800922:	c8 01       	movw	r24, r16
  800924:	c8 01       	movw	r24, r16
  800926:	c8 01       	movw	r24, r16
  800928:	c8 01       	movw	r24, r16
  80092a:	c8 01       	movw	r24, r16
  80092c:	c8 01       	movw	r24, r16
  80092e:	c8 01       	movw	r24, r16
  800930:	c8 01       	movw	r24, r16
  800932:	c8 01       	movw	r24, r16
  800934:	c8 01       	movw	r24, r16
  800936:	c8 01       	movw	r24, r16
  800938:	c8 01       	movw	r24, r16
  80093a:	c8 01       	movw	r24, r16
  80093c:	c8 01       	movw	r24, r16
  80093e:	c8 01       	movw	r24, r16
  800940:	c8 01       	movw	r24, r16
  800942:	c8 01       	movw	r24, r16
  800944:	c8 01       	movw	r24, r16
  800946:	c8 01       	movw	r24, r16
  800948:	c8 01       	movw	r24, r16
  80094a:	c8 01       	movw	r24, r16
  80094c:	c8 01       	movw	r24, r16
  80094e:	c8 01       	movw	r24, r16
  800950:	c8 01       	movw	r24, r16
  800952:	c8 01       	movw	r24, r16
  800954:	c8 01       	movw	r24, r16
  800956:	c8 01       	movw	r24, r16
  800958:	c8 01       	movw	r24, r16
  80095a:	c8 01       	movw	r24, r16
  80095c:	c8 01       	movw	r24, r16
  80095e:	c8 01       	movw	r24, r16
  800960:	c8 01       	movw	r24, r16
  800962:	c8 01       	movw	r24, r16
  800964:	c8 01       	movw	r24, r16
  800966:	c8 01       	movw	r24, r16
  800968:	c8 01       	movw	r24, r16
  80096a:	c8 01       	movw	r24, r16
  80096c:	c8 01       	movw	r24, r16
  80096e:	c8 01       	movw	r24, r16
  800970:	c8 01       	movw	r24, r16
  800972:	c8 01       	movw	r24, r16
  800974:	c8 01       	movw	r24, r16
  800976:	c8 01       	movw	r24, r16
  800978:	c8 01       	movw	r24, r16
  80097a:	c8 01       	movw	r24, r16
  80097c:	c8 01       	movw	r24, r16
  80097e:	c8 01       	movw	r24, r16
  800980:	c8 01       	movw	r24, r16
  800982:	c8 01       	movw	r24, r16
  800984:	c8 01       	movw	r24, r16
  800986:	c8 01       	movw	r24, r16
  800988:	c8 01       	movw	r24, r16
  80098a:	c8 01       	movw	r24, r16
  80098c:	c8 01       	movw	r24, r16
  80098e:	c8 01       	movw	r24, r16
  800990:	c8 01       	movw	r24, r16
  800992:	c8 01       	movw	r24, r16
  800994:	c8 01       	movw	r24, r16
  800996:	c8 01       	movw	r24, r16
  800998:	c8 01       	movw	r24, r16
  80099a:	c8 01       	movw	r24, r16
  80099c:	c8 01       	movw	r24, r16
  80099e:	c8 01       	movw	r24, r16
  8009a0:	c8 01       	movw	r24, r16
  8009a2:	c8 01       	movw	r24, r16
  8009a4:	c8 01       	movw	r24, r16
  8009a6:	c8 01       	movw	r24, r16
  8009a8:	c8 01       	movw	r24, r16
  8009aa:	c8 01       	movw	r24, r16
  8009ac:	c8 01       	movw	r24, r16
  8009ae:	c8 01       	movw	r24, r16
  8009b0:	c8 01       	movw	r24, r16
  8009b2:	c8 01       	movw	r24, r16
  8009b4:	c8 01       	movw	r24, r16
  8009b6:	c8 01       	movw	r24, r16
  8009b8:	c8 01       	movw	r24, r16
  8009ba:	c8 01       	movw	r24, r16
  8009bc:	c8 01       	movw	r24, r16
  8009be:	c8 01       	movw	r24, r16
  8009c0:	c8 01       	movw	r24, r16
  8009c2:	c8 01       	movw	r24, r16
  8009c4:	c8 01       	movw	r24, r16
  8009c6:	c8 01       	movw	r24, r16
  8009c8:	c8 01       	movw	r24, r16
  8009ca:	37 02       	muls	r19, r23
  8009cc:	37 02       	muls	r19, r23
  8009ce:	37 02       	muls	r19, r23
  8009d0:	37 02       	muls	r19, r23
  8009d2:	37 02       	muls	r19, r23
  8009d4:	37 02       	muls	r19, r23
  8009d6:	37 02       	muls	r19, r23
  8009d8:	37 02       	muls	r19, r23
  8009da:	37 02       	muls	r19, r23
  8009dc:	37 02       	muls	r19, r23
  8009de:	37 02       	muls	r19, r23
  8009e0:	37 02       	muls	r19, r23
  8009e2:	37 02       	muls	r19, r23
  8009e4:	37 02       	muls	r19, r23
  8009e6:	37 02       	muls	r19, r23
  8009e8:	37 02       	muls	r19, r23
  8009ea:	37 02       	muls	r19, r23
  8009ec:	37 02       	muls	r19, r23
  8009ee:	37 02       	muls	r19, r23
  8009f0:	37 02       	muls	r19, r23
  8009f2:	37 02       	muls	r19, r23
  8009f4:	37 02       	muls	r19, r23
  8009f6:	37 02       	muls	r19, r23
  8009f8:	37 02       	muls	r19, r23
  8009fa:	37 02       	muls	r19, r23
  8009fc:	37 02       	muls	r19, r23
  8009fe:	37 02       	muls	r19, r23
  800a00:	37 02       	muls	r19, r23
  800a02:	37 02       	muls	r19, r23
  800a04:	37 02       	muls	r19, r23
  800a06:	37 02       	muls	r19, r23
  800a08:	37 02       	muls	r19, r23
  800a0a:	37 02       	muls	r19, r23
  800a0c:	37 02       	muls	r19, r23
  800a0e:	37 02       	muls	r19, r23
  800a10:	37 02       	muls	r19, r23
  800a12:	37 02       	muls	r19, r23
  800a14:	37 02       	muls	r19, r23
  800a16:	37 02       	muls	r19, r23
  800a18:	37 02       	muls	r19, r23
  800a1a:	37 02       	muls	r19, r23
  800a1c:	37 02       	muls	r19, r23
  800a1e:	37 02       	muls	r19, r23
  800a20:	37 02       	muls	r19, r23
  800a22:	37 02       	muls	r19, r23
  800a24:	37 02       	muls	r19, r23
  800a26:	37 02       	muls	r19, r23
  800a28:	37 02       	muls	r19, r23
  800a2a:	37 02       	muls	r19, r23
  800a2c:	37 02       	muls	r19, r23
  800a2e:	37 02       	muls	r19, r23
  800a30:	37 02       	muls	r19, r23
  800a32:	37 02       	muls	r19, r23
  800a34:	37 02       	muls	r19, r23
  800a36:	37 02       	muls	r19, r23
  800a38:	37 02       	muls	r19, r23
  800a3a:	37 02       	muls	r19, r23
  800a3c:	37 02       	muls	r19, r23
  800a3e:	37 02       	muls	r19, r23
  800a40:	37 02       	muls	r19, r23
  800a42:	37 02       	muls	r19, r23
  800a44:	37 02       	muls	r19, r23
  800a46:	37 02       	muls	r19, r23
  800a48:	37 02       	muls	r19, r23
  800a4a:	37 02       	muls	r19, r23
  800a4c:	37 02       	muls	r19, r23
  800a4e:	37 02       	muls	r19, r23
  800a50:	37 02       	muls	r19, r23
  800a52:	37 02       	muls	r19, r23
  800a54:	37 02       	muls	r19, r23
  800a56:	37 02       	muls	r19, r23
  800a58:	37 02       	muls	r19, r23
  800a5a:	37 02       	muls	r19, r23
  800a5c:	37 02       	muls	r19, r23
  800a5e:	37 02       	muls	r19, r23
  800a60:	37 02       	muls	r19, r23
  800a62:	37 02       	muls	r19, r23
  800a64:	37 02       	muls	r19, r23
  800a66:	37 02       	muls	r19, r23
  800a68:	37 02       	muls	r19, r23
  800a6a:	37 02       	muls	r19, r23
  800a6c:	37 02       	muls	r19, r23
  800a6e:	37 02       	muls	r19, r23
  800a70:	37 02       	muls	r19, r23
  800a72:	37 02       	muls	r19, r23
  800a74:	37 02       	muls	r19, r23
  800a76:	37 02       	muls	r19, r23
  800a78:	37 02       	muls	r19, r23
  800a7a:	37 02       	muls	r19, r23
  800a7c:	37 02       	muls	r19, r23
  800a7e:	37 02       	muls	r19, r23
  800a80:	37 02       	muls	r19, r23
  800a82:	37 02       	muls	r19, r23
  800a84:	37 02       	muls	r19, r23
  800a86:	37 02       	muls	r19, r23
  800a88:	37 02       	muls	r19, r23
  800a8a:	37 02       	muls	r19, r23
  800a8c:	37 02       	muls	r19, r23
  800a8e:	37 02       	muls	r19, r23
  800a90:	37 02       	muls	r19, r23
  800a92:	37 02       	muls	r19, r23
  800a94:	37 02       	muls	r19, r23
  800a96:	37 02       	muls	r19, r23
  800a98:	37 02       	muls	r19, r23
  800a9a:	37 02       	muls	r19, r23
  800a9c:	37 02       	muls	r19, r23
  800a9e:	37 02       	muls	r19, r23
  800aa0:	37 02       	muls	r19, r23
  800aa2:	37 02       	muls	r19, r23
  800aa4:	37 02       	muls	r19, r23
  800aa6:	37 02       	muls	r19, r23
  800aa8:	37 02       	muls	r19, r23
  800aaa:	37 02       	muls	r19, r23
  800aac:	37 02       	muls	r19, r23
  800aae:	37 02       	muls	r19, r23
  800ab0:	37 02       	muls	r19, r23
  800ab2:	37 02       	muls	r19, r23
  800ab4:	37 02       	muls	r19, r23
  800ab6:	37 02       	muls	r19, r23
  800ab8:	37 02       	muls	r19, r23
  800aba:	37 02       	muls	r19, r23
  800abc:	37 02       	muls	r19, r23
  800abe:	37 02       	muls	r19, r23
  800ac0:	37 02       	muls	r19, r23
  800ac2:	57 04       	cpc	r5, r7

Disassembly of section .text:

00000000 <__vectors>:
__vectors():
../../../../crt1/gcrt1.S:52
   0:	0c 94 46 00 	jmp	0x8c	; 0x8c <__ctors_end>
../../../../crt1/gcrt1.S:53
   4:	0c 94 5d 00 	jmp	0xba	; 0xba <__bad_interrupt>
../../../../crt1/gcrt1.S:54
   8:	0c 94 5d 00 	jmp	0xba	; 0xba <__bad_interrupt>
../../../../crt1/gcrt1.S:55
   c:	0c 94 5d 00 	jmp	0xba	; 0xba <__bad_interrupt>
../../../../crt1/gcrt1.S:56
  10:	0c 94 5d 00 	jmp	0xba	; 0xba <__bad_interrupt>
../../../../crt1/gcrt1.S:57
  14:	0c 94 5d 00 	jmp	0xba	; 0xba <__bad_interrupt>
../../../../crt1/gcrt1.S:58
  18:	0c 94 5d 00 	jmp	0xba	; 0xba <__bad_interrupt>
../../../../crt1/gcrt1.S:59
  1c:	0c 94 5d 00 	jmp	0xba	; 0xba <__bad_interrupt>
../../../../crt1/gcrt1.S:60
  20:	0c 94 5d 00 	jmp	0xba	; 0xba <__bad_interrupt>
../../../../crt1/gcrt1.S:61
  24:	0c 94 5d 00 	jmp	0xba	; 0xba <__bad_interrupt>
../../../../crt1/gcrt1.S:62
  28:	0c 94 5d 00 	jmp	0xba	; 0xba <__bad_interrupt>
../../../../crt1/gcrt1.S:63
  2c:	0c 94 5d 00 	jmp	0xba	; 0xba <__bad_interrupt>
../../../../crt1/gcrt1.S:64
  30:	0c 94 5d 00 	jmp	0xba	; 0xba <__bad_interrupt>
../../../../crt1/gcrt1.S:65
  34:	0c 94 5d 00 	jmp	0xba	; 0xba <__bad_interrupt>
../../../../crt1/gcrt1.S:66
  38:	0c 94 5d 00 	jmp	0xba	; 0xba <__bad_interrupt>
../../../../crt1/gcrt1.S:67
  3c:	0c 94 5d 00 	jmp	0xba	; 0xba <__bad_interrupt>
../../../../crt1/gcrt1.S:68
  40:	0c 94 5d 00 	jmp	0xba	; 0xba <__bad_interrupt>
../../../../crt1/gcrt1.S:69
  44:	0c 94 5d 00 	jmp	0xba	; 0xba <__bad_interrupt>
../../../../crt1/gcrt1.S:70
  48:	0c 94 5d 00 	jmp	0xba	; 0xba <__bad_interrupt>
../../../../crt1/gcrt1.S:71
  4c:	0c 94 5d 00 	jmp	0xba	; 0xba <__bad_interrupt>
../../../../crt1/gcrt1.S:72
  50:	0c 94 5d 00 	jmp	0xba	; 0xba <__bad_interrupt>
../../../../crt1/gcrt1.S:73
  54:	0c 94 5d 00 	jmp	0xba	; 0xba <__bad_interrupt>
../../../../crt1/gcrt1.S:74
  58:	0c 94 5d 00 	jmp	0xba	; 0xba <__bad_interrupt>
../../../../crt1/gcrt1.S:75
  5c:	0c 94 5d 00 	jmp	0xba	; 0xba <__bad_interrupt>
../../../../crt1/gcrt1.S:76
  60:	0c 94 5d 00 	jmp	0xba	; 0xba <__bad_interrupt>
../../../../crt1/gcrt1.S:77
  64:	0c 94 5d 00 	jmp	0xba	; 0xba <__bad_interrupt>
../../../../crt1/gcrt1.S:78
  68:	0c 94 5d 00 	jmp	0xba	; 0xba <__bad_interrupt>
../../../../crt1/gcrt1.S:79
  6c:	0c 94 5d 00 	jmp	0xba	; 0xba <__bad_interrupt>
../../../../crt1/gcrt1.S:80
  70:	0c 94 5d 00 	jmp	0xba	; 0xba <__bad_interrupt>
../../../../crt1/gcrt1.S:81
  74:	0c 94 5d 00 	jmp	0xba	; 0xba <__bad_interrupt>
../../../../crt1/gcrt1.S:82
  78:	0c 94 5d 00 	jmp	0xba	; 0xba <__bad_interrupt>
../../../../crt1/gcrt1.S:83
  7c:	0c 94 5d 00 	jmp	0xba	; 0xba <__bad_interrupt>
../../../../crt1/gcrt1.S:84
  80:	0c 94 5d 00 	jmp	0xba	; 0xba <__bad_interrupt>
../../../../crt1/gcrt1.S:85
  84:	0c 94 5d 00 	jmp	0xba	; 0xba <__bad_interrupt>
../../../../crt1/gcrt1.S:86
  88:	0c 94 5d 00 	jmp	0xba	; 0xba <__bad_interrupt>

0000008c <__ctors_end>:
../../../../crt1/gcrt1.S:179
  8c:	11 24       	eor	r1, r1
  8e:	1f be       	out	0x3f, r1	; 63
  90:	cf ef       	ldi	r28, 0xFF	; 255
  92:	d0 e1       	ldi	r29, 0x10	; 16
  94:	de bf       	out	0x3e, r29	; 62
  96:	cd bf       	out	0x3d, r28	; 61

00000098 <__do_copy_data>:
  98:	1a e0       	ldi	r17, 0x0A	; 10
  9a:	a0 e0       	ldi	r26, 0x00	; 0
  9c:	b1 e0       	ldi	r27, 0x01	; 1
  9e:	e8 e7       	ldi	r30, 0x78	; 120
  a0:	f2 e0       	ldi	r31, 0x02	; 2
  a2:	00 e0       	ldi	r16, 0x00	; 0
  a4:	0b bf       	out	0x3b, r16	; 59
  a6:	02 c0       	rjmp	.+4      	; 0xac <__do_copy_data+0x14>
  a8:	07 90       	elpm	r0, Z+
  aa:	0d 92       	st	X+, r0
  ac:	a4 3c       	cpi	r26, 0xC4	; 196
  ae:	b1 07       	cpc	r27, r17
  b0:	d9 f7       	brne	.-10     	; 0xa8 <__do_copy_data+0x10>
  b2:	0e 94 2f 01 	call	0x25e	; 0x25e <main>
  b6:	0c 94 3a 01 	jmp	0x274	; 0x274 <_exit>

000000ba <__bad_interrupt>:
__bad_interrupt():
../../../../crt1/gcrt1.S:195
  ba:	0c 94 00 00 	jmp	0	; 0x0 <__vectors>

000000be <foo>:
foo():
/home/becker/async/autosafe/trunk/tum/wcet-cbmc/benchmarks/ns/ns.c:498
  be:	cf 93       	push	r28
  c0:	df 93       	push	r29
  c2:	cd b7       	in	r28, 0x3d	; 61
  c4:	de b7       	in	r29, 0x3e	; 62
  c6:	2a 97       	sbiw	r28, 0x0a	; 10
  c8:	0f b6       	in	r0, 0x3f	; 63
  ca:	f8 94       	cli
  cc:	de bf       	out	0x3e, r29	; 62
  ce:	0f be       	out	0x3f, r0	; 63
  d0:	cd bf       	out	0x3d, r28	; 61
  d2:	9a 87       	std	Y+10, r25	; 0x0a
  d4:	89 87       	std	Y+9, r24	; 0x09
/home/becker/async/autosafe/trunk/tum/wcet-cbmc/benchmarks/ns/ns.c:504
  d6:	1a 82       	std	Y+2, r1	; 0x02
  d8:	19 82       	std	Y+1, r1	; 0x01
  da:	b0 c0       	rjmp	.+352    	; 0x23c <foo+0x17e>
/home/becker/async/autosafe/trunk/tum/wcet-cbmc/benchmarks/ns/ns.c:505
  dc:	1c 82       	std	Y+4, r1	; 0x04
  de:	1b 82       	std	Y+3, r1	; 0x03
  e0:	a2 c0       	rjmp	.+324    	; 0x226 <foo+0x168>
/home/becker/async/autosafe/trunk/tum/wcet-cbmc/benchmarks/ns/ns.c:506
  e2:	1e 82       	std	Y+6, r1	; 0x06
  e4:	1d 82       	std	Y+5, r1	; 0x05
  e6:	94 c0       	rjmp	.+296    	; 0x210 <foo+0x152>
/home/becker/async/autosafe/trunk/tum/wcet-cbmc/benchmarks/ns/ns.c:507
  e8:	18 86       	std	Y+8, r1	; 0x08
  ea:	1f 82       	std	Y+7, r1	; 0x07
  ec:	86 c0       	rjmp	.+268    	; 0x1fa <foo+0x13c>
/home/becker/async/autosafe/trunk/tum/wcet-cbmc/benchmarks/ns/ns.c:512
  ee:	2d 81       	ldd	r18, Y+5	; 0x05
  f0:	3e 81       	ldd	r19, Y+6	; 0x06
  f2:	4b 81       	ldd	r20, Y+3	; 0x03
  f4:	5c 81       	ldd	r21, Y+4	; 0x04
  f6:	69 81       	ldd	r22, Y+1	; 0x01
  f8:	7a 81       	ldd	r23, Y+2	; 0x02
  fa:	c9 01       	movw	r24, r18
  fc:	88 0f       	add	r24, r24
  fe:	99 1f       	adc	r25, r25
 100:	88 0f       	add	r24, r24
 102:	99 1f       	adc	r25, r25
 104:	82 0f       	add	r24, r18
 106:	93 1f       	adc	r25, r19
 108:	ed e7       	ldi	r30, 0x7D	; 125
 10a:	e6 9f       	mul	r30, r22
 10c:	90 01       	movw	r18, r0
 10e:	e7 9f       	mul	r30, r23
 110:	30 0d       	add	r19, r0
 112:	11 24       	eor	r1, r1
 114:	28 0f       	add	r18, r24
 116:	39 1f       	adc	r19, r25
 118:	69 e1       	ldi	r22, 0x19	; 25
 11a:	64 9f       	mul	r22, r20
 11c:	c0 01       	movw	r24, r0
 11e:	65 9f       	mul	r22, r21
 120:	90 0d       	add	r25, r0
 122:	11 24       	eor	r1, r1
 124:	28 0f       	add	r18, r24
 126:	39 1f       	adc	r19, r25
 128:	8f 81       	ldd	r24, Y+7	; 0x07
 12a:	98 85       	ldd	r25, Y+8	; 0x08
 12c:	82 0f       	add	r24, r18
 12e:	93 1f       	adc	r25, r19
 130:	88 0f       	add	r24, r24
 132:	99 1f       	adc	r25, r25
 134:	80 50       	subi	r24, 0x00	; 0
 136:	9f 4f       	sbci	r25, 0xFF	; 255
 138:	fc 01       	movw	r30, r24
 13a:	20 81       	ld	r18, Z
 13c:	31 81       	ldd	r19, Z+1	; 0x01
 13e:	89 85       	ldd	r24, Y+9	; 0x09
 140:	9a 85       	ldd	r25, Y+10	; 0x0a
 142:	28 17       	cp	r18, r24
 144:	39 07       	cpc	r19, r25
 146:	09 f0       	breq	.+2      	; 0x14a <foo+0x8c>
 148:	53 c0       	rjmp	.+166    	; 0x1f0 <foo+0x132>
/home/becker/async/autosafe/trunk/tum/wcet-cbmc/benchmarks/ns/ns.c:517
 14a:	2d 81       	ldd	r18, Y+5	; 0x05
 14c:	3e 81       	ldd	r19, Y+6	; 0x06
 14e:	4b 81       	ldd	r20, Y+3	; 0x03
 150:	5c 81       	ldd	r21, Y+4	; 0x04
 152:	69 81       	ldd	r22, Y+1	; 0x01
 154:	7a 81       	ldd	r23, Y+2	; 0x02
 156:	c9 01       	movw	r24, r18
 158:	88 0f       	add	r24, r24
 15a:	99 1f       	adc	r25, r25
 15c:	88 0f       	add	r24, r24
 15e:	99 1f       	adc	r25, r25
 160:	82 0f       	add	r24, r18
 162:	93 1f       	adc	r25, r19
 164:	ed e7       	ldi	r30, 0x7D	; 125
 166:	e6 9f       	mul	r30, r22
 168:	90 01       	movw	r18, r0
 16a:	e7 9f       	mul	r30, r23
 16c:	30 0d       	add	r19, r0
 16e:	11 24       	eor	r1, r1
 170:	28 0f       	add	r18, r24
 172:	39 1f       	adc	r19, r25
 174:	69 e1       	ldi	r22, 0x19	; 25
 176:	64 9f       	mul	r22, r20
 178:	c0 01       	movw	r24, r0
 17a:	65 9f       	mul	r22, r21
 17c:	90 0d       	add	r25, r0
 17e:	11 24       	eor	r1, r1
 180:	28 0f       	add	r18, r24
 182:	39 1f       	adc	r19, r25
 184:	8f 81       	ldd	r24, Y+7	; 0x07
 186:	98 85       	ldd	r25, Y+8	; 0x08
 188:	82 0f       	add	r24, r18
 18a:	93 1f       	adc	r25, r19
 18c:	88 0f       	add	r24, r24
 18e:	99 1f       	adc	r25, r25
 190:	8e 51       	subi	r24, 0x1E	; 30
 192:	9a 4f       	sbci	r25, 0xFA	; 250
 194:	fc 01       	movw	r30, r24
 196:	40 81       	ld	r20, Z
 198:	51 81       	ldd	r21, Z+1	; 0x01
 19a:	2d 81       	ldd	r18, Y+5	; 0x05
 19c:	3e 81       	ldd	r19, Y+6	; 0x06
 19e:	6b 81       	ldd	r22, Y+3	; 0x03
 1a0:	7c 81       	ldd	r23, Y+4	; 0x04
 1a2:	e9 81       	ldd	r30, Y+1	; 0x01
 1a4:	fa 81       	ldd	r31, Y+2	; 0x02
 1a6:	c9 01       	movw	r24, r18
 1a8:	88 0f       	add	r24, r24
 1aa:	99 1f       	adc	r25, r25
 1ac:	88 0f       	add	r24, r24
 1ae:	99 1f       	adc	r25, r25
 1b0:	82 0f       	add	r24, r18
 1b2:	93 1f       	adc	r25, r19
 1b4:	ad e7       	ldi	r26, 0x7D	; 125
 1b6:	ae 9f       	mul	r26, r30
 1b8:	90 01       	movw	r18, r0
 1ba:	af 9f       	mul	r26, r31
 1bc:	30 0d       	add	r19, r0
 1be:	11 24       	eor	r1, r1
 1c0:	28 0f       	add	r18, r24
 1c2:	39 1f       	adc	r19, r25
 1c4:	e9 e1       	ldi	r30, 0x19	; 25
 1c6:	e6 9f       	mul	r30, r22
 1c8:	c0 01       	movw	r24, r0
 1ca:	e7 9f       	mul	r30, r23
 1cc:	90 0d       	add	r25, r0
 1ce:	11 24       	eor	r1, r1
 1d0:	28 0f       	add	r18, r24
 1d2:	39 1f       	adc	r19, r25
 1d4:	8f 81       	ldd	r24, Y+7	; 0x07
 1d6:	98 85       	ldd	r25, Y+8	; 0x08
 1d8:	82 0f       	add	r24, r18
 1da:	93 1f       	adc	r25, r19
 1dc:	88 0f       	add	r24, r24
 1de:	99 1f       	adc	r25, r25
 1e0:	80 50       	subi	r24, 0x00	; 0
 1e2:	9f 4f       	sbci	r25, 0xFF	; 255
 1e4:	fc 01       	movw	r30, r24
 1e6:	80 81       	ld	r24, Z
 1e8:	91 81       	ldd	r25, Z+1	; 0x01
 1ea:	84 0f       	add	r24, r20
 1ec:	95 1f       	adc	r25, r21
 1ee:	2e c0       	rjmp	.+92     	; 0x24c <foo+0x18e>
/home/becker/async/autosafe/trunk/tum/wcet-cbmc/benchmarks/ns/ns.c:507
 1f0:	8f 81       	ldd	r24, Y+7	; 0x07
 1f2:	98 85       	ldd	r25, Y+8	; 0x08
 1f4:	01 96       	adiw	r24, 0x01	; 1
 1f6:	98 87       	std	Y+8, r25	; 0x08
 1f8:	8f 83       	std	Y+7, r24	; 0x07
 1fa:	8f 81       	ldd	r24, Y+7	; 0x07
 1fc:	98 85       	ldd	r25, Y+8	; 0x08
 1fe:	85 30       	cpi	r24, 0x05	; 5
 200:	91 05       	cpc	r25, r1
 202:	0c f4       	brge	.+2      	; 0x206 <foo+0x148>
 204:	74 cf       	rjmp	.-280    	; 0xee <foo+0x30>
/home/becker/async/autosafe/trunk/tum/wcet-cbmc/benchmarks/ns/ns.c:506
 206:	8d 81       	ldd	r24, Y+5	; 0x05
 208:	9e 81       	ldd	r25, Y+6	; 0x06
 20a:	01 96       	adiw	r24, 0x01	; 1
 20c:	9e 83       	std	Y+6, r25	; 0x06
 20e:	8d 83       	std	Y+5, r24	; 0x05
 210:	8d 81       	ldd	r24, Y+5	; 0x05
 212:	9e 81       	ldd	r25, Y+6	; 0x06
 214:	85 30       	cpi	r24, 0x05	; 5
 216:	91 05       	cpc	r25, r1
 218:	0c f4       	brge	.+2      	; 0x21c <foo+0x15e>
 21a:	66 cf       	rjmp	.-308    	; 0xe8 <foo+0x2a>
/home/becker/async/autosafe/trunk/tum/wcet-cbmc/benchmarks/ns/ns.c:505
 21c:	8b 81       	ldd	r24, Y+3	; 0x03
 21e:	9c 81       	ldd	r25, Y+4	; 0x04
 220:	01 96       	adiw	r24, 0x01	; 1
 222:	9c 83       	std	Y+4, r25	; 0x04
 224:	8b 83       	std	Y+3, r24	; 0x03
 226:	8b 81       	ldd	r24, Y+3	; 0x03
 228:	9c 81       	ldd	r25, Y+4	; 0x04
 22a:	85 30       	cpi	r24, 0x05	; 5
 22c:	91 05       	cpc	r25, r1
 22e:	0c f4       	brge	.+2      	; 0x232 <foo+0x174>
 230:	58 cf       	rjmp	.-336    	; 0xe2 <foo+0x24>
/home/becker/async/autosafe/trunk/tum/wcet-cbmc/benchmarks/ns/ns.c:504
 232:	89 81       	ldd	r24, Y+1	; 0x01
 234:	9a 81       	ldd	r25, Y+2	; 0x02
 236:	01 96       	adiw	r24, 0x01	; 1
 238:	9a 83       	std	Y+2, r25	; 0x02
 23a:	89 83       	std	Y+1, r24	; 0x01
 23c:	89 81       	ldd	r24, Y+1	; 0x01
 23e:	9a 81       	ldd	r25, Y+2	; 0x02
 240:	85 30       	cpi	r24, 0x05	; 5
 242:	91 05       	cpc	r25, r1
 244:	0c f4       	brge	.+2      	; 0x248 <foo+0x18a>
 246:	4a cf       	rjmp	.-364    	; 0xdc <foo+0x1e>
/home/becker/async/autosafe/trunk/tum/wcet-cbmc/benchmarks/ns/ns.c:520
 248:	8f ef       	ldi	r24, 0xFF	; 255
 24a:	9f ef       	ldi	r25, 0xFF	; 255
/home/becker/async/autosafe/trunk/tum/wcet-cbmc/benchmarks/ns/ns.c:521
 24c:	2a 96       	adiw	r28, 0x0a	; 10
 24e:	0f b6       	in	r0, 0x3f	; 63
 250:	f8 94       	cli
 252:	de bf       	out	0x3e, r29	; 62
 254:	0f be       	out	0x3f, r0	; 63
 256:	cd bf       	out	0x3d, r28	; 61
 258:	df 91       	pop	r29
 25a:	cf 91       	pop	r28
 25c:	08 95       	ret

0000025e <main>:
main():
/home/becker/async/autosafe/trunk/tum/wcet-cbmc/benchmarks/ns/ns.c:525
 25e:	cf 93       	push	r28
 260:	df 93       	push	r29
 262:	cd b7       	in	r28, 0x3d	; 61
 264:	de b7       	in	r29, 0x3e	; 62
/home/becker/async/autosafe/trunk/tum/wcet-cbmc/benchmarks/ns/ns.c:529
 266:	80 e9       	ldi	r24, 0x90	; 144
 268:	91 e0       	ldi	r25, 0x01	; 1
 26a:	0e 94 5f 00 	call	0xbe	; 0xbe <foo>
/home/becker/async/autosafe/trunk/tum/wcet-cbmc/benchmarks/ns/ns.c:531
 26e:	df 91       	pop	r29
 270:	cf 91       	pop	r28
 272:	08 95       	ret

00000274 <_exit>:
__bad_interrupt():
../../../../crt1/gcrt1.S:195
 274:	f8 94       	cli

00000276 <__stop_program>:
 276:	ff cf       	rjmp	.-2      	; 0x276 <__stop_program>

Disassembly of section .stab:

00000000 <.stab>:
__vectors():
../../../../crt1/gcrt1.S:52
   0:	01 00       	.word	0x0001	; ????
   2:	00 00       	nop
../../../../crt1/gcrt1.S:53
   4:	00 00       	nop
   6:	90 00       	.word	0x0090	; ????
../../../../crt1/gcrt1.S:54
   8:	54 00       	.word	0x0054	; ????
   a:	00 00       	nop
../../../../crt1/gcrt1.S:55
   c:	01 00       	.word	0x0001	; ????
   e:	00 00       	nop
../../../../crt1/gcrt1.S:56
  10:	64 00       	.word	0x0064	; ????
  12:	00 00       	nop
../../../../crt1/gcrt1.S:57
  14:	ba 00       	.word	0x00ba	; ????
  16:	00 00       	nop
../../../../crt1/gcrt1.S:58
  18:	11 00       	.word	0x0011	; ????
  1a:	00 00       	nop
../../../../crt1/gcrt1.S:59
  1c:	80 00       	.word	0x0080	; ????
  1e:	00 00       	nop
../../../../crt1/gcrt1.S:60
  20:	00 00       	nop
  22:	00 00       	nop
../../../../crt1/gcrt1.S:61
  24:	1b 00       	.word	0x001b	; ????
  26:	00 00       	nop
../../../../crt1/gcrt1.S:62
  28:	24 00       	.word	0x0024	; ????
  2a:	33 00       	.word	0x0033	; ????
../../../../crt1/gcrt1.S:63
  2c:	00 00       	nop
  2e:	00 00       	nop
../../../../crt1/gcrt1.S:64
  30:	28 00       	.word	0x0028	; ????
  32:	00 00       	nop
../../../../crt1/gcrt1.S:65
  34:	84 00       	.word	0x0084	; ????
	...
../../../../crt1/gcrt1.S:67
  3e:	00 00       	nop
../../../../crt1/gcrt1.S:68
  40:	44 00       	.word	0x0044	; ????
  42:	34 00       	.word	0x0034	; ????
	...
../../../../crt1/gcrt1.S:71
  4c:	44 00       	.word	0x0044	; ????
  4e:	35 00       	.word	0x0035	; ????
../../../../crt1/gcrt1.S:72
  50:	04 00       	.word	0x0004	; ????
  52:	00 00       	nop
../../../../crt1/gcrt1.S:73
  54:	00 00       	nop
  56:	00 00       	nop
../../../../crt1/gcrt1.S:74
  58:	44 00       	.word	0x0044	; ????
  5a:	36 00       	.word	0x0036	; ????
../../../../crt1/gcrt1.S:75
  5c:	08 00       	.word	0x0008	; ????
  5e:	00 00       	nop
../../../../crt1/gcrt1.S:76
  60:	00 00       	nop
  62:	00 00       	nop
../../../../crt1/gcrt1.S:77
  64:	44 00       	.word	0x0044	; ????
  66:	37 00       	.word	0x0037	; ????
../../../../crt1/gcrt1.S:78
  68:	0c 00       	.word	0x000c	; ????
  6a:	00 00       	nop
../../../../crt1/gcrt1.S:79
  6c:	00 00       	nop
  6e:	00 00       	nop
../../../../crt1/gcrt1.S:80
  70:	44 00       	.word	0x0044	; ????
  72:	38 00       	.word	0x0038	; ????
../../../../crt1/gcrt1.S:81
  74:	10 00       	.word	0x0010	; ????
  76:	00 00       	nop
../../../../crt1/gcrt1.S:82
  78:	00 00       	nop
  7a:	00 00       	nop
../../../../crt1/gcrt1.S:83
  7c:	44 00       	.word	0x0044	; ????
  7e:	39 00       	.word	0x0039	; ????
../../../../crt1/gcrt1.S:84
  80:	14 00       	.word	0x0014	; ????
  82:	00 00       	nop
../../../../crt1/gcrt1.S:85
  84:	00 00       	nop
  86:	00 00       	nop
../../../../crt1/gcrt1.S:86
  88:	44 00       	.word	0x0044	; ????
  8a:	3a 00       	.word	0x003a	; ????
../../../../crt1/gcrt1.S:179
  8c:	18 00       	.word	0x0018	; ????
  8e:	00 00       	nop
  90:	00 00       	nop
  92:	00 00       	nop
  94:	44 00       	.word	0x0044	; ????
  96:	3b 00       	.word	0x003b	; ????
  98:	1c 00       	.word	0x001c	; ????
  9a:	00 00       	nop
  9c:	00 00       	nop
  9e:	00 00       	nop
  a0:	44 00       	.word	0x0044	; ????
  a2:	3c 00       	.word	0x003c	; ????
  a4:	20 00       	.word	0x0020	; ????
  a6:	00 00       	nop
  a8:	00 00       	nop
  aa:	00 00       	nop
  ac:	44 00       	.word	0x0044	; ????
  ae:	3d 00       	.word	0x003d	; ????
  b0:	24 00       	.word	0x0024	; ????
  b2:	00 00       	nop
  b4:	00 00       	nop
  b6:	00 00       	nop
  b8:	44 00       	.word	0x0044	; ????
__bad_interrupt():
../../../../crt1/gcrt1.S:195
  ba:	3e 00       	.word	0x003e	; ????
  bc:	28 00       	.word	0x0028	; ????
foo():
/home/becker/async/autosafe/trunk/tum/wcet-cbmc/benchmarks/ns/ns.c:498
  be:	00 00       	nop
  c0:	00 00       	nop
  c2:	00 00       	nop
  c4:	44 00       	.word	0x0044	; ????
  c6:	3f 00       	.word	0x003f	; ????
  c8:	2c 00       	.word	0x002c	; ????
  ca:	00 00       	nop
  cc:	00 00       	nop
  ce:	00 00       	nop
  d0:	44 00       	.word	0x0044	; ????
  d2:	40 00       	.word	0x0040	; ????
  d4:	30 00       	.word	0x0030	; ????
/home/becker/async/autosafe/trunk/tum/wcet-cbmc/benchmarks/ns/ns.c:504
  d6:	00 00       	nop
  d8:	00 00       	nop
  da:	00 00       	nop
/home/becker/async/autosafe/trunk/tum/wcet-cbmc/benchmarks/ns/ns.c:505
  dc:	44 00       	.word	0x0044	; ????
  de:	41 00       	.word	0x0041	; ????
  e0:	34 00       	.word	0x0034	; ????
/home/becker/async/autosafe/trunk/tum/wcet-cbmc/benchmarks/ns/ns.c:506
  e2:	00 00       	nop
  e4:	00 00       	nop
  e6:	00 00       	nop
/home/becker/async/autosafe/trunk/tum/wcet-cbmc/benchmarks/ns/ns.c:507
  e8:	44 00       	.word	0x0044	; ????
  ea:	42 00       	.word	0x0042	; ????
  ec:	38 00       	.word	0x0038	; ????
/home/becker/async/autosafe/trunk/tum/wcet-cbmc/benchmarks/ns/ns.c:512
  ee:	00 00       	nop
  f0:	00 00       	nop
  f2:	00 00       	nop
  f4:	44 00       	.word	0x0044	; ????
  f6:	43 00       	.word	0x0043	; ????
  f8:	3c 00       	.word	0x003c	; ????
  fa:	00 00       	nop
  fc:	00 00       	nop
  fe:	00 00       	nop
 100:	44 00       	.word	0x0044	; ????
 102:	44 00       	.word	0x0044	; ????
 104:	40 00       	.word	0x0040	; ????
 106:	00 00       	nop
 108:	00 00       	nop
 10a:	00 00       	nop
 10c:	44 00       	.word	0x0044	; ????
 10e:	45 00       	.word	0x0045	; ????
 110:	44 00       	.word	0x0044	; ????
 112:	00 00       	nop
 114:	00 00       	nop
 116:	00 00       	nop
 118:	44 00       	.word	0x0044	; ????
 11a:	46 00       	.word	0x0046	; ????
 11c:	48 00       	.word	0x0048	; ????
 11e:	00 00       	nop
 120:	00 00       	nop
 122:	00 00       	nop
 124:	44 00       	.word	0x0044	; ????
 126:	47 00       	.word	0x0047	; ????
 128:	4c 00       	.word	0x004c	; ????
 12a:	00 00       	nop
 12c:	00 00       	nop
 12e:	00 00       	nop
 130:	44 00       	.word	0x0044	; ????
 132:	48 00       	.word	0x0048	; ????
 134:	50 00       	.word	0x0050	; ????
 136:	00 00       	nop
 138:	00 00       	nop
 13a:	00 00       	nop
 13c:	44 00       	.word	0x0044	; ????
 13e:	49 00       	.word	0x0049	; ????
 140:	54 00       	.word	0x0054	; ????
 142:	00 00       	nop
 144:	00 00       	nop
 146:	00 00       	nop
 148:	44 00       	.word	0x0044	; ????
/home/becker/async/autosafe/trunk/tum/wcet-cbmc/benchmarks/ns/ns.c:517
 14a:	4a 00       	.word	0x004a	; ????
 14c:	58 00       	.word	0x0058	; ????
 14e:	00 00       	nop
 150:	00 00       	nop
 152:	00 00       	nop
 154:	44 00       	.word	0x0044	; ????
 156:	4b 00       	.word	0x004b	; ????
 158:	5c 00       	.word	0x005c	; ????
 15a:	00 00       	nop
 15c:	00 00       	nop
 15e:	00 00       	nop
 160:	44 00       	.word	0x0044	; ????
 162:	4c 00       	.word	0x004c	; ????
 164:	60 00       	.word	0x0060	; ????
 166:	00 00       	nop
 168:	00 00       	nop
 16a:	00 00       	nop
 16c:	44 00       	.word	0x0044	; ????
 16e:	4d 00       	.word	0x004d	; ????
 170:	64 00       	.word	0x0064	; ????
 172:	00 00       	nop
 174:	00 00       	nop
 176:	00 00       	nop
 178:	44 00       	.word	0x0044	; ????
 17a:	4e 00       	.word	0x004e	; ????
 17c:	68 00       	.word	0x0068	; ????
 17e:	00 00       	nop
 180:	00 00       	nop
 182:	00 00       	nop
 184:	44 00       	.word	0x0044	; ????
 186:	4f 00       	.word	0x004f	; ????
 188:	6c 00       	.word	0x006c	; ????
 18a:	00 00       	nop
 18c:	00 00       	nop
 18e:	00 00       	nop
 190:	44 00       	.word	0x0044	; ????
 192:	50 00       	.word	0x0050	; ????
 194:	70 00       	.word	0x0070	; ????
 196:	00 00       	nop
 198:	00 00       	nop
 19a:	00 00       	nop
 19c:	44 00       	.word	0x0044	; ????
 19e:	51 00       	.word	0x0051	; ????
 1a0:	74 00       	.word	0x0074	; ????
 1a2:	00 00       	nop
 1a4:	00 00       	nop
 1a6:	00 00       	nop
 1a8:	44 00       	.word	0x0044	; ????
 1aa:	52 00       	.word	0x0052	; ????
 1ac:	78 00       	.word	0x0078	; ????
 1ae:	00 00       	nop
 1b0:	00 00       	nop
 1b2:	00 00       	nop
 1b4:	44 00       	.word	0x0044	; ????
 1b6:	53 00       	.word	0x0053	; ????
 1b8:	7c 00       	.word	0x007c	; ????
 1ba:	00 00       	nop
 1bc:	00 00       	nop
 1be:	00 00       	nop
 1c0:	44 00       	.word	0x0044	; ????
 1c2:	54 00       	.word	0x0054	; ????
 1c4:	80 00       	.word	0x0080	; ????
 1c6:	00 00       	nop
 1c8:	00 00       	nop
 1ca:	00 00       	nop
 1cc:	44 00       	.word	0x0044	; ????
 1ce:	55 00       	.word	0x0055	; ????
 1d0:	84 00       	.word	0x0084	; ????
 1d2:	00 00       	nop
 1d4:	00 00       	nop
 1d6:	00 00       	nop
 1d8:	44 00       	.word	0x0044	; ????
 1da:	56 00       	.word	0x0056	; ????
 1dc:	88 00       	.word	0x0088	; ????
 1de:	00 00       	nop
 1e0:	00 00       	nop
 1e2:	00 00       	nop
 1e4:	44 00       	.word	0x0044	; ????
 1e6:	57 00       	.word	0x0057	; ????
 1e8:	8c 00       	.word	0x008c	; ????
 1ea:	00 00       	nop
 1ec:	00 00       	nop
 1ee:	00 00       	nop
/home/becker/async/autosafe/trunk/tum/wcet-cbmc/benchmarks/ns/ns.c:507
 1f0:	44 00       	.word	0x0044	; ????
 1f2:	58 00       	.word	0x0058	; ????
 1f4:	8c 00       	.word	0x008c	; ????
 1f6:	00 00       	nop
 1f8:	00 00       	nop
 1fa:	00 00       	nop
 1fc:	44 00       	.word	0x0044	; ????
 1fe:	59 00       	.word	0x0059	; ????
 200:	8c 00       	.word	0x008c	; ????
 202:	00 00       	nop
 204:	00 00       	nop
/home/becker/async/autosafe/trunk/tum/wcet-cbmc/benchmarks/ns/ns.c:506
 206:	00 00       	nop
 208:	44 00       	.word	0x0044	; ????
 20a:	5a 00       	.word	0x005a	; ????
 20c:	8c 00       	.word	0x008c	; ????
 20e:	00 00       	nop
 210:	00 00       	nop
 212:	00 00       	nop
 214:	44 00       	.word	0x0044	; ????
 216:	5b 00       	.word	0x005b	; ????
 218:	8c 00       	.word	0x008c	; ????
 21a:	00 00       	nop
/home/becker/async/autosafe/trunk/tum/wcet-cbmc/benchmarks/ns/ns.c:505
 21c:	00 00       	nop
 21e:	00 00       	nop
 220:	44 00       	.word	0x0044	; ????
 222:	5c 00       	.word	0x005c	; ????
 224:	8c 00       	.word	0x008c	; ????
 226:	00 00       	nop
 228:	00 00       	nop
 22a:	00 00       	nop
 22c:	44 00       	.word	0x0044	; ????
 22e:	5d 00       	.word	0x005d	; ????
 230:	8c 00       	.word	0x008c	; ????
/home/becker/async/autosafe/trunk/tum/wcet-cbmc/benchmarks/ns/ns.c:504
 232:	00 00       	nop
 234:	00 00       	nop
 236:	00 00       	nop
 238:	44 00       	.word	0x0044	; ????
 23a:	5e 00       	.word	0x005e	; ????
 23c:	8c 00       	.word	0x008c	; ????
 23e:	00 00       	nop
 240:	00 00       	nop
 242:	00 00       	nop
 244:	44 00       	.word	0x0044	; ????
 246:	5f 00       	.word	0x005f	; ????
/home/becker/async/autosafe/trunk/tum/wcet-cbmc/benchmarks/ns/ns.c:520
 248:	8c 00       	.word	0x008c	; ????
 24a:	00 00       	nop
/home/becker/async/autosafe/trunk/tum/wcet-cbmc/benchmarks/ns/ns.c:521
 24c:	00 00       	nop
 24e:	00 00       	nop
 250:	44 00       	.word	0x0044	; ????
 252:	60 00       	.word	0x0060	; ????
 254:	8c 00       	.word	0x008c	; ????
 256:	00 00       	nop
 258:	00 00       	nop
 25a:	00 00       	nop
 25c:	44 00       	.word	0x0044	; ????
main():
/home/becker/async/autosafe/trunk/tum/wcet-cbmc/benchmarks/ns/ns.c:525
 25e:	61 00       	.word	0x0061	; ????
 260:	8c 00       	.word	0x008c	; ????
 262:	00 00       	nop
 264:	00 00       	nop
/home/becker/async/autosafe/trunk/tum/wcet-cbmc/benchmarks/ns/ns.c:529
 266:	00 00       	nop
 268:	44 00       	.word	0x0044	; ????
 26a:	62 00       	.word	0x0062	; ????
 26c:	8c 00       	.word	0x008c	; ????
/home/becker/async/autosafe/trunk/tum/wcet-cbmc/benchmarks/ns/ns.c:531
 26e:	00 00       	nop
 270:	00 00       	nop
 272:	00 00       	nop
__bad_interrupt():
../../../../crt1/gcrt1.S:195
 274:	44 00       	.word	0x0044	; ????
 276:	63 00       	.word	0x0063	; ????
 278:	8c 00       	.word	0x008c	; ????
 27a:	00 00       	nop
 27c:	00 00       	nop
 27e:	00 00       	nop
 280:	44 00       	.word	0x0044	; ????
 282:	64 00       	.word	0x0064	; ????
 284:	8c 00       	.word	0x008c	; ????
 286:	00 00       	nop
 288:	00 00       	nop
 28a:	00 00       	nop
 28c:	44 00       	.word	0x0044	; ????
 28e:	65 00       	.word	0x0065	; ????
 290:	8c 00       	.word	0x008c	; ????
 292:	00 00       	nop
 294:	00 00       	nop
 296:	00 00       	nop
 298:	44 00       	.word	0x0044	; ????
 29a:	66 00       	.word	0x0066	; ????
 29c:	8c 00       	.word	0x008c	; ????
 29e:	00 00       	nop
 2a0:	00 00       	nop
 2a2:	00 00       	nop
 2a4:	44 00       	.word	0x0044	; ????
 2a6:	67 00       	.word	0x0067	; ????
 2a8:	8c 00       	.word	0x008c	; ????
 2aa:	00 00       	nop
 2ac:	00 00       	nop
 2ae:	00 00       	nop
 2b0:	44 00       	.word	0x0044	; ????
 2b2:	68 00       	.word	0x0068	; ????
 2b4:	8c 00       	.word	0x008c	; ????
 2b6:	00 00       	nop
 2b8:	00 00       	nop
 2ba:	00 00       	nop
 2bc:	44 00       	.word	0x0044	; ????
 2be:	69 00       	.word	0x0069	; ????
 2c0:	8c 00       	.word	0x008c	; ????
 2c2:	00 00       	nop
 2c4:	00 00       	nop
 2c6:	00 00       	nop
 2c8:	44 00       	.word	0x0044	; ????
 2ca:	6a 00       	.word	0x006a	; ????
 2cc:	8c 00       	.word	0x008c	; ????
 2ce:	00 00       	nop
 2d0:	00 00       	nop
 2d2:	00 00       	nop
 2d4:	44 00       	.word	0x0044	; ????
 2d6:	6b 00       	.word	0x006b	; ????
 2d8:	8c 00       	.word	0x008c	; ????
 2da:	00 00       	nop
 2dc:	00 00       	nop
 2de:	00 00       	nop
 2e0:	44 00       	.word	0x0044	; ????
 2e2:	6c 00       	.word	0x006c	; ????
 2e4:	8c 00       	.word	0x008c	; ????
 2e6:	00 00       	nop
 2e8:	00 00       	nop
 2ea:	00 00       	nop
 2ec:	44 00       	.word	0x0044	; ????
 2ee:	6d 00       	.word	0x006d	; ????
 2f0:	8c 00       	.word	0x008c	; ????
 2f2:	00 00       	nop
 2f4:	00 00       	nop
 2f6:	00 00       	nop
 2f8:	44 00       	.word	0x0044	; ????
 2fa:	6e 00       	.word	0x006e	; ????
 2fc:	8c 00       	.word	0x008c	; ????
 2fe:	00 00       	nop
 300:	00 00       	nop
 302:	00 00       	nop
 304:	44 00       	.word	0x0044	; ????
 306:	6f 00       	.word	0x006f	; ????
 308:	8c 00       	.word	0x008c	; ????
 30a:	00 00       	nop
 30c:	00 00       	nop
 30e:	00 00       	nop
 310:	44 00       	.word	0x0044	; ????
 312:	70 00       	.word	0x0070	; ????
 314:	8c 00       	.word	0x008c	; ????
 316:	00 00       	nop
 318:	00 00       	nop
 31a:	00 00       	nop
 31c:	44 00       	.word	0x0044	; ????
 31e:	71 00       	.word	0x0071	; ????
 320:	8c 00       	.word	0x008c	; ????
 322:	00 00       	nop
 324:	00 00       	nop
 326:	00 00       	nop
 328:	44 00       	.word	0x0044	; ????
 32a:	72 00       	.word	0x0072	; ????
 32c:	8c 00       	.word	0x008c	; ????
 32e:	00 00       	nop
 330:	00 00       	nop
 332:	00 00       	nop
 334:	44 00       	.word	0x0044	; ????
 336:	73 00       	.word	0x0073	; ????
 338:	8c 00       	.word	0x008c	; ????
 33a:	00 00       	nop
 33c:	00 00       	nop
 33e:	00 00       	nop
 340:	44 00       	.word	0x0044	; ????
 342:	74 00       	.word	0x0074	; ????
 344:	8c 00       	.word	0x008c	; ????
 346:	00 00       	nop
 348:	00 00       	nop
 34a:	00 00       	nop
 34c:	44 00       	.word	0x0044	; ????
 34e:	75 00       	.word	0x0075	; ????
 350:	8c 00       	.word	0x008c	; ????
 352:	00 00       	nop
 354:	00 00       	nop
 356:	00 00       	nop
 358:	44 00       	.word	0x0044	; ????
 35a:	76 00       	.word	0x0076	; ????
 35c:	8c 00       	.word	0x008c	; ????
 35e:	00 00       	nop
 360:	00 00       	nop
 362:	00 00       	nop
 364:	44 00       	.word	0x0044	; ????
 366:	77 00       	.word	0x0077	; ????
 368:	8c 00       	.word	0x008c	; ????
 36a:	00 00       	nop
 36c:	00 00       	nop
 36e:	00 00       	nop
 370:	44 00       	.word	0x0044	; ????
 372:	78 00       	.word	0x0078	; ????
 374:	8c 00       	.word	0x008c	; ????
 376:	00 00       	nop
 378:	00 00       	nop
 37a:	00 00       	nop
 37c:	44 00       	.word	0x0044	; ????
 37e:	79 00       	.word	0x0079	; ????
 380:	8c 00       	.word	0x008c	; ????
 382:	00 00       	nop
 384:	00 00       	nop
 386:	00 00       	nop
 388:	44 00       	.word	0x0044	; ????
 38a:	7a 00       	.word	0x007a	; ????
 38c:	8c 00       	.word	0x008c	; ????
 38e:	00 00       	nop
 390:	00 00       	nop
 392:	00 00       	nop
 394:	44 00       	.word	0x0044	; ????
 396:	7b 00       	.word	0x007b	; ????
 398:	8c 00       	.word	0x008c	; ????
 39a:	00 00       	nop
 39c:	00 00       	nop
 39e:	00 00       	nop
 3a0:	44 00       	.word	0x0044	; ????
 3a2:	7c 00       	.word	0x007c	; ????
 3a4:	8c 00       	.word	0x008c	; ????
 3a6:	00 00       	nop
 3a8:	00 00       	nop
 3aa:	00 00       	nop
 3ac:	44 00       	.word	0x0044	; ????
 3ae:	7d 00       	.word	0x007d	; ????
 3b0:	8c 00       	.word	0x008c	; ????
 3b2:	00 00       	nop
 3b4:	00 00       	nop
 3b6:	00 00       	nop
 3b8:	44 00       	.word	0x0044	; ????
 3ba:	7e 00       	.word	0x007e	; ????
 3bc:	8c 00       	.word	0x008c	; ????
 3be:	00 00       	nop
 3c0:	00 00       	nop
 3c2:	00 00       	nop
 3c4:	44 00       	.word	0x0044	; ????
 3c6:	7f 00       	.word	0x007f	; ????
 3c8:	8c 00       	.word	0x008c	; ????
 3ca:	00 00       	nop
 3cc:	00 00       	nop
 3ce:	00 00       	nop
 3d0:	44 00       	.word	0x0044	; ????
 3d2:	80 00       	.word	0x0080	; ????
 3d4:	8c 00       	.word	0x008c	; ????
 3d6:	00 00       	nop
 3d8:	00 00       	nop
 3da:	00 00       	nop
 3dc:	44 00       	.word	0x0044	; ????
 3de:	81 00       	.word	0x0081	; ????
 3e0:	8c 00       	.word	0x008c	; ????
 3e2:	00 00       	nop
 3e4:	00 00       	nop
 3e6:	00 00       	nop
 3e8:	44 00       	.word	0x0044	; ????
 3ea:	82 00       	.word	0x0082	; ????
 3ec:	8c 00       	.word	0x008c	; ????
 3ee:	00 00       	nop
 3f0:	00 00       	nop
 3f2:	00 00       	nop
 3f4:	44 00       	.word	0x0044	; ????
 3f6:	83 00       	.word	0x0083	; ????
 3f8:	8c 00       	.word	0x008c	; ????
 3fa:	00 00       	nop
 3fc:	00 00       	nop
 3fe:	00 00       	nop
 400:	44 00       	.word	0x0044	; ????
 402:	84 00       	.word	0x0084	; ????
 404:	8c 00       	.word	0x008c	; ????
 406:	00 00       	nop
 408:	00 00       	nop
 40a:	00 00       	nop
 40c:	44 00       	.word	0x0044	; ????
 40e:	85 00       	.word	0x0085	; ????
 410:	8c 00       	.word	0x008c	; ????
 412:	00 00       	nop
 414:	00 00       	nop
 416:	00 00       	nop
 418:	44 00       	.word	0x0044	; ????
 41a:	86 00       	.word	0x0086	; ????
 41c:	8c 00       	.word	0x008c	; ????
 41e:	00 00       	nop
 420:	00 00       	nop
 422:	00 00       	nop
 424:	44 00       	.word	0x0044	; ????
 426:	87 00       	.word	0x0087	; ????
 428:	8c 00       	.word	0x008c	; ????
 42a:	00 00       	nop
 42c:	00 00       	nop
 42e:	00 00       	nop
 430:	44 00       	.word	0x0044	; ????
 432:	88 00       	.word	0x0088	; ????
 434:	8c 00       	.word	0x008c	; ????
 436:	00 00       	nop
 438:	00 00       	nop
 43a:	00 00       	nop
 43c:	44 00       	.word	0x0044	; ????
 43e:	89 00       	.word	0x0089	; ????
 440:	8c 00       	.word	0x008c	; ????
 442:	00 00       	nop
 444:	00 00       	nop
 446:	00 00       	nop
 448:	44 00       	.word	0x0044	; ????
 44a:	8a 00       	.word	0x008a	; ????
 44c:	8c 00       	.word	0x008c	; ????
 44e:	00 00       	nop
 450:	00 00       	nop
 452:	00 00       	nop
 454:	44 00       	.word	0x0044	; ????
 456:	8b 00       	.word	0x008b	; ????
 458:	8c 00       	.word	0x008c	; ????
 45a:	00 00       	nop
 45c:	00 00       	nop
 45e:	00 00       	nop
 460:	44 00       	.word	0x0044	; ????
 462:	8c 00       	.word	0x008c	; ????
 464:	8c 00       	.word	0x008c	; ????
 466:	00 00       	nop
 468:	00 00       	nop
 46a:	00 00       	nop
 46c:	44 00       	.word	0x0044	; ????
 46e:	8d 00       	.word	0x008d	; ????
 470:	8c 00       	.word	0x008c	; ????
 472:	00 00       	nop
 474:	00 00       	nop
 476:	00 00       	nop
 478:	44 00       	.word	0x0044	; ????
 47a:	8e 00       	.word	0x008e	; ????
 47c:	8c 00       	.word	0x008c	; ????
 47e:	00 00       	nop
 480:	00 00       	nop
 482:	00 00       	nop
 484:	44 00       	.word	0x0044	; ????
 486:	8f 00       	.word	0x008f	; ????
 488:	8c 00       	.word	0x008c	; ????
 48a:	00 00       	nop
 48c:	00 00       	nop
 48e:	00 00       	nop
 490:	44 00       	.word	0x0044	; ????
 492:	90 00       	.word	0x0090	; ????
 494:	8c 00       	.word	0x008c	; ????
 496:	00 00       	nop
 498:	00 00       	nop
 49a:	00 00       	nop
 49c:	44 00       	.word	0x0044	; ????
 49e:	91 00       	.word	0x0091	; ????
 4a0:	8c 00       	.word	0x008c	; ????
 4a2:	00 00       	nop
 4a4:	00 00       	nop
 4a6:	00 00       	nop
 4a8:	44 00       	.word	0x0044	; ????
 4aa:	92 00       	.word	0x0092	; ????
 4ac:	8c 00       	.word	0x008c	; ????
 4ae:	00 00       	nop
 4b0:	00 00       	nop
 4b2:	00 00       	nop
 4b4:	44 00       	.word	0x0044	; ????
 4b6:	93 00       	.word	0x0093	; ????
 4b8:	8c 00       	.word	0x008c	; ????
 4ba:	00 00       	nop
 4bc:	00 00       	nop
 4be:	00 00       	nop
 4c0:	44 00       	.word	0x0044	; ????
 4c2:	94 00       	.word	0x0094	; ????
 4c4:	8c 00       	.word	0x008c	; ????
 4c6:	00 00       	nop
 4c8:	00 00       	nop
 4ca:	00 00       	nop
 4cc:	44 00       	.word	0x0044	; ????
 4ce:	95 00       	.word	0x0095	; ????
 4d0:	8c 00       	.word	0x008c	; ????
 4d2:	00 00       	nop
 4d4:	00 00       	nop
 4d6:	00 00       	nop
 4d8:	44 00       	.word	0x0044	; ????
 4da:	96 00       	.word	0x0096	; ????
 4dc:	8c 00       	.word	0x008c	; ????
 4de:	00 00       	nop
 4e0:	00 00       	nop
 4e2:	00 00       	nop
 4e4:	44 00       	.word	0x0044	; ????
 4e6:	97 00       	.word	0x0097	; ????
 4e8:	8c 00       	.word	0x008c	; ????
 4ea:	00 00       	nop
 4ec:	00 00       	nop
 4ee:	00 00       	nop
 4f0:	44 00       	.word	0x0044	; ????
 4f2:	98 00       	.word	0x0098	; ????
 4f4:	8c 00       	.word	0x008c	; ????
 4f6:	00 00       	nop
 4f8:	00 00       	nop
 4fa:	00 00       	nop
 4fc:	44 00       	.word	0x0044	; ????
 4fe:	99 00       	.word	0x0099	; ????
 500:	8c 00       	.word	0x008c	; ????
 502:	00 00       	nop
 504:	00 00       	nop
 506:	00 00       	nop
 508:	44 00       	.word	0x0044	; ????
 50a:	9a 00       	.word	0x009a	; ????
 50c:	8c 00       	.word	0x008c	; ????
 50e:	00 00       	nop
 510:	00 00       	nop
 512:	00 00       	nop
 514:	44 00       	.word	0x0044	; ????
 516:	9b 00       	.word	0x009b	; ????
 518:	8c 00       	.word	0x008c	; ????
 51a:	00 00       	nop
 51c:	00 00       	nop
 51e:	00 00       	nop
 520:	44 00       	.word	0x0044	; ????
 522:	9c 00       	.word	0x009c	; ????
 524:	8c 00       	.word	0x008c	; ????
 526:	00 00       	nop
 528:	00 00       	nop
 52a:	00 00       	nop
 52c:	44 00       	.word	0x0044	; ????
 52e:	9d 00       	.word	0x009d	; ????
 530:	8c 00       	.word	0x008c	; ????
 532:	00 00       	nop
 534:	00 00       	nop
 536:	00 00       	nop
 538:	44 00       	.word	0x0044	; ????
 53a:	9e 00       	.word	0x009e	; ????
 53c:	8c 00       	.word	0x008c	; ????
 53e:	00 00       	nop
 540:	00 00       	nop
 542:	00 00       	nop
 544:	44 00       	.word	0x0044	; ????
 546:	9f 00       	.word	0x009f	; ????
 548:	8c 00       	.word	0x008c	; ????
 54a:	00 00       	nop
 54c:	00 00       	nop
 54e:	00 00       	nop
 550:	44 00       	.word	0x0044	; ????
 552:	a0 00       	.word	0x00a0	; ????
 554:	8c 00       	.word	0x008c	; ????
 556:	00 00       	nop
 558:	00 00       	nop
 55a:	00 00       	nop
 55c:	44 00       	.word	0x0044	; ????
 55e:	a1 00       	.word	0x00a1	; ????
 560:	8c 00       	.word	0x008c	; ????
 562:	00 00       	nop
 564:	00 00       	nop
 566:	00 00       	nop
 568:	44 00       	.word	0x0044	; ????
 56a:	a2 00       	.word	0x00a2	; ????
 56c:	8c 00       	.word	0x008c	; ????
 56e:	00 00       	nop
 570:	00 00       	nop
 572:	00 00       	nop
 574:	44 00       	.word	0x0044	; ????
 576:	a3 00       	.word	0x00a3	; ????
 578:	8c 00       	.word	0x008c	; ????
 57a:	00 00       	nop
 57c:	00 00       	nop
 57e:	00 00       	nop
 580:	44 00       	.word	0x0044	; ????
 582:	a4 00       	.word	0x00a4	; ????
 584:	8c 00       	.word	0x008c	; ????
 586:	00 00       	nop
 588:	00 00       	nop
 58a:	00 00       	nop
 58c:	44 00       	.word	0x0044	; ????
 58e:	a5 00       	.word	0x00a5	; ????
 590:	8c 00       	.word	0x008c	; ????
 592:	00 00       	nop
 594:	00 00       	nop
 596:	00 00       	nop
 598:	44 00       	.word	0x0044	; ????
 59a:	a6 00       	.word	0x00a6	; ????
 59c:	8c 00       	.word	0x008c	; ????
 59e:	00 00       	nop
 5a0:	00 00       	nop
 5a2:	00 00       	nop
 5a4:	44 00       	.word	0x0044	; ????
 5a6:	a7 00       	.word	0x00a7	; ????
 5a8:	8c 00       	.word	0x008c	; ????
 5aa:	00 00       	nop
 5ac:	00 00       	nop
 5ae:	00 00       	nop
 5b0:	44 00       	.word	0x0044	; ????
 5b2:	a8 00       	.word	0x00a8	; ????
 5b4:	8c 00       	.word	0x008c	; ????
 5b6:	00 00       	nop
 5b8:	00 00       	nop
 5ba:	00 00       	nop
 5bc:	44 00       	.word	0x0044	; ????
 5be:	a9 00       	.word	0x00a9	; ????
 5c0:	8c 00       	.word	0x008c	; ????
 5c2:	00 00       	nop
 5c4:	00 00       	nop
 5c6:	00 00       	nop
 5c8:	44 00       	.word	0x0044	; ????
 5ca:	aa 00       	.word	0x00aa	; ????
 5cc:	8c 00       	.word	0x008c	; ????
 5ce:	00 00       	nop
 5d0:	00 00       	nop
 5d2:	00 00       	nop
 5d4:	44 00       	.word	0x0044	; ????
 5d6:	ab 00       	.word	0x00ab	; ????
 5d8:	8c 00       	.word	0x008c	; ????
 5da:	00 00       	nop
 5dc:	00 00       	nop
 5de:	00 00       	nop
 5e0:	44 00       	.word	0x0044	; ????
 5e2:	ac 00       	.word	0x00ac	; ????
 5e4:	8c 00       	.word	0x008c	; ????
 5e6:	00 00       	nop
 5e8:	00 00       	nop
 5ea:	00 00       	nop
 5ec:	44 00       	.word	0x0044	; ????
 5ee:	ad 00       	.word	0x00ad	; ????
 5f0:	8c 00       	.word	0x008c	; ????
 5f2:	00 00       	nop
 5f4:	00 00       	nop
 5f6:	00 00       	nop
 5f8:	44 00       	.word	0x0044	; ????
 5fa:	ae 00       	.word	0x00ae	; ????
 5fc:	8c 00       	.word	0x008c	; ????
 5fe:	00 00       	nop
 600:	00 00       	nop
 602:	00 00       	nop
 604:	44 00       	.word	0x0044	; ????
 606:	af 00       	.word	0x00af	; ????
 608:	8c 00       	.word	0x008c	; ????
 60a:	00 00       	nop
 60c:	00 00       	nop
 60e:	00 00       	nop
 610:	44 00       	.word	0x0044	; ????
 612:	b0 00       	.word	0x00b0	; ????
 614:	8c 00       	.word	0x008c	; ????
 616:	00 00       	nop
 618:	00 00       	nop
 61a:	00 00       	nop
 61c:	44 00       	.word	0x0044	; ????
 61e:	b1 00       	.word	0x00b1	; ????
 620:	8c 00       	.word	0x008c	; ????
 622:	00 00       	nop
 624:	00 00       	nop
 626:	00 00       	nop
 628:	44 00       	.word	0x0044	; ????
 62a:	b2 00       	.word	0x00b2	; ????
 62c:	8c 00       	.word	0x008c	; ????
 62e:	00 00       	nop
 630:	00 00       	nop
 632:	00 00       	nop
 634:	44 00       	.word	0x0044	; ????
 636:	b3 00       	.word	0x00b3	; ????
 638:	8c 00       	.word	0x008c	; ????
 63a:	00 00       	nop
 63c:	00 00       	nop
 63e:	00 00       	nop
 640:	24 00       	.word	0x0024	; ????
 642:	00 00       	nop
 644:	8c 00       	.word	0x008c	; ????
 646:	00 00       	nop
 648:	41 00       	.word	0x0041	; ????
 64a:	00 00       	nop
 64c:	24 00       	.word	0x0024	; ????
 64e:	c0 00       	.word	0x00c0	; ????
 650:	ba 00       	.word	0x00ba	; ????
 652:	00 00       	nop
 654:	00 00       	nop
 656:	00 00       	nop
 658:	44 00       	.word	0x0044	; ????
 65a:	c3 00       	.word	0x00c3	; ????
	...
 664:	24 00       	.word	0x0024	; ????
 666:	00 00       	nop
 668:	04 00       	.word	0x0004	; ????
 66a:	00 00       	nop
 66c:	00 00       	nop
 66e:	00 00       	nop
 670:	44 00       	.word	0x0044	; ????
 672:	d8 00       	.word	0x00d8	; ????
 674:	8c 00       	.word	0x008c	; ????
 676:	00 00       	nop
 678:	00 00       	nop
 67a:	00 00       	nop
 67c:	44 00       	.word	0x0044	; ????
 67e:	d9 00       	.word	0x00d9	; ????
 680:	8e 00       	.word	0x008e	; ????
 682:	00 00       	nop
 684:	00 00       	nop
 686:	00 00       	nop
 688:	44 00       	.word	0x0044	; ????
 68a:	da 00       	.word	0x00da	; ????
 68c:	90 00       	.word	0x0090	; ????
 68e:	00 00       	nop
 690:	00 00       	nop
 692:	00 00       	nop
 694:	44 00       	.word	0x0044	; ????
 696:	dc 00       	.word	0x00dc	; ????
 698:	92 00       	.word	0x0092	; ????
 69a:	00 00       	nop
 69c:	00 00       	nop
 69e:	00 00       	nop
 6a0:	44 00       	.word	0x0044	; ????
 6a2:	dd 00       	.word	0x00dd	; ????
 6a4:	94 00       	.word	0x0094	; ????
 6a6:	00 00       	nop
 6a8:	00 00       	nop
 6aa:	00 00       	nop
 6ac:	44 00       	.word	0x0044	; ????
 6ae:	df 00       	.word	0x00df	; ????
 6b0:	96 00       	.word	0x0096	; ????
 6b2:	00 00       	nop
 6b4:	00 00       	nop
 6b6:	00 00       	nop
 6b8:	44 00       	.word	0x0044	; ????
 6ba:	24 01       	movw	r4, r8
 6bc:	b2 00       	.word	0x00b2	; ????
 6be:	00 00       	nop
 6c0:	00 00       	nop
 6c2:	00 00       	nop
 6c4:	44 00       	.word	0x0044	; ????
 6c6:	25 01       	movw	r4, r10
 6c8:	b6 00       	.word	0x00b6	; ????
	...

Disassembly of section .stabstr:

00000000 <.stabstr>:
__vectors():
../../../../crt1/gcrt1.S:52
   0:	00 2f       	mov	r16, r16
   2:	74 6d       	ori	r23, 0xD4	; 212
../../../../crt1/gcrt1.S:53
   4:	70 2f       	mov	r23, r16
   6:	63 63       	ori	r22, 0x33	; 51
../../../../crt1/gcrt1.S:54
   8:	43 37       	cpi	r20, 0x73	; 115
   a:	6a 68       	ori	r22, 0x8A	; 138
../../../../crt1/gcrt1.S:55
   c:	61 79       	andi	r22, 0x91	; 145
   e:	2e 73       	andi	r18, 0x3E	; 62
../../../../crt1/gcrt1.S:56
  10:	00 76       	andi	r16, 0x60	; 96
  12:	6f 69       	ori	r22, 0x9F	; 159
../../../../crt1/gcrt1.S:57
  14:	64 3a       	cpi	r22, 0xA4	; 164
  16:	74 31       	cpi	r23, 0x14	; 20
../../../../crt1/gcrt1.S:58
  18:	3d 31       	cpi	r19, 0x1D	; 29
  1a:	00 5f       	subi	r16, 0xF0	; 240
../../../../crt1/gcrt1.S:59
  1c:	5f 76       	andi	r21, 0x6F	; 111
  1e:	65 63       	ori	r22, 0x35	; 53
../../../../crt1/gcrt1.S:60
  20:	74 6f       	ori	r23, 0xF4	; 244
  22:	72 73       	andi	r23, 0x32	; 50
../../../../crt1/gcrt1.S:61
  24:	3a 46       	sbci	r19, 0x6A	; 106
  26:	31 00       	.word	0x0031	; ????
../../../../crt1/gcrt1.S:62
  28:	2e 2e       	mov	r2, r30
  2a:	2f 2e       	mov	r2, r31
../../../../crt1/gcrt1.S:63
  2c:	2e 2f       	mov	r18, r30
  2e:	2e 2e       	mov	r2, r30
../../../../crt1/gcrt1.S:64
  30:	2f 2e       	mov	r2, r31
  32:	2e 2f       	mov	r18, r30
../../../../crt1/gcrt1.S:65
  34:	63 72       	andi	r22, 0x23	; 35
  36:	74 31       	cpi	r23, 0x14	; 20
../../../../crt1/gcrt1.S:66
  38:	2f 67       	ori	r18, 0x7F	; 127
  3a:	63 72       	andi	r22, 0x23	; 35
../../../../crt1/gcrt1.S:67
  3c:	74 31       	cpi	r23, 0x14	; 20
  3e:	2e 53       	subi	r18, 0x3E	; 62
../../../../crt1/gcrt1.S:68
  40:	00 5f       	subi	r16, 0xF0	; 240
  42:	5f 62       	ori	r21, 0x2F	; 47
../../../../crt1/gcrt1.S:69
  44:	61 64       	ori	r22, 0x41	; 65
  46:	5f 69       	ori	r21, 0x9F	; 159
../../../../crt1/gcrt1.S:70
  48:	6e 74       	andi	r22, 0x4E	; 78
  4a:	65 72       	andi	r22, 0x25	; 37
../../../../crt1/gcrt1.S:71
  4c:	72 75       	andi	r23, 0x52	; 82
  4e:	70 74       	andi	r23, 0x40	; 64
../../../../crt1/gcrt1.S:72
  50:	3a 46       	sbci	r19, 0x6A	; 106
  52:	31 00       	.word	0x0031	; ????

Disassembly of section .comment:

00000000 <.comment>:
../../../../crt1/gcrt1.S:52
   0:	47 43       	sbci	r20, 0x37	; 55
   2:	43 3a       	cpi	r20, 0xA3	; 163
../../../../crt1/gcrt1.S:53
   4:	20 28       	or	r2, r0
   6:	47 4e       	sbci	r20, 0xE7	; 231
../../../../crt1/gcrt1.S:54
   8:	55 29       	or	r21, r5
   a:	20 34       	cpi	r18, 0x40	; 64
../../../../crt1/gcrt1.S:55
   c:	2e 37       	cpi	r18, 0x7E	; 126
   e:	2e 32       	cpi	r18, 0x2E	; 46
	...

Disassembly of section .debug_aranges:

00000000 <.debug_aranges>:
../../../../crt1/gcrt1.S:52
   0:	1c 00       	.word	0x001c	; ????
   2:	00 00       	nop
../../../../crt1/gcrt1.S:53
   4:	02 00       	.word	0x0002	; ????
   6:	00 00       	nop
../../../../crt1/gcrt1.S:54
   8:	00 00       	nop
   a:	04 00       	.word	0x0004	; ????
../../../../crt1/gcrt1.S:55
   c:	00 00       	nop
   e:	00 00       	nop
../../../../crt1/gcrt1.S:56
  10:	be 00       	.word	0x00be	; ????
  12:	00 00       	nop
../../../../crt1/gcrt1.S:57
  14:	b6 01       	movw	r22, r12
	...

Disassembly of section .debug_info:

00000000 <.debug_info>:
../../../../crt1/gcrt1.S:52
   0:	ef 00       	.word	0x00ef	; ????
   2:	00 00       	nop
../../../../crt1/gcrt1.S:53
   4:	02 00       	.word	0x0002	; ????
   6:	00 00       	nop
../../../../crt1/gcrt1.S:54
   8:	00 00       	nop
   a:	04 01       	movw	r0, r8
../../../../crt1/gcrt1.S:55
   c:	00 00       	nop
   e:	00 00       	nop
../../../../crt1/gcrt1.S:56
  10:	01 0c       	add	r0, r1
  12:	00 00       	nop
../../../../crt1/gcrt1.S:57
  14:	00 2b       	or	r16, r16
  16:	00 00       	nop
../../../../crt1/gcrt1.S:58
  18:	00 be       	out	0x30, r0	; 48
  1a:	00 00       	nop
../../../../crt1/gcrt1.S:59
  1c:	00 74       	andi	r16, 0x40	; 64
  1e:	02 00       	.word	0x0002	; ????
../../../../crt1/gcrt1.S:60
  20:	00 00       	nop
  22:	00 00       	nop
../../../../crt1/gcrt1.S:61
  24:	00 02       	muls	r16, r16
  26:	01 66       	ori	r16, 0x61	; 97
../../../../crt1/gcrt1.S:62
  28:	6f 6f       	ori	r22, 0xFF	; 255
  2a:	00 01       	movw	r0, r0
../../../../crt1/gcrt1.S:63
  2c:	f1 01       	movw	r30, r2
  2e:	01 86       	std	Z+9, r0	; 0x09
../../../../crt1/gcrt1.S:64
  30:	00 00       	nop
  32:	00 be       	out	0x30, r0	; 48
../../../../crt1/gcrt1.S:65
  34:	00 00       	nop
  36:	00 5e       	subi	r16, 0xE0	; 224
../../../../crt1/gcrt1.S:66
  38:	02 00       	.word	0x0002	; ????
  3a:	00 00       	nop
../../../../crt1/gcrt1.S:67
  3c:	00 00       	nop
  3e:	00 01       	movw	r0, r0
../../../../crt1/gcrt1.S:68
  40:	86 00       	.word	0x0086	; ????
  42:	00 00       	nop
../../../../crt1/gcrt1.S:69
  44:	03 78       	andi	r16, 0x83	; 131
  46:	00 01       	movw	r0, r0
../../../../crt1/gcrt1.S:70
  48:	f1 01       	movw	r30, r2
  4a:	86 00       	.word	0x0086	; ????
../../../../crt1/gcrt1.S:71
  4c:	00 00       	nop
  4e:	02 8c       	ldd	r0, Z+26	; 0x1a
../../../../crt1/gcrt1.S:72
  50:	09 04       	cpc	r0, r9
  52:	69 00       	.word	0x0069	; ????
../../../../crt1/gcrt1.S:73
  54:	01 f6       	brne	.-128    	; 0xffffffd6 <__eeprom_end+0xff7effd6>
  56:	01 86       	std	Z+9, r0	; 0x09
../../../../crt1/gcrt1.S:74
  58:	00 00       	nop
  5a:	00 02       	muls	r16, r16
../../../../crt1/gcrt1.S:75
  5c:	8c 01       	movw	r16, r24
  5e:	04 6a       	ori	r16, 0xA4	; 164
../../../../crt1/gcrt1.S:76
  60:	00 01       	movw	r0, r0
  62:	f6 01       	movw	r30, r12
../../../../crt1/gcrt1.S:77
  64:	86 00       	.word	0x0086	; ????
  66:	00 00       	nop
../../../../crt1/gcrt1.S:78
  68:	02 8c       	ldd	r0, Z+26	; 0x1a
  6a:	03 04       	cpc	r0, r3
../../../../crt1/gcrt1.S:79
  6c:	6b 00       	.word	0x006b	; ????
  6e:	01 f6       	brne	.-128    	; 0xfffffff0 <__eeprom_end+0xff7efff0>
../../../../crt1/gcrt1.S:80
  70:	01 86       	std	Z+9, r0	; 0x09
  72:	00 00       	nop
../../../../crt1/gcrt1.S:81
  74:	00 02       	muls	r16, r16
  76:	8c 05       	cpc	r24, r12
../../../../crt1/gcrt1.S:82
  78:	04 6c       	ori	r16, 0xC4	; 196
  7a:	00 01       	movw	r0, r0
../../../../crt1/gcrt1.S:83
  7c:	f6 01       	movw	r30, r12
  7e:	86 00       	.word	0x0086	; ????
../../../../crt1/gcrt1.S:84
  80:	00 00       	nop
  82:	02 8c       	ldd	r0, Z+26	; 0x1a
../../../../crt1/gcrt1.S:85
  84:	07 00       	.word	0x0007	; ????
  86:	05 02       	muls	r16, r21
../../../../crt1/gcrt1.S:86
  88:	05 69       	ori	r16, 0x95	; 149
  8a:	6e 74       	andi	r22, 0x4E	; 78
../../../../crt1/gcrt1.S:179
  8c:	00 06       	cpc	r0, r16
  8e:	01 26       	eor	r0, r17
  90:	00 00       	nop
  92:	00 01       	movw	r0, r0
  94:	0c 02       	muls	r16, r28
  96:	01 5e       	subi	r16, 0xE1	; 225
  98:	02 00       	.word	0x0002	; ????
  9a:	00 74       	andi	r16, 0x40	; 64
  9c:	02 00       	.word	0x0002	; ????
  9e:	00 47       	sbci	r16, 0x70	; 112
  a0:	00 00       	nop
  a2:	00 01       	movw	r0, r0
  a4:	07 86       	std	Z+15, r0	; 0x0f
  a6:	00 00       	nop
  a8:	00 c6       	rjmp	.+3072   	; 0xcaa <__data_load_end+0x6e>
  aa:	00 00       	nop
  ac:	00 08       	sbc	r0, r0
  ae:	c6 00       	.word	0x00c6	; ????
  b0:	00 00       	nop
  b2:	04 08       	sbc	r0, r4
  b4:	c6 00       	.word	0x00c6	; ????
  b6:	00 00       	nop
  b8:	04 08       	sbc	r0, r4
__bad_interrupt():
../../../../crt1/gcrt1.S:195
  ba:	c6 00       	.word	0x00c6	; ????
  bc:	00 00       	nop
foo():
/home/becker/async/autosafe/trunk/tum/wcet-cbmc/benchmarks/ns/ns.c:498
  be:	04 08       	sbc	r0, r4
  c0:	c6 00       	.word	0x00c6	; ????
  c2:	00 00       	nop
  c4:	04 00       	.word	0x0004	; ????
  c6:	09 02       	muls	r16, r25
  c8:	07 1d       	adc	r16, r7
  ca:	00 00       	nop
  cc:	00 0a       	sbc	r0, r16
  ce:	18 00       	.word	0x0018	; ????
  d0:	00 00       	nop
  d2:	01 32       	cpi	r16, 0x21	; 33
  d4:	a4 00       	.word	0x00a4	; ????
/home/becker/async/autosafe/trunk/tum/wcet-cbmc/benchmarks/ns/ns.c:504
  d6:	00 00       	nop
  d8:	01 05       	cpc	r16, r1
  da:	03 00       	.word	0x0003	; ????
/home/becker/async/autosafe/trunk/tum/wcet-cbmc/benchmarks/ns/ns.c:505
  dc:	01 80       	ldd	r0, Z+1	; 0x01
  de:	00 0b       	sbc	r16, r16
  e0:	11 00       	.word	0x0011	; ????
/home/becker/async/autosafe/trunk/tum/wcet-cbmc/benchmarks/ns/ns.c:506
  e2:	00 00       	nop
  e4:	01 15       	cp	r16, r1
  e6:	01 a4       	ldd	r0, Z+41	; 0x29
/home/becker/async/autosafe/trunk/tum/wcet-cbmc/benchmarks/ns/ns.c:507
  e8:	00 00       	nop
  ea:	00 01       	movw	r0, r0
  ec:	05 03       	mulsu	r16, r21
/home/becker/async/autosafe/trunk/tum/wcet-cbmc/benchmarks/ns/ns.c:512
  ee:	e2 05       	cpc	r30, r2
  f0:	80 00       	.word	0x0080	; ????
	...

Disassembly of section .debug_abbrev:

00000000 <.debug_abbrev>:
__vectors():
../../../../crt1/gcrt1.S:52
   0:	01 11       	cpse	r16, r1
   2:	01 25       	eor	r16, r1
../../../../crt1/gcrt1.S:53
   4:	0e 13       	cpse	r16, r30
   6:	0b 03       	fmul	r16, r19
../../../../crt1/gcrt1.S:54
   8:	0e 1b       	sub	r16, r30
   a:	0e 11       	cpse	r16, r14
../../../../crt1/gcrt1.S:55
   c:	01 12       	cpse	r0, r17
   e:	01 10       	cpse	r0, r1
../../../../crt1/gcrt1.S:56
  10:	06 00       	.word	0x0006	; ????
  12:	00 02       	muls	r16, r16
../../../../crt1/gcrt1.S:57
  14:	2e 01       	movw	r4, r28
  16:	3f 0c       	add	r3, r15
../../../../crt1/gcrt1.S:58
  18:	03 08       	sbc	r0, r3
  1a:	3a 0b       	sbc	r19, r26
../../../../crt1/gcrt1.S:59
  1c:	3b 05       	cpc	r19, r11
  1e:	27 0c       	add	r2, r7
../../../../crt1/gcrt1.S:60
  20:	49 13       	cpse	r20, r25
  22:	11 01       	movw	r2, r2
../../../../crt1/gcrt1.S:61
  24:	12 01       	movw	r2, r4
  26:	40 06       	cpc	r4, r16
../../../../crt1/gcrt1.S:62
  28:	97 42       	sbci	r25, 0x27	; 39
  2a:	0c 01       	movw	r0, r24
../../../../crt1/gcrt1.S:63
  2c:	13 00       	.word	0x0013	; ????
  2e:	00 03       	mulsu	r16, r16
../../../../crt1/gcrt1.S:64
  30:	05 00       	.word	0x0005	; ????
  32:	03 08       	sbc	r0, r3
../../../../crt1/gcrt1.S:65
  34:	3a 0b       	sbc	r19, r26
  36:	3b 05       	cpc	r19, r11
../../../../crt1/gcrt1.S:66
  38:	49 13       	cpse	r20, r25
  3a:	02 0a       	sbc	r0, r18
../../../../crt1/gcrt1.S:67
  3c:	00 00       	nop
  3e:	04 34       	cpi	r16, 0x44	; 68
../../../../crt1/gcrt1.S:68
  40:	00 03       	mulsu	r16, r16
  42:	08 3a       	cpi	r16, 0xA8	; 168
../../../../crt1/gcrt1.S:69
  44:	0b 3b       	cpi	r16, 0xBB	; 187
  46:	05 49       	sbci	r16, 0x95	; 149
../../../../crt1/gcrt1.S:70
  48:	13 02       	muls	r17, r19
  4a:	0a 00       	.word	0x000a	; ????
../../../../crt1/gcrt1.S:71
  4c:	00 05       	cpc	r16, r0
  4e:	24 00       	.word	0x0024	; ????
../../../../crt1/gcrt1.S:72
  50:	0b 0b       	sbc	r16, r27
  52:	3e 0b       	sbc	r19, r30
../../../../crt1/gcrt1.S:73
  54:	03 08       	sbc	r0, r3
  56:	00 00       	nop
../../../../crt1/gcrt1.S:74
  58:	06 2e       	mov	r0, r22
  5a:	00 3f       	cpi	r16, 0xF0	; 240
../../../../crt1/gcrt1.S:75
  5c:	0c 03       	fmul	r16, r20
  5e:	0e 3a       	cpi	r16, 0xAE	; 174
../../../../crt1/gcrt1.S:76
  60:	0b 3b       	cpi	r16, 0xBB	; 187
  62:	05 27       	eor	r16, r21
../../../../crt1/gcrt1.S:77
  64:	0c 11       	cpse	r16, r12
  66:	01 12       	cpse	r0, r17
../../../../crt1/gcrt1.S:78
  68:	01 40       	sbci	r16, 0x01	; 1
  6a:	06 96       	adiw	r24, 0x06	; 6
../../../../crt1/gcrt1.S:79
  6c:	42 0c       	add	r4, r2
  6e:	00 00       	nop
../../../../crt1/gcrt1.S:80
  70:	07 01       	movw	r0, r14
  72:	01 49       	sbci	r16, 0x91	; 145
../../../../crt1/gcrt1.S:81
  74:	13 01       	movw	r2, r6
  76:	13 00       	.word	0x0013	; ????
../../../../crt1/gcrt1.S:82
  78:	00 08       	sbc	r0, r0
  7a:	21 00       	.word	0x0021	; ????
../../../../crt1/gcrt1.S:83
  7c:	49 13       	cpse	r20, r25
  7e:	2f 0b       	sbc	r18, r31
../../../../crt1/gcrt1.S:84
  80:	00 00       	nop
  82:	09 24       	eor	r0, r9
../../../../crt1/gcrt1.S:85
  84:	00 0b       	sbc	r16, r16
  86:	0b 3e       	cpi	r16, 0xEB	; 235
../../../../crt1/gcrt1.S:86
  88:	0b 03       	fmul	r16, r19
  8a:	0e 00       	.word	0x000e	; ????
../../../../crt1/gcrt1.S:179
  8c:	00 0a       	sbc	r0, r16
  8e:	34 00       	.word	0x0034	; ????
  90:	03 0e       	add	r0, r19
  92:	3a 0b       	sbc	r19, r26
  94:	3b 0b       	sbc	r19, r27
  96:	49 13       	cpse	r20, r25
  98:	3f 0c       	add	r3, r15
  9a:	02 0a       	sbc	r0, r18
  9c:	00 00       	nop
  9e:	0b 34       	cpi	r16, 0x4B	; 75
  a0:	00 03       	mulsu	r16, r16
  a2:	0e 3a       	cpi	r16, 0xAE	; 174
  a4:	0b 3b       	cpi	r16, 0xBB	; 187
  a6:	05 49       	sbci	r16, 0x95	; 149
  a8:	13 3f       	cpi	r17, 0xF3	; 243
  aa:	0c 02       	muls	r16, r28
  ac:	0a 00       	.word	0x000a	; ????
	...

Disassembly of section .debug_line:

00000000 <.debug_line>:
../../../../crt1/gcrt1.S:52
   0:	64 00       	.word	0x0064	; ????
   2:	00 00       	nop
../../../../crt1/gcrt1.S:53
   4:	02 00       	.word	0x0002	; ????
   6:	18 00       	.word	0x0018	; ????
../../../../crt1/gcrt1.S:54
   8:	00 00       	nop
   a:	01 01       	movw	r0, r2
../../../../crt1/gcrt1.S:55
   c:	fb 0e       	add	r15, r27
   e:	0a 00       	.word	0x000a	; ????
../../../../crt1/gcrt1.S:56
  10:	01 01       	movw	r0, r2
  12:	01 01       	movw	r0, r2
../../../../crt1/gcrt1.S:57
  14:	00 00       	nop
  16:	00 01       	movw	r0, r0
../../../../crt1/gcrt1.S:58
  18:	00 6e       	ori	r16, 0xE0	; 224
  1a:	73 2e       	mov	r7, r19
../../../../crt1/gcrt1.S:59
  1c:	63 00       	.word	0x0063	; ????
  1e:	00 00       	nop
../../../../crt1/gcrt1.S:60
  20:	00 00       	nop
  22:	00 05       	cpc	r16, r0
../../../../crt1/gcrt1.S:61
  24:	02 be       	out	0x32, r0	; 50
  26:	00 00       	nop
../../../../crt1/gcrt1.S:62
  28:	00 03       	mulsu	r16, r16
  2a:	f1 03       	fmuls	r23, r17
../../../../crt1/gcrt1.S:63
  2c:	01 08       	sbc	r0, r1
  2e:	77 64       	ori	r23, 0x47	; 71
../../../../crt1/gcrt1.S:64
  30:	64 64       	ori	r22, 0x44	; 68
  32:	68 02       	muls	r22, r24
../../../../crt1/gcrt1.S:65
  34:	5c 14       	cp	r5, r12
  36:	03 76       	andi	r16, 0x63	; 99
../../../../crt1/gcrt1.S:66
  38:	02 a6       	std	Z+42, r0	; 0x2a
  3a:	01 01       	movw	r0, r2
../../../../crt1/gcrt1.S:67
  3c:	00 02       	muls	r16, r16
  3e:	04 01       	movw	r0, r8
../../../../crt1/gcrt1.S:68
  40:	06 9b       	sbis	0x00, 6	; 0
  42:	06 b6       	in	r0, 0x36	; 54
../../../../crt1/gcrt1.S:69
  44:	00 02       	muls	r16, r16
  46:	04 01       	movw	r0, r8
../../../../crt1/gcrt1.S:70
  48:	06 9b       	sbis	0x00, 6	; 0
  4a:	06 b6       	in	r0, 0x36	; 54
../../../../crt1/gcrt1.S:71
  4c:	00 02       	muls	r16, r16
  4e:	04 01       	movw	r0, r8
../../../../crt1/gcrt1.S:72
  50:	06 9b       	sbis	0x00, 6	; 0
  52:	06 b6       	in	r0, 0x36	; 54
../../../../crt1/gcrt1.S:73
  54:	00 02       	muls	r16, r16
  56:	04 01       	movw	r0, r8
../../../../crt1/gcrt1.S:74
  58:	06 9b       	sbis	0x00, 6	; 0
  5a:	06 03       	mulsu	r16, r22
../../../../crt1/gcrt1.S:75
  5c:	10 b7       	in	r17, 0x30	; 48
  5e:	48 08       	sbc	r4, r8
../../../../crt1/gcrt1.S:76
  60:	21 83       	std	Z+1, r18	; 0x01
  62:	81 02       	muls	r24, r17
../../../../crt1/gcrt1.S:77
  64:	06 00       	.word	0x0006	; ????
  66:	01 01       	movw	r0, r2

Disassembly of section .debug_frame:

00000000 <.debug_frame>:
../../../../crt1/gcrt1.S:52
   0:	10 00       	.word	0x0010	; ????
   2:	00 00       	nop
../../../../crt1/gcrt1.S:53
   4:	ff ff       	.word	0xffff	; ????
   6:	ff ff       	.word	0xffff	; ????
../../../../crt1/gcrt1.S:54
   8:	01 00       	.word	0x0001	; ????
   a:	01 7f       	andi	r16, 0xF1	; 241
../../../../crt1/gcrt1.S:55
   c:	24 0c       	add	r2, r4
   e:	20 02       	muls	r18, r16
../../../../crt1/gcrt1.S:56
  10:	a4 01       	movw	r20, r8
  12:	00 00       	nop
../../../../crt1/gcrt1.S:57
  14:	1c 00       	.word	0x001c	; ????
  16:	00 00       	nop
../../../../crt1/gcrt1.S:58
  18:	00 00       	nop
  1a:	00 00       	nop
../../../../crt1/gcrt1.S:59
  1c:	be 00       	.word	0x00be	; ????
  1e:	00 00       	nop
../../../../crt1/gcrt1.S:60
  20:	a0 01       	movw	r20, r0
  22:	00 00       	nop
../../../../crt1/gcrt1.S:61
  24:	42 0e       	add	r4, r18
  26:	03 9c       	mul	r0, r3
../../../../crt1/gcrt1.S:62
  28:	02 42       	sbci	r16, 0x22	; 34
  2a:	0e 04       	cpc	r0, r14
../../../../crt1/gcrt1.S:63
  2c:	9d 03       	fmulsu	r17, r21
  2e:	44 0d       	add	r20, r4
../../../../crt1/gcrt1.S:64
  30:	1c 42       	sbci	r17, 0x2C	; 44
  32:	0e 0e       	add	r0, r30
../../../../crt1/gcrt1.S:65
  34:	1c 00       	.word	0x001c	; ????
  36:	00 00       	nop
../../../../crt1/gcrt1.S:66
  38:	00 00       	nop
  3a:	00 00       	nop
../../../../crt1/gcrt1.S:67
  3c:	5e 02       	muls	r21, r30
  3e:	00 00       	nop
../../../../crt1/gcrt1.S:68
  40:	16 00       	.word	0x0016	; ????
  42:	00 00       	nop
../../../../crt1/gcrt1.S:69
  44:	42 0e       	add	r4, r18
  46:	03 9c       	mul	r0, r3
../../../../crt1/gcrt1.S:70
  48:	02 42       	sbci	r16, 0x22	; 34
  4a:	0e 04       	cpc	r0, r14
../../../../crt1/gcrt1.S:71
  4c:	9d 03       	fmulsu	r17, r21
  4e:	44 0d       	add	r20, r4
../../../../crt1/gcrt1.S:72
  50:	1c 00       	.word	0x001c	; ????
	...

Disassembly of section .debug_str:

00000000 <.debug_str>:
../../../../crt1/gcrt1.S:52
   0:	47 4e       	sbci	r20, 0xE7	; 231
   2:	55 20       	and	r5, r5
../../../../crt1/gcrt1.S:53
   4:	43 20       	and	r4, r3
   6:	34 2e       	mov	r3, r20
../../../../crt1/gcrt1.S:54
   8:	37 2e       	mov	r3, r23
   a:	32 00       	.word	0x0032	; ????
../../../../crt1/gcrt1.S:55
   c:	6e 73       	andi	r22, 0x3E	; 62
   e:	2e 63       	ori	r18, 0x3E	; 62
../../../../crt1/gcrt1.S:56
  10:	00 61       	ori	r16, 0x10	; 16
  12:	6e 73       	andi	r22, 0x3E	; 62
../../../../crt1/gcrt1.S:57
  14:	77 65       	ori	r23, 0x57	; 87
  16:	72 00       	.word	0x0072	; ????
../../../../crt1/gcrt1.S:58
  18:	6b 65       	ori	r22, 0x5B	; 91
  1a:	79 73       	andi	r23, 0x39	; 57
../../../../crt1/gcrt1.S:59
  1c:	00 73       	andi	r16, 0x30	; 48
  1e:	69 7a       	andi	r22, 0xA9	; 169
../../../../crt1/gcrt1.S:60
  20:	65 74       	andi	r22, 0x45	; 69
  22:	79 70       	andi	r23, 0x09	; 9
../../../../crt1/gcrt1.S:61
  24:	65 00       	.word	0x0065	; ????
  26:	6d 61       	ori	r22, 0x1D	; 29
../../../../crt1/gcrt1.S:62
  28:	69 6e       	ori	r22, 0xE9	; 233
  2a:	00 2f       	mov	r16, r16
../../../../crt1/gcrt1.S:63
  2c:	68 6f       	ori	r22, 0xF8	; 248
  2e:	6d 65       	ori	r22, 0x5D	; 93
../../../../crt1/gcrt1.S:64
  30:	2f 62       	ori	r18, 0x2F	; 47
  32:	65 63       	ori	r22, 0x35	; 53
../../../../crt1/gcrt1.S:65
  34:	6b 65       	ori	r22, 0x5B	; 91
  36:	72 2f       	mov	r23, r18
../../../../crt1/gcrt1.S:66
  38:	61 73       	andi	r22, 0x31	; 49
  3a:	79 6e       	ori	r23, 0xE9	; 233
../../../../crt1/gcrt1.S:67
  3c:	63 2f       	mov	r22, r19
  3e:	61 75       	andi	r22, 0x51	; 81
../../../../crt1/gcrt1.S:68
  40:	74 6f       	ori	r23, 0xF4	; 244
  42:	73 61       	ori	r23, 0x13	; 19
../../../../crt1/gcrt1.S:69
  44:	66 65       	ori	r22, 0x56	; 86
  46:	2f 74       	andi	r18, 0x4F	; 79
../../../../crt1/gcrt1.S:70
  48:	72 75       	andi	r23, 0x52	; 82
  4a:	6e 6b       	ori	r22, 0xBE	; 190
../../../../crt1/gcrt1.S:71
  4c:	2f 74       	andi	r18, 0x4F	; 79
  4e:	75 6d       	ori	r23, 0xD5	; 213
../../../../crt1/gcrt1.S:72
  50:	2f 77       	andi	r18, 0x7F	; 127
  52:	63 65       	ori	r22, 0x53	; 83
../../../../crt1/gcrt1.S:73
  54:	74 2d       	mov	r23, r4
  56:	63 62       	ori	r22, 0x23	; 35
../../../../crt1/gcrt1.S:74
  58:	6d 63       	ori	r22, 0x3D	; 61
  5a:	2f 62       	ori	r18, 0x2F	; 47
../../../../crt1/gcrt1.S:75
  5c:	65 6e       	ori	r22, 0xE5	; 229
  5e:	63 68       	ori	r22, 0x83	; 131
../../../../crt1/gcrt1.S:76
  60:	6d 61       	ori	r22, 0x1D	; 29
  62:	72 6b       	ori	r23, 0xB2	; 178
../../../../crt1/gcrt1.S:77
  64:	73 2f       	mov	r23, r19
  66:	6e 73       	andi	r22, 0x3E	; 62
	...

Disassembly of section .debug_loc:

00000000 <.debug_loc>:
../../../../crt1/gcrt1.S:52
   0:	00 00       	nop
   2:	00 00       	nop
../../../../crt1/gcrt1.S:53
   4:	02 00       	.word	0x0002	; ????
   6:	00 00       	nop
../../../../crt1/gcrt1.S:54
   8:	03 00       	.word	0x0003	; ????
   a:	92 20       	and	r9, r2
../../../../crt1/gcrt1.S:55
   c:	02 02       	muls	r16, r18
   e:	00 00       	nop
../../../../crt1/gcrt1.S:56
  10:	00 04       	cpc	r0, r0
  12:	00 00       	nop
../../../../crt1/gcrt1.S:57
  14:	00 03       	mulsu	r16, r16
  16:	00 92 20 03 	sts	0x0320, r0
../../../../crt1/gcrt1.S:58
  1a:	04 00       	.word	0x0004	; ????
../../../../crt1/gcrt1.S:59
  1c:	00 00       	nop
  1e:	08 00       	.word	0x0008	; ????
../../../../crt1/gcrt1.S:60
  20:	00 00       	nop
  22:	03 00       	.word	0x0003	; ????
../../../../crt1/gcrt1.S:61
  24:	92 20       	and	r9, r2
  26:	04 08       	sbc	r0, r4
../../../../crt1/gcrt1.S:62
  28:	00 00       	nop
  2a:	00 0a       	sbc	r0, r16
../../../../crt1/gcrt1.S:63
  2c:	00 00       	nop
  2e:	00 02       	muls	r16, r16
../../../../crt1/gcrt1.S:64
  30:	00 8c       	ldd	r0, Z+24	; 0x18
  32:	04 0a       	sbc	r0, r20
../../../../crt1/gcrt1.S:65
  34:	00 00       	nop
  36:	00 a0       	ldd	r0, Z+32	; 0x20
../../../../crt1/gcrt1.S:66
  38:	01 00       	.word	0x0001	; ????
  3a:	00 02       	muls	r16, r16
../../../../crt1/gcrt1.S:67
  3c:	00 8c       	ldd	r0, Z+24	; 0x18
  3e:	0e 00       	.word	0x000e	; ????
../../../../crt1/gcrt1.S:68
  40:	00 00       	nop
  42:	00 00       	nop
../../../../crt1/gcrt1.S:69
  44:	00 00       	nop
  46:	00 a0       	ldd	r0, Z+32	; 0x20
../../../../crt1/gcrt1.S:70
  48:	01 00       	.word	0x0001	; ????
  4a:	00 a2       	std	Z+32, r0	; 0x20
../../../../crt1/gcrt1.S:71
  4c:	01 00       	.word	0x0001	; ????
  4e:	00 03       	mulsu	r16, r16
../../../../crt1/gcrt1.S:72
  50:	00 92 20 02 	sts	0x0220, r0
../../../../crt1/gcrt1.S:73
  54:	a2 01       	movw	r20, r4
  56:	00 00       	nop
../../../../crt1/gcrt1.S:74
  58:	a4 01       	movw	r20, r8
  5a:	00 00       	nop
../../../../crt1/gcrt1.S:75
  5c:	03 00       	.word	0x0003	; ????
  5e:	92 20       	and	r9, r2
../../../../crt1/gcrt1.S:76
  60:	03 a4       	ldd	r0, Z+43	; 0x2b
  62:	01 00       	.word	0x0001	; ????
../../../../crt1/gcrt1.S:77
  64:	00 a8       	ldd	r0, Z+48	; 0x30
  66:	01 00       	.word	0x0001	; ????
../../../../crt1/gcrt1.S:78
  68:	00 03       	mulsu	r16, r16
  6a:	00 92 20 04 	sts	0x0420, r0
../../../../crt1/gcrt1.S:79
  6e:	a8 01       	movw	r20, r16
../../../../crt1/gcrt1.S:80
  70:	00 00       	nop
  72:	b6 01       	movw	r22, r12
../../../../crt1/gcrt1.S:81
  74:	00 00       	nop
  76:	02 00       	.word	0x0002	; ????
../../../../crt1/gcrt1.S:82
  78:	8c 04       	cpc	r8, r12
	...
