
main.elf:     file format elf32-avr


Disassembly of section .text:

00000000 <__vectors>:
__vectors():
../../../../crt1/gcrt1.S:52
   0:	0c 94 46 00 	jmp	0x8c	; 0x8c <__ctors_end>
../../../../crt1/gcrt1.S:53
   4:	0c 94 5d 00 	jmp	0xba	; 0xba <__bad_interrupt>
../../../../crt1/gcrt1.S:54
   8:	0c 94 5d 00 	jmp	0xba	; 0xba <__bad_interrupt>
../../../../crt1/gcrt1.S:55
   c:	0c 94 5d 00 	jmp	0xba	; 0xba <__bad_interrupt>
../../../../crt1/gcrt1.S:56
  10:	0c 94 5d 00 	jmp	0xba	; 0xba <__bad_interrupt>
../../../../crt1/gcrt1.S:57
  14:	0c 94 5d 00 	jmp	0xba	; 0xba <__bad_interrupt>
../../../../crt1/gcrt1.S:58
  18:	0c 94 5d 00 	jmp	0xba	; 0xba <__bad_interrupt>
../../../../crt1/gcrt1.S:59
  1c:	0c 94 5d 00 	jmp	0xba	; 0xba <__bad_interrupt>
../../../../crt1/gcrt1.S:60
  20:	0c 94 5d 00 	jmp	0xba	; 0xba <__bad_interrupt>
../../../../crt1/gcrt1.S:61
  24:	0c 94 5d 00 	jmp	0xba	; 0xba <__bad_interrupt>
../../../../crt1/gcrt1.S:62
  28:	0c 94 5d 00 	jmp	0xba	; 0xba <__bad_interrupt>
../../../../crt1/gcrt1.S:63
  2c:	0c 94 5d 00 	jmp	0xba	; 0xba <__bad_interrupt>
../../../../crt1/gcrt1.S:64
  30:	0c 94 5d 00 	jmp	0xba	; 0xba <__bad_interrupt>
../../../../crt1/gcrt1.S:65
  34:	0c 94 5d 00 	jmp	0xba	; 0xba <__bad_interrupt>
../../../../crt1/gcrt1.S:66
  38:	0c 94 5d 00 	jmp	0xba	; 0xba <__bad_interrupt>
../../../../crt1/gcrt1.S:67
  3c:	0c 94 5d 00 	jmp	0xba	; 0xba <__bad_interrupt>
../../../../crt1/gcrt1.S:68
  40:	0c 94 5d 00 	jmp	0xba	; 0xba <__bad_interrupt>
../../../../crt1/gcrt1.S:69
  44:	0c 94 5d 00 	jmp	0xba	; 0xba <__bad_interrupt>
../../../../crt1/gcrt1.S:70
  48:	0c 94 5d 00 	jmp	0xba	; 0xba <__bad_interrupt>
../../../../crt1/gcrt1.S:71
  4c:	0c 94 5d 00 	jmp	0xba	; 0xba <__bad_interrupt>
../../../../crt1/gcrt1.S:72
  50:	0c 94 5d 00 	jmp	0xba	; 0xba <__bad_interrupt>
../../../../crt1/gcrt1.S:73
  54:	0c 94 5d 00 	jmp	0xba	; 0xba <__bad_interrupt>
../../../../crt1/gcrt1.S:74
  58:	0c 94 5d 00 	jmp	0xba	; 0xba <__bad_interrupt>
../../../../crt1/gcrt1.S:75
  5c:	0c 94 5d 00 	jmp	0xba	; 0xba <__bad_interrupt>
../../../../crt1/gcrt1.S:76
  60:	0c 94 5d 00 	jmp	0xba	; 0xba <__bad_interrupt>
../../../../crt1/gcrt1.S:77
  64:	0c 94 5d 00 	jmp	0xba	; 0xba <__bad_interrupt>
../../../../crt1/gcrt1.S:78
  68:	0c 94 5d 00 	jmp	0xba	; 0xba <__bad_interrupt>
../../../../crt1/gcrt1.S:79
  6c:	0c 94 5d 00 	jmp	0xba	; 0xba <__bad_interrupt>
../../../../crt1/gcrt1.S:80
  70:	0c 94 5d 00 	jmp	0xba	; 0xba <__bad_interrupt>
../../../../crt1/gcrt1.S:81
  74:	0c 94 5d 00 	jmp	0xba	; 0xba <__bad_interrupt>
../../../../crt1/gcrt1.S:82
  78:	0c 94 5d 00 	jmp	0xba	; 0xba <__bad_interrupt>
../../../../crt1/gcrt1.S:83
  7c:	0c 94 5d 00 	jmp	0xba	; 0xba <__bad_interrupt>
../../../../crt1/gcrt1.S:84
  80:	0c 94 5d 00 	jmp	0xba	; 0xba <__bad_interrupt>
../../../../crt1/gcrt1.S:85
  84:	0c 94 5d 00 	jmp	0xba	; 0xba <__bad_interrupt>
../../../../crt1/gcrt1.S:86
  88:	0c 94 5d 00 	jmp	0xba	; 0xba <__bad_interrupt>

0000008c <__ctors_end>:
../../../../crt1/gcrt1.S:179
  8c:	11 24       	eor	r1, r1
  8e:	1f be       	out	0x3f, r1	; 63
  90:	cf ef       	ldi	r28, 0xFF	; 255
  92:	d0 e1       	ldi	r29, 0x10	; 16
  94:	de bf       	out	0x3e, r29	; 62
  96:	cd bf       	out	0x3d, r28	; 61

00000098 <__do_copy_data>:
  98:	1a e0       	ldi	r17, 0x0A	; 10
  9a:	a0 e0       	ldi	r26, 0x00	; 0
  9c:	b1 e0       	ldi	r27, 0x01	; 1
  9e:	e8 e7       	ldi	r30, 0x78	; 120
  a0:	f2 e0       	ldi	r31, 0x02	; 2
  a2:	00 e0       	ldi	r16, 0x00	; 0
  a4:	0b bf       	out	0x3b, r16	; 59
  a6:	02 c0       	rjmp	.+4      	; 0xac <__do_copy_data+0x14>
  a8:	07 90       	elpm	r0, Z+
  aa:	0d 92       	st	X+, r0
  ac:	a4 3c       	cpi	r26, 0xC4	; 196
  ae:	b1 07       	cpc	r27, r17
  b0:	d9 f7       	brne	.-10     	; 0xa8 <__do_copy_data+0x10>
  b2:	0e 94 2f 01 	call	0x25e	; 0x25e <main>
  b6:	0c 94 3a 01 	jmp	0x274	; 0x274 <_exit>

000000ba <__bad_interrupt>:
__bad_interrupt():
../../../../crt1/gcrt1.S:195
  ba:	0c 94 00 00 	jmp	0	; 0x0 <__vectors>

000000be <foo>:
foo():
/home/becker/async/autosafe/trunk/tum/wcet-cbmc/benchmarks/ns/ns.c:498
  be:	cf 93       	push	r28
  c0:	df 93       	push	r29
  c2:	cd b7       	in	r28, 0x3d	; 61
  c4:	de b7       	in	r29, 0x3e	; 62
  c6:	2a 97       	sbiw	r28, 0x0a	; 10
  c8:	0f b6       	in	r0, 0x3f	; 63
  ca:	f8 94       	cli
  cc:	de bf       	out	0x3e, r29	; 62
  ce:	0f be       	out	0x3f, r0	; 63
  d0:	cd bf       	out	0x3d, r28	; 61
  d2:	9a 87       	std	Y+10, r25	; 0x0a
  d4:	89 87       	std	Y+9, r24	; 0x09
/home/becker/async/autosafe/trunk/tum/wcet-cbmc/benchmarks/ns/ns.c:504
  d6:	1a 82       	std	Y+2, r1	; 0x02
  d8:	19 82       	std	Y+1, r1	; 0x01
  da:	b0 c0       	rjmp	.+352    	; 0x23c <foo+0x17e>
/home/becker/async/autosafe/trunk/tum/wcet-cbmc/benchmarks/ns/ns.c:505
  dc:	1c 82       	std	Y+4, r1	; 0x04
  de:	1b 82       	std	Y+3, r1	; 0x03
  e0:	a2 c0       	rjmp	.+324    	; 0x226 <foo+0x168>
/home/becker/async/autosafe/trunk/tum/wcet-cbmc/benchmarks/ns/ns.c:506
  e2:	1e 82       	std	Y+6, r1	; 0x06
  e4:	1d 82       	std	Y+5, r1	; 0x05
  e6:	94 c0       	rjmp	.+296    	; 0x210 <foo+0x152>
/home/becker/async/autosafe/trunk/tum/wcet-cbmc/benchmarks/ns/ns.c:507
  e8:	18 86       	std	Y+8, r1	; 0x08
  ea:	1f 82       	std	Y+7, r1	; 0x07
  ec:	86 c0       	rjmp	.+268    	; 0x1fa <foo+0x13c>
/home/becker/async/autosafe/trunk/tum/wcet-cbmc/benchmarks/ns/ns.c:512
  ee:	2d 81       	ldd	r18, Y+5	; 0x05
  f0:	3e 81       	ldd	r19, Y+6	; 0x06
  f2:	4b 81       	ldd	r20, Y+3	; 0x03
  f4:	5c 81       	ldd	r21, Y+4	; 0x04
  f6:	69 81       	ldd	r22, Y+1	; 0x01
  f8:	7a 81       	ldd	r23, Y+2	; 0x02
  fa:	c9 01       	movw	r24, r18
  fc:	88 0f       	add	r24, r24
  fe:	99 1f       	adc	r25, r25
 100:	88 0f       	add	r24, r24
 102:	99 1f       	adc	r25, r25
 104:	82 0f       	add	r24, r18
 106:	93 1f       	adc	r25, r19
 108:	ed e7       	ldi	r30, 0x7D	; 125
 10a:	e6 9f       	mul	r30, r22
 10c:	90 01       	movw	r18, r0
 10e:	e7 9f       	mul	r30, r23
 110:	30 0d       	add	r19, r0
 112:	11 24       	eor	r1, r1
 114:	28 0f       	add	r18, r24
 116:	39 1f       	adc	r19, r25
 118:	69 e1       	ldi	r22, 0x19	; 25
 11a:	64 9f       	mul	r22, r20
 11c:	c0 01       	movw	r24, r0
 11e:	65 9f       	mul	r22, r21
 120:	90 0d       	add	r25, r0
 122:	11 24       	eor	r1, r1
 124:	28 0f       	add	r18, r24
 126:	39 1f       	adc	r19, r25
 128:	8f 81       	ldd	r24, Y+7	; 0x07
 12a:	98 85       	ldd	r25, Y+8	; 0x08
 12c:	82 0f       	add	r24, r18
 12e:	93 1f       	adc	r25, r19
 130:	88 0f       	add	r24, r24
 132:	99 1f       	adc	r25, r25
 134:	80 50       	subi	r24, 0x00	; 0
 136:	9f 4f       	sbci	r25, 0xFF	; 255
 138:	fc 01       	movw	r30, r24
 13a:	20 81       	ld	r18, Z
 13c:	31 81       	ldd	r19, Z+1	; 0x01
 13e:	89 85       	ldd	r24, Y+9	; 0x09
 140:	9a 85       	ldd	r25, Y+10	; 0x0a
 142:	28 17       	cp	r18, r24
 144:	39 07       	cpc	r19, r25
 146:	09 f0       	breq	.+2      	; 0x14a <foo+0x8c>
 148:	53 c0       	rjmp	.+166    	; 0x1f0 <foo+0x132>
/home/becker/async/autosafe/trunk/tum/wcet-cbmc/benchmarks/ns/ns.c:517
 14a:	2d 81       	ldd	r18, Y+5	; 0x05
 14c:	3e 81       	ldd	r19, Y+6	; 0x06
 14e:	4b 81       	ldd	r20, Y+3	; 0x03
 150:	5c 81       	ldd	r21, Y+4	; 0x04
 152:	69 81       	ldd	r22, Y+1	; 0x01
 154:	7a 81       	ldd	r23, Y+2	; 0x02
 156:	c9 01       	movw	r24, r18
 158:	88 0f       	add	r24, r24
 15a:	99 1f       	adc	r25, r25
 15c:	88 0f       	add	r24, r24
 15e:	99 1f       	adc	r25, r25
 160:	82 0f       	add	r24, r18
 162:	93 1f       	adc	r25, r19
 164:	ed e7       	ldi	r30, 0x7D	; 125
 166:	e6 9f       	mul	r30, r22
 168:	90 01       	movw	r18, r0
 16a:	e7 9f       	mul	r30, r23
 16c:	30 0d       	add	r19, r0
 16e:	11 24       	eor	r1, r1
 170:	28 0f       	add	r18, r24
 172:	39 1f       	adc	r19, r25
 174:	69 e1       	ldi	r22, 0x19	; 25
 176:	64 9f       	mul	r22, r20
 178:	c0 01       	movw	r24, r0
 17a:	65 9f       	mul	r22, r21
 17c:	90 0d       	add	r25, r0
 17e:	11 24       	eor	r1, r1
 180:	28 0f       	add	r18, r24
 182:	39 1f       	adc	r19, r25
 184:	8f 81       	ldd	r24, Y+7	; 0x07
 186:	98 85       	ldd	r25, Y+8	; 0x08
 188:	82 0f       	add	r24, r18
 18a:	93 1f       	adc	r25, r19
 18c:	88 0f       	add	r24, r24
 18e:	99 1f       	adc	r25, r25
 190:	8e 51       	subi	r24, 0x1E	; 30
 192:	9a 4f       	sbci	r25, 0xFA	; 250
 194:	fc 01       	movw	r30, r24
 196:	40 81       	ld	r20, Z
 198:	51 81       	ldd	r21, Z+1	; 0x01
 19a:	2d 81       	ldd	r18, Y+5	; 0x05
 19c:	3e 81       	ldd	r19, Y+6	; 0x06
 19e:	6b 81       	ldd	r22, Y+3	; 0x03
 1a0:	7c 81       	ldd	r23, Y+4	; 0x04
 1a2:	e9 81       	ldd	r30, Y+1	; 0x01
 1a4:	fa 81       	ldd	r31, Y+2	; 0x02
 1a6:	c9 01       	movw	r24, r18
 1a8:	88 0f       	add	r24, r24
 1aa:	99 1f       	adc	r25, r25
 1ac:	88 0f       	add	r24, r24
 1ae:	99 1f       	adc	r25, r25
 1b0:	82 0f       	add	r24, r18
 1b2:	93 1f       	adc	r25, r19
 1b4:	ad e7       	ldi	r26, 0x7D	; 125
 1b6:	ae 9f       	mul	r26, r30
 1b8:	90 01       	movw	r18, r0
 1ba:	af 9f       	mul	r26, r31
 1bc:	30 0d       	add	r19, r0
 1be:	11 24       	eor	r1, r1
 1c0:	28 0f       	add	r18, r24
 1c2:	39 1f       	adc	r19, r25
 1c4:	e9 e1       	ldi	r30, 0x19	; 25
 1c6:	e6 9f       	mul	r30, r22
 1c8:	c0 01       	movw	r24, r0
 1ca:	e7 9f       	mul	r30, r23
 1cc:	90 0d       	add	r25, r0
 1ce:	11 24       	eor	r1, r1
 1d0:	28 0f       	add	r18, r24
 1d2:	39 1f       	adc	r19, r25
 1d4:	8f 81       	ldd	r24, Y+7	; 0x07
 1d6:	98 85       	ldd	r25, Y+8	; 0x08
 1d8:	82 0f       	add	r24, r18
 1da:	93 1f       	adc	r25, r19
 1dc:	88 0f       	add	r24, r24
 1de:	99 1f       	adc	r25, r25
 1e0:	80 50       	subi	r24, 0x00	; 0
 1e2:	9f 4f       	sbci	r25, 0xFF	; 255
 1e4:	fc 01       	movw	r30, r24
 1e6:	80 81       	ld	r24, Z
 1e8:	91 81       	ldd	r25, Z+1	; 0x01
 1ea:	84 0f       	add	r24, r20
 1ec:	95 1f       	adc	r25, r21
 1ee:	2e c0       	rjmp	.+92     	; 0x24c <foo+0x18e>
/home/becker/async/autosafe/trunk/tum/wcet-cbmc/benchmarks/ns/ns.c:507
 1f0:	8f 81       	ldd	r24, Y+7	; 0x07
 1f2:	98 85       	ldd	r25, Y+8	; 0x08
 1f4:	01 96       	adiw	r24, 0x01	; 1
 1f6:	98 87       	std	Y+8, r25	; 0x08
 1f8:	8f 83       	std	Y+7, r24	; 0x07
 1fa:	8f 81       	ldd	r24, Y+7	; 0x07
 1fc:	98 85       	ldd	r25, Y+8	; 0x08
 1fe:	85 30       	cpi	r24, 0x05	; 5
 200:	91 05       	cpc	r25, r1
 202:	0c f4       	brge	.+2      	; 0x206 <foo+0x148>
 204:	74 cf       	rjmp	.-280    	; 0xee <foo+0x30>
/home/becker/async/autosafe/trunk/tum/wcet-cbmc/benchmarks/ns/ns.c:506
 206:	8d 81       	ldd	r24, Y+5	; 0x05
 208:	9e 81       	ldd	r25, Y+6	; 0x06
 20a:	01 96       	adiw	r24, 0x01	; 1
 20c:	9e 83       	std	Y+6, r25	; 0x06
 20e:	8d 83       	std	Y+5, r24	; 0x05
 210:	8d 81       	ldd	r24, Y+5	; 0x05
 212:	9e 81       	ldd	r25, Y+6	; 0x06
 214:	85 30       	cpi	r24, 0x05	; 5
 216:	91 05       	cpc	r25, r1
 218:	0c f4       	brge	.+2      	; 0x21c <foo+0x15e>
 21a:	66 cf       	rjmp	.-308    	; 0xe8 <foo+0x2a>
/home/becker/async/autosafe/trunk/tum/wcet-cbmc/benchmarks/ns/ns.c:505
 21c:	8b 81       	ldd	r24, Y+3	; 0x03
 21e:	9c 81       	ldd	r25, Y+4	; 0x04
 220:	01 96       	adiw	r24, 0x01	; 1
 222:	9c 83       	std	Y+4, r25	; 0x04
 224:	8b 83       	std	Y+3, r24	; 0x03
 226:	8b 81       	ldd	r24, Y+3	; 0x03
 228:	9c 81       	ldd	r25, Y+4	; 0x04
 22a:	85 30       	cpi	r24, 0x05	; 5
 22c:	91 05       	cpc	r25, r1
 22e:	0c f4       	brge	.+2      	; 0x232 <foo+0x174>
 230:	58 cf       	rjmp	.-336    	; 0xe2 <foo+0x24>
/home/becker/async/autosafe/trunk/tum/wcet-cbmc/benchmarks/ns/ns.c:504
 232:	89 81       	ldd	r24, Y+1	; 0x01
 234:	9a 81       	ldd	r25, Y+2	; 0x02
 236:	01 96       	adiw	r24, 0x01	; 1
 238:	9a 83       	std	Y+2, r25	; 0x02
 23a:	89 83       	std	Y+1, r24	; 0x01
 23c:	89 81       	ldd	r24, Y+1	; 0x01
 23e:	9a 81       	ldd	r25, Y+2	; 0x02
 240:	85 30       	cpi	r24, 0x05	; 5
 242:	91 05       	cpc	r25, r1
 244:	0c f4       	brge	.+2      	; 0x248 <foo+0x18a>
 246:	4a cf       	rjmp	.-364    	; 0xdc <foo+0x1e>
/home/becker/async/autosafe/trunk/tum/wcet-cbmc/benchmarks/ns/ns.c:520
 248:	8f ef       	ldi	r24, 0xFF	; 255
 24a:	9f ef       	ldi	r25, 0xFF	; 255
/home/becker/async/autosafe/trunk/tum/wcet-cbmc/benchmarks/ns/ns.c:521
 24c:	2a 96       	adiw	r28, 0x0a	; 10
 24e:	0f b6       	in	r0, 0x3f	; 63
 250:	f8 94       	cli
 252:	de bf       	out	0x3e, r29	; 62
 254:	0f be       	out	0x3f, r0	; 63
 256:	cd bf       	out	0x3d, r28	; 61
 258:	df 91       	pop	r29
 25a:	cf 91       	pop	r28
 25c:	08 95       	ret

0000025e <main>:
main():
/home/becker/async/autosafe/trunk/tum/wcet-cbmc/benchmarks/ns/ns.c:525
 25e:	cf 93       	push	r28
 260:	df 93       	push	r29
 262:	cd b7       	in	r28, 0x3d	; 61
 264:	de b7       	in	r29, 0x3e	; 62
/home/becker/async/autosafe/trunk/tum/wcet-cbmc/benchmarks/ns/ns.c:529
 266:	80 e9       	ldi	r24, 0x90	; 144
 268:	91 e0       	ldi	r25, 0x01	; 1
 26a:	0e 94 5f 00 	call	0xbe	; 0xbe <foo>
/home/becker/async/autosafe/trunk/tum/wcet-cbmc/benchmarks/ns/ns.c:531
 26e:	df 91       	pop	r29
 270:	cf 91       	pop	r28
 272:	08 95       	ret

00000274 <_exit>:
__bad_interrupt():
../../../../crt1/gcrt1.S:195
 274:	f8 94       	cli

00000276 <__stop_program>:
 276:	ff cf       	rjmp	.-2      	; 0x276 <__stop_program>
