
main.elf:     file format elf32-avr


Disassembly of section .text:

00000000 <__vectors>:
__vectors():
../../../../crt1/gcrt1.S:52
   0:	0c 94 46 00 	jmp	0x8c	; 0x8c <__ctors_end>
../../../../crt1/gcrt1.S:53
   4:	0c 94 58 00 	jmp	0xb0	; 0xb0 <__bad_interrupt>
../../../../crt1/gcrt1.S:54
   8:	0c 94 58 00 	jmp	0xb0	; 0xb0 <__bad_interrupt>
../../../../crt1/gcrt1.S:55
   c:	0c 94 58 00 	jmp	0xb0	; 0xb0 <__bad_interrupt>
../../../../crt1/gcrt1.S:56
  10:	0c 94 58 00 	jmp	0xb0	; 0xb0 <__bad_interrupt>
../../../../crt1/gcrt1.S:57
  14:	0c 94 58 00 	jmp	0xb0	; 0xb0 <__bad_interrupt>
../../../../crt1/gcrt1.S:58
  18:	0c 94 58 00 	jmp	0xb0	; 0xb0 <__bad_interrupt>
../../../../crt1/gcrt1.S:59
  1c:	0c 94 58 00 	jmp	0xb0	; 0xb0 <__bad_interrupt>
../../../../crt1/gcrt1.S:60
  20:	0c 94 58 00 	jmp	0xb0	; 0xb0 <__bad_interrupt>
../../../../crt1/gcrt1.S:61
  24:	0c 94 58 00 	jmp	0xb0	; 0xb0 <__bad_interrupt>
../../../../crt1/gcrt1.S:62
  28:	0c 94 58 00 	jmp	0xb0	; 0xb0 <__bad_interrupt>
../../../../crt1/gcrt1.S:63
  2c:	0c 94 58 00 	jmp	0xb0	; 0xb0 <__bad_interrupt>
../../../../crt1/gcrt1.S:64
  30:	0c 94 58 00 	jmp	0xb0	; 0xb0 <__bad_interrupt>
../../../../crt1/gcrt1.S:65
  34:	0c 94 58 00 	jmp	0xb0	; 0xb0 <__bad_interrupt>
../../../../crt1/gcrt1.S:66
  38:	0c 94 58 00 	jmp	0xb0	; 0xb0 <__bad_interrupt>
../../../../crt1/gcrt1.S:67
  3c:	0c 94 58 00 	jmp	0xb0	; 0xb0 <__bad_interrupt>
../../../../crt1/gcrt1.S:68
  40:	0c 94 58 00 	jmp	0xb0	; 0xb0 <__bad_interrupt>
../../../../crt1/gcrt1.S:69
  44:	0c 94 58 00 	jmp	0xb0	; 0xb0 <__bad_interrupt>
../../../../crt1/gcrt1.S:70
  48:	0c 94 58 00 	jmp	0xb0	; 0xb0 <__bad_interrupt>
../../../../crt1/gcrt1.S:71
  4c:	0c 94 58 00 	jmp	0xb0	; 0xb0 <__bad_interrupt>
../../../../crt1/gcrt1.S:72
  50:	0c 94 58 00 	jmp	0xb0	; 0xb0 <__bad_interrupt>
../../../../crt1/gcrt1.S:73
  54:	0c 94 58 00 	jmp	0xb0	; 0xb0 <__bad_interrupt>
../../../../crt1/gcrt1.S:74
  58:	0c 94 58 00 	jmp	0xb0	; 0xb0 <__bad_interrupt>
../../../../crt1/gcrt1.S:75
  5c:	0c 94 58 00 	jmp	0xb0	; 0xb0 <__bad_interrupt>
../../../../crt1/gcrt1.S:76
  60:	0c 94 58 00 	jmp	0xb0	; 0xb0 <__bad_interrupt>
../../../../crt1/gcrt1.S:77
  64:	0c 94 58 00 	jmp	0xb0	; 0xb0 <__bad_interrupt>
../../../../crt1/gcrt1.S:78
  68:	0c 94 58 00 	jmp	0xb0	; 0xb0 <__bad_interrupt>
../../../../crt1/gcrt1.S:79
  6c:	0c 94 58 00 	jmp	0xb0	; 0xb0 <__bad_interrupt>
../../../../crt1/gcrt1.S:80
  70:	0c 94 58 00 	jmp	0xb0	; 0xb0 <__bad_interrupt>
../../../../crt1/gcrt1.S:81
  74:	0c 94 58 00 	jmp	0xb0	; 0xb0 <__bad_interrupt>
../../../../crt1/gcrt1.S:82
  78:	0c 94 58 00 	jmp	0xb0	; 0xb0 <__bad_interrupt>
../../../../crt1/gcrt1.S:83
  7c:	0c 94 58 00 	jmp	0xb0	; 0xb0 <__bad_interrupt>
../../../../crt1/gcrt1.S:84
  80:	0c 94 58 00 	jmp	0xb0	; 0xb0 <__bad_interrupt>
../../../../crt1/gcrt1.S:85
  84:	0c 94 58 00 	jmp	0xb0	; 0xb0 <__bad_interrupt>
../../../../crt1/gcrt1.S:86
  88:	0c 94 58 00 	jmp	0xb0	; 0xb0 <__bad_interrupt>

0000008c <__ctors_end>:
../../../../crt1/gcrt1.S:179
  8c:	11 24       	eor	r1, r1
  8e:	1f be       	out	0x3f, r1	; 63
  90:	cf ef       	ldi	r28, 0xFF	; 255
  92:	d0 e1       	ldi	r29, 0x10	; 16
  94:	de bf       	out	0x3e, r29	; 62
  96:	cd bf       	out	0x3d, r28	; 61

00000098 <__do_clear_bss>:
  98:	11 e0       	ldi	r17, 0x01	; 1
  9a:	a0 e0       	ldi	r26, 0x00	; 0
  9c:	b1 e0       	ldi	r27, 0x01	; 1
  9e:	01 c0       	rjmp	.+2      	; 0xa2 <.do_clear_bss_start>

000000a0 <.do_clear_bss_loop>:
  a0:	1d 92       	st	X+, r1

000000a2 <.do_clear_bss_start>:
  a2:	a6 31       	cpi	r26, 0x16	; 22
  a4:	b1 07       	cpc	r27, r17
  a6:	e1 f7       	brne	.-8      	; 0xa0 <.do_clear_bss_loop>
  a8:	0e 94 5a 00 	call	0xb4	; 0xb4 <main>
  ac:	0c 94 07 01 	jmp	0x20e	; 0x20e <_exit>

000000b0 <__bad_interrupt>:
__bad_interrupt():
../../../../crt1/gcrt1.S:195
  b0:	0c 94 00 00 	jmp	0	; 0x0 <__vectors>

000000b4 <main>:
main():
/home/becker/async/autosafe/trunk/tum/wcet-cbmc/benchmarks/insertsort/insertsort.c:55
  b4:	cf 93       	push	r28
  b6:	df 93       	push	r29
  b8:	00 d0       	rcall	.+0      	; 0xba <main+0x6>
  ba:	00 d0       	rcall	.+0      	; 0xbc <main+0x8>
  bc:	00 d0       	rcall	.+0      	; 0xbe <main+0xa>
  be:	cd b7       	in	r28, 0x3d	; 61
  c0:	de b7       	in	r29, 0x3e	; 62
/home/becker/async/autosafe/trunk/tum/wcet-cbmc/benchmarks/insertsort/insertsort.c:58
  c2:	10 92 01 01 	sts	0x0101, r1
  c6:	10 92 00 01 	sts	0x0100, r1
/home/becker/async/autosafe/trunk/tum/wcet-cbmc/benchmarks/insertsort/insertsort.c:59
  ca:	8b e0       	ldi	r24, 0x0B	; 11
  cc:	90 e0       	ldi	r25, 0x00	; 0
  ce:	90 93 03 01 	sts	0x0103, r25
  d2:	80 93 02 01 	sts	0x0102, r24
  d6:	8a e0       	ldi	r24, 0x0A	; 10
  d8:	90 e0       	ldi	r25, 0x00	; 0
  da:	90 93 05 01 	sts	0x0105, r25
  de:	80 93 04 01 	sts	0x0104, r24
  e2:	89 e0       	ldi	r24, 0x09	; 9
  e4:	90 e0       	ldi	r25, 0x00	; 0
  e6:	90 93 07 01 	sts	0x0107, r25
  ea:	80 93 06 01 	sts	0x0106, r24
  ee:	88 e0       	ldi	r24, 0x08	; 8
  f0:	90 e0       	ldi	r25, 0x00	; 0
  f2:	90 93 09 01 	sts	0x0109, r25
  f6:	80 93 08 01 	sts	0x0108, r24
  fa:	87 e0       	ldi	r24, 0x07	; 7
  fc:	90 e0       	ldi	r25, 0x00	; 0
  fe:	90 93 0b 01 	sts	0x010B, r25
 102:	80 93 0a 01 	sts	0x010A, r24
 106:	86 e0       	ldi	r24, 0x06	; 6
 108:	90 e0       	ldi	r25, 0x00	; 0
 10a:	90 93 0d 01 	sts	0x010D, r25
 10e:	80 93 0c 01 	sts	0x010C, r24
 112:	85 e0       	ldi	r24, 0x05	; 5
 114:	90 e0       	ldi	r25, 0x00	; 0
 116:	90 93 0f 01 	sts	0x010F, r25
 11a:	80 93 0e 01 	sts	0x010E, r24
/home/becker/async/autosafe/trunk/tum/wcet-cbmc/benchmarks/insertsort/insertsort.c:60
 11e:	84 e0       	ldi	r24, 0x04	; 4
 120:	90 e0       	ldi	r25, 0x00	; 0
 122:	90 93 11 01 	sts	0x0111, r25
 126:	80 93 10 01 	sts	0x0110, r24
 12a:	83 e0       	ldi	r24, 0x03	; 3
 12c:	90 e0       	ldi	r25, 0x00	; 0
 12e:	90 93 13 01 	sts	0x0113, r25
 132:	80 93 12 01 	sts	0x0112, r24
 136:	82 e0       	ldi	r24, 0x02	; 2
 138:	90 e0       	ldi	r25, 0x00	; 0
 13a:	90 93 15 01 	sts	0x0115, r25
 13e:	80 93 14 01 	sts	0x0114, r24
/home/becker/async/autosafe/trunk/tum/wcet-cbmc/benchmarks/insertsort/insertsort.c:61
 142:	82 e0       	ldi	r24, 0x02	; 2
 144:	90 e0       	ldi	r25, 0x00	; 0
 146:	9a 83       	std	Y+2, r25	; 0x02
 148:	89 83       	std	Y+1, r24	; 0x01
/home/becker/async/autosafe/trunk/tum/wcet-cbmc/benchmarks/insertsort/insertsort.c:62
 14a:	50 c0       	rjmp	.+160    	; 0x1ec <main+0x138>
/home/becker/async/autosafe/trunk/tum/wcet-cbmc/benchmarks/insertsort/insertsort.c:66
 14c:	89 81       	ldd	r24, Y+1	; 0x01
 14e:	9a 81       	ldd	r25, Y+2	; 0x02
 150:	9c 83       	std	Y+4, r25	; 0x04
 152:	8b 83       	std	Y+3, r24	; 0x03
/home/becker/async/autosafe/trunk/tum/wcet-cbmc/benchmarks/insertsort/insertsort.c:70
 154:	2f c0       	rjmp	.+94     	; 0x1b4 <main+0x100>
/home/becker/async/autosafe/trunk/tum/wcet-cbmc/benchmarks/insertsort/insertsort.c:75
 156:	8b 81       	ldd	r24, Y+3	; 0x03
 158:	9c 81       	ldd	r25, Y+4	; 0x04
 15a:	88 0f       	add	r24, r24
 15c:	99 1f       	adc	r25, r25
 15e:	80 50       	subi	r24, 0x00	; 0
 160:	9f 4f       	sbci	r25, 0xFF	; 255
 162:	fc 01       	movw	r30, r24
 164:	80 81       	ld	r24, Z
 166:	91 81       	ldd	r25, Z+1	; 0x01
 168:	9e 83       	std	Y+6, r25	; 0x06
 16a:	8d 83       	std	Y+5, r24	; 0x05
/home/becker/async/autosafe/trunk/tum/wcet-cbmc/benchmarks/insertsort/insertsort.c:76
 16c:	8b 81       	ldd	r24, Y+3	; 0x03
 16e:	9c 81       	ldd	r25, Y+4	; 0x04
 170:	01 97       	sbiw	r24, 0x01	; 1
 172:	88 0f       	add	r24, r24
 174:	99 1f       	adc	r25, r25
 176:	80 50       	subi	r24, 0x00	; 0
 178:	9f 4f       	sbci	r25, 0xFF	; 255
 17a:	fc 01       	movw	r30, r24
 17c:	20 81       	ld	r18, Z
 17e:	31 81       	ldd	r19, Z+1	; 0x01
 180:	8b 81       	ldd	r24, Y+3	; 0x03
 182:	9c 81       	ldd	r25, Y+4	; 0x04
 184:	88 0f       	add	r24, r24
 186:	99 1f       	adc	r25, r25
 188:	80 50       	subi	r24, 0x00	; 0
 18a:	9f 4f       	sbci	r25, 0xFF	; 255
 18c:	fc 01       	movw	r30, r24
 18e:	31 83       	std	Z+1, r19	; 0x01
 190:	20 83       	st	Z, r18
/home/becker/async/autosafe/trunk/tum/wcet-cbmc/benchmarks/insertsort/insertsort.c:77
 192:	8b 81       	ldd	r24, Y+3	; 0x03
 194:	9c 81       	ldd	r25, Y+4	; 0x04
 196:	01 97       	sbiw	r24, 0x01	; 1
 198:	2d 81       	ldd	r18, Y+5	; 0x05
 19a:	3e 81       	ldd	r19, Y+6	; 0x06
 19c:	88 0f       	add	r24, r24
 19e:	99 1f       	adc	r25, r25
 1a0:	80 50       	subi	r24, 0x00	; 0
 1a2:	9f 4f       	sbci	r25, 0xFF	; 255
 1a4:	fc 01       	movw	r30, r24
 1a6:	31 83       	std	Z+1, r19	; 0x01
 1a8:	20 83       	st	Z, r18
/home/becker/async/autosafe/trunk/tum/wcet-cbmc/benchmarks/insertsort/insertsort.c:78
 1aa:	8b 81       	ldd	r24, Y+3	; 0x03
 1ac:	9c 81       	ldd	r25, Y+4	; 0x04
 1ae:	01 97       	sbiw	r24, 0x01	; 1
 1b0:	9c 83       	std	Y+4, r25	; 0x04
 1b2:	8b 83       	std	Y+3, r24	; 0x03
/home/becker/async/autosafe/trunk/tum/wcet-cbmc/benchmarks/insertsort/insertsort.c:70
 1b4:	8b 81       	ldd	r24, Y+3	; 0x03
 1b6:	9c 81       	ldd	r25, Y+4	; 0x04
 1b8:	88 0f       	add	r24, r24
 1ba:	99 1f       	adc	r25, r25
 1bc:	80 50       	subi	r24, 0x00	; 0
 1be:	9f 4f       	sbci	r25, 0xFF	; 255
 1c0:	fc 01       	movw	r30, r24
 1c2:	20 81       	ld	r18, Z
 1c4:	31 81       	ldd	r19, Z+1	; 0x01
 1c6:	8b 81       	ldd	r24, Y+3	; 0x03
 1c8:	9c 81       	ldd	r25, Y+4	; 0x04
 1ca:	01 97       	sbiw	r24, 0x01	; 1
 1cc:	88 0f       	add	r24, r24
 1ce:	99 1f       	adc	r25, r25
 1d0:	80 50       	subi	r24, 0x00	; 0
 1d2:	9f 4f       	sbci	r25, 0xFF	; 255
 1d4:	fc 01       	movw	r30, r24
 1d6:	80 81       	ld	r24, Z
 1d8:	91 81       	ldd	r25, Z+1	; 0x01
 1da:	28 17       	cp	r18, r24
 1dc:	39 07       	cpc	r19, r25
 1de:	08 f4       	brcc	.+2      	; 0x1e2 <main+0x12e>
 1e0:	ba cf       	rjmp	.-140    	; 0x156 <main+0xa2>
/home/becker/async/autosafe/trunk/tum/wcet-cbmc/benchmarks/insertsort/insertsort.c:83
 1e2:	89 81       	ldd	r24, Y+1	; 0x01
 1e4:	9a 81       	ldd	r25, Y+2	; 0x02
 1e6:	01 96       	adiw	r24, 0x01	; 1
 1e8:	9a 83       	std	Y+2, r25	; 0x02
 1ea:	89 83       	std	Y+1, r24	; 0x01
/home/becker/async/autosafe/trunk/tum/wcet-cbmc/benchmarks/insertsort/insertsort.c:62
 1ec:	89 81       	ldd	r24, Y+1	; 0x01
 1ee:	9a 81       	ldd	r25, Y+2	; 0x02
 1f0:	8b 30       	cpi	r24, 0x0B	; 11
 1f2:	91 05       	cpc	r25, r1
 1f4:	0c f4       	brge	.+2      	; 0x1f8 <main+0x144>
 1f6:	aa cf       	rjmp	.-172    	; 0x14c <main+0x98>
/home/becker/async/autosafe/trunk/tum/wcet-cbmc/benchmarks/insertsort/insertsort.c:88
 1f8:	81 e0       	ldi	r24, 0x01	; 1
 1fa:	90 e0       	ldi	r25, 0x00	; 0
/home/becker/async/autosafe/trunk/tum/wcet-cbmc/benchmarks/insertsort/insertsort.c:89
 1fc:	26 96       	adiw	r28, 0x06	; 6
 1fe:	0f b6       	in	r0, 0x3f	; 63
 200:	f8 94       	cli
 202:	de bf       	out	0x3e, r29	; 62
 204:	0f be       	out	0x3f, r0	; 63
 206:	cd bf       	out	0x3d, r28	; 61
 208:	df 91       	pop	r29
 20a:	cf 91       	pop	r28
 20c:	08 95       	ret

0000020e <_exit>:
__bad_interrupt():
../../../../crt1/gcrt1.S:195
 20e:	f8 94       	cli

00000210 <__stop_program>:
 210:	ff cf       	rjmp	.-2      	; 0x210 <__stop_program>
