
main.elf:     file format elf32-avr


Disassembly of section .text:

00000000 <__vectors>:
__vectors():
../../../../crt1/gcrt1.S:52
   0:	0c 94 46 00 	jmp	0x8c	; 0x8c <__ctors_end>
../../../../crt1/gcrt1.S:53
   4:	0c 94 58 00 	jmp	0xb0	; 0xb0 <__bad_interrupt>
../../../../crt1/gcrt1.S:54
   8:	0c 94 58 00 	jmp	0xb0	; 0xb0 <__bad_interrupt>
../../../../crt1/gcrt1.S:55
   c:	0c 94 58 00 	jmp	0xb0	; 0xb0 <__bad_interrupt>
../../../../crt1/gcrt1.S:56
  10:	0c 94 58 00 	jmp	0xb0	; 0xb0 <__bad_interrupt>
../../../../crt1/gcrt1.S:57
  14:	0c 94 58 00 	jmp	0xb0	; 0xb0 <__bad_interrupt>
../../../../crt1/gcrt1.S:58
  18:	0c 94 58 00 	jmp	0xb0	; 0xb0 <__bad_interrupt>
../../../../crt1/gcrt1.S:59
  1c:	0c 94 58 00 	jmp	0xb0	; 0xb0 <__bad_interrupt>
../../../../crt1/gcrt1.S:60
  20:	0c 94 58 00 	jmp	0xb0	; 0xb0 <__bad_interrupt>
../../../../crt1/gcrt1.S:61
  24:	0c 94 58 00 	jmp	0xb0	; 0xb0 <__bad_interrupt>
../../../../crt1/gcrt1.S:62
  28:	0c 94 58 00 	jmp	0xb0	; 0xb0 <__bad_interrupt>
../../../../crt1/gcrt1.S:63
  2c:	0c 94 58 00 	jmp	0xb0	; 0xb0 <__bad_interrupt>
../../../../crt1/gcrt1.S:64
  30:	0c 94 58 00 	jmp	0xb0	; 0xb0 <__bad_interrupt>
../../../../crt1/gcrt1.S:65
  34:	0c 94 58 00 	jmp	0xb0	; 0xb0 <__bad_interrupt>
../../../../crt1/gcrt1.S:66
  38:	0c 94 58 00 	jmp	0xb0	; 0xb0 <__bad_interrupt>
../../../../crt1/gcrt1.S:67
  3c:	0c 94 58 00 	jmp	0xb0	; 0xb0 <__bad_interrupt>
../../../../crt1/gcrt1.S:68
  40:	0c 94 58 00 	jmp	0xb0	; 0xb0 <__bad_interrupt>
../../../../crt1/gcrt1.S:69
  44:	0c 94 58 00 	jmp	0xb0	; 0xb0 <__bad_interrupt>
../../../../crt1/gcrt1.S:70
  48:	0c 94 58 00 	jmp	0xb0	; 0xb0 <__bad_interrupt>
../../../../crt1/gcrt1.S:71
  4c:	0c 94 58 00 	jmp	0xb0	; 0xb0 <__bad_interrupt>
../../../../crt1/gcrt1.S:72
  50:	0c 94 58 00 	jmp	0xb0	; 0xb0 <__bad_interrupt>
../../../../crt1/gcrt1.S:73
  54:	0c 94 58 00 	jmp	0xb0	; 0xb0 <__bad_interrupt>
../../../../crt1/gcrt1.S:74
  58:	0c 94 58 00 	jmp	0xb0	; 0xb0 <__bad_interrupt>
../../../../crt1/gcrt1.S:75
  5c:	0c 94 58 00 	jmp	0xb0	; 0xb0 <__bad_interrupt>
../../../../crt1/gcrt1.S:76
  60:	0c 94 58 00 	jmp	0xb0	; 0xb0 <__bad_interrupt>
../../../../crt1/gcrt1.S:77
  64:	0c 94 58 00 	jmp	0xb0	; 0xb0 <__bad_interrupt>
../../../../crt1/gcrt1.S:78
  68:	0c 94 58 00 	jmp	0xb0	; 0xb0 <__bad_interrupt>
../../../../crt1/gcrt1.S:79
  6c:	0c 94 58 00 	jmp	0xb0	; 0xb0 <__bad_interrupt>
../../../../crt1/gcrt1.S:80
  70:	0c 94 58 00 	jmp	0xb0	; 0xb0 <__bad_interrupt>
../../../../crt1/gcrt1.S:81
  74:	0c 94 58 00 	jmp	0xb0	; 0xb0 <__bad_interrupt>
../../../../crt1/gcrt1.S:82
  78:	0c 94 58 00 	jmp	0xb0	; 0xb0 <__bad_interrupt>
../../../../crt1/gcrt1.S:83
  7c:	0c 94 58 00 	jmp	0xb0	; 0xb0 <__bad_interrupt>
../../../../crt1/gcrt1.S:84
  80:	0c 94 58 00 	jmp	0xb0	; 0xb0 <__bad_interrupt>
../../../../crt1/gcrt1.S:85
  84:	0c 94 58 00 	jmp	0xb0	; 0xb0 <__bad_interrupt>
../../../../crt1/gcrt1.S:86
  88:	0c 94 58 00 	jmp	0xb0	; 0xb0 <__bad_interrupt>

0000008c <__ctors_end>:
../../../../crt1/gcrt1.S:179
  8c:	11 24       	eor	r1, r1
  8e:	1f be       	out	0x3f, r1	; 63
  90:	cf ef       	ldi	r28, 0xFF	; 255
  92:	d0 e1       	ldi	r29, 0x10	; 16
  94:	de bf       	out	0x3e, r29	; 62
  96:	cd bf       	out	0x3d, r28	; 61

00000098 <__do_clear_bss>:
  98:	11 e0       	ldi	r17, 0x01	; 1
  9a:	a0 e0       	ldi	r26, 0x00	; 0
  9c:	b1 e0       	ldi	r27, 0x01	; 1
  9e:	01 c0       	rjmp	.+2      	; 0xa2 <.do_clear_bss_start>

000000a0 <.do_clear_bss_loop>:
  a0:	1d 92       	st	X+, r1

000000a2 <.do_clear_bss_start>:
  a2:	a0 38       	cpi	r26, 0x80	; 128
  a4:	b1 07       	cpc	r27, r17
  a6:	e1 f7       	brne	.-8      	; 0xa0 <.do_clear_bss_loop>
  a8:	0e 94 cc 04 	call	0x998	; 0x998 <main>
  ac:	0c 94 4f 05 	jmp	0xa9e	; 0xa9e <_exit>

000000b0 <__bad_interrupt>:
__bad_interrupt():
../../../../crt1/gcrt1.S:195
  b0:	0c 94 00 00 	jmp	0	; 0x0 <__vectors>

000000b4 <jpeg_fdct_islow>:
jpeg_fdct_islow():
/home/becker/async/autosafe/trunk/tum/wcet-cbmc/benchmarks/jfdctint/jfdctint.c:206
  b4:	cf 93       	push	r28
  b6:	df 93       	push	r29
  b8:	cd b7       	in	r28, 0x3d	; 61
  ba:	de b7       	in	r29, 0x3e	; 62
  bc:	a6 97       	sbiw	r28, 0x26	; 38
  be:	0f b6       	in	r0, 0x3f	; 63
  c0:	f8 94       	cli
  c2:	de bf       	out	0x3e, r29	; 62
  c4:	0f be       	out	0x3f, r0	; 63
  c6:	cd bf       	out	0x3d, r28	; 61
/home/becker/async/autosafe/trunk/tum/wcet-cbmc/benchmarks/jfdctint/jfdctint.c:218
  c8:	80 e0       	ldi	r24, 0x00	; 0
  ca:	91 e0       	ldi	r25, 0x01	; 1
  cc:	9a 83       	std	Y+2, r25	; 0x02
  ce:	89 83       	std	Y+1, r24	; 0x01
/home/becker/async/autosafe/trunk/tum/wcet-cbmc/benchmarks/jfdctint/jfdctint.c:219
  d0:	87 e0       	ldi	r24, 0x07	; 7
  d2:	90 e0       	ldi	r25, 0x00	; 0
  d4:	9c 83       	std	Y+4, r25	; 0x04
  d6:	8b 83       	std	Y+3, r24	; 0x03
  d8:	20 c2       	rjmp	.+1088   	; 0x51a <jpeg_fdct_islow+0x466>
/home/becker/async/autosafe/trunk/tum/wcet-cbmc/benchmarks/jfdctint/jfdctint.c:220
  da:	89 81       	ldd	r24, Y+1	; 0x01
  dc:	9a 81       	ldd	r25, Y+2	; 0x02
  de:	fc 01       	movw	r30, r24
  e0:	20 81       	ld	r18, Z
  e2:	31 81       	ldd	r19, Z+1	; 0x01
  e4:	89 81       	ldd	r24, Y+1	; 0x01
  e6:	9a 81       	ldd	r25, Y+2	; 0x02
  e8:	0e 96       	adiw	r24, 0x0e	; 14
  ea:	fc 01       	movw	r30, r24
  ec:	80 81       	ld	r24, Z
  ee:	91 81       	ldd	r25, Z+1	; 0x01
  f0:	82 0f       	add	r24, r18
  f2:	93 1f       	adc	r25, r19
  f4:	9e 83       	std	Y+6, r25	; 0x06
  f6:	8d 83       	std	Y+5, r24	; 0x05
/home/becker/async/autosafe/trunk/tum/wcet-cbmc/benchmarks/jfdctint/jfdctint.c:221
  f8:	89 81       	ldd	r24, Y+1	; 0x01
  fa:	9a 81       	ldd	r25, Y+2	; 0x02
  fc:	fc 01       	movw	r30, r24
  fe:	20 81       	ld	r18, Z
 100:	31 81       	ldd	r19, Z+1	; 0x01
 102:	89 81       	ldd	r24, Y+1	; 0x01
 104:	9a 81       	ldd	r25, Y+2	; 0x02
 106:	0e 96       	adiw	r24, 0x0e	; 14
 108:	fc 01       	movw	r30, r24
 10a:	80 81       	ld	r24, Z
 10c:	91 81       	ldd	r25, Z+1	; 0x01
 10e:	a9 01       	movw	r20, r18
 110:	48 1b       	sub	r20, r24
 112:	59 0b       	sbc	r21, r25
 114:	ca 01       	movw	r24, r20
 116:	98 87       	std	Y+8, r25	; 0x08
 118:	8f 83       	std	Y+7, r24	; 0x07
/home/becker/async/autosafe/trunk/tum/wcet-cbmc/benchmarks/jfdctint/jfdctint.c:222
 11a:	89 81       	ldd	r24, Y+1	; 0x01
 11c:	9a 81       	ldd	r25, Y+2	; 0x02
 11e:	02 96       	adiw	r24, 0x02	; 2
 120:	fc 01       	movw	r30, r24
 122:	20 81       	ld	r18, Z
 124:	31 81       	ldd	r19, Z+1	; 0x01
 126:	89 81       	ldd	r24, Y+1	; 0x01
 128:	9a 81       	ldd	r25, Y+2	; 0x02
 12a:	0c 96       	adiw	r24, 0x0c	; 12
 12c:	fc 01       	movw	r30, r24
 12e:	80 81       	ld	r24, Z
 130:	91 81       	ldd	r25, Z+1	; 0x01
 132:	82 0f       	add	r24, r18
 134:	93 1f       	adc	r25, r19
 136:	9a 87       	std	Y+10, r25	; 0x0a
 138:	89 87       	std	Y+9, r24	; 0x09
/home/becker/async/autosafe/trunk/tum/wcet-cbmc/benchmarks/jfdctint/jfdctint.c:223
 13a:	89 81       	ldd	r24, Y+1	; 0x01
 13c:	9a 81       	ldd	r25, Y+2	; 0x02
 13e:	02 96       	adiw	r24, 0x02	; 2
 140:	fc 01       	movw	r30, r24
 142:	20 81       	ld	r18, Z
 144:	31 81       	ldd	r19, Z+1	; 0x01
 146:	89 81       	ldd	r24, Y+1	; 0x01
 148:	9a 81       	ldd	r25, Y+2	; 0x02
 14a:	0c 96       	adiw	r24, 0x0c	; 12
 14c:	fc 01       	movw	r30, r24
 14e:	80 81       	ld	r24, Z
 150:	91 81       	ldd	r25, Z+1	; 0x01
 152:	a9 01       	movw	r20, r18
 154:	48 1b       	sub	r20, r24
 156:	59 0b       	sbc	r21, r25
 158:	ca 01       	movw	r24, r20
 15a:	9c 87       	std	Y+12, r25	; 0x0c
 15c:	8b 87       	std	Y+11, r24	; 0x0b
/home/becker/async/autosafe/trunk/tum/wcet-cbmc/benchmarks/jfdctint/jfdctint.c:224
 15e:	89 81       	ldd	r24, Y+1	; 0x01
 160:	9a 81       	ldd	r25, Y+2	; 0x02
 162:	04 96       	adiw	r24, 0x04	; 4
 164:	fc 01       	movw	r30, r24
 166:	20 81       	ld	r18, Z
 168:	31 81       	ldd	r19, Z+1	; 0x01
 16a:	89 81       	ldd	r24, Y+1	; 0x01
 16c:	9a 81       	ldd	r25, Y+2	; 0x02
 16e:	0a 96       	adiw	r24, 0x0a	; 10
 170:	fc 01       	movw	r30, r24
 172:	80 81       	ld	r24, Z
 174:	91 81       	ldd	r25, Z+1	; 0x01
 176:	82 0f       	add	r24, r18
 178:	93 1f       	adc	r25, r19
 17a:	9e 87       	std	Y+14, r25	; 0x0e
 17c:	8d 87       	std	Y+13, r24	; 0x0d
/home/becker/async/autosafe/trunk/tum/wcet-cbmc/benchmarks/jfdctint/jfdctint.c:225
 17e:	89 81       	ldd	r24, Y+1	; 0x01
 180:	9a 81       	ldd	r25, Y+2	; 0x02
 182:	04 96       	adiw	r24, 0x04	; 4
 184:	fc 01       	movw	r30, r24
 186:	20 81       	ld	r18, Z
 188:	31 81       	ldd	r19, Z+1	; 0x01
 18a:	89 81       	ldd	r24, Y+1	; 0x01
 18c:	9a 81       	ldd	r25, Y+2	; 0x02
 18e:	0a 96       	adiw	r24, 0x0a	; 10
 190:	fc 01       	movw	r30, r24
 192:	80 81       	ld	r24, Z
 194:	91 81       	ldd	r25, Z+1	; 0x01
 196:	a9 01       	movw	r20, r18
 198:	48 1b       	sub	r20, r24
 19a:	59 0b       	sbc	r21, r25
 19c:	ca 01       	movw	r24, r20
 19e:	98 8b       	std	Y+16, r25	; 0x10
 1a0:	8f 87       	std	Y+15, r24	; 0x0f
/home/becker/async/autosafe/trunk/tum/wcet-cbmc/benchmarks/jfdctint/jfdctint.c:226
 1a2:	89 81       	ldd	r24, Y+1	; 0x01
 1a4:	9a 81       	ldd	r25, Y+2	; 0x02
 1a6:	06 96       	adiw	r24, 0x06	; 6
 1a8:	fc 01       	movw	r30, r24
 1aa:	20 81       	ld	r18, Z
 1ac:	31 81       	ldd	r19, Z+1	; 0x01
 1ae:	89 81       	ldd	r24, Y+1	; 0x01
 1b0:	9a 81       	ldd	r25, Y+2	; 0x02
 1b2:	08 96       	adiw	r24, 0x08	; 8
 1b4:	fc 01       	movw	r30, r24
 1b6:	80 81       	ld	r24, Z
 1b8:	91 81       	ldd	r25, Z+1	; 0x01
 1ba:	82 0f       	add	r24, r18
 1bc:	93 1f       	adc	r25, r19
 1be:	9a 8b       	std	Y+18, r25	; 0x12
 1c0:	89 8b       	std	Y+17, r24	; 0x11
/home/becker/async/autosafe/trunk/tum/wcet-cbmc/benchmarks/jfdctint/jfdctint.c:227
 1c2:	89 81       	ldd	r24, Y+1	; 0x01
 1c4:	9a 81       	ldd	r25, Y+2	; 0x02
 1c6:	06 96       	adiw	r24, 0x06	; 6
 1c8:	fc 01       	movw	r30, r24
 1ca:	20 81       	ld	r18, Z
 1cc:	31 81       	ldd	r19, Z+1	; 0x01
 1ce:	89 81       	ldd	r24, Y+1	; 0x01
 1d0:	9a 81       	ldd	r25, Y+2	; 0x02
 1d2:	08 96       	adiw	r24, 0x08	; 8
 1d4:	fc 01       	movw	r30, r24
 1d6:	80 81       	ld	r24, Z
 1d8:	91 81       	ldd	r25, Z+1	; 0x01
 1da:	a9 01       	movw	r20, r18
 1dc:	48 1b       	sub	r20, r24
 1de:	59 0b       	sbc	r21, r25
 1e0:	ca 01       	movw	r24, r20
 1e2:	9c 8b       	std	Y+20, r25	; 0x14
 1e4:	8b 8b       	std	Y+19, r24	; 0x13
/home/becker/async/autosafe/trunk/tum/wcet-cbmc/benchmarks/jfdctint/jfdctint.c:233
 1e6:	2d 81       	ldd	r18, Y+5	; 0x05
 1e8:	3e 81       	ldd	r19, Y+6	; 0x06
 1ea:	89 89       	ldd	r24, Y+17	; 0x11
 1ec:	9a 89       	ldd	r25, Y+18	; 0x12
 1ee:	82 0f       	add	r24, r18
 1f0:	93 1f       	adc	r25, r19
 1f2:	9e 8b       	std	Y+22, r25	; 0x16
 1f4:	8d 8b       	std	Y+21, r24	; 0x15
/home/becker/async/autosafe/trunk/tum/wcet-cbmc/benchmarks/jfdctint/jfdctint.c:234
 1f6:	2d 81       	ldd	r18, Y+5	; 0x05
 1f8:	3e 81       	ldd	r19, Y+6	; 0x06
 1fa:	89 89       	ldd	r24, Y+17	; 0x11
 1fc:	9a 89       	ldd	r25, Y+18	; 0x12
 1fe:	b9 01       	movw	r22, r18
 200:	68 1b       	sub	r22, r24
 202:	79 0b       	sbc	r23, r25
 204:	cb 01       	movw	r24, r22
 206:	98 8f       	std	Y+24, r25	; 0x18
 208:	8f 8b       	std	Y+23, r24	; 0x17
/home/becker/async/autosafe/trunk/tum/wcet-cbmc/benchmarks/jfdctint/jfdctint.c:235
 20a:	29 85       	ldd	r18, Y+9	; 0x09
 20c:	3a 85       	ldd	r19, Y+10	; 0x0a
 20e:	8d 85       	ldd	r24, Y+13	; 0x0d
 210:	9e 85       	ldd	r25, Y+14	; 0x0e
 212:	82 0f       	add	r24, r18
 214:	93 1f       	adc	r25, r19
 216:	9a 8f       	std	Y+26, r25	; 0x1a
 218:	89 8f       	std	Y+25, r24	; 0x19
/home/becker/async/autosafe/trunk/tum/wcet-cbmc/benchmarks/jfdctint/jfdctint.c:236
 21a:	29 85       	ldd	r18, Y+9	; 0x09
 21c:	3a 85       	ldd	r19, Y+10	; 0x0a
 21e:	8d 85       	ldd	r24, Y+13	; 0x0d
 220:	9e 85       	ldd	r25, Y+14	; 0x0e
 222:	f9 01       	movw	r30, r18
 224:	e8 1b       	sub	r30, r24
 226:	f9 0b       	sbc	r31, r25
 228:	cf 01       	movw	r24, r30
 22a:	9c 8f       	std	Y+28, r25	; 0x1c
 22c:	8b 8f       	std	Y+27, r24	; 0x1b
/home/becker/async/autosafe/trunk/tum/wcet-cbmc/benchmarks/jfdctint/jfdctint.c:238
 22e:	2d 89       	ldd	r18, Y+21	; 0x15
 230:	3e 89       	ldd	r19, Y+22	; 0x16
 232:	89 8d       	ldd	r24, Y+25	; 0x19
 234:	9a 8d       	ldd	r25, Y+26	; 0x1a
 236:	82 0f       	add	r24, r18
 238:	93 1f       	adc	r25, r19
 23a:	9c 01       	movw	r18, r24
 23c:	22 0f       	add	r18, r18
 23e:	33 1f       	adc	r19, r19
 240:	22 0f       	add	r18, r18
 242:	33 1f       	adc	r19, r19
 244:	89 81       	ldd	r24, Y+1	; 0x01
 246:	9a 81       	ldd	r25, Y+2	; 0x02
 248:	fc 01       	movw	r30, r24
 24a:	31 83       	std	Z+1, r19	; 0x01
 24c:	20 83       	st	Z, r18
/home/becker/async/autosafe/trunk/tum/wcet-cbmc/benchmarks/jfdctint/jfdctint.c:239
 24e:	89 81       	ldd	r24, Y+1	; 0x01
 250:	9a 81       	ldd	r25, Y+2	; 0x02
 252:	08 96       	adiw	r24, 0x08	; 8
 254:	4d 89       	ldd	r20, Y+21	; 0x15
 256:	5e 89       	ldd	r21, Y+22	; 0x16
 258:	29 8d       	ldd	r18, Y+25	; 0x19
 25a:	3a 8d       	ldd	r19, Y+26	; 0x1a
 25c:	ba 01       	movw	r22, r20
 25e:	62 1b       	sub	r22, r18
 260:	73 0b       	sbc	r23, r19
 262:	9b 01       	movw	r18, r22
 264:	22 0f       	add	r18, r18
 266:	33 1f       	adc	r19, r19
 268:	22 0f       	add	r18, r18
 26a:	33 1f       	adc	r19, r19
 26c:	fc 01       	movw	r30, r24
 26e:	31 83       	std	Z+1, r19	; 0x01
 270:	20 83       	st	Z, r18
/home/becker/async/autosafe/trunk/tum/wcet-cbmc/benchmarks/jfdctint/jfdctint.c:241
 272:	2b 8d       	ldd	r18, Y+27	; 0x1b
 274:	3c 8d       	ldd	r19, Y+28	; 0x1c
 276:	8f 89       	ldd	r24, Y+23	; 0x17
 278:	98 8d       	ldd	r25, Y+24	; 0x18
 27a:	a9 01       	movw	r20, r18
 27c:	48 0f       	add	r20, r24
 27e:	59 1f       	adc	r21, r25
 280:	21 e5       	ldi	r18, 0x51	; 81
 282:	31 e1       	ldi	r19, 0x11	; 17
 284:	42 9f       	mul	r20, r18
 286:	c0 01       	movw	r24, r0
 288:	43 9f       	mul	r20, r19
 28a:	90 0d       	add	r25, r0
 28c:	52 9f       	mul	r21, r18
 28e:	90 0d       	add	r25, r0
 290:	11 24       	eor	r1, r1
 292:	9e 8f       	std	Y+30, r25	; 0x1e
 294:	8d 8f       	std	Y+29, r24	; 0x1d
/home/becker/async/autosafe/trunk/tum/wcet-cbmc/benchmarks/jfdctint/jfdctint.c:242
 296:	89 81       	ldd	r24, Y+1	; 0x01
 298:	9a 81       	ldd	r25, Y+2	; 0x02
 29a:	04 96       	adiw	r24, 0x04	; 4
 29c:	6f 89       	ldd	r22, Y+23	; 0x17
 29e:	78 8d       	ldd	r23, Y+24	; 0x18
 2a0:	2e e7       	ldi	r18, 0x7E	; 126
 2a2:	38 e1       	ldi	r19, 0x18	; 24
 2a4:	62 9f       	mul	r22, r18
 2a6:	a0 01       	movw	r20, r0
 2a8:	63 9f       	mul	r22, r19
 2aa:	50 0d       	add	r21, r0
 2ac:	72 9f       	mul	r23, r18
 2ae:	50 0d       	add	r21, r0
 2b0:	11 24       	eor	r1, r1
 2b2:	2d 8d       	ldd	r18, Y+29	; 0x1d
 2b4:	3e 8d       	ldd	r19, Y+30	; 0x1e
 2b6:	24 0f       	add	r18, r20
 2b8:	35 1f       	adc	r19, r21
 2ba:	3c 5f       	subi	r19, 0xFC	; 252
 2bc:	20 e2       	ldi	r18, 0x20	; 32
 2be:	32 02       	muls	r19, r18
 2c0:	21 2d       	mov	r18, r1
 2c2:	33 0b       	sbc	r19, r19
 2c4:	11 24       	eor	r1, r1
 2c6:	fc 01       	movw	r30, r24
 2c8:	31 83       	std	Z+1, r19	; 0x01
 2ca:	20 83       	st	Z, r18
/home/becker/async/autosafe/trunk/tum/wcet-cbmc/benchmarks/jfdctint/jfdctint.c:244
 2cc:	89 81       	ldd	r24, Y+1	; 0x01
 2ce:	9a 81       	ldd	r25, Y+2	; 0x02
 2d0:	0c 96       	adiw	r24, 0x0c	; 12
 2d2:	6b 8d       	ldd	r22, Y+27	; 0x1b
 2d4:	7c 8d       	ldd	r23, Y+28	; 0x1c
 2d6:	2f ed       	ldi	r18, 0xDF	; 223
 2d8:	34 ec       	ldi	r19, 0xC4	; 196
 2da:	62 9f       	mul	r22, r18
 2dc:	a0 01       	movw	r20, r0
 2de:	63 9f       	mul	r22, r19
 2e0:	50 0d       	add	r21, r0
 2e2:	72 9f       	mul	r23, r18
 2e4:	50 0d       	add	r21, r0
 2e6:	11 24       	eor	r1, r1
 2e8:	2d 8d       	ldd	r18, Y+29	; 0x1d
 2ea:	3e 8d       	ldd	r19, Y+30	; 0x1e
 2ec:	24 0f       	add	r18, r20
 2ee:	35 1f       	adc	r19, r21
 2f0:	3c 5f       	subi	r19, 0xFC	; 252
 2f2:	20 e2       	ldi	r18, 0x20	; 32
 2f4:	32 02       	muls	r19, r18
 2f6:	21 2d       	mov	r18, r1
 2f8:	33 0b       	sbc	r19, r19
 2fa:	11 24       	eor	r1, r1
 2fc:	fc 01       	movw	r30, r24
 2fe:	31 83       	std	Z+1, r19	; 0x01
 300:	20 83       	st	Z, r18
/home/becker/async/autosafe/trunk/tum/wcet-cbmc/benchmarks/jfdctint/jfdctint.c:252
 302:	2b 89       	ldd	r18, Y+19	; 0x13
 304:	3c 89       	ldd	r19, Y+20	; 0x14
 306:	8f 81       	ldd	r24, Y+7	; 0x07
 308:	98 85       	ldd	r25, Y+8	; 0x08
 30a:	82 0f       	add	r24, r18
 30c:	93 1f       	adc	r25, r19
 30e:	9e 8f       	std	Y+30, r25	; 0x1e
 310:	8d 8f       	std	Y+29, r24	; 0x1d
/home/becker/async/autosafe/trunk/tum/wcet-cbmc/benchmarks/jfdctint/jfdctint.c:253
 312:	2f 85       	ldd	r18, Y+15	; 0x0f
 314:	38 89       	ldd	r19, Y+16	; 0x10
 316:	8b 85       	ldd	r24, Y+11	; 0x0b
 318:	9c 85       	ldd	r25, Y+12	; 0x0c
 31a:	82 0f       	add	r24, r18
 31c:	93 1f       	adc	r25, r19
 31e:	98 a3       	std	Y+32, r25	; 0x20
 320:	8f 8f       	std	Y+31, r24	; 0x1f
/home/becker/async/autosafe/trunk/tum/wcet-cbmc/benchmarks/jfdctint/jfdctint.c:254
 322:	2b 89       	ldd	r18, Y+19	; 0x13
 324:	3c 89       	ldd	r19, Y+20	; 0x14
 326:	8b 85       	ldd	r24, Y+11	; 0x0b
 328:	9c 85       	ldd	r25, Y+12	; 0x0c
 32a:	82 0f       	add	r24, r18
 32c:	93 1f       	adc	r25, r19
 32e:	9a a3       	std	Y+34, r25	; 0x22
 330:	89 a3       	std	Y+33, r24	; 0x21
/home/becker/async/autosafe/trunk/tum/wcet-cbmc/benchmarks/jfdctint/jfdctint.c:255
 332:	2f 85       	ldd	r18, Y+15	; 0x0f
 334:	38 89       	ldd	r19, Y+16	; 0x10
 336:	8f 81       	ldd	r24, Y+7	; 0x07
 338:	98 85       	ldd	r25, Y+8	; 0x08
 33a:	82 0f       	add	r24, r18
 33c:	93 1f       	adc	r25, r19
 33e:	9c a3       	std	Y+36, r25	; 0x24
 340:	8b a3       	std	Y+35, r24	; 0x23
/home/becker/async/autosafe/trunk/tum/wcet-cbmc/benchmarks/jfdctint/jfdctint.c:256
 342:	29 a1       	ldd	r18, Y+33	; 0x21
 344:	3a a1       	ldd	r19, Y+34	; 0x22
 346:	8b a1       	ldd	r24, Y+35	; 0x23
 348:	9c a1       	ldd	r25, Y+36	; 0x24
 34a:	a9 01       	movw	r20, r18
 34c:	48 0f       	add	r20, r24
 34e:	59 1f       	adc	r21, r25
 350:	21 ea       	ldi	r18, 0xA1	; 161
 352:	35 e2       	ldi	r19, 0x25	; 37
 354:	42 9f       	mul	r20, r18
 356:	c0 01       	movw	r24, r0
 358:	43 9f       	mul	r20, r19
 35a:	90 0d       	add	r25, r0
 35c:	52 9f       	mul	r21, r18
 35e:	90 0d       	add	r25, r0
 360:	11 24       	eor	r1, r1
 362:	9e a3       	std	Y+38, r25	; 0x26
 364:	8d a3       	std	Y+37, r24	; 0x25
/home/becker/async/autosafe/trunk/tum/wcet-cbmc/benchmarks/jfdctint/jfdctint.c:258
 366:	4b 89       	ldd	r20, Y+19	; 0x13
 368:	5c 89       	ldd	r21, Y+20	; 0x14
 36a:	2e e8       	ldi	r18, 0x8E	; 142
 36c:	39 e0       	ldi	r19, 0x09	; 9
 36e:	42 9f       	mul	r20, r18
 370:	c0 01       	movw	r24, r0
 372:	43 9f       	mul	r20, r19
 374:	90 0d       	add	r25, r0
 376:	52 9f       	mul	r21, r18
 378:	90 0d       	add	r25, r0
 37a:	11 24       	eor	r1, r1
 37c:	9c 8b       	std	Y+20, r25	; 0x14
 37e:	8b 8b       	std	Y+19, r24	; 0x13
/home/becker/async/autosafe/trunk/tum/wcet-cbmc/benchmarks/jfdctint/jfdctint.c:259
 380:	4f 85       	ldd	r20, Y+15	; 0x0f
 382:	58 89       	ldd	r21, Y+16	; 0x10
 384:	23 eb       	ldi	r18, 0xB3	; 179
 386:	31 e4       	ldi	r19, 0x41	; 65
 388:	42 9f       	mul	r20, r18
 38a:	c0 01       	movw	r24, r0
 38c:	43 9f       	mul	r20, r19
 38e:	90 0d       	add	r25, r0
 390:	52 9f       	mul	r21, r18
 392:	90 0d       	add	r25, r0
 394:	11 24       	eor	r1, r1
 396:	98 8b       	std	Y+16, r25	; 0x10
 398:	8f 87       	std	Y+15, r24	; 0x0f
/home/becker/async/autosafe/trunk/tum/wcet-cbmc/benchmarks/jfdctint/jfdctint.c:260
 39a:	4b 85       	ldd	r20, Y+11	; 0x0b
 39c:	5c 85       	ldd	r21, Y+12	; 0x0c
 39e:	24 e5       	ldi	r18, 0x54	; 84
 3a0:	32 e6       	ldi	r19, 0x62	; 98
 3a2:	42 9f       	mul	r20, r18
 3a4:	c0 01       	movw	r24, r0
 3a6:	43 9f       	mul	r20, r19
 3a8:	90 0d       	add	r25, r0
 3aa:	52 9f       	mul	r21, r18
 3ac:	90 0d       	add	r25, r0
 3ae:	11 24       	eor	r1, r1
 3b0:	9c 87       	std	Y+12, r25	; 0x0c
 3b2:	8b 87       	std	Y+11, r24	; 0x0b
/home/becker/async/autosafe/trunk/tum/wcet-cbmc/benchmarks/jfdctint/jfdctint.c:261
 3b4:	4f 81       	ldd	r20, Y+7	; 0x07
 3b6:	58 85       	ldd	r21, Y+8	; 0x08
 3b8:	2b e0       	ldi	r18, 0x0B	; 11
 3ba:	30 e3       	ldi	r19, 0x30	; 48
 3bc:	42 9f       	mul	r20, r18
 3be:	c0 01       	movw	r24, r0
 3c0:	43 9f       	mul	r20, r19
 3c2:	90 0d       	add	r25, r0
 3c4:	52 9f       	mul	r21, r18
 3c6:	90 0d       	add	r25, r0
 3c8:	11 24       	eor	r1, r1
 3ca:	98 87       	std	Y+8, r25	; 0x08
 3cc:	8f 83       	std	Y+7, r24	; 0x07
/home/becker/async/autosafe/trunk/tum/wcet-cbmc/benchmarks/jfdctint/jfdctint.c:262
 3ce:	4d 8d       	ldd	r20, Y+29	; 0x1d
 3d0:	5e 8d       	ldd	r21, Y+30	; 0x1e
 3d2:	23 e3       	ldi	r18, 0x33	; 51
 3d4:	33 ee       	ldi	r19, 0xE3	; 227
 3d6:	42 9f       	mul	r20, r18
 3d8:	c0 01       	movw	r24, r0
 3da:	43 9f       	mul	r20, r19
 3dc:	90 0d       	add	r25, r0
 3de:	52 9f       	mul	r21, r18
 3e0:	90 0d       	add	r25, r0
 3e2:	11 24       	eor	r1, r1
 3e4:	9e 8f       	std	Y+30, r25	; 0x1e
 3e6:	8d 8f       	std	Y+29, r24	; 0x1d
/home/becker/async/autosafe/trunk/tum/wcet-cbmc/benchmarks/jfdctint/jfdctint.c:263
 3e8:	4f 8d       	ldd	r20, Y+31	; 0x1f
 3ea:	58 a1       	ldd	r21, Y+32	; 0x20
 3ec:	2d ef       	ldi	r18, 0xFD	; 253
 3ee:	3d ea       	ldi	r19, 0xAD	; 173
 3f0:	42 9f       	mul	r20, r18
 3f2:	c0 01       	movw	r24, r0
 3f4:	43 9f       	mul	r20, r19
 3f6:	90 0d       	add	r25, r0
 3f8:	52 9f       	mul	r21, r18
 3fa:	90 0d       	add	r25, r0
 3fc:	11 24       	eor	r1, r1
 3fe:	98 a3       	std	Y+32, r25	; 0x20
 400:	8f 8f       	std	Y+31, r24	; 0x1f
/home/becker/async/autosafe/trunk/tum/wcet-cbmc/benchmarks/jfdctint/jfdctint.c:264
 402:	49 a1       	ldd	r20, Y+33	; 0x21
 404:	5a a1       	ldd	r21, Y+34	; 0x22
 406:	2b e3       	ldi	r18, 0x3B	; 59
 408:	31 ec       	ldi	r19, 0xC1	; 193
 40a:	42 9f       	mul	r20, r18
 40c:	c0 01       	movw	r24, r0
 40e:	43 9f       	mul	r20, r19
 410:	90 0d       	add	r25, r0
 412:	52 9f       	mul	r21, r18
 414:	90 0d       	add	r25, r0
 416:	11 24       	eor	r1, r1
 418:	9a a3       	std	Y+34, r25	; 0x22
 41a:	89 a3       	std	Y+33, r24	; 0x21
/home/becker/async/autosafe/trunk/tum/wcet-cbmc/benchmarks/jfdctint/jfdctint.c:265
 41c:	4b a1       	ldd	r20, Y+35	; 0x23
 41e:	5c a1       	ldd	r21, Y+36	; 0x24
 420:	24 e8       	ldi	r18, 0x84	; 132
 422:	33 ef       	ldi	r19, 0xF3	; 243
 424:	42 9f       	mul	r20, r18
 426:	c0 01       	movw	r24, r0
 428:	43 9f       	mul	r20, r19
 42a:	90 0d       	add	r25, r0
 42c:	52 9f       	mul	r21, r18
 42e:	90 0d       	add	r25, r0
 430:	11 24       	eor	r1, r1
 432:	9c a3       	std	Y+36, r25	; 0x24
 434:	8b a3       	std	Y+35, r24	; 0x23
/home/becker/async/autosafe/trunk/tum/wcet-cbmc/benchmarks/jfdctint/jfdctint.c:267
 436:	29 a1       	ldd	r18, Y+33	; 0x21
 438:	3a a1       	ldd	r19, Y+34	; 0x22
 43a:	8d a1       	ldd	r24, Y+37	; 0x25
 43c:	9e a1       	ldd	r25, Y+38	; 0x26
 43e:	82 0f       	add	r24, r18
 440:	93 1f       	adc	r25, r19
 442:	9a a3       	std	Y+34, r25	; 0x22
 444:	89 a3       	std	Y+33, r24	; 0x21
/home/becker/async/autosafe/trunk/tum/wcet-cbmc/benchmarks/jfdctint/jfdctint.c:268
 446:	2b a1       	ldd	r18, Y+35	; 0x23
 448:	3c a1       	ldd	r19, Y+36	; 0x24
 44a:	8d a1       	ldd	r24, Y+37	; 0x25
 44c:	9e a1       	ldd	r25, Y+38	; 0x26
 44e:	82 0f       	add	r24, r18
 450:	93 1f       	adc	r25, r19
 452:	9c a3       	std	Y+36, r25	; 0x24
 454:	8b a3       	std	Y+35, r24	; 0x23
/home/becker/async/autosafe/trunk/tum/wcet-cbmc/benchmarks/jfdctint/jfdctint.c:270
 456:	89 81       	ldd	r24, Y+1	; 0x01
 458:	9a 81       	ldd	r25, Y+2	; 0x02
 45a:	0e 96       	adiw	r24, 0x0e	; 14
 45c:	4b 89       	ldd	r20, Y+19	; 0x13
 45e:	5c 89       	ldd	r21, Y+20	; 0x14
 460:	2d 8d       	ldd	r18, Y+29	; 0x1d
 462:	3e 8d       	ldd	r19, Y+30	; 0x1e
 464:	42 0f       	add	r20, r18
 466:	53 1f       	adc	r21, r19
 468:	29 a1       	ldd	r18, Y+33	; 0x21
 46a:	3a a1       	ldd	r19, Y+34	; 0x22
 46c:	24 0f       	add	r18, r20
 46e:	35 1f       	adc	r19, r21
 470:	3c 5f       	subi	r19, 0xFC	; 252
 472:	20 e2       	ldi	r18, 0x20	; 32
 474:	32 02       	muls	r19, r18
 476:	21 2d       	mov	r18, r1
 478:	33 0b       	sbc	r19, r19
 47a:	11 24       	eor	r1, r1
 47c:	fc 01       	movw	r30, r24
 47e:	31 83       	std	Z+1, r19	; 0x01
 480:	20 83       	st	Z, r18
/home/becker/async/autosafe/trunk/tum/wcet-cbmc/benchmarks/jfdctint/jfdctint.c:271
 482:	89 81       	ldd	r24, Y+1	; 0x01
 484:	9a 81       	ldd	r25, Y+2	; 0x02
 486:	0a 96       	adiw	r24, 0x0a	; 10
 488:	4f 85       	ldd	r20, Y+15	; 0x0f
 48a:	58 89       	ldd	r21, Y+16	; 0x10
 48c:	2f 8d       	ldd	r18, Y+31	; 0x1f
 48e:	38 a1       	ldd	r19, Y+32	; 0x20
 490:	42 0f       	add	r20, r18
 492:	53 1f       	adc	r21, r19
 494:	2b a1       	ldd	r18, Y+35	; 0x23
 496:	3c a1       	ldd	r19, Y+36	; 0x24
 498:	24 0f       	add	r18, r20
 49a:	35 1f       	adc	r19, r21
 49c:	3c 5f       	subi	r19, 0xFC	; 252
 49e:	20 e2       	ldi	r18, 0x20	; 32
 4a0:	32 02       	muls	r19, r18
 4a2:	21 2d       	mov	r18, r1
 4a4:	33 0b       	sbc	r19, r19
 4a6:	11 24       	eor	r1, r1
 4a8:	fc 01       	movw	r30, r24
 4aa:	31 83       	std	Z+1, r19	; 0x01
 4ac:	20 83       	st	Z, r18
/home/becker/async/autosafe/trunk/tum/wcet-cbmc/benchmarks/jfdctint/jfdctint.c:272
 4ae:	89 81       	ldd	r24, Y+1	; 0x01
 4b0:	9a 81       	ldd	r25, Y+2	; 0x02
 4b2:	06 96       	adiw	r24, 0x06	; 6
 4b4:	4b 85       	ldd	r20, Y+11	; 0x0b
 4b6:	5c 85       	ldd	r21, Y+12	; 0x0c
 4b8:	2f 8d       	ldd	r18, Y+31	; 0x1f
 4ba:	38 a1       	ldd	r19, Y+32	; 0x20
 4bc:	42 0f       	add	r20, r18
 4be:	53 1f       	adc	r21, r19
 4c0:	29 a1       	ldd	r18, Y+33	; 0x21
 4c2:	3a a1       	ldd	r19, Y+34	; 0x22
 4c4:	24 0f       	add	r18, r20
 4c6:	35 1f       	adc	r19, r21
 4c8:	3c 5f       	subi	r19, 0xFC	; 252
 4ca:	20 e2       	ldi	r18, 0x20	; 32
 4cc:	32 02       	muls	r19, r18
 4ce:	21 2d       	mov	r18, r1
 4d0:	33 0b       	sbc	r19, r19
 4d2:	11 24       	eor	r1, r1
 4d4:	fc 01       	movw	r30, r24
 4d6:	31 83       	std	Z+1, r19	; 0x01
 4d8:	20 83       	st	Z, r18
/home/becker/async/autosafe/trunk/tum/wcet-cbmc/benchmarks/jfdctint/jfdctint.c:273
 4da:	89 81       	ldd	r24, Y+1	; 0x01
 4dc:	9a 81       	ldd	r25, Y+2	; 0x02
 4de:	02 96       	adiw	r24, 0x02	; 2
 4e0:	4f 81       	ldd	r20, Y+7	; 0x07
 4e2:	58 85       	ldd	r21, Y+8	; 0x08
 4e4:	2d 8d       	ldd	r18, Y+29	; 0x1d
 4e6:	3e 8d       	ldd	r19, Y+30	; 0x1e
 4e8:	42 0f       	add	r20, r18
 4ea:	53 1f       	adc	r21, r19
 4ec:	2b a1       	ldd	r18, Y+35	; 0x23
 4ee:	3c a1       	ldd	r19, Y+36	; 0x24
 4f0:	24 0f       	add	r18, r20
 4f2:	35 1f       	adc	r19, r21
 4f4:	3c 5f       	subi	r19, 0xFC	; 252
 4f6:	20 e2       	ldi	r18, 0x20	; 32
 4f8:	32 02       	muls	r19, r18
 4fa:	21 2d       	mov	r18, r1
 4fc:	33 0b       	sbc	r19, r19
 4fe:	11 24       	eor	r1, r1
 500:	fc 01       	movw	r30, r24
 502:	31 83       	std	Z+1, r19	; 0x01
 504:	20 83       	st	Z, r18
/home/becker/async/autosafe/trunk/tum/wcet-cbmc/benchmarks/jfdctint/jfdctint.c:275
 506:	89 81       	ldd	r24, Y+1	; 0x01
 508:	9a 81       	ldd	r25, Y+2	; 0x02
 50a:	40 96       	adiw	r24, 0x10	; 16
 50c:	9a 83       	std	Y+2, r25	; 0x02
 50e:	89 83       	std	Y+1, r24	; 0x01
/home/becker/async/autosafe/trunk/tum/wcet-cbmc/benchmarks/jfdctint/jfdctint.c:219
 510:	8b 81       	ldd	r24, Y+3	; 0x03
 512:	9c 81       	ldd	r25, Y+4	; 0x04
 514:	01 97       	sbiw	r24, 0x01	; 1
 516:	9c 83       	std	Y+4, r25	; 0x04
 518:	8b 83       	std	Y+3, r24	; 0x03
 51a:	8b 81       	ldd	r24, Y+3	; 0x03
 51c:	9c 81       	ldd	r25, Y+4	; 0x04
 51e:	99 23       	and	r25, r25
 520:	0c f0       	brlt	.+2      	; 0x524 <jpeg_fdct_islow+0x470>
 522:	db cd       	rjmp	.-1098   	; 0xda <jpeg_fdct_islow+0x26>
/home/becker/async/autosafe/trunk/tum/wcet-cbmc/benchmarks/jfdctint/jfdctint.c:283
 524:	80 e0       	ldi	r24, 0x00	; 0
 526:	91 e0       	ldi	r25, 0x01	; 1
 528:	9a 83       	std	Y+2, r25	; 0x02
 52a:	89 83       	std	Y+1, r24	; 0x01
/home/becker/async/autosafe/trunk/tum/wcet-cbmc/benchmarks/jfdctint/jfdctint.c:284
 52c:	87 e0       	ldi	r24, 0x07	; 7
 52e:	90 e0       	ldi	r25, 0x00	; 0
 530:	9c 83       	std	Y+4, r25	; 0x04
 532:	8b 83       	std	Y+3, r24	; 0x03
 534:	23 c2       	rjmp	.+1094   	; 0x97c <jpeg_fdct_islow+0x8c8>
/home/becker/async/autosafe/trunk/tum/wcet-cbmc/benchmarks/jfdctint/jfdctint.c:285
 536:	89 81       	ldd	r24, Y+1	; 0x01
 538:	9a 81       	ldd	r25, Y+2	; 0x02
 53a:	fc 01       	movw	r30, r24
 53c:	20 81       	ld	r18, Z
 53e:	31 81       	ldd	r19, Z+1	; 0x01
 540:	89 81       	ldd	r24, Y+1	; 0x01
 542:	9a 81       	ldd	r25, Y+2	; 0x02
 544:	80 59       	subi	r24, 0x90	; 144
 546:	9f 4f       	sbci	r25, 0xFF	; 255
 548:	fc 01       	movw	r30, r24
 54a:	80 81       	ld	r24, Z
 54c:	91 81       	ldd	r25, Z+1	; 0x01
 54e:	82 0f       	add	r24, r18
 550:	93 1f       	adc	r25, r19
 552:	9e 83       	std	Y+6, r25	; 0x06
 554:	8d 83       	std	Y+5, r24	; 0x05
/home/becker/async/autosafe/trunk/tum/wcet-cbmc/benchmarks/jfdctint/jfdctint.c:286
 556:	89 81       	ldd	r24, Y+1	; 0x01
 558:	9a 81       	ldd	r25, Y+2	; 0x02
 55a:	fc 01       	movw	r30, r24
 55c:	20 81       	ld	r18, Z
 55e:	31 81       	ldd	r19, Z+1	; 0x01
 560:	89 81       	ldd	r24, Y+1	; 0x01
 562:	9a 81       	ldd	r25, Y+2	; 0x02
 564:	80 59       	subi	r24, 0x90	; 144
 566:	9f 4f       	sbci	r25, 0xFF	; 255
 568:	fc 01       	movw	r30, r24
 56a:	80 81       	ld	r24, Z
 56c:	91 81       	ldd	r25, Z+1	; 0x01
 56e:	a9 01       	movw	r20, r18
 570:	48 1b       	sub	r20, r24
 572:	59 0b       	sbc	r21, r25
 574:	ca 01       	movw	r24, r20
 576:	98 87       	std	Y+8, r25	; 0x08
 578:	8f 83       	std	Y+7, r24	; 0x07
/home/becker/async/autosafe/trunk/tum/wcet-cbmc/benchmarks/jfdctint/jfdctint.c:287
 57a:	89 81       	ldd	r24, Y+1	; 0x01
 57c:	9a 81       	ldd	r25, Y+2	; 0x02
 57e:	40 96       	adiw	r24, 0x10	; 16
 580:	fc 01       	movw	r30, r24
 582:	20 81       	ld	r18, Z
 584:	31 81       	ldd	r19, Z+1	; 0x01
 586:	89 81       	ldd	r24, Y+1	; 0x01
 588:	9a 81       	ldd	r25, Y+2	; 0x02
 58a:	80 5a       	subi	r24, 0xA0	; 160
 58c:	9f 4f       	sbci	r25, 0xFF	; 255
 58e:	fc 01       	movw	r30, r24
 590:	80 81       	ld	r24, Z
 592:	91 81       	ldd	r25, Z+1	; 0x01
 594:	82 0f       	add	r24, r18
 596:	93 1f       	adc	r25, r19
 598:	9a 87       	std	Y+10, r25	; 0x0a
 59a:	89 87       	std	Y+9, r24	; 0x09
/home/becker/async/autosafe/trunk/tum/wcet-cbmc/benchmarks/jfdctint/jfdctint.c:288
 59c:	89 81       	ldd	r24, Y+1	; 0x01
 59e:	9a 81       	ldd	r25, Y+2	; 0x02
 5a0:	40 96       	adiw	r24, 0x10	; 16
 5a2:	fc 01       	movw	r30, r24
 5a4:	20 81       	ld	r18, Z
 5a6:	31 81       	ldd	r19, Z+1	; 0x01
 5a8:	89 81       	ldd	r24, Y+1	; 0x01
 5aa:	9a 81       	ldd	r25, Y+2	; 0x02
 5ac:	80 5a       	subi	r24, 0xA0	; 160
 5ae:	9f 4f       	sbci	r25, 0xFF	; 255
 5b0:	fc 01       	movw	r30, r24
 5b2:	80 81       	ld	r24, Z
 5b4:	91 81       	ldd	r25, Z+1	; 0x01
 5b6:	a9 01       	movw	r20, r18
 5b8:	48 1b       	sub	r20, r24
 5ba:	59 0b       	sbc	r21, r25
 5bc:	ca 01       	movw	r24, r20
 5be:	9c 87       	std	Y+12, r25	; 0x0c
 5c0:	8b 87       	std	Y+11, r24	; 0x0b
/home/becker/async/autosafe/trunk/tum/wcet-cbmc/benchmarks/jfdctint/jfdctint.c:289
 5c2:	89 81       	ldd	r24, Y+1	; 0x01
 5c4:	9a 81       	ldd	r25, Y+2	; 0x02
 5c6:	80 96       	adiw	r24, 0x20	; 32
 5c8:	fc 01       	movw	r30, r24
 5ca:	20 81       	ld	r18, Z
 5cc:	31 81       	ldd	r19, Z+1	; 0x01
 5ce:	89 81       	ldd	r24, Y+1	; 0x01
 5d0:	9a 81       	ldd	r25, Y+2	; 0x02
 5d2:	80 5b       	subi	r24, 0xB0	; 176
 5d4:	9f 4f       	sbci	r25, 0xFF	; 255
 5d6:	fc 01       	movw	r30, r24
 5d8:	80 81       	ld	r24, Z
 5da:	91 81       	ldd	r25, Z+1	; 0x01
 5dc:	82 0f       	add	r24, r18
 5de:	93 1f       	adc	r25, r19
 5e0:	9e 87       	std	Y+14, r25	; 0x0e
 5e2:	8d 87       	std	Y+13, r24	; 0x0d
/home/becker/async/autosafe/trunk/tum/wcet-cbmc/benchmarks/jfdctint/jfdctint.c:290
 5e4:	89 81       	ldd	r24, Y+1	; 0x01
 5e6:	9a 81       	ldd	r25, Y+2	; 0x02
 5e8:	80 96       	adiw	r24, 0x20	; 32
 5ea:	fc 01       	movw	r30, r24
 5ec:	20 81       	ld	r18, Z
 5ee:	31 81       	ldd	r19, Z+1	; 0x01
 5f0:	89 81       	ldd	r24, Y+1	; 0x01
 5f2:	9a 81       	ldd	r25, Y+2	; 0x02
 5f4:	80 5b       	subi	r24, 0xB0	; 176
 5f6:	9f 4f       	sbci	r25, 0xFF	; 255
 5f8:	fc 01       	movw	r30, r24
 5fa:	80 81       	ld	r24, Z
 5fc:	91 81       	ldd	r25, Z+1	; 0x01
 5fe:	a9 01       	movw	r20, r18
 600:	48 1b       	sub	r20, r24
 602:	59 0b       	sbc	r21, r25
 604:	ca 01       	movw	r24, r20
 606:	98 8b       	std	Y+16, r25	; 0x10
 608:	8f 87       	std	Y+15, r24	; 0x0f
/home/becker/async/autosafe/trunk/tum/wcet-cbmc/benchmarks/jfdctint/jfdctint.c:291
 60a:	89 81       	ldd	r24, Y+1	; 0x01
 60c:	9a 81       	ldd	r25, Y+2	; 0x02
 60e:	c0 96       	adiw	r24, 0x30	; 48
 610:	fc 01       	movw	r30, r24
 612:	20 81       	ld	r18, Z
 614:	31 81       	ldd	r19, Z+1	; 0x01
 616:	89 81       	ldd	r24, Y+1	; 0x01
 618:	9a 81       	ldd	r25, Y+2	; 0x02
 61a:	80 5c       	subi	r24, 0xC0	; 192
 61c:	9f 4f       	sbci	r25, 0xFF	; 255
 61e:	fc 01       	movw	r30, r24
 620:	80 81       	ld	r24, Z
 622:	91 81       	ldd	r25, Z+1	; 0x01
 624:	82 0f       	add	r24, r18
 626:	93 1f       	adc	r25, r19
 628:	9a 8b       	std	Y+18, r25	; 0x12
 62a:	89 8b       	std	Y+17, r24	; 0x11
/home/becker/async/autosafe/trunk/tum/wcet-cbmc/benchmarks/jfdctint/jfdctint.c:292
 62c:	89 81       	ldd	r24, Y+1	; 0x01
 62e:	9a 81       	ldd	r25, Y+2	; 0x02
 630:	c0 96       	adiw	r24, 0x30	; 48
 632:	fc 01       	movw	r30, r24
 634:	20 81       	ld	r18, Z
 636:	31 81       	ldd	r19, Z+1	; 0x01
 638:	89 81       	ldd	r24, Y+1	; 0x01
 63a:	9a 81       	ldd	r25, Y+2	; 0x02
 63c:	80 5c       	subi	r24, 0xC0	; 192
 63e:	9f 4f       	sbci	r25, 0xFF	; 255
 640:	fc 01       	movw	r30, r24
 642:	80 81       	ld	r24, Z
 644:	91 81       	ldd	r25, Z+1	; 0x01
 646:	a9 01       	movw	r20, r18
 648:	48 1b       	sub	r20, r24
 64a:	59 0b       	sbc	r21, r25
 64c:	ca 01       	movw	r24, r20
 64e:	9c 8b       	std	Y+20, r25	; 0x14
 650:	8b 8b       	std	Y+19, r24	; 0x13
/home/becker/async/autosafe/trunk/tum/wcet-cbmc/benchmarks/jfdctint/jfdctint.c:298
 652:	2d 81       	ldd	r18, Y+5	; 0x05
 654:	3e 81       	ldd	r19, Y+6	; 0x06
 656:	89 89       	ldd	r24, Y+17	; 0x11
 658:	9a 89       	ldd	r25, Y+18	; 0x12
 65a:	82 0f       	add	r24, r18
 65c:	93 1f       	adc	r25, r19
 65e:	9e 8b       	std	Y+22, r25	; 0x16
 660:	8d 8b       	std	Y+21, r24	; 0x15
/home/becker/async/autosafe/trunk/tum/wcet-cbmc/benchmarks/jfdctint/jfdctint.c:299
 662:	2d 81       	ldd	r18, Y+5	; 0x05
 664:	3e 81       	ldd	r19, Y+6	; 0x06
 666:	89 89       	ldd	r24, Y+17	; 0x11
 668:	9a 89       	ldd	r25, Y+18	; 0x12
 66a:	b9 01       	movw	r22, r18
 66c:	68 1b       	sub	r22, r24
 66e:	79 0b       	sbc	r23, r25
 670:	cb 01       	movw	r24, r22
 672:	98 8f       	std	Y+24, r25	; 0x18
 674:	8f 8b       	std	Y+23, r24	; 0x17
/home/becker/async/autosafe/trunk/tum/wcet-cbmc/benchmarks/jfdctint/jfdctint.c:300
 676:	29 85       	ldd	r18, Y+9	; 0x09
 678:	3a 85       	ldd	r19, Y+10	; 0x0a
 67a:	8d 85       	ldd	r24, Y+13	; 0x0d
 67c:	9e 85       	ldd	r25, Y+14	; 0x0e
 67e:	82 0f       	add	r24, r18
 680:	93 1f       	adc	r25, r19
 682:	9a 8f       	std	Y+26, r25	; 0x1a
 684:	89 8f       	std	Y+25, r24	; 0x19
/home/becker/async/autosafe/trunk/tum/wcet-cbmc/benchmarks/jfdctint/jfdctint.c:301
 686:	29 85       	ldd	r18, Y+9	; 0x09
 688:	3a 85       	ldd	r19, Y+10	; 0x0a
 68a:	8d 85       	ldd	r24, Y+13	; 0x0d
 68c:	9e 85       	ldd	r25, Y+14	; 0x0e
 68e:	f9 01       	movw	r30, r18
 690:	e8 1b       	sub	r30, r24
 692:	f9 0b       	sbc	r31, r25
 694:	cf 01       	movw	r24, r30
 696:	9c 8f       	std	Y+28, r25	; 0x1c
 698:	8b 8f       	std	Y+27, r24	; 0x1b
/home/becker/async/autosafe/trunk/tum/wcet-cbmc/benchmarks/jfdctint/jfdctint.c:303
 69a:	2d 89       	ldd	r18, Y+21	; 0x15
 69c:	3e 89       	ldd	r19, Y+22	; 0x16
 69e:	89 8d       	ldd	r24, Y+25	; 0x19
 6a0:	9a 8d       	ldd	r25, Y+26	; 0x1a
 6a2:	82 0f       	add	r24, r18
 6a4:	93 1f       	adc	r25, r19
 6a6:	02 96       	adiw	r24, 0x02	; 2
 6a8:	9c 01       	movw	r18, r24
 6aa:	35 95       	asr	r19
 6ac:	27 95       	ror	r18
 6ae:	35 95       	asr	r19
 6b0:	27 95       	ror	r18
 6b2:	89 81       	ldd	r24, Y+1	; 0x01
 6b4:	9a 81       	ldd	r25, Y+2	; 0x02
 6b6:	fc 01       	movw	r30, r24
 6b8:	31 83       	std	Z+1, r19	; 0x01
 6ba:	20 83       	st	Z, r18
/home/becker/async/autosafe/trunk/tum/wcet-cbmc/benchmarks/jfdctint/jfdctint.c:304
 6bc:	89 81       	ldd	r24, Y+1	; 0x01
 6be:	9a 81       	ldd	r25, Y+2	; 0x02
 6c0:	80 5c       	subi	r24, 0xC0	; 192
 6c2:	9f 4f       	sbci	r25, 0xFF	; 255
 6c4:	4d 89       	ldd	r20, Y+21	; 0x15
 6c6:	5e 89       	ldd	r21, Y+22	; 0x16
 6c8:	29 8d       	ldd	r18, Y+25	; 0x19
 6ca:	3a 8d       	ldd	r19, Y+26	; 0x1a
 6cc:	ba 01       	movw	r22, r20
 6ce:	62 1b       	sub	r22, r18
 6d0:	73 0b       	sbc	r23, r19
 6d2:	9b 01       	movw	r18, r22
 6d4:	2e 5f       	subi	r18, 0xFE	; 254
 6d6:	3f 4f       	sbci	r19, 0xFF	; 255
 6d8:	35 95       	asr	r19
 6da:	27 95       	ror	r18
 6dc:	35 95       	asr	r19
 6de:	27 95       	ror	r18
 6e0:	fc 01       	movw	r30, r24
 6e2:	31 83       	std	Z+1, r19	; 0x01
 6e4:	20 83       	st	Z, r18
/home/becker/async/autosafe/trunk/tum/wcet-cbmc/benchmarks/jfdctint/jfdctint.c:306
 6e6:	2b 8d       	ldd	r18, Y+27	; 0x1b
 6e8:	3c 8d       	ldd	r19, Y+28	; 0x1c
 6ea:	8f 89       	ldd	r24, Y+23	; 0x17
 6ec:	98 8d       	ldd	r25, Y+24	; 0x18
 6ee:	a9 01       	movw	r20, r18
 6f0:	48 0f       	add	r20, r24
 6f2:	59 1f       	adc	r21, r25
 6f4:	21 e5       	ldi	r18, 0x51	; 81
 6f6:	31 e1       	ldi	r19, 0x11	; 17
 6f8:	42 9f       	mul	r20, r18
 6fa:	c0 01       	movw	r24, r0
 6fc:	43 9f       	mul	r20, r19
 6fe:	90 0d       	add	r25, r0
 700:	52 9f       	mul	r21, r18
 702:	90 0d       	add	r25, r0
 704:	11 24       	eor	r1, r1
 706:	9e 8f       	std	Y+30, r25	; 0x1e
 708:	8d 8f       	std	Y+29, r24	; 0x1d
/home/becker/async/autosafe/trunk/tum/wcet-cbmc/benchmarks/jfdctint/jfdctint.c:307
 70a:	89 81       	ldd	r24, Y+1	; 0x01
 70c:	9a 81       	ldd	r25, Y+2	; 0x02
 70e:	80 96       	adiw	r24, 0x20	; 32
 710:	6f 89       	ldd	r22, Y+23	; 0x17
 712:	78 8d       	ldd	r23, Y+24	; 0x18
 714:	2e e7       	ldi	r18, 0x7E	; 126
 716:	38 e1       	ldi	r19, 0x18	; 24
 718:	62 9f       	mul	r22, r18
 71a:	a0 01       	movw	r20, r0
 71c:	63 9f       	mul	r22, r19
 71e:	50 0d       	add	r21, r0
 720:	72 9f       	mul	r23, r18
 722:	50 0d       	add	r21, r0
 724:	11 24       	eor	r1, r1
 726:	2d 8d       	ldd	r18, Y+29	; 0x1d
 728:	3e 8d       	ldd	r19, Y+30	; 0x1e
 72a:	24 0f       	add	r18, r20
 72c:	35 1f       	adc	r19, r21
 72e:	30 5c       	subi	r19, 0xC0	; 192
 730:	33 0f       	add	r19, r19
 732:	22 0b       	sbc	r18, r18
 734:	32 2f       	mov	r19, r18
 736:	fc 01       	movw	r30, r24
 738:	31 83       	std	Z+1, r19	; 0x01
 73a:	20 83       	st	Z, r18
/home/becker/async/autosafe/trunk/tum/wcet-cbmc/benchmarks/jfdctint/jfdctint.c:309
 73c:	89 81       	ldd	r24, Y+1	; 0x01
 73e:	9a 81       	ldd	r25, Y+2	; 0x02
 740:	80 5a       	subi	r24, 0xA0	; 160
 742:	9f 4f       	sbci	r25, 0xFF	; 255
 744:	6b 8d       	ldd	r22, Y+27	; 0x1b
 746:	7c 8d       	ldd	r23, Y+28	; 0x1c
 748:	2f ed       	ldi	r18, 0xDF	; 223
 74a:	34 ec       	ldi	r19, 0xC4	; 196
 74c:	62 9f       	mul	r22, r18
 74e:	a0 01       	movw	r20, r0
 750:	63 9f       	mul	r22, r19
 752:	50 0d       	add	r21, r0
 754:	72 9f       	mul	r23, r18
 756:	50 0d       	add	r21, r0
 758:	11 24       	eor	r1, r1
 75a:	2d 8d       	ldd	r18, Y+29	; 0x1d
 75c:	3e 8d       	ldd	r19, Y+30	; 0x1e
 75e:	24 0f       	add	r18, r20
 760:	35 1f       	adc	r19, r21
 762:	30 5c       	subi	r19, 0xC0	; 192
 764:	33 0f       	add	r19, r19
 766:	22 0b       	sbc	r18, r18
 768:	32 2f       	mov	r19, r18
 76a:	fc 01       	movw	r30, r24
 76c:	31 83       	std	Z+1, r19	; 0x01
 76e:	20 83       	st	Z, r18
/home/becker/async/autosafe/trunk/tum/wcet-cbmc/benchmarks/jfdctint/jfdctint.c:317
 770:	2b 89       	ldd	r18, Y+19	; 0x13
 772:	3c 89       	ldd	r19, Y+20	; 0x14
 774:	8f 81       	ldd	r24, Y+7	; 0x07
 776:	98 85       	ldd	r25, Y+8	; 0x08
 778:	82 0f       	add	r24, r18
 77a:	93 1f       	adc	r25, r19
 77c:	9e 8f       	std	Y+30, r25	; 0x1e
 77e:	8d 8f       	std	Y+29, r24	; 0x1d
/home/becker/async/autosafe/trunk/tum/wcet-cbmc/benchmarks/jfdctint/jfdctint.c:318
 780:	2f 85       	ldd	r18, Y+15	; 0x0f
 782:	38 89       	ldd	r19, Y+16	; 0x10
 784:	8b 85       	ldd	r24, Y+11	; 0x0b
 786:	9c 85       	ldd	r25, Y+12	; 0x0c
 788:	82 0f       	add	r24, r18
 78a:	93 1f       	adc	r25, r19
 78c:	98 a3       	std	Y+32, r25	; 0x20
 78e:	8f 8f       	std	Y+31, r24	; 0x1f
/home/becker/async/autosafe/trunk/tum/wcet-cbmc/benchmarks/jfdctint/jfdctint.c:319
 790:	2b 89       	ldd	r18, Y+19	; 0x13
 792:	3c 89       	ldd	r19, Y+20	; 0x14
 794:	8b 85       	ldd	r24, Y+11	; 0x0b
 796:	9c 85       	ldd	r25, Y+12	; 0x0c
 798:	82 0f       	add	r24, r18
 79a:	93 1f       	adc	r25, r19
 79c:	9a a3       	std	Y+34, r25	; 0x22
 79e:	89 a3       	std	Y+33, r24	; 0x21
/home/becker/async/autosafe/trunk/tum/wcet-cbmc/benchmarks/jfdctint/jfdctint.c:320
 7a0:	2f 85       	ldd	r18, Y+15	; 0x0f
 7a2:	38 89       	ldd	r19, Y+16	; 0x10
 7a4:	8f 81       	ldd	r24, Y+7	; 0x07
 7a6:	98 85       	ldd	r25, Y+8	; 0x08
 7a8:	82 0f       	add	r24, r18
 7aa:	93 1f       	adc	r25, r19
 7ac:	9c a3       	std	Y+36, r25	; 0x24
 7ae:	8b a3       	std	Y+35, r24	; 0x23
/home/becker/async/autosafe/trunk/tum/wcet-cbmc/benchmarks/jfdctint/jfdctint.c:321
 7b0:	29 a1       	ldd	r18, Y+33	; 0x21
 7b2:	3a a1       	ldd	r19, Y+34	; 0x22
 7b4:	8b a1       	ldd	r24, Y+35	; 0x23
 7b6:	9c a1       	ldd	r25, Y+36	; 0x24
 7b8:	a9 01       	movw	r20, r18
 7ba:	48 0f       	add	r20, r24
 7bc:	59 1f       	adc	r21, r25
 7be:	21 ea       	ldi	r18, 0xA1	; 161
 7c0:	35 e2       	ldi	r19, 0x25	; 37
 7c2:	42 9f       	mul	r20, r18
 7c4:	c0 01       	movw	r24, r0
 7c6:	43 9f       	mul	r20, r19
 7c8:	90 0d       	add	r25, r0
 7ca:	52 9f       	mul	r21, r18
 7cc:	90 0d       	add	r25, r0
 7ce:	11 24       	eor	r1, r1
 7d0:	9e a3       	std	Y+38, r25	; 0x26
 7d2:	8d a3       	std	Y+37, r24	; 0x25
/home/becker/async/autosafe/trunk/tum/wcet-cbmc/benchmarks/jfdctint/jfdctint.c:323
 7d4:	4b 89       	ldd	r20, Y+19	; 0x13
 7d6:	5c 89       	ldd	r21, Y+20	; 0x14
 7d8:	2e e8       	ldi	r18, 0x8E	; 142
 7da:	39 e0       	ldi	r19, 0x09	; 9
 7dc:	42 9f       	mul	r20, r18
 7de:	c0 01       	movw	r24, r0
 7e0:	43 9f       	mul	r20, r19
 7e2:	90 0d       	add	r25, r0
 7e4:	52 9f       	mul	r21, r18
 7e6:	90 0d       	add	r25, r0
 7e8:	11 24       	eor	r1, r1
 7ea:	9c 8b       	std	Y+20, r25	; 0x14
 7ec:	8b 8b       	std	Y+19, r24	; 0x13
/home/becker/async/autosafe/trunk/tum/wcet-cbmc/benchmarks/jfdctint/jfdctint.c:324
 7ee:	4f 85       	ldd	r20, Y+15	; 0x0f
 7f0:	58 89       	ldd	r21, Y+16	; 0x10
 7f2:	23 eb       	ldi	r18, 0xB3	; 179
 7f4:	31 e4       	ldi	r19, 0x41	; 65
 7f6:	42 9f       	mul	r20, r18
 7f8:	c0 01       	movw	r24, r0
 7fa:	43 9f       	mul	r20, r19
 7fc:	90 0d       	add	r25, r0
 7fe:	52 9f       	mul	r21, r18
 800:	90 0d       	add	r25, r0
 802:	11 24       	eor	r1, r1
 804:	98 8b       	std	Y+16, r25	; 0x10
 806:	8f 87       	std	Y+15, r24	; 0x0f
/home/becker/async/autosafe/trunk/tum/wcet-cbmc/benchmarks/jfdctint/jfdctint.c:325
 808:	4b 85       	ldd	r20, Y+11	; 0x0b
 80a:	5c 85       	ldd	r21, Y+12	; 0x0c
 80c:	24 e5       	ldi	r18, 0x54	; 84
 80e:	32 e6       	ldi	r19, 0x62	; 98
 810:	42 9f       	mul	r20, r18
 812:	c0 01       	movw	r24, r0
 814:	43 9f       	mul	r20, r19
 816:	90 0d       	add	r25, r0
 818:	52 9f       	mul	r21, r18
 81a:	90 0d       	add	r25, r0
 81c:	11 24       	eor	r1, r1
 81e:	9c 87       	std	Y+12, r25	; 0x0c
 820:	8b 87       	std	Y+11, r24	; 0x0b
/home/becker/async/autosafe/trunk/tum/wcet-cbmc/benchmarks/jfdctint/jfdctint.c:326
 822:	4f 81       	ldd	r20, Y+7	; 0x07
 824:	58 85       	ldd	r21, Y+8	; 0x08
 826:	2b e0       	ldi	r18, 0x0B	; 11
 828:	30 e3       	ldi	r19, 0x30	; 48
 82a:	42 9f       	mul	r20, r18
 82c:	c0 01       	movw	r24, r0
 82e:	43 9f       	mul	r20, r19
 830:	90 0d       	add	r25, r0
 832:	52 9f       	mul	r21, r18
 834:	90 0d       	add	r25, r0
 836:	11 24       	eor	r1, r1
 838:	98 87       	std	Y+8, r25	; 0x08
 83a:	8f 83       	std	Y+7, r24	; 0x07
/home/becker/async/autosafe/trunk/tum/wcet-cbmc/benchmarks/jfdctint/jfdctint.c:327
 83c:	4d 8d       	ldd	r20, Y+29	; 0x1d
 83e:	5e 8d       	ldd	r21, Y+30	; 0x1e
 840:	23 e3       	ldi	r18, 0x33	; 51
 842:	33 ee       	ldi	r19, 0xE3	; 227
 844:	42 9f       	mul	r20, r18
 846:	c0 01       	movw	r24, r0
 848:	43 9f       	mul	r20, r19
 84a:	90 0d       	add	r25, r0
 84c:	52 9f       	mul	r21, r18
 84e:	90 0d       	add	r25, r0
 850:	11 24       	eor	r1, r1
 852:	9e 8f       	std	Y+30, r25	; 0x1e
 854:	8d 8f       	std	Y+29, r24	; 0x1d
/home/becker/async/autosafe/trunk/tum/wcet-cbmc/benchmarks/jfdctint/jfdctint.c:328
 856:	4f 8d       	ldd	r20, Y+31	; 0x1f
 858:	58 a1       	ldd	r21, Y+32	; 0x20
 85a:	2d ef       	ldi	r18, 0xFD	; 253
 85c:	3d ea       	ldi	r19, 0xAD	; 173
 85e:	42 9f       	mul	r20, r18
 860:	c0 01       	movw	r24, r0
 862:	43 9f       	mul	r20, r19
 864:	90 0d       	add	r25, r0
 866:	52 9f       	mul	r21, r18
 868:	90 0d       	add	r25, r0
 86a:	11 24       	eor	r1, r1
 86c:	98 a3       	std	Y+32, r25	; 0x20
 86e:	8f 8f       	std	Y+31, r24	; 0x1f
/home/becker/async/autosafe/trunk/tum/wcet-cbmc/benchmarks/jfdctint/jfdctint.c:329
 870:	49 a1       	ldd	r20, Y+33	; 0x21
 872:	5a a1       	ldd	r21, Y+34	; 0x22
 874:	2b e3       	ldi	r18, 0x3B	; 59
 876:	31 ec       	ldi	r19, 0xC1	; 193
 878:	42 9f       	mul	r20, r18
 87a:	c0 01       	movw	r24, r0
 87c:	43 9f       	mul	r20, r19
 87e:	90 0d       	add	r25, r0
 880:	52 9f       	mul	r21, r18
 882:	90 0d       	add	r25, r0
 884:	11 24       	eor	r1, r1
 886:	9a a3       	std	Y+34, r25	; 0x22
 888:	89 a3       	std	Y+33, r24	; 0x21
/home/becker/async/autosafe/trunk/tum/wcet-cbmc/benchmarks/jfdctint/jfdctint.c:330
 88a:	4b a1       	ldd	r20, Y+35	; 0x23
 88c:	5c a1       	ldd	r21, Y+36	; 0x24
 88e:	24 e8       	ldi	r18, 0x84	; 132
 890:	33 ef       	ldi	r19, 0xF3	; 243
 892:	42 9f       	mul	r20, r18
 894:	c0 01       	movw	r24, r0
 896:	43 9f       	mul	r20, r19
 898:	90 0d       	add	r25, r0
 89a:	52 9f       	mul	r21, r18
 89c:	90 0d       	add	r25, r0
 89e:	11 24       	eor	r1, r1
 8a0:	9c a3       	std	Y+36, r25	; 0x24
 8a2:	8b a3       	std	Y+35, r24	; 0x23
/home/becker/async/autosafe/trunk/tum/wcet-cbmc/benchmarks/jfdctint/jfdctint.c:332
 8a4:	29 a1       	ldd	r18, Y+33	; 0x21
 8a6:	3a a1       	ldd	r19, Y+34	; 0x22
 8a8:	8d a1       	ldd	r24, Y+37	; 0x25
 8aa:	9e a1       	ldd	r25, Y+38	; 0x26
 8ac:	82 0f       	add	r24, r18
 8ae:	93 1f       	adc	r25, r19
 8b0:	9a a3       	std	Y+34, r25	; 0x22
 8b2:	89 a3       	std	Y+33, r24	; 0x21
/home/becker/async/autosafe/trunk/tum/wcet-cbmc/benchmarks/jfdctint/jfdctint.c:333
 8b4:	2b a1       	ldd	r18, Y+35	; 0x23
 8b6:	3c a1       	ldd	r19, Y+36	; 0x24
 8b8:	8d a1       	ldd	r24, Y+37	; 0x25
 8ba:	9e a1       	ldd	r25, Y+38	; 0x26
 8bc:	82 0f       	add	r24, r18
 8be:	93 1f       	adc	r25, r19
 8c0:	9c a3       	std	Y+36, r25	; 0x24
 8c2:	8b a3       	std	Y+35, r24	; 0x23
/home/becker/async/autosafe/trunk/tum/wcet-cbmc/benchmarks/jfdctint/jfdctint.c:335
 8c4:	89 81       	ldd	r24, Y+1	; 0x01
 8c6:	9a 81       	ldd	r25, Y+2	; 0x02
 8c8:	80 59       	subi	r24, 0x90	; 144
 8ca:	9f 4f       	sbci	r25, 0xFF	; 255
 8cc:	4b 89       	ldd	r20, Y+19	; 0x13
 8ce:	5c 89       	ldd	r21, Y+20	; 0x14
 8d0:	2d 8d       	ldd	r18, Y+29	; 0x1d
 8d2:	3e 8d       	ldd	r19, Y+30	; 0x1e
 8d4:	42 0f       	add	r20, r18
 8d6:	53 1f       	adc	r21, r19
 8d8:	29 a1       	ldd	r18, Y+33	; 0x21
 8da:	3a a1       	ldd	r19, Y+34	; 0x22
 8dc:	24 0f       	add	r18, r20
 8de:	35 1f       	adc	r19, r21
 8e0:	30 5c       	subi	r19, 0xC0	; 192
 8e2:	33 0f       	add	r19, r19
 8e4:	22 0b       	sbc	r18, r18
 8e6:	32 2f       	mov	r19, r18
 8e8:	fc 01       	movw	r30, r24
 8ea:	31 83       	std	Z+1, r19	; 0x01
 8ec:	20 83       	st	Z, r18
/home/becker/async/autosafe/trunk/tum/wcet-cbmc/benchmarks/jfdctint/jfdctint.c:337
 8ee:	89 81       	ldd	r24, Y+1	; 0x01
 8f0:	9a 81       	ldd	r25, Y+2	; 0x02
 8f2:	80 5b       	subi	r24, 0xB0	; 176
 8f4:	9f 4f       	sbci	r25, 0xFF	; 255
 8f6:	4f 85       	ldd	r20, Y+15	; 0x0f
 8f8:	58 89       	ldd	r21, Y+16	; 0x10
 8fa:	2f 8d       	ldd	r18, Y+31	; 0x1f
 8fc:	38 a1       	ldd	r19, Y+32	; 0x20
 8fe:	42 0f       	add	r20, r18
 900:	53 1f       	adc	r21, r19
 902:	2b a1       	ldd	r18, Y+35	; 0x23
 904:	3c a1       	ldd	r19, Y+36	; 0x24
 906:	24 0f       	add	r18, r20
 908:	35 1f       	adc	r19, r21
 90a:	30 5c       	subi	r19, 0xC0	; 192
 90c:	33 0f       	add	r19, r19
 90e:	22 0b       	sbc	r18, r18
 910:	32 2f       	mov	r19, r18
 912:	fc 01       	movw	r30, r24
 914:	31 83       	std	Z+1, r19	; 0x01
 916:	20 83       	st	Z, r18
/home/becker/async/autosafe/trunk/tum/wcet-cbmc/benchmarks/jfdctint/jfdctint.c:339
 918:	89 81       	ldd	r24, Y+1	; 0x01
 91a:	9a 81       	ldd	r25, Y+2	; 0x02
 91c:	c0 96       	adiw	r24, 0x30	; 48
 91e:	4b 85       	ldd	r20, Y+11	; 0x0b
 920:	5c 85       	ldd	r21, Y+12	; 0x0c
 922:	2f 8d       	ldd	r18, Y+31	; 0x1f
 924:	38 a1       	ldd	r19, Y+32	; 0x20
 926:	42 0f       	add	r20, r18
 928:	53 1f       	adc	r21, r19
 92a:	29 a1       	ldd	r18, Y+33	; 0x21
 92c:	3a a1       	ldd	r19, Y+34	; 0x22
 92e:	24 0f       	add	r18, r20
 930:	35 1f       	adc	r19, r21
 932:	30 5c       	subi	r19, 0xC0	; 192
 934:	33 0f       	add	r19, r19
 936:	22 0b       	sbc	r18, r18
 938:	32 2f       	mov	r19, r18
 93a:	fc 01       	movw	r30, r24
 93c:	31 83       	std	Z+1, r19	; 0x01
 93e:	20 83       	st	Z, r18
/home/becker/async/autosafe/trunk/tum/wcet-cbmc/benchmarks/jfdctint/jfdctint.c:341
 940:	89 81       	ldd	r24, Y+1	; 0x01
 942:	9a 81       	ldd	r25, Y+2	; 0x02
 944:	40 96       	adiw	r24, 0x10	; 16
 946:	4f 81       	ldd	r20, Y+7	; 0x07
 948:	58 85       	ldd	r21, Y+8	; 0x08
 94a:	2d 8d       	ldd	r18, Y+29	; 0x1d
 94c:	3e 8d       	ldd	r19, Y+30	; 0x1e
 94e:	42 0f       	add	r20, r18
 950:	53 1f       	adc	r21, r19
 952:	2b a1       	ldd	r18, Y+35	; 0x23
 954:	3c a1       	ldd	r19, Y+36	; 0x24
 956:	24 0f       	add	r18, r20
 958:	35 1f       	adc	r19, r21
 95a:	30 5c       	subi	r19, 0xC0	; 192
 95c:	33 0f       	add	r19, r19
 95e:	22 0b       	sbc	r18, r18
 960:	32 2f       	mov	r19, r18
 962:	fc 01       	movw	r30, r24
 964:	31 83       	std	Z+1, r19	; 0x01
 966:	20 83       	st	Z, r18
/home/becker/async/autosafe/trunk/tum/wcet-cbmc/benchmarks/jfdctint/jfdctint.c:344
 968:	89 81       	ldd	r24, Y+1	; 0x01
 96a:	9a 81       	ldd	r25, Y+2	; 0x02
 96c:	02 96       	adiw	r24, 0x02	; 2
 96e:	9a 83       	std	Y+2, r25	; 0x02
 970:	89 83       	std	Y+1, r24	; 0x01
/home/becker/async/autosafe/trunk/tum/wcet-cbmc/benchmarks/jfdctint/jfdctint.c:284
 972:	8b 81       	ldd	r24, Y+3	; 0x03
 974:	9c 81       	ldd	r25, Y+4	; 0x04
 976:	01 97       	sbiw	r24, 0x01	; 1
 978:	9c 83       	std	Y+4, r25	; 0x04
 97a:	8b 83       	std	Y+3, r24	; 0x03
 97c:	8b 81       	ldd	r24, Y+3	; 0x03
 97e:	9c 81       	ldd	r25, Y+4	; 0x04
 980:	99 23       	and	r25, r25
 982:	0c f0       	brlt	.+2      	; 0x986 <jpeg_fdct_islow+0x8d2>
 984:	d8 cd       	rjmp	.-1104   	; 0x536 <jpeg_fdct_islow+0x482>
/home/becker/async/autosafe/trunk/tum/wcet-cbmc/benchmarks/jfdctint/jfdctint.c:346
 986:	a6 96       	adiw	r28, 0x26	; 38
 988:	0f b6       	in	r0, 0x3f	; 63
 98a:	f8 94       	cli
 98c:	de bf       	out	0x3e, r29	; 62
 98e:	0f be       	out	0x3f, r0	; 63
 990:	cd bf       	out	0x3d, r28	; 61
 992:	df 91       	pop	r29
 994:	cf 91       	pop	r28
 996:	08 95       	ret

00000998 <main>:
main():
/home/becker/async/autosafe/trunk/tum/wcet-cbmc/benchmarks/jfdctint/jfdctint.c:362
 998:	cf 93       	push	r28
 99a:	df 93       	push	r29
 99c:	00 d0       	rcall	.+0      	; 0x99e <main+0x6>
 99e:	00 d0       	rcall	.+0      	; 0x9a0 <main+0x8>
 9a0:	cd b7       	in	r28, 0x3d	; 61
 9a2:	de b7       	in	r29, 0x3e	; 62
/home/becker/async/autosafe/trunk/tum/wcet-cbmc/benchmarks/jfdctint/jfdctint.c:367
 9a4:	81 e0       	ldi	r24, 0x01	; 1
 9a6:	90 e0       	ldi	r25, 0x00	; 0
 9a8:	9c 83       	std	Y+4, r25	; 0x04
 9aa:	8b 83       	std	Y+3, r24	; 0x03
/home/becker/async/autosafe/trunk/tum/wcet-cbmc/benchmarks/jfdctint/jfdctint.c:368
 9ac:	1a 82       	std	Y+2, r1	; 0x02
 9ae:	19 82       	std	Y+1, r1	; 0x01
 9b0:	2a c0       	rjmp	.+84     	; 0xa06 <main+0x6e>
/home/becker/async/autosafe/trunk/tum/wcet-cbmc/benchmarks/jfdctint/jfdctint.c:369
 9b2:	2b 81       	ldd	r18, Y+3	; 0x03
 9b4:	3c 81       	ldd	r19, Y+4	; 0x04
 9b6:	45 e8       	ldi	r20, 0x85	; 133
 9b8:	42 9f       	mul	r20, r18
 9ba:	c0 01       	movw	r24, r0
 9bc:	43 9f       	mul	r20, r19
 9be:	90 0d       	add	r25, r0
 9c0:	11 24       	eor	r1, r1
 9c2:	8f 5a       	subi	r24, 0xAF	; 175
 9c4:	9f 4f       	sbci	r25, 0xFF	; 255
 9c6:	aa 27       	eor	r26, r26
 9c8:	97 fd       	sbrc	r25, 7
 9ca:	a0 95       	com	r26
 9cc:	ba 2f       	mov	r27, r26
 9ce:	2f ef       	ldi	r18, 0xFF	; 255
 9d0:	3f ef       	ldi	r19, 0xFF	; 255
 9d2:	40 e0       	ldi	r20, 0x00	; 0
 9d4:	50 e0       	ldi	r21, 0x00	; 0
 9d6:	bc 01       	movw	r22, r24
 9d8:	cd 01       	movw	r24, r26
 9da:	0e 94 11 05 	call	0xa22	; 0xa22 <__divmodsi4>
 9de:	dc 01       	movw	r26, r24
 9e0:	cb 01       	movw	r24, r22
 9e2:	9c 83       	std	Y+4, r25	; 0x04
 9e4:	8b 83       	std	Y+3, r24	; 0x03
/home/becker/async/autosafe/trunk/tum/wcet-cbmc/benchmarks/jfdctint/jfdctint.c:370
 9e6:	89 81       	ldd	r24, Y+1	; 0x01
 9e8:	9a 81       	ldd	r25, Y+2	; 0x02
 9ea:	88 0f       	add	r24, r24
 9ec:	99 1f       	adc	r25, r25
 9ee:	80 50       	subi	r24, 0x00	; 0
 9f0:	9f 4f       	sbci	r25, 0xFF	; 255
 9f2:	2b 81       	ldd	r18, Y+3	; 0x03
 9f4:	3c 81       	ldd	r19, Y+4	; 0x04
 9f6:	fc 01       	movw	r30, r24
 9f8:	31 83       	std	Z+1, r19	; 0x01
 9fa:	20 83       	st	Z, r18
/home/becker/async/autosafe/trunk/tum/wcet-cbmc/benchmarks/jfdctint/jfdctint.c:368
 9fc:	89 81       	ldd	r24, Y+1	; 0x01
 9fe:	9a 81       	ldd	r25, Y+2	; 0x02
 a00:	01 96       	adiw	r24, 0x01	; 1
 a02:	9a 83       	std	Y+2, r25	; 0x02
 a04:	89 83       	std	Y+1, r24	; 0x01
 a06:	89 81       	ldd	r24, Y+1	; 0x01
 a08:	9a 81       	ldd	r25, Y+2	; 0x02
 a0a:	80 34       	cpi	r24, 0x40	; 64
 a0c:	91 05       	cpc	r25, r1
 a0e:	8c f2       	brlt	.-94     	; 0x9b2 <main+0x1a>
/home/becker/async/autosafe/trunk/tum/wcet-cbmc/benchmarks/jfdctint/jfdctint.c:373
 a10:	0e 94 5a 00 	call	0xb4	; 0xb4 <jpeg_fdct_islow>
/home/becker/async/autosafe/trunk/tum/wcet-cbmc/benchmarks/jfdctint/jfdctint.c:374
 a14:	0f 90       	pop	r0
 a16:	0f 90       	pop	r0
 a18:	0f 90       	pop	r0
 a1a:	0f 90       	pop	r0
 a1c:	df 91       	pop	r29
 a1e:	cf 91       	pop	r28
 a20:	08 95       	ret

00000a22 <__divmodsi4>:
__bad_interrupt():
../../../../crt1/gcrt1.S:195
 a22:	05 2e       	mov	r0, r21
 a24:	97 fb       	bst	r25, 7
 a26:	16 f4       	brtc	.+4      	; 0xa2c <__divmodsi4+0xa>
 a28:	00 94       	com	r0
 a2a:	07 d0       	rcall	.+14     	; 0xa3a <__divmodsi4_neg1>
 a2c:	57 fd       	sbrc	r21, 7
 a2e:	0d d0       	rcall	.+26     	; 0xa4a <__divmodsi4_neg2>
 a30:	0e 94 2d 05 	call	0xa5a	; 0xa5a <__udivmodsi4>
 a34:	07 fc       	sbrc	r0, 7
 a36:	09 d0       	rcall	.+18     	; 0xa4a <__divmodsi4_neg2>
 a38:	7e f4       	brtc	.+30     	; 0xa58 <__divmodsi4_exit>

00000a3a <__divmodsi4_neg1>:
 a3a:	90 95       	com	r25
 a3c:	80 95       	com	r24
 a3e:	70 95       	com	r23
 a40:	61 95       	neg	r22
 a42:	7f 4f       	sbci	r23, 0xFF	; 255
 a44:	8f 4f       	sbci	r24, 0xFF	; 255
 a46:	9f 4f       	sbci	r25, 0xFF	; 255
 a48:	08 95       	ret

00000a4a <__divmodsi4_neg2>:
 a4a:	50 95       	com	r21
 a4c:	40 95       	com	r20
 a4e:	30 95       	com	r19
 a50:	21 95       	neg	r18
 a52:	3f 4f       	sbci	r19, 0xFF	; 255
 a54:	4f 4f       	sbci	r20, 0xFF	; 255
 a56:	5f 4f       	sbci	r21, 0xFF	; 255

00000a58 <__divmodsi4_exit>:
 a58:	08 95       	ret

00000a5a <__udivmodsi4>:
 a5a:	a1 e2       	ldi	r26, 0x21	; 33
 a5c:	1a 2e       	mov	r1, r26
 a5e:	aa 1b       	sub	r26, r26
 a60:	bb 1b       	sub	r27, r27
 a62:	fd 01       	movw	r30, r26
 a64:	0d c0       	rjmp	.+26     	; 0xa80 <__udivmodsi4_ep>

00000a66 <__udivmodsi4_loop>:
 a66:	aa 1f       	adc	r26, r26
 a68:	bb 1f       	adc	r27, r27
 a6a:	ee 1f       	adc	r30, r30
 a6c:	ff 1f       	adc	r31, r31
 a6e:	a2 17       	cp	r26, r18
 a70:	b3 07       	cpc	r27, r19
 a72:	e4 07       	cpc	r30, r20
 a74:	f5 07       	cpc	r31, r21
 a76:	20 f0       	brcs	.+8      	; 0xa80 <__udivmodsi4_ep>
 a78:	a2 1b       	sub	r26, r18
 a7a:	b3 0b       	sbc	r27, r19
 a7c:	e4 0b       	sbc	r30, r20
 a7e:	f5 0b       	sbc	r31, r21

00000a80 <__udivmodsi4_ep>:
 a80:	66 1f       	adc	r22, r22
 a82:	77 1f       	adc	r23, r23
 a84:	88 1f       	adc	r24, r24
 a86:	99 1f       	adc	r25, r25
 a88:	1a 94       	dec	r1
 a8a:	69 f7       	brne	.-38     	; 0xa66 <__udivmodsi4_loop>
 a8c:	60 95       	com	r22
 a8e:	70 95       	com	r23
 a90:	80 95       	com	r24
 a92:	90 95       	com	r25
 a94:	9b 01       	movw	r18, r22
 a96:	ac 01       	movw	r20, r24
 a98:	bd 01       	movw	r22, r26
 a9a:	cf 01       	movw	r24, r30
 a9c:	08 95       	ret

00000a9e <_exit>:
 a9e:	f8 94       	cli

00000aa0 <__stop_program>:
 aa0:	ff cf       	rjmp	.-2      	; 0xaa0 <__stop_program>
