   1               		.file	"adpcm.c"
   2               	__SP_H__ = 0x3e
   3               	__SP_L__ = 0x3d
   4               	__SREG__ = 0x3f
   5               	__RAMPZ__ = 0x3b
   6               	__tmp_reg__ = 0
   7               	__zero_reg__ = 1
   8               		.text
   9               	.Ltext0:
  10               		.cfi_sections	.debug_frame
  11               		.comm	tqmf,96,1
  12               	.global	h
  13               		.data
  16               	h:
  17 0000 0C        		.byte	12
  18 0001 00        		.byte	0
  19 0002 00        		.byte	0
  20 0003 00        		.byte	0
  21 0004 D4        		.byte	-44
  22 0005 FF        		.byte	-1
  23 0006 FF        		.byte	-1
  24 0007 FF        		.byte	-1
  25 0008 D4        		.byte	-44
  26 0009 FF        		.byte	-1
  27 000a FF        		.byte	-1
  28 000b FF        		.byte	-1
  29 000c D4        		.byte	-44
  30 000d 00        		.byte	0
  31 000e 00        		.byte	0
  32 000f 00        		.byte	0
  33 0010 30        		.byte	48
  34 0011 00        		.byte	0
  35 0012 00        		.byte	0
  36 0013 00        		.byte	0
  37 0014 90        		.byte	-112
  38 0015 FD        		.byte	-3
  39 0016 FF        		.byte	-1
  40 0017 FF        		.byte	-1
  41 0018 80        		.byte	-128
  42 0019 00        		.byte	0
  43 001a 00        		.byte	0
  44 001b 00        		.byte	0
  45 001c A8        		.byte	-88
  46 001d 05        		.byte	5
  47 001e 00        		.byte	0
  48 001f 00        		.byte	0
  49 0020 B8        		.byte	-72
  50 0021 FC        		.byte	-4
  51 0022 FF        		.byte	-1
  52 0023 FF        		.byte	-1
  53 0024 6C        		.byte	108
  54 0025 F3        		.byte	-13
  55 0026 FF        		.byte	-1
  56 0027 FF        		.byte	-1
  57 0028 DC        		.byte	-36
  58 0029 0E        		.byte	14
  59 002a 00        		.byte	0
  60 002b 00        		.byte	0
  61 002c 90        		.byte	-112
  62 002d 3C        		.byte	60
  63 002e 00        		.byte	0
  64 002f 00        		.byte	0
  65 0030 90        		.byte	-112
  66 0031 3C        		.byte	60
  67 0032 00        		.byte	0
  68 0033 00        		.byte	0
  69 0034 DC        		.byte	-36
  70 0035 0E        		.byte	14
  71 0036 00        		.byte	0
  72 0037 00        		.byte	0
  73 0038 6C        		.byte	108
  74 0039 F3        		.byte	-13
  75 003a FF        		.byte	-1
  76 003b FF        		.byte	-1
  77 003c B8        		.byte	-72
  78 003d FC        		.byte	-4
  79 003e FF        		.byte	-1
  80 003f FF        		.byte	-1
  81 0040 A8        		.byte	-88
  82 0041 05        		.byte	5
  83 0042 00        		.byte	0
  84 0043 00        		.byte	0
  85 0044 80        		.byte	-128
  86 0045 00        		.byte	0
  87 0046 00        		.byte	0
  88 0047 00        		.byte	0
  89 0048 90        		.byte	-112
  90 0049 FD        		.byte	-3
  91 004a FF        		.byte	-1
  92 004b FF        		.byte	-1
  93 004c 30        		.byte	48
  94 004d 00        		.byte	0
  95 004e 00        		.byte	0
  96 004f 00        		.byte	0
  97 0050 D4        		.byte	-44
  98 0051 00        		.byte	0
  99 0052 00        		.byte	0
 100 0053 00        		.byte	0
 101 0054 D4        		.byte	-44
 102 0055 FF        		.byte	-1
 103 0056 FF        		.byte	-1
 104 0057 FF        		.byte	-1
 105 0058 D4        		.byte	-44
 106 0059 FF        		.byte	-1
 107 005a FF        		.byte	-1
 108 005b FF        		.byte	-1
 109 005c 0C        		.byte	12
 110 005d 00        		.byte	0
 111 005e 00        		.byte	0
 112 005f 00        		.byte	0
 113               		.comm	xl,4,1
 114               		.comm	xh,4,1
 115               		.comm	accumc,44,1
 116               		.comm	accumd,44,1
 117               		.comm	xout1,4,1
 118               		.comm	xout2,4,1
 119               		.comm	xs,4,1
 120               		.comm	xd,4,1
 121               		.comm	il,4,1
 122               		.comm	szl,4,1
 123               		.comm	spl,4,1
 124               		.comm	sl,4,1
 125               		.comm	el,4,1
 126               	.global	qq4_code4_table
 129               	qq4_code4_table:
 130 0060 00        		.byte	0
 131 0061 00        		.byte	0
 132 0062 00        		.byte	0
 133 0063 00        		.byte	0
 134 0064 18        		.byte	24
 135 0065 B0        		.byte	-80
 136 0066 FF        		.byte	-1
 137 0067 FF        		.byte	-1
 138 0068 A0        		.byte	-96
 139 0069 CD        		.byte	-51
 140 006a FF        		.byte	-1
 141 006b FF        		.byte	-1
 142 006c F8        		.byte	-8
 143 006d DC        		.byte	-36
 144 006e FF        		.byte	-1
 145 006f FF        		.byte	-1
 146 0070 70        		.byte	112
 147 0071 E7        		.byte	-25
 148 0072 FF        		.byte	-1
 149 0073 FF        		.byte	-1
 150 0074 70        		.byte	112
 151 0075 EF        		.byte	-17
 152 0076 FF        		.byte	-1
 153 0077 FF        		.byte	-1
 154 0078 E8        		.byte	-24
 155 0079 F5        		.byte	-11
 156 007a FF        		.byte	-1
 157 007b FF        		.byte	-1
 158 007c 50        		.byte	80
 159 007d FB        		.byte	-5
 160 007e FF        		.byte	-1
 161 007f FF        		.byte	-1
 162 0080 E8        		.byte	-24
 163 0081 4F        		.byte	79
 164 0082 00        		.byte	0
 165 0083 00        		.byte	0
 166 0084 60        		.byte	96
 167 0085 32        		.byte	50
 168 0086 00        		.byte	0
 169 0087 00        		.byte	0
 170 0088 08        		.byte	8
 171 0089 23        		.byte	35
 172 008a 00        		.byte	0
 173 008b 00        		.byte	0
 174 008c 90        		.byte	-112
 175 008d 18        		.byte	24
 176 008e 00        		.byte	0
 177 008f 00        		.byte	0
 178 0090 90        		.byte	-112
 179 0091 10        		.byte	16
 180 0092 00        		.byte	0
 181 0093 00        		.byte	0
 182 0094 18        		.byte	24
 183 0095 0A        		.byte	10
 184 0096 00        		.byte	0
 185 0097 00        		.byte	0
 186 0098 B0        		.byte	-80
 187 0099 04        		.byte	4
 188 009a 00        		.byte	0
 189 009b 00        		.byte	0
 190 009c 00        		.byte	0
 191 009d 00        		.byte	0
 192 009e 00        		.byte	0
 193 009f 00        		.byte	0
 194               	.global	qq5_code5_table
 197               	qq5_code5_table:
 198 00a0 E8        		.byte	-24
 199 00a1 FE        		.byte	-2
 200 00a2 FF        		.byte	-1
 201 00a3 FF        		.byte	-1
 202 00a4 E8        		.byte	-24
 203 00a5 FE        		.byte	-2
 204 00a6 FF        		.byte	-1
 205 00a7 FF        		.byte	-1
 206 00a8 C8        		.byte	-56
 207 00a9 A4        		.byte	-92
 208 00aa FF        		.byte	-1
 209 00ab FF        		.byte	-1
 210 00ac 68        		.byte	104
 211 00ad BB        		.byte	-69
 212 00ae FF        		.byte	-1
 213 00af FF        		.byte	-1
 214 00b0 D8        		.byte	-40
 215 00b1 C8        		.byte	-56
 216 00b2 FF        		.byte	-1
 217 00b3 FF        		.byte	-1
 218 00b4 70        		.byte	112
 219 00b5 D2        		.byte	-46
 220 00b6 FF        		.byte	-1
 221 00b7 FF        		.byte	-1
 222 00b8 E8        		.byte	-24
 223 00b9 D9        		.byte	-39
 224 00ba FF        		.byte	-1
 225 00bb FF        		.byte	-1
 226 00bc 08        		.byte	8
 227 00bd E0        		.byte	-32
 228 00be FF        		.byte	-1
 229 00bf FF        		.byte	-1
 230 00c0 30        		.byte	48
 231 00c1 E5        		.byte	-27
 232 00c2 FF        		.byte	-1
 233 00c3 FF        		.byte	-1
 234 00c4 B0        		.byte	-80
 235 00c5 E9        		.byte	-23
 236 00c6 FF        		.byte	-1
 237 00c7 FF        		.byte	-1
 238 00c8 A8        		.byte	-88
 239 00c9 ED        		.byte	-19
 240 00ca FF        		.byte	-1
 241 00cb FF        		.byte	-1
 242 00cc 38        		.byte	56
 243 00cd F1        		.byte	-15
 244 00ce FF        		.byte	-1
 245 00cf FF        		.byte	-1
 246 00d0 70        		.byte	112
 247 00d1 F4        		.byte	-12
 248 00d2 FF        		.byte	-1
 249 00d3 FF        		.byte	-1
 250 00d4 60        		.byte	96
 251 00d5 F7        		.byte	-9
 252 00d6 FF        		.byte	-1
 253 00d7 FF        		.byte	-1
 254 00d8 10        		.byte	16
 255 00d9 FA        		.byte	-6
 256 00da FF        		.byte	-1
 257 00db FF        		.byte	-1
 258 00dc 90        		.byte	-112
 259 00dd FC        		.byte	-4
 260 00de FF        		.byte	-1
 261 00df FF        		.byte	-1
 262 00e0 38        		.byte	56
 263 00e1 5B        		.byte	91
 264 00e2 00        		.byte	0
 265 00e3 00        		.byte	0
 266 00e4 98        		.byte	-104
 267 00e5 44        		.byte	68
 268 00e6 00        		.byte	0
 269 00e7 00        		.byte	0
 270 00e8 28        		.byte	40
 271 00e9 37        		.byte	55
 272 00ea 00        		.byte	0
 273 00eb 00        		.byte	0
 274 00ec 90        		.byte	-112
 275 00ed 2D        		.byte	45
 276 00ee 00        		.byte	0
 277 00ef 00        		.byte	0
 278 00f0 18        		.byte	24
 279 00f1 26        		.byte	38
 280 00f2 00        		.byte	0
 281 00f3 00        		.byte	0
 282 00f4 F8        		.byte	-8
 283 00f5 1F        		.byte	31
 284 00f6 00        		.byte	0
 285 00f7 00        		.byte	0
 286 00f8 D0        		.byte	-48
 287 00f9 1A        		.byte	26
 288 00fa 00        		.byte	0
 289 00fb 00        		.byte	0
 290 00fc 50        		.byte	80
 291 00fd 16        		.byte	22
 292 00fe 00        		.byte	0
 293 00ff 00        		.byte	0
 294 0100 58        		.byte	88
 295 0101 12        		.byte	18
 296 0102 00        		.byte	0
 297 0103 00        		.byte	0
 298 0104 C8        		.byte	-56
 299 0105 0E        		.byte	14
 300 0106 00        		.byte	0
 301 0107 00        		.byte	0
 302 0108 90        		.byte	-112
 303 0109 0B        		.byte	11
 304 010a 00        		.byte	0
 305 010b 00        		.byte	0
 306 010c A0        		.byte	-96
 307 010d 08        		.byte	8
 308 010e 00        		.byte	0
 309 010f 00        		.byte	0
 310 0110 F0        		.byte	-16
 311 0111 05        		.byte	5
 312 0112 00        		.byte	0
 313 0113 00        		.byte	0
 314 0114 70        		.byte	112
 315 0115 03        		.byte	3
 316 0116 00        		.byte	0
 317 0117 00        		.byte	0
 318 0118 18        		.byte	24
 319 0119 01        		.byte	1
 320 011a 00        		.byte	0
 321 011b 00        		.byte	0
 322 011c E8        		.byte	-24
 323 011d FE        		.byte	-2
 324 011e FF        		.byte	-1
 325 011f FF        		.byte	-1
 326               	.global	qq6_code6_table
 329               	qq6_code6_table:
 330 0120 78        		.byte	120
 331 0121 FF        		.byte	-1
 332 0122 FF        		.byte	-1
 333 0123 FF        		.byte	-1
 334 0124 78        		.byte	120
 335 0125 FF        		.byte	-1
 336 0126 FF        		.byte	-1
 337 0127 FF        		.byte	-1
 338 0128 78        		.byte	120
 339 0129 FF        		.byte	-1
 340 012a FF        		.byte	-1
 341 012b FF        		.byte	-1
 342 012c 78        		.byte	120
 343 012d FF        		.byte	-1
 344 012e FF        		.byte	-1
 345 012f FF        		.byte	-1
 346 0130 18        		.byte	24
 347 0131 9F        		.byte	-97
 348 0132 FF        		.byte	-1
 349 0133 FF        		.byte	-1
 350 0134 70        		.byte	112
 351 0135 AA        		.byte	-86
 352 0136 FF        		.byte	-1
 353 0137 FF        		.byte	-1
 354 0138 C0        		.byte	-64
 355 0139 B5        		.byte	-75
 356 013a FF        		.byte	-1
 357 013b FF        		.byte	-1
 358 013c C0        		.byte	-64
 359 013d BE        		.byte	-66
 360 013e FF        		.byte	-1
 361 013f FF        		.byte	-1
 362 0140 78        		.byte	120
 363 0141 C5        		.byte	-59
 364 0142 FF        		.byte	-1
 365 0143 FF        		.byte	-1
 366 0144 38        		.byte	56
 367 0145 CB        		.byte	-53
 368 0146 FF        		.byte	-1
 369 0147 FF        		.byte	-1
 370 0148 08        		.byte	8
 371 0149 D0        		.byte	-48
 372 014a FF        		.byte	-1
 373 014b FF        		.byte	-1
 374 014c 48        		.byte	72
 375 014d D4        		.byte	-44
 376 014e FF        		.byte	-1
 377 014f FF        		.byte	-1
 378 0150 08        		.byte	8
 379 0151 D8        		.byte	-40
 380 0152 FF        		.byte	-1
 381 0153 FF        		.byte	-1
 382 0154 70        		.byte	112
 383 0155 DB        		.byte	-37
 384 0156 FF        		.byte	-1
 385 0157 FF        		.byte	-1
 386 0158 80        		.byte	-128
 387 0159 DE        		.byte	-34
 388 015a FF        		.byte	-1
 389 015b FF        		.byte	-1
 390 015c 50        		.byte	80
 391 015d E1        		.byte	-31
 392 015e FF        		.byte	-1
 393 015f FF        		.byte	-1
 394 0160 E8        		.byte	-24
 395 0161 E3        		.byte	-29
 396 0162 FF        		.byte	-1
 397 0163 FF        		.byte	-1
 398 0164 50        		.byte	80
 399 0165 E6        		.byte	-26
 400 0166 FF        		.byte	-1
 401 0167 FF        		.byte	-1
 402 0168 90        		.byte	-112
 403 0169 E8        		.byte	-24
 404 016a FF        		.byte	-1
 405 016b FF        		.byte	-1
 406 016c B0        		.byte	-80
 407 016d EA        		.byte	-22
 408 016e FF        		.byte	-1
 409 016f FF        		.byte	-1
 410 0170 B0        		.byte	-80
 411 0171 EC        		.byte	-20
 412 0172 FF        		.byte	-1
 413 0173 FF        		.byte	-1
 414 0174 90        		.byte	-112
 415 0175 EE        		.byte	-18
 416 0176 FF        		.byte	-1
 417 0177 FF        		.byte	-1
 418 0178 58        		.byte	88
 419 0179 F0        		.byte	-16
 420 017a FF        		.byte	-1
 421 017b FF        		.byte	-1
 422 017c 08        		.byte	8
 423 017d F2        		.byte	-14
 424 017e FF        		.byte	-1
 425 017f FF        		.byte	-1
 426 0180 A0        		.byte	-96
 427 0181 F3        		.byte	-13
 428 0182 FF        		.byte	-1
 429 0183 FF        		.byte	-1
 430 0184 28        		.byte	40
 431 0185 F5        		.byte	-11
 432 0186 FF        		.byte	-1
 433 0187 FF        		.byte	-1
 434 0188 A0        		.byte	-96
 435 0189 F6        		.byte	-10
 436 018a FF        		.byte	-1
 437 018b FF        		.byte	-1
 438 018c 10        		.byte	16
 439 018d F8        		.byte	-8
 440 018e FF        		.byte	-1
 441 018f FF        		.byte	-1
 442 0190 68        		.byte	104
 443 0191 F9        		.byte	-7
 444 0192 FF        		.byte	-1
 445 0193 FF        		.byte	-1
 446 0194 B0        		.byte	-80
 447 0195 FA        		.byte	-6
 448 0196 FF        		.byte	-1
 449 0197 FF        		.byte	-1
 450 0198 F0        		.byte	-16
 451 0199 FB        		.byte	-5
 452 019a FF        		.byte	-1
 453 019b FF        		.byte	-1
 454 019c 28        		.byte	40
 455 019d FD        		.byte	-3
 456 019e FF        		.byte	-1
 457 019f FF        		.byte	-1
 458 01a0 E8        		.byte	-24
 459 01a1 60        		.byte	96
 460 01a2 00        		.byte	0
 461 01a3 00        		.byte	0
 462 01a4 90        		.byte	-112
 463 01a5 55        		.byte	85
 464 01a6 00        		.byte	0
 465 01a7 00        		.byte	0
 466 01a8 40        		.byte	64
 467 01a9 4A        		.byte	74
 468 01aa 00        		.byte	0
 469 01ab 00        		.byte	0
 470 01ac 40        		.byte	64
 471 01ad 41        		.byte	65
 472 01ae 00        		.byte	0
 473 01af 00        		.byte	0
 474 01b0 88        		.byte	-120
 475 01b1 3A        		.byte	58
 476 01b2 00        		.byte	0
 477 01b3 00        		.byte	0
 478 01b4 C8        		.byte	-56
 479 01b5 34        		.byte	52
 480 01b6 00        		.byte	0
 481 01b7 00        		.byte	0
 482 01b8 F8        		.byte	-8
 483 01b9 2F        		.byte	47
 484 01ba 00        		.byte	0
 485 01bb 00        		.byte	0
 486 01bc B8        		.byte	-72
 487 01bd 2B        		.byte	43
 488 01be 00        		.byte	0
 489 01bf 00        		.byte	0
 490 01c0 F8        		.byte	-8
 491 01c1 27        		.byte	39
 492 01c2 00        		.byte	0
 493 01c3 00        		.byte	0
 494 01c4 90        		.byte	-112
 495 01c5 24        		.byte	36
 496 01c6 00        		.byte	0
 497 01c7 00        		.byte	0
 498 01c8 80        		.byte	-128
 499 01c9 21        		.byte	33
 500 01ca 00        		.byte	0
 501 01cb 00        		.byte	0
 502 01cc B0        		.byte	-80
 503 01cd 1E        		.byte	30
 504 01ce 00        		.byte	0
 505 01cf 00        		.byte	0
 506 01d0 18        		.byte	24
 507 01d1 1C        		.byte	28
 508 01d2 00        		.byte	0
 509 01d3 00        		.byte	0
 510 01d4 B0        		.byte	-80
 511 01d5 19        		.byte	25
 512 01d6 00        		.byte	0
 513 01d7 00        		.byte	0
 514 01d8 70        		.byte	112
 515 01d9 17        		.byte	23
 516 01da 00        		.byte	0
 517 01db 00        		.byte	0
 518 01dc 50        		.byte	80
 519 01dd 15        		.byte	21
 520 01de 00        		.byte	0
 521 01df 00        		.byte	0
 522 01e0 50        		.byte	80
 523 01e1 13        		.byte	19
 524 01e2 00        		.byte	0
 525 01e3 00        		.byte	0
 526 01e4 70        		.byte	112
 527 01e5 11        		.byte	17
 528 01e6 00        		.byte	0
 529 01e7 00        		.byte	0
 530 01e8 A8        		.byte	-88
 531 01e9 0F        		.byte	15
 532 01ea 00        		.byte	0
 533 01eb 00        		.byte	0
 534 01ec F8        		.byte	-8
 535 01ed 0D        		.byte	13
 536 01ee 00        		.byte	0
 537 01ef 00        		.byte	0
 538 01f0 60        		.byte	96
 539 01f1 0C        		.byte	12
 540 01f2 00        		.byte	0
 541 01f3 00        		.byte	0
 542 01f4 D8        		.byte	-40
 543 01f5 0A        		.byte	10
 544 01f6 00        		.byte	0
 545 01f7 00        		.byte	0
 546 01f8 60        		.byte	96
 547 01f9 09        		.byte	9
 548 01fa 00        		.byte	0
 549 01fb 00        		.byte	0
 550 01fc F0        		.byte	-16
 551 01fd 07        		.byte	7
 552 01fe 00        		.byte	0
 553 01ff 00        		.byte	0
 554 0200 98        		.byte	-104
 555 0201 06        		.byte	6
 556 0202 00        		.byte	0
 557 0203 00        		.byte	0
 558 0204 50        		.byte	80
 559 0205 05        		.byte	5
 560 0206 00        		.byte	0
 561 0207 00        		.byte	0
 562 0208 10        		.byte	16
 563 0209 04        		.byte	4
 564 020a 00        		.byte	0
 565 020b 00        		.byte	0
 566 020c D8        		.byte	-40
 567 020d 02        		.byte	2
 568 020e 00        		.byte	0
 569 020f 00        		.byte	0
 570 0210 B0        		.byte	-80
 571 0211 01        		.byte	1
 572 0212 00        		.byte	0
 573 0213 00        		.byte	0
 574 0214 88        		.byte	-120
 575 0215 00        		.byte	0
 576 0216 00        		.byte	0
 577 0217 00        		.byte	0
 578 0218 50        		.byte	80
 579 0219 FE        		.byte	-2
 580 021a FF        		.byte	-1
 581 021b FF        		.byte	-1
 582 021c 78        		.byte	120
 583 021d FF        		.byte	-1
 584 021e FF        		.byte	-1
 585 021f FF        		.byte	-1
 586               		.comm	delay_bpl,24,1
 587               		.comm	delay_dltx,24,1
 588               	.global	wl_code_table
 591               	wl_code_table:
 592 0220 C4        		.byte	-60
 593 0221 FF        		.byte	-1
 594 0222 FF        		.byte	-1
 595 0223 FF        		.byte	-1
 596 0224 E2        		.byte	-30
 597 0225 0B        		.byte	11
 598 0226 00        		.byte	0
 599 0227 00        		.byte	0
 600 0228 AE        		.byte	-82
 601 0229 04        		.byte	4
 602 022a 00        		.byte	0
 603 022b 00        		.byte	0
 604 022c 1A        		.byte	26
 605 022d 02        		.byte	2
 606 022e 00        		.byte	0
 607 022f 00        		.byte	0
 608 0230 4E        		.byte	78
 609 0231 01        		.byte	1
 610 0232 00        		.byte	0
 611 0233 00        		.byte	0
 612 0234 AC        		.byte	-84
 613 0235 00        		.byte	0
 614 0236 00        		.byte	0
 615 0237 00        		.byte	0
 616 0238 3A        		.byte	58
 617 0239 00        		.byte	0
 618 023a 00        		.byte	0
 619 023b 00        		.byte	0
 620 023c E2        		.byte	-30
 621 023d FF        		.byte	-1
 622 023e FF        		.byte	-1
 623 023f FF        		.byte	-1
 624 0240 E2        		.byte	-30
 625 0241 0B        		.byte	11
 626 0242 00        		.byte	0
 627 0243 00        		.byte	0
 628 0244 AE        		.byte	-82
 629 0245 04        		.byte	4
 630 0246 00        		.byte	0
 631 0247 00        		.byte	0
 632 0248 1A        		.byte	26
 633 0249 02        		.byte	2
 634 024a 00        		.byte	0
 635 024b 00        		.byte	0
 636 024c 4E        		.byte	78
 637 024d 01        		.byte	1
 638 024e 00        		.byte	0
 639 024f 00        		.byte	0
 640 0250 AC        		.byte	-84
 641 0251 00        		.byte	0
 642 0252 00        		.byte	0
 643 0253 00        		.byte	0
 644 0254 3A        		.byte	58
 645 0255 00        		.byte	0
 646 0256 00        		.byte	0
 647 0257 00        		.byte	0
 648 0258 E2        		.byte	-30
 649 0259 FF        		.byte	-1
 650 025a FF        		.byte	-1
 651 025b FF        		.byte	-1
 652 025c C4        		.byte	-60
 653 025d FF        		.byte	-1
 654 025e FF        		.byte	-1
 655 025f FF        		.byte	-1
 656               	.global	wl_table
 659               	wl_table:
 660 0260 C4        		.byte	-60
 661 0261 FF        		.byte	-1
 662 0262 FF        		.byte	-1
 663 0263 FF        		.byte	-1
 664 0264 E2        		.byte	-30
 665 0265 FF        		.byte	-1
 666 0266 FF        		.byte	-1
 667 0267 FF        		.byte	-1
 668 0268 3A        		.byte	58
 669 0269 00        		.byte	0
 670 026a 00        		.byte	0
 671 026b 00        		.byte	0
 672 026c AC        		.byte	-84
 673 026d 00        		.byte	0
 674 026e 00        		.byte	0
 675 026f 00        		.byte	0
 676 0270 4E        		.byte	78
 677 0271 01        		.byte	1
 678 0272 00        		.byte	0
 679 0273 00        		.byte	0
 680 0274 1A        		.byte	26
 681 0275 02        		.byte	2
 682 0276 00        		.byte	0
 683 0277 00        		.byte	0
 684 0278 AE        		.byte	-82
 685 0279 04        		.byte	4
 686 027a 00        		.byte	0
 687 027b 00        		.byte	0
 688 027c E2        		.byte	-30
 689 027d 0B        		.byte	11
 690 027e 00        		.byte	0
 691 027f 00        		.byte	0
 692               	.global	ilb_table
 695               	ilb_table:
 696 0280 00        		.byte	0
 697 0281 08        		.byte	8
 698 0282 00        		.byte	0
 699 0283 00        		.byte	0
 700 0284 2D        		.byte	45
 701 0285 08        		.byte	8
 702 0286 00        		.byte	0
 703 0287 00        		.byte	0
 704 0288 5B        		.byte	91
 705 0289 08        		.byte	8
 706 028a 00        		.byte	0
 707 028b 00        		.byte	0
 708 028c 8A        		.byte	-118
 709 028d 08        		.byte	8
 710 028e 00        		.byte	0
 711 028f 00        		.byte	0
 712 0290 B9        		.byte	-71
 713 0291 08        		.byte	8
 714 0292 00        		.byte	0
 715 0293 00        		.byte	0
 716 0294 EA        		.byte	-22
 717 0295 08        		.byte	8
 718 0296 00        		.byte	0
 719 0297 00        		.byte	0
 720 0298 1C        		.byte	28
 721 0299 09        		.byte	9
 722 029a 00        		.byte	0
 723 029b 00        		.byte	0
 724 029c 4F        		.byte	79
 725 029d 09        		.byte	9
 726 029e 00        		.byte	0
 727 029f 00        		.byte	0
 728 02a0 83        		.byte	-125
 729 02a1 09        		.byte	9
 730 02a2 00        		.byte	0
 731 02a3 00        		.byte	0
 732 02a4 B9        		.byte	-71
 733 02a5 09        		.byte	9
 734 02a6 00        		.byte	0
 735 02a7 00        		.byte	0
 736 02a8 EF        		.byte	-17
 737 02a9 09        		.byte	9
 738 02aa 00        		.byte	0
 739 02ab 00        		.byte	0
 740 02ac 27        		.byte	39
 741 02ad 0A        		.byte	10
 742 02ae 00        		.byte	0
 743 02af 00        		.byte	0
 744 02b0 60        		.byte	96
 745 02b1 0A        		.byte	10
 746 02b2 00        		.byte	0
 747 02b3 00        		.byte	0
 748 02b4 9A        		.byte	-102
 749 02b5 0A        		.byte	10
 750 02b6 00        		.byte	0
 751 02b7 00        		.byte	0
 752 02b8 D6        		.byte	-42
 753 02b9 0A        		.byte	10
 754 02ba 00        		.byte	0
 755 02bb 00        		.byte	0
 756 02bc 12        		.byte	18
 757 02bd 0B        		.byte	11
 758 02be 00        		.byte	0
 759 02bf 00        		.byte	0
 760 02c0 50        		.byte	80
 761 02c1 0B        		.byte	11
 762 02c2 00        		.byte	0
 763 02c3 00        		.byte	0
 764 02c4 90        		.byte	-112
 765 02c5 0B        		.byte	11
 766 02c6 00        		.byte	0
 767 02c7 00        		.byte	0
 768 02c8 D1        		.byte	-47
 769 02c9 0B        		.byte	11
 770 02ca 00        		.byte	0
 771 02cb 00        		.byte	0
 772 02cc 13        		.byte	19
 773 02cd 0C        		.byte	12
 774 02ce 00        		.byte	0
 775 02cf 00        		.byte	0
 776 02d0 56        		.byte	86
 777 02d1 0C        		.byte	12
 778 02d2 00        		.byte	0
 779 02d3 00        		.byte	0
 780 02d4 9C        		.byte	-100
 781 02d5 0C        		.byte	12
 782 02d6 00        		.byte	0
 783 02d7 00        		.byte	0
 784 02d8 E2        		.byte	-30
 785 02d9 0C        		.byte	12
 786 02da 00        		.byte	0
 787 02db 00        		.byte	0
 788 02dc 2B        		.byte	43
 789 02dd 0D        		.byte	13
 790 02de 00        		.byte	0
 791 02df 00        		.byte	0
 792 02e0 74        		.byte	116
 793 02e1 0D        		.byte	13
 794 02e2 00        		.byte	0
 795 02e3 00        		.byte	0
 796 02e4 C0        		.byte	-64
 797 02e5 0D        		.byte	13
 798 02e6 00        		.byte	0
 799 02e7 00        		.byte	0
 800 02e8 0D        		.byte	13
 801 02e9 0E        		.byte	14
 802 02ea 00        		.byte	0
 803 02eb 00        		.byte	0
 804 02ec 5C        		.byte	92
 805 02ed 0E        		.byte	14
 806 02ee 00        		.byte	0
 807 02ef 00        		.byte	0
 808 02f0 AC        		.byte	-84
 809 02f1 0E        		.byte	14
 810 02f2 00        		.byte	0
 811 02f3 00        		.byte	0
 812 02f4 FE        		.byte	-2
 813 02f5 0E        		.byte	14
 814 02f6 00        		.byte	0
 815 02f7 00        		.byte	0
 816 02f8 52        		.byte	82
 817 02f9 0F        		.byte	15
 818 02fa 00        		.byte	0
 819 02fb 00        		.byte	0
 820 02fc A8        		.byte	-88
 821 02fd 0F        		.byte	15
 822 02fe 00        		.byte	0
 823 02ff 00        		.byte	0
 824               		.comm	nbl,4,1
 825               		.comm	al1,4,1
 826               		.comm	al2,4,1
 827               		.comm	plt,4,1
 828               		.comm	plt1,4,1
 829               		.comm	plt2,4,1
 830               		.comm	rs,4,1
 831               		.comm	dlt,4,1
 832               		.comm	rlt,4,1
 833               		.comm	rlt1,4,1
 834               		.comm	rlt2,4,1
 835               	.global	decis_levl
 838               	decis_levl:
 839 0300 18        		.byte	24
 840 0301 01        		.byte	1
 841 0302 00        		.byte	0
 842 0303 00        		.byte	0
 843 0304 40        		.byte	64
 844 0305 02        		.byte	2
 845 0306 00        		.byte	0
 846 0307 00        		.byte	0
 847 0308 70        		.byte	112
 848 0309 03        		.byte	3
 849 030a 00        		.byte	0
 850 030b 00        		.byte	0
 851 030c B0        		.byte	-80
 852 030d 04        		.byte	4
 853 030e 00        		.byte	0
 854 030f 00        		.byte	0
 855 0310 F0        		.byte	-16
 856 0311 05        		.byte	5
 857 0312 00        		.byte	0
 858 0313 00        		.byte	0
 859 0314 48        		.byte	72
 860 0315 07        		.byte	7
 861 0316 00        		.byte	0
 862 0317 00        		.byte	0
 863 0318 A0        		.byte	-96
 864 0319 08        		.byte	8
 865 031a 00        		.byte	0
 866 031b 00        		.byte	0
 867 031c 18        		.byte	24
 868 031d 0A        		.byte	10
 869 031e 00        		.byte	0
 870 031f 00        		.byte	0
 871 0320 90        		.byte	-112
 872 0321 0B        		.byte	11
 873 0322 00        		.byte	0
 874 0323 00        		.byte	0
 875 0324 30        		.byte	48
 876 0325 0D        		.byte	13
 877 0326 00        		.byte	0
 878 0327 00        		.byte	0
 879 0328 C8        		.byte	-56
 880 0329 0E        		.byte	14
 881 032a 00        		.byte	0
 882 032b 00        		.byte	0
 883 032c 90        		.byte	-112
 884 032d 10        		.byte	16
 885 032e 00        		.byte	0
 886 032f 00        		.byte	0
 887 0330 58        		.byte	88
 888 0331 12        		.byte	18
 889 0332 00        		.byte	0
 890 0333 00        		.byte	0
 891 0334 50        		.byte	80
 892 0335 14        		.byte	20
 893 0336 00        		.byte	0
 894 0337 00        		.byte	0
 895 0338 50        		.byte	80
 896 0339 16        		.byte	22
 897 033a 00        		.byte	0
 898 033b 00        		.byte	0
 899 033c 90        		.byte	-112
 900 033d 18        		.byte	24
 901 033e 00        		.byte	0
 902 033f 00        		.byte	0
 903 0340 D0        		.byte	-48
 904 0341 1A        		.byte	26
 905 0342 00        		.byte	0
 906 0343 00        		.byte	0
 907 0344 60        		.byte	96
 908 0345 1D        		.byte	29
 909 0346 00        		.byte	0
 910 0347 00        		.byte	0
 911 0348 F8        		.byte	-8
 912 0349 1F        		.byte	31
 913 034a 00        		.byte	0
 914 034b 00        		.byte	0
 915 034c 08        		.byte	8
 916 034d 23        		.byte	35
 917 034e 00        		.byte	0
 918 034f 00        		.byte	0
 919 0350 18        		.byte	24
 920 0351 26        		.byte	38
 921 0352 00        		.byte	0
 922 0353 00        		.byte	0
 923 0354 D8        		.byte	-40
 924 0355 29        		.byte	41
 925 0356 00        		.byte	0
 926 0357 00        		.byte	0
 927 0358 90        		.byte	-112
 928 0359 2D        		.byte	45
 929 035a 00        		.byte	0
 930 035b 00        		.byte	0
 931 035c 60        		.byte	96
 932 035d 32        		.byte	50
 933 035e 00        		.byte	0
 934 035f 00        		.byte	0
 935 0360 28        		.byte	40
 936 0361 37        		.byte	55
 937 0362 00        		.byte	0
 938 0363 00        		.byte	0
 939 0364 E0        		.byte	-32
 940 0365 3D        		.byte	61
 941 0366 00        		.byte	0
 942 0367 00        		.byte	0
 943 0368 98        		.byte	-104
 944 0369 44        		.byte	68
 945 036a 00        		.byte	0
 946 036b 00        		.byte	0
 947 036c E8        		.byte	-24
 948 036d 4F        		.byte	79
 949 036e 00        		.byte	0
 950 036f 00        		.byte	0
 951 0370 38        		.byte	56
 952 0371 5B        		.byte	91
 953 0372 00        		.byte	0
 954 0373 00        		.byte	0
 955 0374 FF        		.byte	-1
 956 0375 7F        		.byte	127
 957 0376 00        		.byte	0
 958 0377 00        		.byte	0
 959               		.comm	detl,4,1
 960               	.global	quant26bt_pos
 963               	quant26bt_pos:
 964 0378 3D        		.byte	61
 965 0379 00        		.byte	0
 966 037a 00        		.byte	0
 967 037b 00        		.byte	0
 968 037c 3C        		.byte	60
 969 037d 00        		.byte	0
 970 037e 00        		.byte	0
 971 037f 00        		.byte	0
 972 0380 3B        		.byte	59
 973 0381 00        		.byte	0
 974 0382 00        		.byte	0
 975 0383 00        		.byte	0
 976 0384 3A        		.byte	58
 977 0385 00        		.byte	0
 978 0386 00        		.byte	0
 979 0387 00        		.byte	0
 980 0388 39        		.byte	57
 981 0389 00        		.byte	0
 982 038a 00        		.byte	0
 983 038b 00        		.byte	0
 984 038c 38        		.byte	56
 985 038d 00        		.byte	0
 986 038e 00        		.byte	0
 987 038f 00        		.byte	0
 988 0390 37        		.byte	55
 989 0391 00        		.byte	0
 990 0392 00        		.byte	0
 991 0393 00        		.byte	0
 992 0394 36        		.byte	54
 993 0395 00        		.byte	0
 994 0396 00        		.byte	0
 995 0397 00        		.byte	0
 996 0398 35        		.byte	53
 997 0399 00        		.byte	0
 998 039a 00        		.byte	0
 999 039b 00        		.byte	0
 1000 039c 34        		.byte	52
 1001 039d 00        		.byte	0
 1002 039e 00        		.byte	0
 1003 039f 00        		.byte	0
 1004 03a0 33        		.byte	51
 1005 03a1 00        		.byte	0
 1006 03a2 00        		.byte	0
 1007 03a3 00        		.byte	0
 1008 03a4 32        		.byte	50
 1009 03a5 00        		.byte	0
 1010 03a6 00        		.byte	0
 1011 03a7 00        		.byte	0
 1012 03a8 31        		.byte	49
 1013 03a9 00        		.byte	0
 1014 03aa 00        		.byte	0
 1015 03ab 00        		.byte	0
 1016 03ac 30        		.byte	48
 1017 03ad 00        		.byte	0
 1018 03ae 00        		.byte	0
 1019 03af 00        		.byte	0
 1020 03b0 2F        		.byte	47
 1021 03b1 00        		.byte	0
 1022 03b2 00        		.byte	0
 1023 03b3 00        		.byte	0
 1024 03b4 2E        		.byte	46
 1025 03b5 00        		.byte	0
 1026 03b6 00        		.byte	0
 1027 03b7 00        		.byte	0
 1028 03b8 2D        		.byte	45
 1029 03b9 00        		.byte	0
 1030 03ba 00        		.byte	0
 1031 03bb 00        		.byte	0
 1032 03bc 2C        		.byte	44
 1033 03bd 00        		.byte	0
 1034 03be 00        		.byte	0
 1035 03bf 00        		.byte	0
 1036 03c0 2B        		.byte	43
 1037 03c1 00        		.byte	0
 1038 03c2 00        		.byte	0
 1039 03c3 00        		.byte	0
 1040 03c4 2A        		.byte	42
 1041 03c5 00        		.byte	0
 1042 03c6 00        		.byte	0
 1043 03c7 00        		.byte	0
 1044 03c8 29        		.byte	41
 1045 03c9 00        		.byte	0
 1046 03ca 00        		.byte	0
 1047 03cb 00        		.byte	0
 1048 03cc 28        		.byte	40
 1049 03cd 00        		.byte	0
 1050 03ce 00        		.byte	0
 1051 03cf 00        		.byte	0
 1052 03d0 27        		.byte	39
 1053 03d1 00        		.byte	0
 1054 03d2 00        		.byte	0
 1055 03d3 00        		.byte	0
 1056 03d4 26        		.byte	38
 1057 03d5 00        		.byte	0
 1058 03d6 00        		.byte	0
 1059 03d7 00        		.byte	0
 1060 03d8 25        		.byte	37
 1061 03d9 00        		.byte	0
 1062 03da 00        		.byte	0
 1063 03db 00        		.byte	0
 1064 03dc 24        		.byte	36
 1065 03dd 00        		.byte	0
 1066 03de 00        		.byte	0
 1067 03df 00        		.byte	0
 1068 03e0 23        		.byte	35
 1069 03e1 00        		.byte	0
 1070 03e2 00        		.byte	0
 1071 03e3 00        		.byte	0
 1072 03e4 22        		.byte	34
 1073 03e5 00        		.byte	0
 1074 03e6 00        		.byte	0
 1075 03e7 00        		.byte	0
 1076 03e8 21        		.byte	33
 1077 03e9 00        		.byte	0
 1078 03ea 00        		.byte	0
 1079 03eb 00        		.byte	0
 1080 03ec 20        		.byte	32
 1081 03ed 00        		.byte	0
 1082 03ee 00        		.byte	0
 1083 03ef 00        		.byte	0
 1084 03f0 20        		.byte	32
 1085 03f1 00        		.byte	0
 1086 03f2 00        		.byte	0
 1087 03f3 00        		.byte	0
 1088               	.global	quant26bt_neg
 1091               	quant26bt_neg:
 1092 03f4 3F        		.byte	63
 1093 03f5 00        		.byte	0
 1094 03f6 00        		.byte	0
 1095 03f7 00        		.byte	0
 1096 03f8 3E        		.byte	62
 1097 03f9 00        		.byte	0
 1098 03fa 00        		.byte	0
 1099 03fb 00        		.byte	0
 1100 03fc 1F        		.byte	31
 1101 03fd 00        		.byte	0
 1102 03fe 00        		.byte	0
 1103 03ff 00        		.byte	0
 1104 0400 1E        		.byte	30
 1105 0401 00        		.byte	0
 1106 0402 00        		.byte	0
 1107 0403 00        		.byte	0
 1108 0404 1D        		.byte	29
 1109 0405 00        		.byte	0
 1110 0406 00        		.byte	0
 1111 0407 00        		.byte	0
 1112 0408 1C        		.byte	28
 1113 0409 00        		.byte	0
 1114 040a 00        		.byte	0
 1115 040b 00        		.byte	0
 1116 040c 1B        		.byte	27
 1117 040d 00        		.byte	0
 1118 040e 00        		.byte	0
 1119 040f 00        		.byte	0
 1120 0410 1A        		.byte	26
 1121 0411 00        		.byte	0
 1122 0412 00        		.byte	0
 1123 0413 00        		.byte	0
 1124 0414 19        		.byte	25
 1125 0415 00        		.byte	0
 1126 0416 00        		.byte	0
 1127 0417 00        		.byte	0
 1128 0418 18        		.byte	24
 1129 0419 00        		.byte	0
 1130 041a 00        		.byte	0
 1131 041b 00        		.byte	0
 1132 041c 17        		.byte	23
 1133 041d 00        		.byte	0
 1134 041e 00        		.byte	0
 1135 041f 00        		.byte	0
 1136 0420 16        		.byte	22
 1137 0421 00        		.byte	0
 1138 0422 00        		.byte	0
 1139 0423 00        		.byte	0
 1140 0424 15        		.byte	21
 1141 0425 00        		.byte	0
 1142 0426 00        		.byte	0
 1143 0427 00        		.byte	0
 1144 0428 14        		.byte	20
 1145 0429 00        		.byte	0
 1146 042a 00        		.byte	0
 1147 042b 00        		.byte	0
 1148 042c 13        		.byte	19
 1149 042d 00        		.byte	0
 1150 042e 00        		.byte	0
 1151 042f 00        		.byte	0
 1152 0430 12        		.byte	18
 1153 0431 00        		.byte	0
 1154 0432 00        		.byte	0
 1155 0433 00        		.byte	0
 1156 0434 11        		.byte	17
 1157 0435 00        		.byte	0
 1158 0436 00        		.byte	0
 1159 0437 00        		.byte	0
 1160 0438 10        		.byte	16
 1161 0439 00        		.byte	0
 1162 043a 00        		.byte	0
 1163 043b 00        		.byte	0
 1164 043c 0F        		.byte	15
 1165 043d 00        		.byte	0
 1166 043e 00        		.byte	0
 1167 043f 00        		.byte	0
 1168 0440 0E        		.byte	14
 1169 0441 00        		.byte	0
 1170 0442 00        		.byte	0
 1171 0443 00        		.byte	0
 1172 0444 0D        		.byte	13
 1173 0445 00        		.byte	0
 1174 0446 00        		.byte	0
 1175 0447 00        		.byte	0
 1176 0448 0C        		.byte	12
 1177 0449 00        		.byte	0
 1178 044a 00        		.byte	0
 1179 044b 00        		.byte	0
 1180 044c 0B        		.byte	11
 1181 044d 00        		.byte	0
 1182 044e 00        		.byte	0
 1183 044f 00        		.byte	0
 1184 0450 0A        		.byte	10
 1185 0451 00        		.byte	0
 1186 0452 00        		.byte	0
 1187 0453 00        		.byte	0
 1188 0454 09        		.byte	9
 1189 0455 00        		.byte	0
 1190 0456 00        		.byte	0
 1191 0457 00        		.byte	0
 1192 0458 08        		.byte	8
 1193 0459 00        		.byte	0
 1194 045a 00        		.byte	0
 1195 045b 00        		.byte	0
 1196 045c 07        		.byte	7
 1197 045d 00        		.byte	0
 1198 045e 00        		.byte	0
 1199 045f 00        		.byte	0
 1200 0460 06        		.byte	6
 1201 0461 00        		.byte	0
 1202 0462 00        		.byte	0
 1203 0463 00        		.byte	0
 1204 0464 05        		.byte	5
 1205 0465 00        		.byte	0
 1206 0466 00        		.byte	0
 1207 0467 00        		.byte	0
 1208 0468 04        		.byte	4
 1209 0469 00        		.byte	0
 1210 046a 00        		.byte	0
 1211 046b 00        		.byte	0
 1212 046c 04        		.byte	4
 1213 046d 00        		.byte	0
 1214 046e 00        		.byte	0
 1215 046f 00        		.byte	0
 1216               		.comm	deth,4,1
 1217               		.comm	sh,4,1
 1218               		.comm	eh,4,1
 1219               	.global	qq2_code2_table
 1222               	qq2_code2_table:
 1223 0470 10        		.byte	16
 1224 0471 E3        		.byte	-29
 1225 0472 FF        		.byte	-1
 1226 0473 FF        		.byte	-1
 1227 0474 B0        		.byte	-80
 1228 0475 F9        		.byte	-7
 1229 0476 FF        		.byte	-1
 1230 0477 FF        		.byte	-1
 1231 0478 F0        		.byte	-16
 1232 0479 1C        		.byte	28
 1233 047a 00        		.byte	0
 1234 047b 00        		.byte	0
 1235 047c 50        		.byte	80
 1236 047d 06        		.byte	6
 1237 047e 00        		.byte	0
 1238 047f 00        		.byte	0
 1239               	.global	wh_code_table
 1242               	wh_code_table:
 1243 0480 1E        		.byte	30
 1244 0481 03        		.byte	3
 1245 0482 00        		.byte	0
 1246 0483 00        		.byte	0
 1247 0484 2A        		.byte	42
 1248 0485 FF        		.byte	-1
 1249 0486 FF        		.byte	-1
 1250 0487 FF        		.byte	-1
 1251 0488 1E        		.byte	30
 1252 0489 03        		.byte	3
 1253 048a 00        		.byte	0
 1254 048b 00        		.byte	0
 1255 048c 2A        		.byte	42
 1256 048d FF        		.byte	-1
 1257 048e FF        		.byte	-1
 1258 048f FF        		.byte	-1
 1259               		.comm	dh,4,1
 1260               		.comm	ih,4,1
 1261               		.comm	nbh,4,1
 1262               		.comm	szh,4,1
 1263               		.comm	sph,4,1
 1264               		.comm	ph,4,1
 1265               		.comm	yh,4,1
 1266               		.comm	rh,4,1
 1267               		.comm	delay_dhx,24,1
 1268               		.comm	delay_bph,24,1
 1269               		.comm	ah1,4,1
 1270               		.comm	ah2,4,1
 1271               		.comm	ph1,4,1
 1272               		.comm	ph2,4,1
 1273               		.comm	rh1,4,1
 1274               		.comm	rh2,4,1
 1275               		.comm	ilr,4,1
 1276               		.comm	yl,4,1
 1277               		.comm	rl,4,1
 1278               		.comm	dec_deth,4,1
 1279               		.comm	dec_detl,4,1
 1280               		.comm	dec_dlt,4,1
 1281               		.comm	dec_del_bpl,24,1
 1282               		.comm	dec_del_dltx,24,1
 1283               		.comm	dec_plt,4,1
 1284               		.comm	dec_plt1,4,1
 1285               		.comm	dec_plt2,4,1
 1286               		.comm	dec_szl,4,1
 1287               		.comm	dec_spl,4,1
 1288               		.comm	dec_sl,4,1
 1289               		.comm	dec_rlt1,4,1
 1290               		.comm	dec_rlt2,4,1
 1291               		.comm	dec_rlt,4,1
 1292               		.comm	dec_al1,4,1
 1293               		.comm	dec_al2,4,1
 1294               		.comm	dl,4,1
 1295               		.comm	dec_nbl,4,1
 1296               		.comm	dec_yh,4,1
 1297               		.comm	dec_dh,4,1
 1298               		.comm	dec_nbh,4,1
 1299               		.comm	dec_del_bph,24,1
 1300               		.comm	dec_del_dhx,24,1
 1301               		.comm	dec_szh,4,1
 1302               		.comm	dec_rh1,4,1
 1303               		.comm	dec_rh2,4,1
 1304               		.comm	dec_ah1,4,1
 1305               		.comm	dec_ah2,4,1
 1306               		.comm	dec_ph,4,1
 1307               		.comm	dec_sph,4,1
 1308               		.comm	dec_sh,4,1
 1309               		.comm	dec_rh,4,1
 1310               		.comm	dec_ph1,4,1
 1311               		.comm	dec_ph2,4,1
 1312               		.text
 1313               	.global	my_abs
 1315               	my_abs:
 1316               	.LFB1:
 1317               		.file 1 "adpcm.c"
   1:adpcm.c       **** /* $Id: adpcm.c,v 1.7 2005/06/15 07:27:31 ael01 Exp $ */
   2:adpcm.c       **** /*************************************************************************/
   3:adpcm.c       **** /*                                                                       */
   4:adpcm.c       **** /*   SNU-RT Benchmark Suite for Worst Case Timing Analysis               */
   5:adpcm.c       **** /*   =====================================================               */
   6:adpcm.c       **** /*                              Collected and Modified by S.-S. Lim      */
   7:adpcm.c       **** /*                                           sslim@archi.snu.ac.kr       */
   8:adpcm.c       **** /*                                         Real-Time Research Group      */
   9:adpcm.c       **** /*                                        Seoul National University      */
  10:adpcm.c       **** /*                                                                       */
  11:adpcm.c       **** /*                                                                       */
  12:adpcm.c       **** /*        < Features > - restrictions for our experimental environment   */
  13:adpcm.c       **** /*                                                                       */
  14:adpcm.c       **** /*          1. Completely structured.                                    */
  15:adpcm.c       **** /*               - There are no unconditional jumps.                     */
  16:adpcm.c       **** /*               - There are no exit from loop bodies.                   */
  17:adpcm.c       **** /*                 (There are no 'break' or 'return' in loop bodies)     */
  18:adpcm.c       **** /*          2. No 'switch' statements.                                   */
  19:adpcm.c       **** /*          3. No 'do..while' statements.                                */
  20:adpcm.c       **** /*          4. Expressions are restricted.                               */
  21:adpcm.c       **** /*               - There are no multiple expressions joined by 'or',     */
  22:adpcm.c       **** /*                'and' operations.                                      */
  23:adpcm.c       **** /*          5. No library calls.                                         */
  24:adpcm.c       **** /*               - All the functions needed are implemented in the       */
  25:adpcm.c       **** /*                 source file.                                          */
  26:adpcm.c       **** /*          6. Printouts removed (Jan G)                                 */
  27:adpcm.c       **** /*                                                                       */
  28:adpcm.c       **** /*                                                                       */
  29:adpcm.c       **** /*                                                                       */
  30:adpcm.c       **** /*************************************************************************/
  31:adpcm.c       **** /*                                                                       */
  32:adpcm.c       **** /*  FILE: adpcm.c                                                        */
  33:adpcm.c       **** /*  SOURCE : C Algorithms for Real-Time DSP by P. M. Embree              */
  34:adpcm.c       **** /*                                                                       */
  35:adpcm.c       **** /*  DESCRIPTION :                                                        */
  36:adpcm.c       **** /*                                                                       */
  37:adpcm.c       **** /*     CCITT G.722 ADPCM (Adaptive Differential Pulse Code Modulation)   */
  38:adpcm.c       **** /*     algorithm.                                                        */
  39:adpcm.c       **** /*     16khz sample rate data is stored in the array test_data[SIZE].    */
  40:adpcm.c       **** /*     Results are stored in the array compressed[SIZE] and result[SIZE].*/
  41:adpcm.c       **** /*     Execution time is determined by the constant SIZE (default value  */
  42:adpcm.c       **** /*     is 2000).                                                         */
  43:adpcm.c       **** /*                                                                       */
  44:adpcm.c       **** #ifdef __AVR__
  45:adpcm.c       ****   #include <stdint.h>
  46:adpcm.c       ****   #include <inttypes.h>
  47:adpcm.c       ****   #include <avr/pgmspace.h>
  48:adpcm.c       **** #define STORE_IN_TEXT_SEGMENT   PROGMEM /* __attribute__ ((section (".text"))) */
  49:adpcm.c       **** 
  50:adpcm.c       **** #else
  51:adpcm.c       ****   #include <inttypes.h>
  52:adpcm.c       ****   #define STORE_IN_TEXT_SEGMENT   /* nada */
  53:adpcm.c       **** #endif
  54:adpcm.c       **** 
  55:adpcm.c       **** /* common sampling rate for sound cards on IBM/PC */
  56:adpcm.c       **** #define SAMPLE_RATE 11025
  57:adpcm.c       **** 
  58:adpcm.c       **** #define PI 3141
  59:adpcm.c       **** #define SIZE 20
  60:adpcm.c       **** #define IN_END (SIZE*2) // Bugfix MBe, 2015/Jul/22: SIZE -> IN_END
  61:adpcm.c       **** 
  62:adpcm.c       **** /* COMPLEX STRUCTURE */
  63:adpcm.c       **** 
  64:adpcm.c       **** typedef struct {
  65:adpcm.c       ****     int32_t real, imag;
  66:adpcm.c       **** } COMPLEX;
  67:adpcm.c       **** 
  68:adpcm.c       **** /* function prototypes for fft and filter functions */
  69:adpcm.c       **** void fft(COMPLEX *,int32_t);
  70:adpcm.c       **** int32_t fir_filter(int32_t input,int32_t *coef,int32_t n,int32_t *history);
  71:adpcm.c       **** int32_t iir_filter(int32_t input,int32_t *coef,int32_t n,int32_t *history);
  72:adpcm.c       **** int32_t gaussian(void);
  73:adpcm.c       **** int32_t my_abs(int32_t n);
  74:adpcm.c       **** 
  75:adpcm.c       **** void setup_codec(int32_t),key_down(),int_enable(),int_disable();
  76:adpcm.c       **** int32_t flags(int32_t);
  77:adpcm.c       **** 
  78:adpcm.c       **** int32_t getinput(void);
  79:adpcm.c       **** void sendout(int32_t),flush();
  80:adpcm.c       **** 
  81:adpcm.c       **** int32_t encode(int32_t,int32_t);
  82:adpcm.c       **** void decode(int32_t);
  83:adpcm.c       **** int32_t filtez(int32_t *bpl,int32_t *dlt);
  84:adpcm.c       **** void upzero(int32_t dlt,int32_t *dlti,int32_t *bli);
  85:adpcm.c       **** int32_t filtep(int32_t rlt1,int32_t al1,int32_t rlt2,int32_t al2);
  86:adpcm.c       **** int32_t quantl(int32_t el,int32_t detl);
  87:adpcm.c       **** /* int32_t invqxl(int32_t il,int32_t detl,int32_t *code_table,int32_t mode); */
  88:adpcm.c       **** int32_t logscl(int32_t il,int32_t nbl);
  89:adpcm.c       **** int32_t scalel(int32_t nbl,int32_t shift_constant);
  90:adpcm.c       **** int32_t uppol2(int32_t al1,int32_t al2,int32_t plt,int32_t plt1,int32_t plt2);
  91:adpcm.c       **** int32_t uppol1(int32_t al1,int32_t apl2,int32_t plt,int32_t plt1);
  92:adpcm.c       **** /* int32_t invqah(int32_t ih,int32_t deth); */
  93:adpcm.c       **** int32_t logsch(int32_t ih,int32_t nbh);
  94:adpcm.c       **** void reset();
  95:adpcm.c       **** int32_t my_fabs(int32_t n);
  96:adpcm.c       **** int32_t my_cos(int32_t n);
  97:adpcm.c       **** int32_t my_sin(int32_t n);
  98:adpcm.c       **** 
  99:adpcm.c       **** /* G722 C code */
 100:adpcm.c       **** 
 101:adpcm.c       **** /* variables for transimit quadrature mirror filter here */
 102:adpcm.c       **** int32_t tqmf[24];
 103:adpcm.c       **** 
 104:adpcm.c       **** /* QMF filter coefficients:
 105:adpcm.c       **** scaled by a factor of 4 compared to G722 CCITT recommendation */
 106:adpcm.c       **** int32_t h[24] = {
 107:adpcm.c       ****     12,   -44,   -44,   212,    48,  -624,   128,  1448,
 108:adpcm.c       ****   -840, -3220,  3804, 15504, 15504,  3804, -3220,  -840,
 109:adpcm.c       ****   1448,   128,  -624,    48,   212,   -44,   -44,    12
 110:adpcm.c       **** };
 111:adpcm.c       **** 
 112:adpcm.c       **** int32_t xl,xh;
 113:adpcm.c       **** 
 114:adpcm.c       **** /* variables for receive quadrature mirror filter here */
 115:adpcm.c       **** int32_t accumc[11],accumd[11];
 116:adpcm.c       **** 
 117:adpcm.c       **** /* outputs of decode() */
 118:adpcm.c       **** int32_t xout1,xout2;
 119:adpcm.c       **** 
 120:adpcm.c       **** int32_t xs,xd;
 121:adpcm.c       **** 
 122:adpcm.c       **** /* variables for encoder (hi and lo) here */
 123:adpcm.c       **** 
 124:adpcm.c       **** int32_t il,szl,spl,sl,el;
 125:adpcm.c       **** 
 126:adpcm.c       **** int32_t qq4_code4_table[16] = {
 127:adpcm.c       ****      0,  -20456,  -12896,   -8968,   -6288,   -4240,   -2584,   -1200,
 128:adpcm.c       ****  20456,   12896,    8968,    6288,    4240,    2584,    1200,       0
 129:adpcm.c       **** };
 130:adpcm.c       **** 
 131:adpcm.c       **** int32_t qq5_code5_table[32] = {
 132:adpcm.c       ****   -280,    -280,  -23352,  -17560,  -14120,  -11664,   -9752,   -8184,
 133:adpcm.c       ****  -6864,   -5712,   -4696,   -3784,   -2960,   -2208,   -1520,    -880,
 134:adpcm.c       ****  23352,   17560,   14120,   11664,    9752,    8184,    6864,    5712,
 135:adpcm.c       ****   4696,    3784,    2960,    2208,    1520,     880,     280,    -280
 136:adpcm.c       **** };
 137:adpcm.c       **** 
 138:adpcm.c       **** int32_t qq6_code6_table[64] = {
 139:adpcm.c       ****   -136,    -136,    -136,    -136,  -24808,  -21904,  -19008,  -16704,
 140:adpcm.c       **** -14984,  -13512,  -12280,  -11192,  -10232,   -9360,   -8576,   -7856,
 141:adpcm.c       ****  -7192,   -6576,   -6000,   -5456,   -4944,   -4464,   -4008,   -3576,
 142:adpcm.c       ****  -3168,   -2776,   -2400,   -2032,   -1688,   -1360,   -1040,    -728,
 143:adpcm.c       ****  24808,   21904,   19008,   16704,   14984,   13512,   12280,   11192,
 144:adpcm.c       ****  10232,    9360,    8576,    7856,    7192,    6576,    6000,    5456,
 145:adpcm.c       ****   4944,    4464,    4008,    3576,    3168,    2776,    2400,    2032,
 146:adpcm.c       ****   1688,    1360,    1040,     728,     432,     136,    -432,    -136
 147:adpcm.c       **** };
 148:adpcm.c       **** 
 149:adpcm.c       **** int32_t delay_bpl[6];
 150:adpcm.c       **** 
 151:adpcm.c       **** int32_t delay_dltx[6];
 152:adpcm.c       **** 
 153:adpcm.c       **** int32_t wl_code_table[16] = {
 154:adpcm.c       ****    -60,  3042,  1198,   538,   334,   172,    58,   -30,
 155:adpcm.c       ****   3042,  1198,   538,   334,   172,    58,   -30,   -60
 156:adpcm.c       **** };
 157:adpcm.c       **** 
 158:adpcm.c       **** int32_t wl_table[8] = {
 159:adpcm.c       ****    -60,   -30,    58,   172,   334,   538,  1198,  3042
 160:adpcm.c       **** };
 161:adpcm.c       **** 
 162:adpcm.c       **** int32_t ilb_table[32] = {
 163:adpcm.c       ****   2048,  2093,  2139,  2186,  2233,  2282,  2332,  2383,
 164:adpcm.c       ****   2435,  2489,  2543,  2599,  2656,  2714,  2774,  2834,
 165:adpcm.c       ****   2896,  2960,  3025,  3091,  3158,  3228,  3298,  3371,
 166:adpcm.c       ****   3444,  3520,  3597,  3676,  3756,  3838,  3922,  4008
 167:adpcm.c       **** };
 168:adpcm.c       **** 
 169:adpcm.c       **** int32_t         nbl;                  /* delay line */
 170:adpcm.c       **** int32_t         al1,al2;
 171:adpcm.c       **** int32_t         plt,plt1,plt2;
 172:adpcm.c       **** int32_t         rs;
 173:adpcm.c       **** int32_t         dlt;
 174:adpcm.c       **** int32_t         rlt,rlt1,rlt2;
 175:adpcm.c       **** 
 176:adpcm.c       **** /* decision levels - pre-multiplied by 8, 0 to indicate end */
 177:adpcm.c       **** int32_t decis_levl[30] = {
 178:adpcm.c       ****    280,   576,   880,  1200,  1520,  1864,  2208,  2584,
 179:adpcm.c       ****   2960,  3376,  3784,  4240,  4696,  5200,  5712,  6288,
 180:adpcm.c       ****   6864,  7520,  8184,  8968,  9752, 10712, 11664, 12896,
 181:adpcm.c       ****  14120, 15840, 17560, 20456, 23352, 32767
 182:adpcm.c       **** };
 183:adpcm.c       **** 
 184:adpcm.c       **** int32_t         detl;
 185:adpcm.c       **** 
 186:adpcm.c       **** /* quantization table 31 int64_t to make quantl look-up easier,
 187:adpcm.c       **** last entry is for mil=30 case when wd is max */
 188:adpcm.c       **** int32_t quant26bt_pos[31] = {
 189:adpcm.c       ****     61,    60,    59,    58,    57,    56,    55,    54,
 190:adpcm.c       ****     53,    52,    51,    50,    49,    48,    47,    46,
 191:adpcm.c       ****     45,    44,    43,    42,    41,    40,    39,    38,
 192:adpcm.c       ****     37,    36,    35,    34,    33,    32,    32
 193:adpcm.c       **** };
 194:adpcm.c       **** 
 195:adpcm.c       **** /* quantization table 31 int64_t to make quantl look-up easier,
 196:adpcm.c       **** last entry is for mil=30 case when wd is max */
 197:adpcm.c       **** int32_t quant26bt_neg[31] = {
 198:adpcm.c       ****     63,    62,    31,    30,    29,    28,    27,    26,
 199:adpcm.c       ****     25,    24,    23,    22,    21,    20,    19,    18,
 200:adpcm.c       ****     17,    16,    15,    14,    13,    12,    11,    10,
 201:adpcm.c       ****      9,     8,     7,     6,     5,     4,     4
 202:adpcm.c       **** };
 203:adpcm.c       **** 
 204:adpcm.c       **** 
 205:adpcm.c       **** int32_t         deth;
 206:adpcm.c       **** int32_t         sh;         /* this comes from adaptive predictor */
 207:adpcm.c       **** int32_t         eh;
 208:adpcm.c       **** 
 209:adpcm.c       **** int32_t qq2_code2_table[4] = {
 210:adpcm.c       ****   -7408,   -1616,   7408,  1616
 211:adpcm.c       **** };
 212:adpcm.c       **** 
 213:adpcm.c       **** int32_t wh_code_table[4] = {
 214:adpcm.c       ****    798,   -214,    798,   -214
 215:adpcm.c       **** };
 216:adpcm.c       **** 
 217:adpcm.c       **** 
 218:adpcm.c       **** int32_t         dh,ih;
 219:adpcm.c       **** int32_t         nbh,szh;
 220:adpcm.c       **** int32_t         sph,ph,yh,rh;
 221:adpcm.c       **** 
 222:adpcm.c       **** int32_t         delay_dhx[6];
 223:adpcm.c       **** 
 224:adpcm.c       **** int32_t         delay_bph[6];
 225:adpcm.c       **** 
 226:adpcm.c       **** int32_t         ah1,ah2;
 227:adpcm.c       **** int32_t         ph1,ph2;
 228:adpcm.c       **** int32_t         rh1,rh2;
 229:adpcm.c       **** 
 230:adpcm.c       **** /* variables for decoder here */
 231:adpcm.c       **** int32_t         ilr,yl,rl;
 232:adpcm.c       **** int32_t         dec_deth,dec_detl,dec_dlt;
 233:adpcm.c       **** 
 234:adpcm.c       **** int32_t         dec_del_bpl[6];
 235:adpcm.c       **** 
 236:adpcm.c       **** int32_t         dec_del_dltx[6];
 237:adpcm.c       **** 
 238:adpcm.c       **** int32_t     dec_plt,dec_plt1,dec_plt2;
 239:adpcm.c       **** int32_t     dec_szl,dec_spl,dec_sl;
 240:adpcm.c       **** int32_t     dec_rlt1,dec_rlt2,dec_rlt;
 241:adpcm.c       **** int32_t     dec_al1,dec_al2;
 242:adpcm.c       **** int32_t     dl;
 243:adpcm.c       **** int32_t     dec_nbl,dec_yh,dec_dh,dec_nbh;
 244:adpcm.c       **** 
 245:adpcm.c       **** /* variables used in filtez */
 246:adpcm.c       **** int32_t         dec_del_bph[6];
 247:adpcm.c       **** 
 248:adpcm.c       **** int32_t         dec_del_dhx[6];
 249:adpcm.c       **** 
 250:adpcm.c       **** int32_t         dec_szh;
 251:adpcm.c       **** /* variables used in filtep */
 252:adpcm.c       **** int32_t         dec_rh1,dec_rh2;
 253:adpcm.c       **** int32_t         dec_ah1,dec_ah2;
 254:adpcm.c       **** int32_t         dec_ph,dec_sph;
 255:adpcm.c       **** 
 256:adpcm.c       **** int32_t     dec_sh,dec_rh;
 257:adpcm.c       **** 
 258:adpcm.c       **** int32_t     dec_ph1,dec_ph2;
 259:adpcm.c       **** 
 260:adpcm.c       **** /* G722 encode function two ints in, one 8 bit output */
 261:adpcm.c       **** 
 262:adpcm.c       **** /* put input samples in xin1 = first value, xin2 = second value */
 263:adpcm.c       **** /* returns il and ih stored together */
 264:adpcm.c       **** 
 265:adpcm.c       **** /* MAX: 1 */
 266:adpcm.c       **** int32_t my_abs(int32_t n)
 267:adpcm.c       **** {
 1318               		.loc 1 267 0
 1319               		.cfi_startproc
 1320 0000 CF93      		push r28
 1321               	.LCFI0:
 1322               		.cfi_def_cfa_offset 3
 1323               		.cfi_offset 28, -2
 1324 0002 DF93      		push r29
 1325               	.LCFI1:
 1326               		.cfi_def_cfa_offset 4
 1327               		.cfi_offset 29, -3
 1328 0004 CDB7      		in r28,__SP_L__
 1329 0006 DEB7      		in r29,__SP_H__
 1330               	.LCFI2:
 1331               		.cfi_def_cfa_register 28
 1332 0008 2897      		sbiw r28,8
 1333               	.LCFI3:
 1334               		.cfi_def_cfa_offset 12
 1335 000a 0FB6      		in __tmp_reg__,__SREG__
 1336 000c F894      		cli
 1337 000e DEBF      		out __SP_H__,r29
 1338 0010 0FBE      		out __SREG__,__tmp_reg__
 1339 0012 CDBF      		out __SP_L__,r28
 1340               	/* prologue: function */
 1341               	/* frame size = 8 */
 1342               	/* stack size = 10 */
 1343               	.L__stack_usage = 10
 1344 0014 6D83      		std Y+5,r22
 1345 0016 7E83      		std Y+6,r23
 1346 0018 8F83      		std Y+7,r24
 1347 001a 9887      		std Y+8,r25
 268:adpcm.c       ****   int32_t m;
 269:adpcm.c       **** 
 270:adpcm.c       ****   if (n >= 0) m = n;
 1348               		.loc 1 270 0
 1349 001c 8D81      		ldd r24,Y+5
 1350 001e 9E81      		ldd r25,Y+6
 1351 0020 AF81      		ldd r26,Y+7
 1352 0022 B885      		ldd r27,Y+8
 1353 0024 BB23      		tst r27
 1354 0026 04F0      		brlt .L2
 1355               		.loc 1 270 0 is_stmt 0 discriminator 1
 1356 0028 8D81      		ldd r24,Y+5
 1357 002a 9E81      		ldd r25,Y+6
 1358 002c AF81      		ldd r26,Y+7
 1359 002e B885      		ldd r27,Y+8
 1360 0030 8983      		std Y+1,r24
 1361 0032 9A83      		std Y+2,r25
 1362 0034 AB83      		std Y+3,r26
 1363 0036 BC83      		std Y+4,r27
 1364 0038 00C0      		rjmp .L3
 1365               	.L2:
 271:adpcm.c       ****   else m = -n;
 1366               		.loc 1 271 0 is_stmt 1
 1367 003a 8D81      		ldd r24,Y+5
 1368 003c 9E81      		ldd r25,Y+6
 1369 003e AF81      		ldd r26,Y+7
 1370 0040 B885      		ldd r27,Y+8
 1371 0042 B095      		com r27
 1372 0044 A095      		com r26
 1373 0046 9095      		com r25
 1374 0048 8195      		neg r24
 1375 004a 9F4F      		sbci r25,lo8(-1)
 1376 004c AF4F      		sbci r26,lo8(-1)
 1377 004e BF4F      		sbci r27,lo8(-1)
 1378 0050 8983      		std Y+1,r24
 1379 0052 9A83      		std Y+2,r25
 1380 0054 AB83      		std Y+3,r26
 1381 0056 BC83      		std Y+4,r27
 1382               	.L3:
 272:adpcm.c       ****   return m;
 1383               		.loc 1 272 0
 1384 0058 8981      		ldd r24,Y+1
 1385 005a 9A81      		ldd r25,Y+2
 1386 005c AB81      		ldd r26,Y+3
 1387 005e BC81      		ldd r27,Y+4
 273:adpcm.c       **** }
 1388               		.loc 1 273 0
 1389 0060 BC01      		movw r22,r24
 1390 0062 CD01      		movw r24,r26
 1391               	/* epilogue start */
 1392 0064 2896      		adiw r28,8
 1393 0066 0FB6      		in __tmp_reg__,__SREG__
 1394 0068 F894      		cli
 1395 006a DEBF      		out __SP_H__,r29
 1396 006c 0FBE      		out __SREG__,__tmp_reg__
 1397 006e CDBF      		out __SP_L__,r28
 1398 0070 DF91      		pop r29
 1399 0072 CF91      		pop r28
 1400 0074 0895      		ret
 1401               		.cfi_endproc
 1402               	.LFE1:
 1404               	.global	my_fabs
 1406               	my_fabs:
 1407               	.LFB2:
 274:adpcm.c       **** 
 275:adpcm.c       **** /* MAX: 1 */
 276:adpcm.c       **** int32_t my_fabs(int32_t n)
 277:adpcm.c       **** {
 1408               		.loc 1 277 0
 1409               		.cfi_startproc
 1410 0076 CF93      		push r28
 1411               	.LCFI4:
 1412               		.cfi_def_cfa_offset 3
 1413               		.cfi_offset 28, -2
 1414 0078 DF93      		push r29
 1415               	.LCFI5:
 1416               		.cfi_def_cfa_offset 4
 1417               		.cfi_offset 29, -3
 1418 007a CDB7      		in r28,__SP_L__
 1419 007c DEB7      		in r29,__SP_H__
 1420               	.LCFI6:
 1421               		.cfi_def_cfa_register 28
 1422 007e 2897      		sbiw r28,8
 1423               	.LCFI7:
 1424               		.cfi_def_cfa_offset 12
 1425 0080 0FB6      		in __tmp_reg__,__SREG__
 1426 0082 F894      		cli
 1427 0084 DEBF      		out __SP_H__,r29
 1428 0086 0FBE      		out __SREG__,__tmp_reg__
 1429 0088 CDBF      		out __SP_L__,r28
 1430               	/* prologue: function */
 1431               	/* frame size = 8 */
 1432               	/* stack size = 10 */
 1433               	.L__stack_usage = 10
 1434 008a 6D83      		std Y+5,r22
 1435 008c 7E83      		std Y+6,r23
 1436 008e 8F83      		std Y+7,r24
 1437 0090 9887      		std Y+8,r25
 278:adpcm.c       ****   int32_t f;
 279:adpcm.c       **** 
 280:adpcm.c       ****   if (n >= 0) f = n;
 1438               		.loc 1 280 0
 1439 0092 8D81      		ldd r24,Y+5
 1440 0094 9E81      		ldd r25,Y+6
 1441 0096 AF81      		ldd r26,Y+7
 1442 0098 B885      		ldd r27,Y+8
 1443 009a BB23      		tst r27
 1444 009c 04F0      		brlt .L6
 1445               		.loc 1 280 0 is_stmt 0 discriminator 1
 1446 009e 8D81      		ldd r24,Y+5
 1447 00a0 9E81      		ldd r25,Y+6
 1448 00a2 AF81      		ldd r26,Y+7
 1449 00a4 B885      		ldd r27,Y+8
 1450 00a6 8983      		std Y+1,r24
 1451 00a8 9A83      		std Y+2,r25
 1452 00aa AB83      		std Y+3,r26
 1453 00ac BC83      		std Y+4,r27
 1454 00ae 00C0      		rjmp .L7
 1455               	.L6:
 281:adpcm.c       ****   else f = -n;
 1456               		.loc 1 281 0 is_stmt 1
 1457 00b0 8D81      		ldd r24,Y+5
 1458 00b2 9E81      		ldd r25,Y+6
 1459 00b4 AF81      		ldd r26,Y+7
 1460 00b6 B885      		ldd r27,Y+8
 1461 00b8 B095      		com r27
 1462 00ba A095      		com r26
 1463 00bc 9095      		com r25
 1464 00be 8195      		neg r24
 1465 00c0 9F4F      		sbci r25,lo8(-1)
 1466 00c2 AF4F      		sbci r26,lo8(-1)
 1467 00c4 BF4F      		sbci r27,lo8(-1)
 1468 00c6 8983      		std Y+1,r24
 1469 00c8 9A83      		std Y+2,r25
 1470 00ca AB83      		std Y+3,r26
 1471 00cc BC83      		std Y+4,r27
 1472               	.L7:
 282:adpcm.c       ****   return f;
 1473               		.loc 1 282 0
 1474 00ce 8981      		ldd r24,Y+1
 1475 00d0 9A81      		ldd r25,Y+2
 1476 00d2 AB81      		ldd r26,Y+3
 1477 00d4 BC81      		ldd r27,Y+4
 283:adpcm.c       **** }
 1478               		.loc 1 283 0
 1479 00d6 BC01      		movw r22,r24
 1480 00d8 CD01      		movw r24,r26
 1481               	/* epilogue start */
 1482 00da 2896      		adiw r28,8
 1483 00dc 0FB6      		in __tmp_reg__,__SREG__
 1484 00de F894      		cli
 1485 00e0 DEBF      		out __SP_H__,r29
 1486 00e2 0FBE      		out __SREG__,__tmp_reg__
 1487 00e4 CDBF      		out __SP_L__,r28
 1488 00e6 DF91      		pop r29
 1489 00e8 CF91      		pop r28
 1490 00ea 0895      		ret
 1491               		.cfi_endproc
 1492               	.LFE2:
 1494               	.global	my_sin
 1496               	my_sin:
 1497               	.LFB3:
 284:adpcm.c       **** 
 285:adpcm.c       **** int32_t my_sin(int32_t rad)
 286:adpcm.c       **** {
 1498               		.loc 1 286 0
 1499               		.cfi_startproc
 1500 00ec EF92      		push r14
 1501               	.LCFI8:
 1502               		.cfi_def_cfa_offset 3
 1503               		.cfi_offset 14, -2
 1504 00ee FF92      		push r15
 1505               	.LCFI9:
 1506               		.cfi_def_cfa_offset 4
 1507               		.cfi_offset 15, -3
 1508 00f0 0F93      		push r16
 1509               	.LCFI10:
 1510               		.cfi_def_cfa_offset 5
 1511               		.cfi_offset 16, -4
 1512 00f2 1F93      		push r17
 1513               	.LCFI11:
 1514               		.cfi_def_cfa_offset 6
 1515               		.cfi_offset 17, -5
 1516 00f4 CF93      		push r28
 1517               	.LCFI12:
 1518               		.cfi_def_cfa_offset 7
 1519               		.cfi_offset 28, -6
 1520 00f6 DF93      		push r29
 1521               	.LCFI13:
 1522               		.cfi_def_cfa_offset 8
 1523               		.cfi_offset 29, -7
 1524 00f8 CDB7      		in r28,__SP_L__
 1525 00fa DEB7      		in r29,__SP_H__
 1526               	.LCFI14:
 1527               		.cfi_def_cfa_register 28
 1528 00fc 6897      		sbiw r28,24
 1529               	.LCFI15:
 1530               		.cfi_def_cfa_offset 32
 1531 00fe 0FB6      		in __tmp_reg__,__SREG__
 1532 0100 F894      		cli
 1533 0102 DEBF      		out __SP_H__,r29
 1534 0104 0FBE      		out __SREG__,__tmp_reg__
 1535 0106 CDBF      		out __SP_L__,r28
 1536               	/* prologue: function */
 1537               	/* frame size = 24 */
 1538               	/* stack size = 30 */
 1539               	.L__stack_usage = 30
 1540 0108 6D87      		std Y+13,r22
 1541 010a 7E87      		std Y+14,r23
 1542 010c 8F87      		std Y+15,r24
 1543 010e 988B      		std Y+16,r25
 287:adpcm.c       ****   int32_t diff;
 288:adpcm.c       ****   int32_t app=0;
 1544               		.loc 1 288 0
 1545 0110 1D82      		std Y+5,__zero_reg__
 1546 0112 1E82      		std Y+6,__zero_reg__
 1547 0114 1F82      		std Y+7,__zero_reg__
 1548 0116 1886      		std Y+8,__zero_reg__
 289:adpcm.c       **** 
 290:adpcm.c       ****   int32_t inc = 1;
 1549               		.loc 1 290 0
 1550 0118 81E0      		ldi r24,lo8(1)
 1551 011a 90E0      		ldi r25,0
 1552 011c A0E0      		ldi r26,0
 1553 011e B0E0      		ldi r27,0
 1554 0120 8987      		std Y+9,r24
 1555 0122 9A87      		std Y+10,r25
 1556 0124 AB87      		std Y+11,r26
 1557 0126 BC87      		std Y+12,r27
 291:adpcm.c       **** 
 292:adpcm.c       ****   /* MAX dependent on rad's value, say 50 */
 293:adpcm.c       ****   while (rad > 2*PI)
 1558               		.loc 1 293 0
 1559 0128 00C0      		rjmp .L10
 1560               	.L11:
 294:adpcm.c       ****       rad -= 2*PI;
 1561               		.loc 1 294 0
 1562 012a 8D85      		ldd r24,Y+13
 1563 012c 9E85      		ldd r25,Y+14
 1564 012e AF85      		ldd r26,Y+15
 1565 0130 B889      		ldd r27,Y+16
 1566 0132 8A58      		subi r24,-118
 1567 0134 9841      		sbci r25,24
 1568 0136 A109      		sbc r26,__zero_reg__
 1569 0138 B109      		sbc r27,__zero_reg__
 1570 013a 8D87      		std Y+13,r24
 1571 013c 9E87      		std Y+14,r25
 1572 013e AF87      		std Y+15,r26
 1573 0140 B88B      		std Y+16,r27
 1574               	.L10:
 293:adpcm.c       ****       rad -= 2*PI;
 1575               		.loc 1 293 0 discriminator 1
 1576 0142 8D85      		ldd r24,Y+13
 1577 0144 9E85      		ldd r25,Y+14
 1578 0146 AF85      		ldd r26,Y+15
 1579 0148 B889      		ldd r27,Y+16
 1580 014a 8B38      		cpi r24,-117
 1581 014c 28E1      		ldi r18,24
 1582 014e 9207      		cpc r25,r18
 1583 0150 A105      		cpc r26,__zero_reg__
 1584 0152 B105      		cpc r27,__zero_reg__
 1585 0154 04F4      		brge .L11
 295:adpcm.c       ****   /* MAX dependent on rad's value, say 50 */
 296:adpcm.c       ****   while (rad < -2*PI)
 1586               		.loc 1 296 0
 1587 0156 00C0      		rjmp .L12
 1588               	.L13:
 297:adpcm.c       ****       rad += 2*PI;
 1589               		.loc 1 297 0
 1590 0158 8D85      		ldd r24,Y+13
 1591 015a 9E85      		ldd r25,Y+14
 1592 015c AF85      		ldd r26,Y+15
 1593 015e B889      		ldd r27,Y+16
 1594 0160 8657      		subi r24,118
 1595 0162 974E      		sbci r25,-25
 1596 0164 AF4F      		sbci r26,-1
 1597 0166 BF4F      		sbci r27,-1
 1598 0168 8D87      		std Y+13,r24
 1599 016a 9E87      		std Y+14,r25
 1600 016c AF87      		std Y+15,r26
 1601 016e B88B      		std Y+16,r27
 1602               	.L12:
 296:adpcm.c       ****       rad += 2*PI;
 1603               		.loc 1 296 0 discriminator 1
 1604 0170 8D85      		ldd r24,Y+13
 1605 0172 9E85      		ldd r25,Y+14
 1606 0174 AF85      		ldd r26,Y+15
 1607 0176 B889      		ldd r27,Y+16
 1608 0178 8637      		cpi r24,118
 1609 017a 27EE      		ldi r18,-25
 1610 017c 9207      		cpc r25,r18
 1611 017e 2FEF      		ldi r18,-1
 1612 0180 A207      		cpc r26,r18
 1613 0182 B207      		cpc r27,r18
 1614 0184 04F0      		brlt .L13
 298:adpcm.c       ****    diff = rad;
 1615               		.loc 1 298 0
 1616 0186 8D85      		ldd r24,Y+13
 1617 0188 9E85      		ldd r25,Y+14
 1618 018a AF85      		ldd r26,Y+15
 1619 018c B889      		ldd r27,Y+16
 1620 018e 8983      		std Y+1,r24
 1621 0190 9A83      		std Y+2,r25
 1622 0192 AB83      		std Y+3,r26
 1623 0194 BC83      		std Y+4,r27
 299:adpcm.c       ****    app = diff;
 1624               		.loc 1 299 0
 1625 0196 8981      		ldd r24,Y+1
 1626 0198 9A81      		ldd r25,Y+2
 1627 019a AB81      		ldd r26,Y+3
 1628 019c BC81      		ldd r27,Y+4
 1629 019e 8D83      		std Y+5,r24
 1630 01a0 9E83      		std Y+6,r25
 1631 01a2 AF83      		std Y+7,r26
 1632 01a4 B887      		std Y+8,r27
 300:adpcm.c       ****   diff = (diff * (-(rad*rad))) /
 1633               		.loc 1 300 0
 1634 01a6 2D85      		ldd r18,Y+13
 1635 01a8 3E85      		ldd r19,Y+14
 1636 01aa 4F85      		ldd r20,Y+15
 1637 01ac 5889      		ldd r21,Y+16
 1638 01ae 8D85      		ldd r24,Y+13
 1639 01b0 9E85      		ldd r25,Y+14
 1640 01b2 AF85      		ldd r26,Y+15
 1641 01b4 B889      		ldd r27,Y+16
 1642 01b6 BC01      		movw r22,r24
 1643 01b8 CD01      		movw r24,r26
 1644 01ba 0E94 0000 		call __mulsi3
 1645 01be DC01      		movw r26,r24
 1646 01c0 CB01      		movw r24,r22
 1647 01c2 2227      		clr r18
 1648 01c4 3327      		clr r19
 1649 01c6 A901      		movw r20,r18
 1650 01c8 281B      		sub r18,r24
 1651 01ca 390B      		sbc r19,r25
 1652 01cc 4A0B      		sbc r20,r26
 1653 01ce 5B0B      		sbc r21,r27
 1654 01d0 8981      		ldd r24,Y+1
 1655 01d2 9A81      		ldd r25,Y+2
 1656 01d4 AB81      		ldd r26,Y+3
 1657 01d6 BC81      		ldd r27,Y+4
 1658 01d8 BC01      		movw r22,r24
 1659 01da CD01      		movw r24,r26
 1660 01dc 0E94 0000 		call __mulsi3
 1661 01e0 7B01      		movw r14,r22
 1662 01e2 8C01      		movw r16,r24
 301:adpcm.c       ****      ((2 * inc) * (2 * inc + 1));
 1663               		.loc 1 301 0
 1664 01e4 8985      		ldd r24,Y+9
 1665 01e6 9A85      		ldd r25,Y+10
 1666 01e8 AB85      		ldd r26,Y+11
 1667 01ea BC85      		ldd r27,Y+12
 1668 01ec 9C01      		movw r18,r24
 1669 01ee AD01      		movw r20,r26
 1670 01f0 220F      		lsl r18
 1671 01f2 331F      		rol r19
 1672 01f4 441F      		rol r20
 1673 01f6 551F      		rol r21
 1674 01f8 8985      		ldd r24,Y+9
 1675 01fa 9A85      		ldd r25,Y+10
 1676 01fc AB85      		ldd r26,Y+11
 1677 01fe BC85      		ldd r27,Y+12
 1678 0200 880F      		lsl r24
 1679 0202 991F      		rol r25
 1680 0204 AA1F      		rol r26
 1681 0206 BB1F      		rol r27
 1682 0208 0196      		adiw r24,1
 1683 020a A11D      		adc r26,__zero_reg__
 1684 020c B11D      		adc r27,__zero_reg__
 1685 020e BC01      		movw r22,r24
 1686 0210 CD01      		movw r24,r26
 1687 0212 0E94 0000 		call __mulsi3
 1688 0216 9B01      		movw r18,r22
 1689 0218 AC01      		movw r20,r24
 300:adpcm.c       ****   diff = (diff * (-(rad*rad))) /
 1690               		.loc 1 300 0
 1691 021a C801      		movw r24,r16
 1692 021c B701      		movw r22,r14
 1693 021e 0E94 0000 		call __divmodsi4
 1694 0222 DA01      		movw r26,r20
 1695 0224 C901      		movw r24,r18
 1696 0226 8983      		std Y+1,r24
 1697 0228 9A83      		std Y+2,r25
 1698 022a AB83      		std Y+3,r26
 1699 022c BC83      		std Y+4,r27
 302:adpcm.c       ****   app = app + diff;
 1700               		.loc 1 302 0
 1701 022e 2D81      		ldd r18,Y+5
 1702 0230 3E81      		ldd r19,Y+6
 1703 0232 4F81      		ldd r20,Y+7
 1704 0234 5885      		ldd r21,Y+8
 1705 0236 8981      		ldd r24,Y+1
 1706 0238 9A81      		ldd r25,Y+2
 1707 023a AB81      		ldd r26,Y+3
 1708 023c BC81      		ldd r27,Y+4
 1709 023e 820F      		add r24,r18
 1710 0240 931F      		adc r25,r19
 1711 0242 A41F      		adc r26,r20
 1712 0244 B51F      		adc r27,r21
 1713 0246 8D83      		std Y+5,r24
 1714 0248 9E83      		std Y+6,r25
 1715 024a AF83      		std Y+7,r26
 1716 024c B887      		std Y+8,r27
 303:adpcm.c       ****   inc++;
 1717               		.loc 1 303 0
 1718 024e 8985      		ldd r24,Y+9
 1719 0250 9A85      		ldd r25,Y+10
 1720 0252 AB85      		ldd r26,Y+11
 1721 0254 BC85      		ldd r27,Y+12
 1722 0256 0196      		adiw r24,1
 1723 0258 A11D      		adc r26,__zero_reg__
 1724 025a B11D      		adc r27,__zero_reg__
 1725 025c 8987      		std Y+9,r24
 1726 025e 9A87      		std Y+10,r25
 1727 0260 AB87      		std Y+11,r26
 1728 0262 BC87      		std Y+12,r27
 304:adpcm.c       ****   /* REALLY: while(my_fabs(diff) >= 0.00001) { */
 305:adpcm.c       ****   /* MAX: 1000 */
 306:adpcm.c       ****   while(my_fabs(diff) >= 1) {
 1729               		.loc 1 306 0
 1730 0264 00C0      		rjmp .L14
 1731               	.L15:
 307:adpcm.c       ****     diff = (diff * (-(rad*rad))) /
 1732               		.loc 1 307 0
 1733 0266 2D85      		ldd r18,Y+13
 1734 0268 3E85      		ldd r19,Y+14
 1735 026a 4F85      		ldd r20,Y+15
 1736 026c 5889      		ldd r21,Y+16
 1737 026e 8D85      		ldd r24,Y+13
 1738 0270 9E85      		ldd r25,Y+14
 1739 0272 AF85      		ldd r26,Y+15
 1740 0274 B889      		ldd r27,Y+16
 1741 0276 BC01      		movw r22,r24
 1742 0278 CD01      		movw r24,r26
 1743 027a 0E94 0000 		call __mulsi3
 1744 027e DC01      		movw r26,r24
 1745 0280 CB01      		movw r24,r22
 1746 0282 2227      		clr r18
 1747 0284 3327      		clr r19
 1748 0286 A901      		movw r20,r18
 1749 0288 281B      		sub r18,r24
 1750 028a 390B      		sbc r19,r25
 1751 028c 4A0B      		sbc r20,r26
 1752 028e 5B0B      		sbc r21,r27
 1753 0290 8981      		ldd r24,Y+1
 1754 0292 9A81      		ldd r25,Y+2
 1755 0294 AB81      		ldd r26,Y+3
 1756 0296 BC81      		ldd r27,Y+4
 1757 0298 BC01      		movw r22,r24
 1758 029a CD01      		movw r24,r26
 1759 029c 0E94 0000 		call __mulsi3
 1760 02a0 7B01      		movw r14,r22
 1761 02a2 8C01      		movw r16,r24
 308:adpcm.c       **** 	((2 * inc) * (2 * inc + 1));
 1762               		.loc 1 308 0
 1763 02a4 8985      		ldd r24,Y+9
 1764 02a6 9A85      		ldd r25,Y+10
 1765 02a8 AB85      		ldd r26,Y+11
 1766 02aa BC85      		ldd r27,Y+12
 1767 02ac 9C01      		movw r18,r24
 1768 02ae AD01      		movw r20,r26
 1769 02b0 220F      		lsl r18
 1770 02b2 331F      		rol r19
 1771 02b4 441F      		rol r20
 1772 02b6 551F      		rol r21
 1773 02b8 8985      		ldd r24,Y+9
 1774 02ba 9A85      		ldd r25,Y+10
 1775 02bc AB85      		ldd r26,Y+11
 1776 02be BC85      		ldd r27,Y+12
 1777 02c0 880F      		lsl r24
 1778 02c2 991F      		rol r25
 1779 02c4 AA1F      		rol r26
 1780 02c6 BB1F      		rol r27
 1781 02c8 0196      		adiw r24,1
 1782 02ca A11D      		adc r26,__zero_reg__
 1783 02cc B11D      		adc r27,__zero_reg__
 1784 02ce BC01      		movw r22,r24
 1785 02d0 CD01      		movw r24,r26
 1786 02d2 0E94 0000 		call __mulsi3
 1787 02d6 9B01      		movw r18,r22
 1788 02d8 AC01      		movw r20,r24
 307:adpcm.c       ****     diff = (diff * (-(rad*rad))) /
 1789               		.loc 1 307 0
 1790 02da C801      		movw r24,r16
 1791 02dc B701      		movw r22,r14
 1792 02de 0E94 0000 		call __divmodsi4
 1793 02e2 DA01      		movw r26,r20
 1794 02e4 C901      		movw r24,r18
 1795 02e6 8983      		std Y+1,r24
 1796 02e8 9A83      		std Y+2,r25
 1797 02ea AB83      		std Y+3,r26
 1798 02ec BC83      		std Y+4,r27
 309:adpcm.c       ****     app = app + diff;
 1799               		.loc 1 309 0
 1800 02ee 2D81      		ldd r18,Y+5
 1801 02f0 3E81      		ldd r19,Y+6
 1802 02f2 4F81      		ldd r20,Y+7
 1803 02f4 5885      		ldd r21,Y+8
 1804 02f6 8981      		ldd r24,Y+1
 1805 02f8 9A81      		ldd r25,Y+2
 1806 02fa AB81      		ldd r26,Y+3
 1807 02fc BC81      		ldd r27,Y+4
 1808 02fe 820F      		add r24,r18
 1809 0300 931F      		adc r25,r19
 1810 0302 A41F      		adc r26,r20
 1811 0304 B51F      		adc r27,r21
 1812 0306 8D83      		std Y+5,r24
 1813 0308 9E83      		std Y+6,r25
 1814 030a AF83      		std Y+7,r26
 1815 030c B887      		std Y+8,r27
 310:adpcm.c       ****     inc++;
 1816               		.loc 1 310 0
 1817 030e 8985      		ldd r24,Y+9
 1818 0310 9A85      		ldd r25,Y+10
 1819 0312 AB85      		ldd r26,Y+11
 1820 0314 BC85      		ldd r27,Y+12
 1821 0316 0196      		adiw r24,1
 1822 0318 A11D      		adc r26,__zero_reg__
 1823 031a B11D      		adc r27,__zero_reg__
 1824 031c 8987      		std Y+9,r24
 1825 031e 9A87      		std Y+10,r25
 1826 0320 AB87      		std Y+11,r26
 1827 0322 BC87      		std Y+12,r27
 1828               	.L14:
 306:adpcm.c       ****     diff = (diff * (-(rad*rad))) /
 1829               		.loc 1 306 0 discriminator 1
 1830 0324 8981      		ldd r24,Y+1
 1831 0326 9A81      		ldd r25,Y+2
 1832 0328 AB81      		ldd r26,Y+3
 1833 032a BC81      		ldd r27,Y+4
 1834 032c BC01      		movw r22,r24
 1835 032e CD01      		movw r24,r26
 1836 0330 0E94 0000 		call my_fabs
 1837 0334 DC01      		movw r26,r24
 1838 0336 CB01      		movw r24,r22
 1839 0338 1816      		cp __zero_reg__,r24
 1840 033a 1906      		cpc __zero_reg__,r25
 1841 033c 1A06      		cpc __zero_reg__,r26
 1842 033e 1B06      		cpc __zero_reg__,r27
 1843 0340 04F4      		brge .+2
 1844 0342 00C0      		rjmp .L15
 311:adpcm.c       ****   }
 312:adpcm.c       **** 
 313:adpcm.c       ****   return app;
 1845               		.loc 1 313 0
 1846 0344 8D81      		ldd r24,Y+5
 1847 0346 9E81      		ldd r25,Y+6
 1848 0348 AF81      		ldd r26,Y+7
 1849 034a B885      		ldd r27,Y+8
 314:adpcm.c       **** }
 1850               		.loc 1 314 0
 1851 034c BC01      		movw r22,r24
 1852 034e CD01      		movw r24,r26
 1853               	/* epilogue start */
 1854 0350 6896      		adiw r28,24
 1855 0352 0FB6      		in __tmp_reg__,__SREG__
 1856 0354 F894      		cli
 1857 0356 DEBF      		out __SP_H__,r29
 1858 0358 0FBE      		out __SREG__,__tmp_reg__
 1859 035a CDBF      		out __SP_L__,r28
 1860 035c DF91      		pop r29
 1861 035e CF91      		pop r28
 1862 0360 1F91      		pop r17
 1863 0362 0F91      		pop r16
 1864 0364 FF90      		pop r15
 1865 0366 EF90      		pop r14
 1866 0368 0895      		ret
 1867               		.cfi_endproc
 1868               	.LFE3:
 1870               	.global	my_cos
 1872               	my_cos:
 1873               	.LFB4:
 315:adpcm.c       **** 
 316:adpcm.c       **** 
 317:adpcm.c       **** int32_t my_cos(int32_t rad)
 318:adpcm.c       **** {
 1874               		.loc 1 318 0
 1875               		.cfi_startproc
 1876 036a EF92      		push r14
 1877               	.LCFI16:
 1878               		.cfi_def_cfa_offset 3
 1879               		.cfi_offset 14, -2
 1880 036c FF92      		push r15
 1881               	.LCFI17:
 1882               		.cfi_def_cfa_offset 4
 1883               		.cfi_offset 15, -3
 1884 036e 0F93      		push r16
 1885               	.LCFI18:
 1886               		.cfi_def_cfa_offset 5
 1887               		.cfi_offset 16, -4
 1888 0370 1F93      		push r17
 1889               	.LCFI19:
 1890               		.cfi_def_cfa_offset 6
 1891               		.cfi_offset 17, -5
 1892 0372 CF93      		push r28
 1893               	.LCFI20:
 1894               		.cfi_def_cfa_offset 7
 1895               		.cfi_offset 28, -6
 1896 0374 DF93      		push r29
 1897               	.LCFI21:
 1898               		.cfi_def_cfa_offset 8
 1899               		.cfi_offset 29, -7
 1900 0376 00D0      		rcall .
 1901 0378 00D0      		rcall .
 1902               	.LCFI22:
 1903               		.cfi_def_cfa_offset 12
 1904 037a CDB7      		in r28,__SP_L__
 1905 037c DEB7      		in r29,__SP_H__
 1906               	.LCFI23:
 1907               		.cfi_def_cfa_register 28
 1908               	/* prologue: function */
 1909               	/* frame size = 4 */
 1910               	/* stack size = 10 */
 1911               	.L__stack_usage = 10
 1912 037e 6983      		std Y+1,r22
 1913 0380 7A83      		std Y+2,r23
 1914 0382 8B83      		std Y+3,r24
 1915 0384 9C83      		std Y+4,r25
 319:adpcm.c       ****   return (my_sin (PI / 2 - rad));
 1916               		.loc 1 319 0
 1917 0386 22E2      		ldi r18,lo8(34)
 1918 0388 36E0      		ldi r19,lo8(6)
 1919 038a 40E0      		ldi r20,0
 1920 038c 50E0      		ldi r21,0
 1921 038e 8981      		ldd r24,Y+1
 1922 0390 9A81      		ldd r25,Y+2
 1923 0392 AB81      		ldd r26,Y+3
 1924 0394 BC81      		ldd r27,Y+4
 1925 0396 7901      		movw r14,r18
 1926 0398 8A01      		movw r16,r20
 1927 039a E81A      		sub r14,r24
 1928 039c F90A      		sbc r15,r25
 1929 039e 0A0B      		sbc r16,r26
 1930 03a0 1B0B      		sbc r17,r27
 1931 03a2 D801      		movw r26,r16
 1932 03a4 C701      		movw r24,r14
 1933 03a6 BC01      		movw r22,r24
 1934 03a8 CD01      		movw r24,r26
 1935 03aa 0E94 0000 		call my_sin
 1936 03ae DC01      		movw r26,r24
 1937 03b0 CB01      		movw r24,r22
 320:adpcm.c       **** }
 1938               		.loc 1 320 0
 1939 03b2 BC01      		movw r22,r24
 1940 03b4 CD01      		movw r24,r26
 1941               	/* epilogue start */
 1942 03b6 0F90      		pop __tmp_reg__
 1943 03b8 0F90      		pop __tmp_reg__
 1944 03ba 0F90      		pop __tmp_reg__
 1945 03bc 0F90      		pop __tmp_reg__
 1946 03be DF91      		pop r29
 1947 03c0 CF91      		pop r28
 1948 03c2 1F91      		pop r17
 1949 03c4 0F91      		pop r16
 1950 03c6 FF90      		pop r15
 1951 03c8 EF90      		pop r14
 1952 03ca 0895      		ret
 1953               		.cfi_endproc
 1954               	.LFE4:
 1956               	.global	__muldi3
 1957               	.global	encode
 1959               	encode:
 1960               	.LFB5:
 321:adpcm.c       **** 
 322:adpcm.c       **** 
 323:adpcm.c       **** /* MAX: 1 */
 324:adpcm.c       **** int32_t encode(int32_t xin1,int32_t xin2)
 325:adpcm.c       **** {
 1961               		.loc 1 325 0
 1962               		.cfi_startproc
 1963 03cc 2F92      		push r2
 1964               	.LCFI24:
 1965               		.cfi_def_cfa_offset 3
 1966               		.cfi_offset 2, -2
 1967 03ce 3F92      		push r3
 1968               	.LCFI25:
 1969               		.cfi_def_cfa_offset 4
 1970               		.cfi_offset 3, -3
 1971 03d0 4F92      		push r4
 1972               	.LCFI26:
 1973               		.cfi_def_cfa_offset 5
 1974               		.cfi_offset 4, -4
 1975 03d2 5F92      		push r5
 1976               	.LCFI27:
 1977               		.cfi_def_cfa_offset 6
 1978               		.cfi_offset 5, -5
 1979 03d4 6F92      		push r6
 1980               	.LCFI28:
 1981               		.cfi_def_cfa_offset 7
 1982               		.cfi_offset 6, -6
 1983 03d6 7F92      		push r7
 1984               	.LCFI29:
 1985               		.cfi_def_cfa_offset 8
 1986               		.cfi_offset 7, -7
 1987 03d8 8F92      		push r8
 1988               	.LCFI30:
 1989               		.cfi_def_cfa_offset 9
 1990               		.cfi_offset 8, -8
 1991 03da 9F92      		push r9
 1992               	.LCFI31:
 1993               		.cfi_def_cfa_offset 10
 1994               		.cfi_offset 9, -9
 1995 03dc AF92      		push r10
 1996               	.LCFI32:
 1997               		.cfi_def_cfa_offset 11
 1998               		.cfi_offset 10, -10
 1999 03de BF92      		push r11
 2000               	.LCFI33:
 2001               		.cfi_def_cfa_offset 12
 2002               		.cfi_offset 11, -11
 2003 03e0 CF92      		push r12
 2004               	.LCFI34:
 2005               		.cfi_def_cfa_offset 13
 2006               		.cfi_offset 12, -12
 2007 03e2 DF92      		push r13
 2008               	.LCFI35:
 2009               		.cfi_def_cfa_offset 14
 2010               		.cfi_offset 13, -13
 2011 03e4 EF92      		push r14
 2012               	.LCFI36:
 2013               		.cfi_def_cfa_offset 15
 2014               		.cfi_offset 14, -14
 2015 03e6 FF92      		push r15
 2016               	.LCFI37:
 2017               		.cfi_def_cfa_offset 16
 2018               		.cfi_offset 15, -15
 2019 03e8 0F93      		push r16
 2020               	.LCFI38:
 2021               		.cfi_def_cfa_offset 17
 2022               		.cfi_offset 16, -16
 2023 03ea 1F93      		push r17
 2024               	.LCFI39:
 2025               		.cfi_def_cfa_offset 18
 2026               		.cfi_offset 17, -17
 2027 03ec CF93      		push r28
 2028               	.LCFI40:
 2029               		.cfi_def_cfa_offset 19
 2030               		.cfi_offset 28, -18
 2031 03ee DF93      		push r29
 2032               	.LCFI41:
 2033               		.cfi_def_cfa_offset 20
 2034               		.cfi_offset 29, -19
 2035 03f0 CDB7      		in r28,__SP_L__
 2036 03f2 DEB7      		in r29,__SP_H__
 2037               	.LCFI42:
 2038               		.cfi_def_cfa_register 28
 2039 03f4 C65A      		subi r28,-90
 2040 03f6 D109      		sbc r29,__zero_reg__
 2041               	.LCFI43:
 2042               		.cfi_def_cfa_offset 186
 2043 03f8 0FB6      		in __tmp_reg__,__SREG__
 2044 03fa F894      		cli
 2045 03fc DEBF      		out __SP_H__,r29
 2046 03fe 0FBE      		out __SREG__,__tmp_reg__
 2047 0400 CDBF      		out __SP_L__,r28
 2048               	/* prologue: function */
 2049               	/* frame size = 166 */
 2050               	/* stack size = 184 */
 2051               	.L__stack_usage = 184
 2052 0402 6F8F      		std Y+31,r22
 2053 0404 78A3      		std Y+32,r23
 2054 0406 89A3      		std Y+33,r24
 2055 0408 9AA3      		std Y+34,r25
 2056 040a 2BA3      		std Y+35,r18
 2057 040c 3CA3      		std Y+36,r19
 2058 040e 4DA3      		std Y+37,r20
 2059 0410 5EA3      		std Y+38,r21
 326:adpcm.c       ****     int32_t i;
 327:adpcm.c       ****     int32_t *h_ptr,*tqmf_ptr,*tqmf_ptr1;
 328:adpcm.c       ****     int64_t  xa,xb;
 329:adpcm.c       ****     int32_t decis;
 330:adpcm.c       **** 
 331:adpcm.c       **** /* transmit quadrature mirror filters implemented here */
 332:adpcm.c       ****     h_ptr = h;
 2060               		.loc 1 332 0
 2061 0412 80E0      		ldi r24,lo8(h)
 2062 0414 90E0      		ldi r25,hi8(h)
 2063 0416 9E83      		std Y+6,r25
 2064 0418 8D83      		std Y+5,r24
 333:adpcm.c       ****     tqmf_ptr = tqmf;
 2065               		.loc 1 333 0
 2066 041a 80E0      		ldi r24,lo8(tqmf)
 2067 041c 90E0      		ldi r25,hi8(tqmf)
 2068 041e 9887      		std Y+8,r25
 2069 0420 8F83      		std Y+7,r24
 334:adpcm.c       ****     xa = (int64_t)(*tqmf_ptr++) * (*h_ptr++);
 2070               		.loc 1 334 0
 2071 0422 2F81      		ldd r18,Y+7
 2072 0424 3885      		ldd r19,Y+8
 2073 0426 C901      		movw r24,r18
 2074 0428 0496      		adiw r24,4
 2075 042a 9887      		std Y+8,r25
 2076 042c 8F83      		std Y+7,r24
 2077 042e F901      		movw r30,r18
 2078 0430 8081      		ld r24,Z
 2079 0432 9181      		ldd r25,Z+1
 2080 0434 A281      		ldd r26,Z+2
 2081 0436 B381      		ldd r27,Z+3
 2082 0438 8FA3      		std Y+39,r24
 2083 043a 98A7      		std Y+40,r25
 2084 043c A9A7      		std Y+41,r26
 2085 043e BAA7      		std Y+42,r27
 2086 0440 BB0F      		lsl r27
 2087 0442 880B      		sbc r24,r24
 2088 0444 982F      		mov r25,r24
 2089 0446 DC01      		movw r26,r24
 2090 0448 8BA7      		std Y+43,r24
 2091 044a 8CA7      		std Y+44,r24
 2092 044c 8DA7      		std Y+45,r24
 2093 044e 8EA7      		std Y+46,r24
 2094 0450 2D81      		ldd r18,Y+5
 2095 0452 3E81      		ldd r19,Y+6
 2096 0454 C901      		movw r24,r18
 2097 0456 0496      		adiw r24,4
 2098 0458 9E83      		std Y+6,r25
 2099 045a 8D83      		std Y+5,r24
 2100 045c F901      		movw r30,r18
 2101 045e 8081      		ld r24,Z
 2102 0460 9181      		ldd r25,Z+1
 2103 0462 A281      		ldd r26,Z+2
 2104 0464 B381      		ldd r27,Z+3
 2105 0466 1C01      		movw r2,r24
 2106 0468 2D01      		movw r4,r26
 2107 046a BB0F      		lsl r27
 2108 046c 880B      		sbc r24,r24
 2109 046e 982F      		mov r25,r24
 2110 0470 DC01      		movw r26,r24
 2111 0472 682E      		mov r6,r24
 2112 0474 782E      		mov r7,r24
 2113 0476 882E      		mov r8,r24
 2114 0478 982E      		mov r9,r24
 2115 047a A22C      		mov r10,r2
 2116 047c B32C      		mov r11,r3
 2117 047e C42C      		mov r12,r4
 2118 0480 D52C      		mov r13,r5
 2119 0482 E62C      		mov r14,r6
 2120 0484 F72C      		mov r15,r7
 2121 0486 082D      		mov r16,r8
 2122 0488 192D      		mov r17,r9
 2123 048a 2FA1      		ldd r18,Y+39
 2124 048c 38A5      		ldd r19,Y+40
 2125 048e 49A5      		ldd r20,Y+41
 2126 0490 5AA5      		ldd r21,Y+42
 2127 0492 6BA5      		ldd r22,Y+43
 2128 0494 7CA5      		ldd r23,Y+44
 2129 0496 8DA5      		ldd r24,Y+45
 2130 0498 9EA5      		ldd r25,Y+46
 2131 049a 0E94 0000 		call __muldi3
 2132 049e A22E      		mov r10,r18
 2133 04a0 B32E      		mov r11,r19
 2134 04a2 C42E      		mov r12,r20
 2135 04a4 D52E      		mov r13,r21
 2136 04a6 E62E      		mov r14,r22
 2137 04a8 F72E      		mov r15,r23
 2138 04aa 082F      		mov r16,r24
 2139 04ac 192F      		mov r17,r25
 2140 04ae AB86      		std Y+11,r10
 2141 04b0 BC86      		std Y+12,r11
 2142 04b2 CD86      		std Y+13,r12
 2143 04b4 DE86      		std Y+14,r13
 2144 04b6 EF86      		std Y+15,r14
 2145 04b8 F88A      		std Y+16,r15
 2146 04ba 098B      		std Y+17,r16
 2147 04bc 1A8B      		std Y+18,r17
 335:adpcm.c       ****     xb = (int64_t)(*tqmf_ptr++) * (*h_ptr++);
 2148               		.loc 1 335 0
 2149 04be 2F81      		ldd r18,Y+7
 2150 04c0 3885      		ldd r19,Y+8
 2151 04c2 C901      		movw r24,r18
 2152 04c4 0496      		adiw r24,4
 2153 04c6 9887      		std Y+8,r25
 2154 04c8 8F83      		std Y+7,r24
 2155 04ca F901      		movw r30,r18
 2156 04cc 8081      		ld r24,Z
 2157 04ce 9181      		ldd r25,Z+1
 2158 04d0 A281      		ldd r26,Z+2
 2159 04d2 B381      		ldd r27,Z+3
 2160 04d4 8FA7      		std Y+47,r24
 2161 04d6 98AB      		std Y+48,r25
 2162 04d8 A9AB      		std Y+49,r26
 2163 04da BAAB      		std Y+50,r27
 2164 04dc BB0F      		lsl r27
 2165 04de 880B      		sbc r24,r24
 2166 04e0 982F      		mov r25,r24
 2167 04e2 DC01      		movw r26,r24
 2168 04e4 8BAB      		std Y+51,r24
 2169 04e6 8CAB      		std Y+52,r24
 2170 04e8 8DAB      		std Y+53,r24
 2171 04ea 8EAB      		std Y+54,r24
 2172 04ec 2D81      		ldd r18,Y+5
 2173 04ee 3E81      		ldd r19,Y+6
 2174 04f0 C901      		movw r24,r18
 2175 04f2 0496      		adiw r24,4
 2176 04f4 9E83      		std Y+6,r25
 2177 04f6 8D83      		std Y+5,r24
 2178 04f8 F901      		movw r30,r18
 2179 04fa 8081      		ld r24,Z
 2180 04fc 9181      		ldd r25,Z+1
 2181 04fe A281      		ldd r26,Z+2
 2182 0500 B381      		ldd r27,Z+3
 2183 0502 8FAB      		std Y+55,r24
 2184 0504 98AF      		std Y+56,r25
 2185 0506 A9AF      		std Y+57,r26
 2186 0508 BAAF      		std Y+58,r27
 2187 050a BB0F      		lsl r27
 2188 050c 880B      		sbc r24,r24
 2189 050e 982F      		mov r25,r24
 2190 0510 DC01      		movw r26,r24
 2191 0512 8BAF      		std Y+59,r24
 2192 0514 8CAF      		std Y+60,r24
 2193 0516 8DAF      		std Y+61,r24
 2194 0518 8EAF      		std Y+62,r24
 2195 051a AFA8      		ldd r10,Y+55
 2196 051c B8AC      		ldd r11,Y+56
 2197 051e C9AC      		ldd r12,Y+57
 2198 0520 DAAC      		ldd r13,Y+58
 2199 0522 EBAC      		ldd r14,Y+59
 2200 0524 FCAC      		ldd r15,Y+60
 2201 0526 0DAD      		ldd r16,Y+61
 2202 0528 1EAD      		ldd r17,Y+62
 2203 052a 2FA5      		ldd r18,Y+47
 2204 052c 38A9      		ldd r19,Y+48
 2205 052e 49A9      		ldd r20,Y+49
 2206 0530 5AA9      		ldd r21,Y+50
 2207 0532 6BA9      		ldd r22,Y+51
 2208 0534 7CA9      		ldd r23,Y+52
 2209 0536 8DA9      		ldd r24,Y+53
 2210 0538 9EA9      		ldd r25,Y+54
 2211 053a 0E94 0000 		call __muldi3
 2212 053e A22E      		mov r10,r18
 2213 0540 B32E      		mov r11,r19
 2214 0542 C42E      		mov r12,r20
 2215 0544 D52E      		mov r13,r21
 2216 0546 E62E      		mov r14,r22
 2217 0548 F72E      		mov r15,r23
 2218 054a 082F      		mov r16,r24
 2219 054c 192F      		mov r17,r25
 2220 054e AB8A      		std Y+19,r10
 2221 0550 BC8A      		std Y+20,r11
 2222 0552 CD8A      		std Y+21,r12
 2223 0554 DE8A      		std Y+22,r13
 2224 0556 EF8A      		std Y+23,r14
 2225 0558 F88E      		std Y+24,r15
 2226 055a 098F      		std Y+25,r16
 2227 055c 1A8F      		std Y+26,r17
 336:adpcm.c       **** /* main multiply accumulate loop for samples and coefficients */
 337:adpcm.c       ****     /* MAX: 10 */
 338:adpcm.c       ****     for(i = 0 ; i < 10 ; i++) {
 2228               		.loc 1 338 0
 2229 055e 1982      		std Y+1,__zero_reg__
 2230 0560 1A82      		std Y+2,__zero_reg__
 2231 0562 1B82      		std Y+3,__zero_reg__
 2232 0564 1C82      		std Y+4,__zero_reg__
 2233 0566 00C0      		rjmp .L20
 2234               	.L21:
 339:adpcm.c       ****         xa += (int64_t)(*tqmf_ptr++) * (*h_ptr++);
 2235               		.loc 1 339 0 discriminator 2
 2236 0568 2F81      		ldd r18,Y+7
 2237 056a 3885      		ldd r19,Y+8
 2238 056c C901      		movw r24,r18
 2239 056e 0496      		adiw r24,4
 2240 0570 9887      		std Y+8,r25
 2241 0572 8F83      		std Y+7,r24
 2242 0574 F901      		movw r30,r18
 2243 0576 8081      		ld r24,Z
 2244 0578 9181      		ldd r25,Z+1
 2245 057a A281      		ldd r26,Z+2
 2246 057c B381      		ldd r27,Z+3
 2247 057e 2396      		adiw r28,63-60
 2248 0580 8CAF      		std Y+60,r24
 2249 0582 9DAF      		std Y+61,r25
 2250 0584 AEAF      		std Y+62,r26
 2251 0586 BFAF      		std Y+63,r27
 2252 0588 2397      		sbiw r28,63-60
 2253 058a BB0F      		lsl r27
 2254 058c 880B      		sbc r24,r24
 2255 058e 982F      		mov r25,r24
 2256 0590 DC01      		movw r26,r24
 2257 0592 2496      		adiw r28,67-63
 2258 0594 8FAF      		std Y+63,r24
 2259 0596 2497      		sbiw r28,67-63
 2260 0598 2596      		adiw r28,68-63
 2261 059a 8FAF      		std Y+63,r24
 2262 059c 2597      		sbiw r28,68-63
 2263 059e 2696      		adiw r28,69-63
 2264 05a0 8FAF      		std Y+63,r24
 2265 05a2 2697      		sbiw r28,69-63
 2266 05a4 2796      		adiw r28,70-63
 2267 05a6 8FAF      		std Y+63,r24
 2268 05a8 2797      		sbiw r28,70-63
 2269 05aa 2D81      		ldd r18,Y+5
 2270 05ac 3E81      		ldd r19,Y+6
 2271 05ae C901      		movw r24,r18
 2272 05b0 0496      		adiw r24,4
 2273 05b2 9E83      		std Y+6,r25
 2274 05b4 8D83      		std Y+5,r24
 2275 05b6 F901      		movw r30,r18
 2276 05b8 8081      		ld r24,Z
 2277 05ba 9181      		ldd r25,Z+1
 2278 05bc A281      		ldd r26,Z+2
 2279 05be B381      		ldd r27,Z+3
 2280 05c0 2B96      		adiw r28,71-60
 2281 05c2 8CAF      		std Y+60,r24
 2282 05c4 9DAF      		std Y+61,r25
 2283 05c6 AEAF      		std Y+62,r26
 2284 05c8 BFAF      		std Y+63,r27
 2285 05ca 2B97      		sbiw r28,71-60
 2286 05cc BB0F      		lsl r27
 2287 05ce 880B      		sbc r24,r24
 2288 05d0 982F      		mov r25,r24
 2289 05d2 DC01      		movw r26,r24
 2290 05d4 2C96      		adiw r28,75-63
 2291 05d6 8FAF      		std Y+63,r24
 2292 05d8 2C97      		sbiw r28,75-63
 2293 05da 2D96      		adiw r28,76-63
 2294 05dc 8FAF      		std Y+63,r24
 2295 05de 2D97      		sbiw r28,76-63
 2296 05e0 2E96      		adiw r28,77-63
 2297 05e2 8FAF      		std Y+63,r24
 2298 05e4 2E97      		sbiw r28,77-63
 2299 05e6 2F96      		adiw r28,78-63
 2300 05e8 8FAF      		std Y+63,r24
 2301 05ea 2F97      		sbiw r28,78-63
 2302 05ec 2896      		adiw r28,71-63
 2303 05ee AFAC      		ldd r10,Y+63
 2304 05f0 2897      		sbiw r28,71-63
 2305 05f2 2996      		adiw r28,72-63
 2306 05f4 BFAC      		ldd r11,Y+63
 2307 05f6 2997      		sbiw r28,72-63
 2308 05f8 2A96      		adiw r28,73-63
 2309 05fa CFAC      		ldd r12,Y+63
 2310 05fc 2A97      		sbiw r28,73-63
 2311 05fe 2B96      		adiw r28,74-63
 2312 0600 DFAC      		ldd r13,Y+63
 2313 0602 2B97      		sbiw r28,74-63
 2314 0604 2C96      		adiw r28,75-63
 2315 0606 EFAC      		ldd r14,Y+63
 2316 0608 2C97      		sbiw r28,75-63
 2317 060a 2D96      		adiw r28,76-63
 2318 060c FFAC      		ldd r15,Y+63
 2319 060e 2D97      		sbiw r28,76-63
 2320 0610 2E96      		adiw r28,77-63
 2321 0612 0FAD      		ldd r16,Y+63
 2322 0614 2E97      		sbiw r28,77-63
 2323 0616 2F96      		adiw r28,78-63
 2324 0618 1FAD      		ldd r17,Y+63
 2325 061a 2F97      		sbiw r28,78-63
 2326 061c 2FAD      		ldd r18,Y+63
 2327 061e 2196      		adiw r28,64-63
 2328 0620 3FAD      		ldd r19,Y+63
 2329 0622 2197      		sbiw r28,64-63
 2330 0624 2296      		adiw r28,65-63
 2331 0626 4FAD      		ldd r20,Y+63
 2332 0628 2297      		sbiw r28,65-63
 2333 062a 2396      		adiw r28,66-63
 2334 062c 5FAD      		ldd r21,Y+63
 2335 062e 2397      		sbiw r28,66-63
 2336 0630 2496      		adiw r28,67-63
 2337 0632 6FAD      		ldd r22,Y+63
 2338 0634 2497      		sbiw r28,67-63
 2339 0636 2596      		adiw r28,68-63
 2340 0638 7FAD      		ldd r23,Y+63
 2341 063a 2597      		sbiw r28,68-63
 2342 063c 2696      		adiw r28,69-63
 2343 063e 8FAD      		ldd r24,Y+63
 2344 0640 2697      		sbiw r28,69-63
 2345 0642 2796      		adiw r28,70-63
 2346 0644 9FAD      		ldd r25,Y+63
 2347 0646 2797      		sbiw r28,70-63
 2348 0648 0E94 0000 		call __muldi3
 2349 064c 222E      		mov r2,r18
 2350 064e 332E      		mov r3,r19
 2351 0650 442E      		mov r4,r20
 2352 0652 552E      		mov r5,r21
 2353 0654 662E      		mov r6,r22
 2354 0656 772E      		mov r7,r23
 2355 0658 882E      		mov r8,r24
 2356 065a 992E      		mov r9,r25
 2357 065c A22C      		mov r10,r2
 2358 065e B32C      		mov r11,r3
 2359 0660 C42C      		mov r12,r4
 2360 0662 D52C      		mov r13,r5
 2361 0664 E62C      		mov r14,r6
 2362 0666 F72C      		mov r15,r7
 2363 0668 082D      		mov r16,r8
 2364 066a 192D      		mov r17,r9
 2365 066c 2A2D      		mov r18,r10
 2366 066e 3B2D      		mov r19,r11
 2367 0670 4C2D      		mov r20,r12
 2368 0672 5D2D      		mov r21,r13
 2369 0674 6E2D      		mov r22,r14
 2370 0676 7F2D      		mov r23,r15
 2371 0678 802F      		mov r24,r16
 2372 067a 912F      		mov r25,r17
 2373 067c AB84      		ldd r10,Y+11
 2374 067e BC84      		ldd r11,Y+12
 2375 0680 CD84      		ldd r12,Y+13
 2376 0682 DE84      		ldd r13,Y+14
 2377 0684 EF84      		ldd r14,Y+15
 2378 0686 F888      		ldd r15,Y+16
 2379 0688 0989      		ldd r16,Y+17
 2380 068a 1A89      		ldd r17,Y+18
 2381 068c 0E94 0000 		call __adddi3
 2382 0690 A22E      		mov r10,r18
 2383 0692 B32E      		mov r11,r19
 2384 0694 C42E      		mov r12,r20
 2385 0696 D52E      		mov r13,r21
 2386 0698 E62E      		mov r14,r22
 2387 069a F72E      		mov r15,r23
 2388 069c 082F      		mov r16,r24
 2389 069e 192F      		mov r17,r25
 2390 06a0 AB86      		std Y+11,r10
 2391 06a2 BC86      		std Y+12,r11
 2392 06a4 CD86      		std Y+13,r12
 2393 06a6 DE86      		std Y+14,r13
 2394 06a8 EF86      		std Y+15,r14
 2395 06aa F88A      		std Y+16,r15
 2396 06ac 098B      		std Y+17,r16
 2397 06ae 1A8B      		std Y+18,r17
 340:adpcm.c       ****         xb += (int64_t)(*tqmf_ptr++) * (*h_ptr++);
 2398               		.loc 1 340 0 discriminator 2
 2399 06b0 2F81      		ldd r18,Y+7
 2400 06b2 3885      		ldd r19,Y+8
 2401 06b4 C901      		movw r24,r18
 2402 06b6 0496      		adiw r24,4
 2403 06b8 9887      		std Y+8,r25
 2404 06ba 8F83      		std Y+7,r24
 2405 06bc F901      		movw r30,r18
 2406 06be 8081      		ld r24,Z
 2407 06c0 9181      		ldd r25,Z+1
 2408 06c2 A281      		ldd r26,Z+2
 2409 06c4 B381      		ldd r27,Z+3
 2410 06c6 6396      		adiw r28,79-60
 2411 06c8 8CAF      		std Y+60,r24
 2412 06ca 9DAF      		std Y+61,r25
 2413 06cc AEAF      		std Y+62,r26
 2414 06ce BFAF      		std Y+63,r27
 2415 06d0 6397      		sbiw r28,79-60
 2416 06d2 BB0F      		lsl r27
 2417 06d4 880B      		sbc r24,r24
 2418 06d6 982F      		mov r25,r24
 2419 06d8 DC01      		movw r26,r24
 2420 06da 6496      		adiw r28,83-63
 2421 06dc 8FAF      		std Y+63,r24
 2422 06de 6497      		sbiw r28,83-63
 2423 06e0 6596      		adiw r28,84-63
 2424 06e2 8FAF      		std Y+63,r24
 2425 06e4 6597      		sbiw r28,84-63
 2426 06e6 6696      		adiw r28,85-63
 2427 06e8 8FAF      		std Y+63,r24
 2428 06ea 6697      		sbiw r28,85-63
 2429 06ec 6796      		adiw r28,86-63
 2430 06ee 8FAF      		std Y+63,r24
 2431 06f0 6797      		sbiw r28,86-63
 2432 06f2 2D81      		ldd r18,Y+5
 2433 06f4 3E81      		ldd r19,Y+6
 2434 06f6 C901      		movw r24,r18
 2435 06f8 0496      		adiw r24,4
 2436 06fa 9E83      		std Y+6,r25
 2437 06fc 8D83      		std Y+5,r24
 2438 06fe F901      		movw r30,r18
 2439 0700 8081      		ld r24,Z
 2440 0702 9181      		ldd r25,Z+1
 2441 0704 A281      		ldd r26,Z+2
 2442 0706 B381      		ldd r27,Z+3
 2443 0708 6B96      		adiw r28,87-60
 2444 070a 8CAF      		std Y+60,r24
 2445 070c 9DAF      		std Y+61,r25
 2446 070e AEAF      		std Y+62,r26
 2447 0710 BFAF      		std Y+63,r27
 2448 0712 6B97      		sbiw r28,87-60
 2449 0714 BB0F      		lsl r27
 2450 0716 880B      		sbc r24,r24
 2451 0718 982F      		mov r25,r24
 2452 071a DC01      		movw r26,r24
 2453 071c 6C96      		adiw r28,91-63
 2454 071e 8FAF      		std Y+63,r24
 2455 0720 6C97      		sbiw r28,91-63
 2456 0722 6D96      		adiw r28,92-63
 2457 0724 8FAF      		std Y+63,r24
 2458 0726 6D97      		sbiw r28,92-63
 2459 0728 6E96      		adiw r28,93-63
 2460 072a 8FAF      		std Y+63,r24
 2461 072c 6E97      		sbiw r28,93-63
 2462 072e 6F96      		adiw r28,94-63
 2463 0730 8FAF      		std Y+63,r24
 2464 0732 6F97      		sbiw r28,94-63
 2465 0734 6896      		adiw r28,87-63
 2466 0736 AFAC      		ldd r10,Y+63
 2467 0738 6897      		sbiw r28,87-63
 2468 073a 6996      		adiw r28,88-63
 2469 073c BFAC      		ldd r11,Y+63
 2470 073e 6997      		sbiw r28,88-63
 2471 0740 6A96      		adiw r28,89-63
 2472 0742 CFAC      		ldd r12,Y+63
 2473 0744 6A97      		sbiw r28,89-63
 2474 0746 6B96      		adiw r28,90-63
 2475 0748 DFAC      		ldd r13,Y+63
 2476 074a 6B97      		sbiw r28,90-63
 2477 074c 6C96      		adiw r28,91-63
 2478 074e EFAC      		ldd r14,Y+63
 2479 0750 6C97      		sbiw r28,91-63
 2480 0752 6D96      		adiw r28,92-63
 2481 0754 FFAC      		ldd r15,Y+63
 2482 0756 6D97      		sbiw r28,92-63
 2483 0758 6E96      		adiw r28,93-63
 2484 075a 0FAD      		ldd r16,Y+63
 2485 075c 6E97      		sbiw r28,93-63
 2486 075e 6F96      		adiw r28,94-63
 2487 0760 1FAD      		ldd r17,Y+63
 2488 0762 6F97      		sbiw r28,94-63
 2489 0764 6096      		adiw r28,79-63
 2490 0766 2FAD      		ldd r18,Y+63
 2491 0768 6097      		sbiw r28,79-63
 2492 076a 6196      		adiw r28,80-63
 2493 076c 3FAD      		ldd r19,Y+63
 2494 076e 6197      		sbiw r28,80-63
 2495 0770 6296      		adiw r28,81-63
 2496 0772 4FAD      		ldd r20,Y+63
 2497 0774 6297      		sbiw r28,81-63
 2498 0776 6396      		adiw r28,82-63
 2499 0778 5FAD      		ldd r21,Y+63
 2500 077a 6397      		sbiw r28,82-63
 2501 077c 6496      		adiw r28,83-63
 2502 077e 6FAD      		ldd r22,Y+63
 2503 0780 6497      		sbiw r28,83-63
 2504 0782 6596      		adiw r28,84-63
 2505 0784 7FAD      		ldd r23,Y+63
 2506 0786 6597      		sbiw r28,84-63
 2507 0788 6696      		adiw r28,85-63
 2508 078a 8FAD      		ldd r24,Y+63
 2509 078c 6697      		sbiw r28,85-63
 2510 078e 6796      		adiw r28,86-63
 2511 0790 9FAD      		ldd r25,Y+63
 2512 0792 6797      		sbiw r28,86-63
 2513 0794 0E94 0000 		call __muldi3
 2514 0798 222E      		mov r2,r18
 2515 079a 332E      		mov r3,r19
 2516 079c 442E      		mov r4,r20
 2517 079e 552E      		mov r5,r21
 2518 07a0 662E      		mov r6,r22
 2519 07a2 772E      		mov r7,r23
 2520 07a4 882E      		mov r8,r24
 2521 07a6 992E      		mov r9,r25
 2522 07a8 A22C      		mov r10,r2
 2523 07aa B32C      		mov r11,r3
 2524 07ac C42C      		mov r12,r4
 2525 07ae D52C      		mov r13,r5
 2526 07b0 E62C      		mov r14,r6
 2527 07b2 F72C      		mov r15,r7
 2528 07b4 082D      		mov r16,r8
 2529 07b6 192D      		mov r17,r9
 2530 07b8 2A2D      		mov r18,r10
 2531 07ba 3B2D      		mov r19,r11
 2532 07bc 4C2D      		mov r20,r12
 2533 07be 5D2D      		mov r21,r13
 2534 07c0 6E2D      		mov r22,r14
 2535 07c2 7F2D      		mov r23,r15
 2536 07c4 802F      		mov r24,r16
 2537 07c6 912F      		mov r25,r17
 2538 07c8 AB88      		ldd r10,Y+19
 2539 07ca BC88      		ldd r11,Y+20
 2540 07cc CD88      		ldd r12,Y+21
 2541 07ce DE88      		ldd r13,Y+22
 2542 07d0 EF88      		ldd r14,Y+23
 2543 07d2 F88C      		ldd r15,Y+24
 2544 07d4 098D      		ldd r16,Y+25
 2545 07d6 1A8D      		ldd r17,Y+26
 2546 07d8 0E94 0000 		call __adddi3
 2547 07dc A22E      		mov r10,r18
 2548 07de B32E      		mov r11,r19
 2549 07e0 C42E      		mov r12,r20
 2550 07e2 D52E      		mov r13,r21
 2551 07e4 E62E      		mov r14,r22
 2552 07e6 F72E      		mov r15,r23
 2553 07e8 082F      		mov r16,r24
 2554 07ea 192F      		mov r17,r25
 2555 07ec AB8A      		std Y+19,r10
 2556 07ee BC8A      		std Y+20,r11
 2557 07f0 CD8A      		std Y+21,r12
 2558 07f2 DE8A      		std Y+22,r13
 2559 07f4 EF8A      		std Y+23,r14
 2560 07f6 F88E      		std Y+24,r15
 2561 07f8 098F      		std Y+25,r16
 2562 07fa 1A8F      		std Y+26,r17
 338:adpcm.c       ****         xa += (int64_t)(*tqmf_ptr++) * (*h_ptr++);
 2563               		.loc 1 338 0 discriminator 2
 2564 07fc 8981      		ldd r24,Y+1
 2565 07fe 9A81      		ldd r25,Y+2
 2566 0800 AB81      		ldd r26,Y+3
 2567 0802 BC81      		ldd r27,Y+4
 2568 0804 0196      		adiw r24,1
 2569 0806 A11D      		adc r26,__zero_reg__
 2570 0808 B11D      		adc r27,__zero_reg__
 2571 080a 8983      		std Y+1,r24
 2572 080c 9A83      		std Y+2,r25
 2573 080e AB83      		std Y+3,r26
 2574 0810 BC83      		std Y+4,r27
 2575               	.L20:
 338:adpcm.c       ****         xa += (int64_t)(*tqmf_ptr++) * (*h_ptr++);
 2576               		.loc 1 338 0 is_stmt 0 discriminator 1
 2577 0812 8981      		ldd r24,Y+1
 2578 0814 9A81      		ldd r25,Y+2
 2579 0816 AB81      		ldd r26,Y+3
 2580 0818 BC81      		ldd r27,Y+4
 2581 081a 8A30      		cpi r24,10
 2582 081c 9105      		cpc r25,__zero_reg__
 2583 081e A105      		cpc r26,__zero_reg__
 2584 0820 B105      		cpc r27,__zero_reg__
 2585 0822 04F4      		brge .+2
 2586 0824 00C0      		rjmp .L21
 341:adpcm.c       ****     }
 342:adpcm.c       **** /* final mult/accumulate */
 343:adpcm.c       ****     xa += (int64_t)(*tqmf_ptr++) * (*h_ptr++);
 2587               		.loc 1 343 0 is_stmt 1
 2588 0826 2F81      		ldd r18,Y+7
 2589 0828 3885      		ldd r19,Y+8
 2590 082a C901      		movw r24,r18
 2591 082c 0496      		adiw r24,4
 2592 082e 9887      		std Y+8,r25
 2593 0830 8F83      		std Y+7,r24
 2594 0832 F901      		movw r30,r18
 2595 0834 8081      		ld r24,Z
 2596 0836 9181      		ldd r25,Z+1
 2597 0838 A281      		ldd r26,Z+2
 2598 083a B381      		ldd r27,Z+3
 2599 083c A396      		adiw r28,95-60
 2600 083e 8CAF      		std Y+60,r24
 2601 0840 9DAF      		std Y+61,r25
 2602 0842 AEAF      		std Y+62,r26
 2603 0844 BFAF      		std Y+63,r27
 2604 0846 A397      		sbiw r28,95-60
 2605 0848 BB0F      		lsl r27
 2606 084a 880B      		sbc r24,r24
 2607 084c 982F      		mov r25,r24
 2608 084e DC01      		movw r26,r24
 2609 0850 A496      		adiw r28,99-63
 2610 0852 8FAF      		std Y+63,r24
 2611 0854 A497      		sbiw r28,99-63
 2612 0856 A596      		adiw r28,100-63
 2613 0858 8FAF      		std Y+63,r24
 2614 085a A597      		sbiw r28,100-63
 2615 085c A696      		adiw r28,101-63
 2616 085e 8FAF      		std Y+63,r24
 2617 0860 A697      		sbiw r28,101-63
 2618 0862 A796      		adiw r28,102-63
 2619 0864 8FAF      		std Y+63,r24
 2620 0866 A797      		sbiw r28,102-63
 2621 0868 2D81      		ldd r18,Y+5
 2622 086a 3E81      		ldd r19,Y+6
 2623 086c C901      		movw r24,r18
 2624 086e 0496      		adiw r24,4
 2625 0870 9E83      		std Y+6,r25
 2626 0872 8D83      		std Y+5,r24
 2627 0874 F901      		movw r30,r18
 2628 0876 8081      		ld r24,Z
 2629 0878 9181      		ldd r25,Z+1
 2630 087a A281      		ldd r26,Z+2
 2631 087c B381      		ldd r27,Z+3
 2632 087e AB96      		adiw r28,103-60
 2633 0880 8CAF      		std Y+60,r24
 2634 0882 9DAF      		std Y+61,r25
 2635 0884 AEAF      		std Y+62,r26
 2636 0886 BFAF      		std Y+63,r27
 2637 0888 AB97      		sbiw r28,103-60
 2638 088a BB0F      		lsl r27
 2639 088c 880B      		sbc r24,r24
 2640 088e 982F      		mov r25,r24
 2641 0890 DC01      		movw r26,r24
 2642 0892 AC96      		adiw r28,107-63
 2643 0894 8FAF      		std Y+63,r24
 2644 0896 AC97      		sbiw r28,107-63
 2645 0898 AD96      		adiw r28,108-63
 2646 089a 8FAF      		std Y+63,r24
 2647 089c AD97      		sbiw r28,108-63
 2648 089e AE96      		adiw r28,109-63
 2649 08a0 8FAF      		std Y+63,r24
 2650 08a2 AE97      		sbiw r28,109-63
 2651 08a4 AF96      		adiw r28,110-63
 2652 08a6 8FAF      		std Y+63,r24
 2653 08a8 AF97      		sbiw r28,110-63
 2654 08aa A896      		adiw r28,103-63
 2655 08ac AFAC      		ldd r10,Y+63
 2656 08ae A897      		sbiw r28,103-63
 2657 08b0 A996      		adiw r28,104-63
 2658 08b2 BFAC      		ldd r11,Y+63
 2659 08b4 A997      		sbiw r28,104-63
 2660 08b6 AA96      		adiw r28,105-63
 2661 08b8 CFAC      		ldd r12,Y+63
 2662 08ba AA97      		sbiw r28,105-63
 2663 08bc AB96      		adiw r28,106-63
 2664 08be DFAC      		ldd r13,Y+63
 2665 08c0 AB97      		sbiw r28,106-63
 2666 08c2 AC96      		adiw r28,107-63
 2667 08c4 EFAC      		ldd r14,Y+63
 2668 08c6 AC97      		sbiw r28,107-63
 2669 08c8 AD96      		adiw r28,108-63
 2670 08ca FFAC      		ldd r15,Y+63
 2671 08cc AD97      		sbiw r28,108-63
 2672 08ce AE96      		adiw r28,109-63
 2673 08d0 0FAD      		ldd r16,Y+63
 2674 08d2 AE97      		sbiw r28,109-63
 2675 08d4 AF96      		adiw r28,110-63
 2676 08d6 1FAD      		ldd r17,Y+63
 2677 08d8 AF97      		sbiw r28,110-63
 2678 08da A096      		adiw r28,95-63
 2679 08dc 2FAD      		ldd r18,Y+63
 2680 08de A097      		sbiw r28,95-63
 2681 08e0 A196      		adiw r28,96-63
 2682 08e2 3FAD      		ldd r19,Y+63
 2683 08e4 A197      		sbiw r28,96-63
 2684 08e6 A296      		adiw r28,97-63
 2685 08e8 4FAD      		ldd r20,Y+63
 2686 08ea A297      		sbiw r28,97-63
 2687 08ec A396      		adiw r28,98-63
 2688 08ee 5FAD      		ldd r21,Y+63
 2689 08f0 A397      		sbiw r28,98-63
 2690 08f2 A496      		adiw r28,99-63
 2691 08f4 6FAD      		ldd r22,Y+63
 2692 08f6 A497      		sbiw r28,99-63
 2693 08f8 A596      		adiw r28,100-63
 2694 08fa 7FAD      		ldd r23,Y+63
 2695 08fc A597      		sbiw r28,100-63
 2696 08fe A696      		adiw r28,101-63
 2697 0900 8FAD      		ldd r24,Y+63
 2698 0902 A697      		sbiw r28,101-63
 2699 0904 A796      		adiw r28,102-63
 2700 0906 9FAD      		ldd r25,Y+63
 2701 0908 A797      		sbiw r28,102-63
 2702 090a 0E94 0000 		call __muldi3
 2703 090e 222E      		mov r2,r18
 2704 0910 332E      		mov r3,r19
 2705 0912 442E      		mov r4,r20
 2706 0914 552E      		mov r5,r21
 2707 0916 662E      		mov r6,r22
 2708 0918 772E      		mov r7,r23
 2709 091a 882E      		mov r8,r24
 2710 091c 992E      		mov r9,r25
 2711 091e A22C      		mov r10,r2
 2712 0920 B32C      		mov r11,r3
 2713 0922 C42C      		mov r12,r4
 2714 0924 D52C      		mov r13,r5
 2715 0926 E62C      		mov r14,r6
 2716 0928 F72C      		mov r15,r7
 2717 092a 082D      		mov r16,r8
 2718 092c 192D      		mov r17,r9
 2719 092e 2A2D      		mov r18,r10
 2720 0930 3B2D      		mov r19,r11
 2721 0932 4C2D      		mov r20,r12
 2722 0934 5D2D      		mov r21,r13
 2723 0936 6E2D      		mov r22,r14
 2724 0938 7F2D      		mov r23,r15
 2725 093a 802F      		mov r24,r16
 2726 093c 912F      		mov r25,r17
 2727 093e AB84      		ldd r10,Y+11
 2728 0940 BC84      		ldd r11,Y+12
 2729 0942 CD84      		ldd r12,Y+13
 2730 0944 DE84      		ldd r13,Y+14
 2731 0946 EF84      		ldd r14,Y+15
 2732 0948 F888      		ldd r15,Y+16
 2733 094a 0989      		ldd r16,Y+17
 2734 094c 1A89      		ldd r17,Y+18
 2735 094e 0E94 0000 		call __adddi3
 2736 0952 A22E      		mov r10,r18
 2737 0954 B32E      		mov r11,r19
 2738 0956 C42E      		mov r12,r20
 2739 0958 D52E      		mov r13,r21
 2740 095a E62E      		mov r14,r22
 2741 095c F72E      		mov r15,r23
 2742 095e 082F      		mov r16,r24
 2743 0960 192F      		mov r17,r25
 2744 0962 AB86      		std Y+11,r10
 2745 0964 BC86      		std Y+12,r11
 2746 0966 CD86      		std Y+13,r12
 2747 0968 DE86      		std Y+14,r13
 2748 096a EF86      		std Y+15,r14
 2749 096c F88A      		std Y+16,r15
 2750 096e 098B      		std Y+17,r16
 2751 0970 1A8B      		std Y+18,r17
 344:adpcm.c       ****     xb += (int64_t)(*tqmf_ptr) * (*h_ptr++);
 2752               		.loc 1 344 0
 2753 0972 8F81      		ldd r24,Y+7
 2754 0974 9885      		ldd r25,Y+8
 2755 0976 FC01      		movw r30,r24
 2756 0978 8081      		ld r24,Z
 2757 097a 9181      		ldd r25,Z+1
 2758 097c A281      		ldd r26,Z+2
 2759 097e B381      		ldd r27,Z+3
 2760 0980 E396      		adiw r28,111-60
 2761 0982 8CAF      		std Y+60,r24
 2762 0984 9DAF      		std Y+61,r25
 2763 0986 AEAF      		std Y+62,r26
 2764 0988 BFAF      		std Y+63,r27
 2765 098a E397      		sbiw r28,111-60
 2766 098c BB0F      		lsl r27
 2767 098e 880B      		sbc r24,r24
 2768 0990 982F      		mov r25,r24
 2769 0992 DC01      		movw r26,r24
 2770 0994 E496      		adiw r28,115-63
 2771 0996 8FAF      		std Y+63,r24
 2772 0998 E497      		sbiw r28,115-63
 2773 099a E596      		adiw r28,116-63
 2774 099c 8FAF      		std Y+63,r24
 2775 099e E597      		sbiw r28,116-63
 2776 09a0 E696      		adiw r28,117-63
 2777 09a2 8FAF      		std Y+63,r24
 2778 09a4 E697      		sbiw r28,117-63
 2779 09a6 E796      		adiw r28,118-63
 2780 09a8 8FAF      		std Y+63,r24
 2781 09aa E797      		sbiw r28,118-63
 2782 09ac 2D81      		ldd r18,Y+5
 2783 09ae 3E81      		ldd r19,Y+6
 2784 09b0 C901      		movw r24,r18
 2785 09b2 0496      		adiw r24,4
 2786 09b4 9E83      		std Y+6,r25
 2787 09b6 8D83      		std Y+5,r24
 2788 09b8 F901      		movw r30,r18
 2789 09ba 8081      		ld r24,Z
 2790 09bc 9181      		ldd r25,Z+1
 2791 09be A281      		ldd r26,Z+2
 2792 09c0 B381      		ldd r27,Z+3
 2793 09c2 EB96      		adiw r28,119-60
 2794 09c4 8CAF      		std Y+60,r24
 2795 09c6 9DAF      		std Y+61,r25
 2796 09c8 AEAF      		std Y+62,r26
 2797 09ca BFAF      		std Y+63,r27
 2798 09cc EB97      		sbiw r28,119-60
 2799 09ce BB0F      		lsl r27
 2800 09d0 880B      		sbc r24,r24
 2801 09d2 982F      		mov r25,r24
 2802 09d4 DC01      		movw r26,r24
 2803 09d6 EC96      		adiw r28,123-63
 2804 09d8 8FAF      		std Y+63,r24
 2805 09da EC97      		sbiw r28,123-63
 2806 09dc ED96      		adiw r28,124-63
 2807 09de 8FAF      		std Y+63,r24
 2808 09e0 ED97      		sbiw r28,124-63
 2809 09e2 EE96      		adiw r28,125-63
 2810 09e4 8FAF      		std Y+63,r24
 2811 09e6 EE97      		sbiw r28,125-63
 2812 09e8 EF96      		adiw r28,126-63
 2813 09ea 8FAF      		std Y+63,r24
 2814 09ec EF97      		sbiw r28,126-63
 2815 09ee E896      		adiw r28,119-63
 2816 09f0 AFAC      		ldd r10,Y+63
 2817 09f2 E897      		sbiw r28,119-63
 2818 09f4 E996      		adiw r28,120-63
 2819 09f6 BFAC      		ldd r11,Y+63
 2820 09f8 E997      		sbiw r28,120-63
 2821 09fa EA96      		adiw r28,121-63
 2822 09fc CFAC      		ldd r12,Y+63
 2823 09fe EA97      		sbiw r28,121-63
 2824 0a00 EB96      		adiw r28,122-63
 2825 0a02 DFAC      		ldd r13,Y+63
 2826 0a04 EB97      		sbiw r28,122-63
 2827 0a06 EC96      		adiw r28,123-63
 2828 0a08 EFAC      		ldd r14,Y+63
 2829 0a0a EC97      		sbiw r28,123-63
 2830 0a0c ED96      		adiw r28,124-63
 2831 0a0e FFAC      		ldd r15,Y+63
 2832 0a10 ED97      		sbiw r28,124-63
 2833 0a12 EE96      		adiw r28,125-63
 2834 0a14 0FAD      		ldd r16,Y+63
 2835 0a16 EE97      		sbiw r28,125-63
 2836 0a18 EF96      		adiw r28,126-63
 2837 0a1a 1FAD      		ldd r17,Y+63
 2838 0a1c EF97      		sbiw r28,126-63
 2839 0a1e E096      		adiw r28,111-63
 2840 0a20 2FAD      		ldd r18,Y+63
 2841 0a22 E097      		sbiw r28,111-63
 2842 0a24 E196      		adiw r28,112-63
 2843 0a26 3FAD      		ldd r19,Y+63
 2844 0a28 E197      		sbiw r28,112-63
 2845 0a2a E296      		adiw r28,113-63
 2846 0a2c 4FAD      		ldd r20,Y+63
 2847 0a2e E297      		sbiw r28,113-63
 2848 0a30 E396      		adiw r28,114-63
 2849 0a32 5FAD      		ldd r21,Y+63
 2850 0a34 E397      		sbiw r28,114-63
 2851 0a36 E496      		adiw r28,115-63
 2852 0a38 6FAD      		ldd r22,Y+63
 2853 0a3a E497      		sbiw r28,115-63
 2854 0a3c E596      		adiw r28,116-63
 2855 0a3e 7FAD      		ldd r23,Y+63
 2856 0a40 E597      		sbiw r28,116-63
 2857 0a42 E696      		adiw r28,117-63
 2858 0a44 8FAD      		ldd r24,Y+63
 2859 0a46 E697      		sbiw r28,117-63
 2860 0a48 E796      		adiw r28,118-63
 2861 0a4a 9FAD      		ldd r25,Y+63
 2862 0a4c E797      		sbiw r28,118-63
 2863 0a4e 0E94 0000 		call __muldi3
 2864 0a52 222E      		mov r2,r18
 2865 0a54 332E      		mov r3,r19
 2866 0a56 442E      		mov r4,r20
 2867 0a58 552E      		mov r5,r21
 2868 0a5a 662E      		mov r6,r22
 2869 0a5c 772E      		mov r7,r23
 2870 0a5e 882E      		mov r8,r24
 2871 0a60 992E      		mov r9,r25
 2872 0a62 A22C      		mov r10,r2
 2873 0a64 B32C      		mov r11,r3
 2874 0a66 C42C      		mov r12,r4
 2875 0a68 D52C      		mov r13,r5
 2876 0a6a E62C      		mov r14,r6
 2877 0a6c F72C      		mov r15,r7
 2878 0a6e 082D      		mov r16,r8
 2879 0a70 192D      		mov r17,r9
 2880 0a72 2A2D      		mov r18,r10
 2881 0a74 3B2D      		mov r19,r11
 2882 0a76 4C2D      		mov r20,r12
 2883 0a78 5D2D      		mov r21,r13
 2884 0a7a 6E2D      		mov r22,r14
 2885 0a7c 7F2D      		mov r23,r15
 2886 0a7e 802F      		mov r24,r16
 2887 0a80 912F      		mov r25,r17
 2888 0a82 AB88      		ldd r10,Y+19
 2889 0a84 BC88      		ldd r11,Y+20
 2890 0a86 CD88      		ldd r12,Y+21
 2891 0a88 DE88      		ldd r13,Y+22
 2892 0a8a EF88      		ldd r14,Y+23
 2893 0a8c F88C      		ldd r15,Y+24
 2894 0a8e 098D      		ldd r16,Y+25
 2895 0a90 1A8D      		ldd r17,Y+26
 2896 0a92 0E94 0000 		call __adddi3
 2897 0a96 A22E      		mov r10,r18
 2898 0a98 B32E      		mov r11,r19
 2899 0a9a C42E      		mov r12,r20
 2900 0a9c D52E      		mov r13,r21
 2901 0a9e E62E      		mov r14,r22
 2902 0aa0 F72E      		mov r15,r23
 2903 0aa2 082F      		mov r16,r24
 2904 0aa4 192F      		mov r17,r25
 2905 0aa6 AB8A      		std Y+19,r10
 2906 0aa8 BC8A      		std Y+20,r11
 2907 0aaa CD8A      		std Y+21,r12
 2908 0aac DE8A      		std Y+22,r13
 2909 0aae EF8A      		std Y+23,r14
 2910 0ab0 F88E      		std Y+24,r15
 2911 0ab2 098F      		std Y+25,r16
 2912 0ab4 1A8F      		std Y+26,r17
 345:adpcm.c       **** 
 346:adpcm.c       **** /* update delay line tqmf */
 347:adpcm.c       ****     tqmf_ptr1 = tqmf_ptr - 2;
 2913               		.loc 1 347 0
 2914 0ab6 8F81      		ldd r24,Y+7
 2915 0ab8 9885      		ldd r25,Y+8
 2916 0aba 0897      		sbiw r24,8
 2917 0abc 9A87      		std Y+10,r25
 2918 0abe 8987      		std Y+9,r24
 348:adpcm.c       ****     /* MAX: 22 */
 349:adpcm.c       ****     for(i = 0 ; i < 22 ; i++) 
 2919               		.loc 1 349 0
 2920 0ac0 1982      		std Y+1,__zero_reg__
 2921 0ac2 1A82      		std Y+2,__zero_reg__
 2922 0ac4 1B82      		std Y+3,__zero_reg__
 2923 0ac6 1C82      		std Y+4,__zero_reg__
 2924 0ac8 00C0      		rjmp .L22
 2925               	.L23:
 350:adpcm.c       ****         *tqmf_ptr-- = *tqmf_ptr1--;
 2926               		.loc 1 350 0 discriminator 2
 2927 0aca 4F81      		ldd r20,Y+7
 2928 0acc 5885      		ldd r21,Y+8
 2929 0ace CA01      		movw r24,r20
 2930 0ad0 0497      		sbiw r24,4
 2931 0ad2 9887      		std Y+8,r25
 2932 0ad4 8F83      		std Y+7,r24
 2933 0ad6 2985      		ldd r18,Y+9
 2934 0ad8 3A85      		ldd r19,Y+10
 2935 0ada C901      		movw r24,r18
 2936 0adc 0497      		sbiw r24,4
 2937 0ade 9A87      		std Y+10,r25
 2938 0ae0 8987      		std Y+9,r24
 2939 0ae2 F901      		movw r30,r18
 2940 0ae4 8081      		ld r24,Z
 2941 0ae6 9181      		ldd r25,Z+1
 2942 0ae8 A281      		ldd r26,Z+2
 2943 0aea B381      		ldd r27,Z+3
 2944 0aec FA01      		movw r30,r20
 2945 0aee 8083      		st Z,r24
 2946 0af0 9183      		std Z+1,r25
 2947 0af2 A283      		std Z+2,r26
 2948 0af4 B383      		std Z+3,r27
 349:adpcm.c       ****         *tqmf_ptr-- = *tqmf_ptr1--;
 2949               		.loc 1 349 0 discriminator 2
 2950 0af6 8981      		ldd r24,Y+1
 2951 0af8 9A81      		ldd r25,Y+2
 2952 0afa AB81      		ldd r26,Y+3
 2953 0afc BC81      		ldd r27,Y+4
 2954 0afe 0196      		adiw r24,1
 2955 0b00 A11D      		adc r26,__zero_reg__
 2956 0b02 B11D      		adc r27,__zero_reg__
 2957 0b04 8983      		std Y+1,r24
 2958 0b06 9A83      		std Y+2,r25
 2959 0b08 AB83      		std Y+3,r26
 2960 0b0a BC83      		std Y+4,r27
 2961               	.L22:
 349:adpcm.c       ****         *tqmf_ptr-- = *tqmf_ptr1--;
 2962               		.loc 1 349 0 is_stmt 0 discriminator 1
 2963 0b0c 8981      		ldd r24,Y+1
 2964 0b0e 9A81      		ldd r25,Y+2
 2965 0b10 AB81      		ldd r26,Y+3
 2966 0b12 BC81      		ldd r27,Y+4
 2967 0b14 8631      		cpi r24,22
 2968 0b16 9105      		cpc r25,__zero_reg__
 2969 0b18 A105      		cpc r26,__zero_reg__
 2970 0b1a B105      		cpc r27,__zero_reg__
 2971 0b1c 04F0      		brlt .L23
 351:adpcm.c       ****     *tqmf_ptr-- = xin1;
 2972               		.loc 1 351 0 is_stmt 1
 2973 0b1e 2F81      		ldd r18,Y+7
 2974 0b20 3885      		ldd r19,Y+8
 2975 0b22 C901      		movw r24,r18
 2976 0b24 0497      		sbiw r24,4
 2977 0b26 9887      		std Y+8,r25
 2978 0b28 8F83      		std Y+7,r24
 2979 0b2a 8F8D      		ldd r24,Y+31
 2980 0b2c 98A1      		ldd r25,Y+32
 2981 0b2e A9A1      		ldd r26,Y+33
 2982 0b30 BAA1      		ldd r27,Y+34
 2983 0b32 F901      		movw r30,r18
 2984 0b34 8083      		st Z,r24
 2985 0b36 9183      		std Z+1,r25
 2986 0b38 A283      		std Z+2,r26
 2987 0b3a B383      		std Z+3,r27
 352:adpcm.c       ****     *tqmf_ptr = xin2;
 2988               		.loc 1 352 0
 2989 0b3c 2F81      		ldd r18,Y+7
 2990 0b3e 3885      		ldd r19,Y+8
 2991 0b40 8BA1      		ldd r24,Y+35
 2992 0b42 9CA1      		ldd r25,Y+36
 2993 0b44 ADA1      		ldd r26,Y+37
 2994 0b46 BEA1      		ldd r27,Y+38
 2995 0b48 F901      		movw r30,r18
 2996 0b4a 8083      		st Z,r24
 2997 0b4c 9183      		std Z+1,r25
 2998 0b4e A283      		std Z+2,r26
 2999 0b50 B383      		std Z+3,r27
 353:adpcm.c       **** 
 354:adpcm.c       **** /* scale outputs */
 355:adpcm.c       ****     xl = (xa + xb) >> 15;
 3000               		.loc 1 355 0
 3001 0b52 2B85      		ldd r18,Y+11
 3002 0b54 3C85      		ldd r19,Y+12
 3003 0b56 4D85      		ldd r20,Y+13
 3004 0b58 5E85      		ldd r21,Y+14
 3005 0b5a 6F85      		ldd r22,Y+15
 3006 0b5c 7889      		ldd r23,Y+16
 3007 0b5e 8989      		ldd r24,Y+17
 3008 0b60 9A89      		ldd r25,Y+18
 3009 0b62 AB88      		ldd r10,Y+19
 3010 0b64 BC88      		ldd r11,Y+20
 3011 0b66 CD88      		ldd r12,Y+21
 3012 0b68 DE88      		ldd r13,Y+22
 3013 0b6a EF88      		ldd r14,Y+23
 3014 0b6c F88C      		ldd r15,Y+24
 3015 0b6e 098D      		ldd r16,Y+25
 3016 0b70 1A8D      		ldd r17,Y+26
 3017 0b72 0E94 0000 		call __adddi3
 3018 0b76 A22E      		mov r10,r18
 3019 0b78 B32E      		mov r11,r19
 3020 0b7a C42E      		mov r12,r20
 3021 0b7c D52E      		mov r13,r21
 3022 0b7e E62E      		mov r14,r22
 3023 0b80 F72E      		mov r15,r23
 3024 0b82 082F      		mov r16,r24
 3025 0b84 192F      		mov r17,r25
 3026 0b86 2A2D      		mov r18,r10
 3027 0b88 3B2D      		mov r19,r11
 3028 0b8a 4C2D      		mov r20,r12
 3029 0b8c 5D2D      		mov r21,r13
 3030 0b8e 6E2D      		mov r22,r14
 3031 0b90 7F2D      		mov r23,r15
 3032 0b92 802F      		mov r24,r16
 3033 0b94 912F      		mov r25,r17
 3034 0b96 0FE0      		ldi r16,lo8(15)
 3035 0b98 0E94 0000 		call __ashrdi3
 3036 0b9c A22E      		mov r10,r18
 3037 0b9e B32E      		mov r11,r19
 3038 0ba0 C42E      		mov r12,r20
 3039 0ba2 D52E      		mov r13,r21
 3040 0ba4 E62E      		mov r14,r22
 3041 0ba6 F72E      		mov r15,r23
 3042 0ba8 082F      		mov r16,r24
 3043 0baa 192F      		mov r17,r25
 3044 0bac D601      		movw r26,r12
 3045 0bae C501      		movw r24,r10
 3046 0bb0 8093 0000 		sts xl,r24
 3047 0bb4 9093 0000 		sts xl+1,r25
 3048 0bb8 A093 0000 		sts xl+2,r26
 3049 0bbc B093 0000 		sts xl+3,r27
 356:adpcm.c       ****     xh = (xa - xb) >> 15;
 3050               		.loc 1 356 0
 3051 0bc0 2B85      		ldd r18,Y+11
 3052 0bc2 3C85      		ldd r19,Y+12
 3053 0bc4 4D85      		ldd r20,Y+13
 3054 0bc6 5E85      		ldd r21,Y+14
 3055 0bc8 6F85      		ldd r22,Y+15
 3056 0bca 7889      		ldd r23,Y+16
 3057 0bcc 8989      		ldd r24,Y+17
 3058 0bce 9A89      		ldd r25,Y+18
 3059 0bd0 AB88      		ldd r10,Y+19
 3060 0bd2 BC88      		ldd r11,Y+20
 3061 0bd4 CD88      		ldd r12,Y+21
 3062 0bd6 DE88      		ldd r13,Y+22
 3063 0bd8 EF88      		ldd r14,Y+23
 3064 0bda F88C      		ldd r15,Y+24
 3065 0bdc 098D      		ldd r16,Y+25
 3066 0bde 1A8D      		ldd r17,Y+26
 3067 0be0 0E94 0000 		call __subdi3
 3068 0be4 A22E      		mov r10,r18
 3069 0be6 B32E      		mov r11,r19
 3070 0be8 C42E      		mov r12,r20
 3071 0bea D52E      		mov r13,r21
 3072 0bec E62E      		mov r14,r22
 3073 0bee F72E      		mov r15,r23
 3074 0bf0 082F      		mov r16,r24
 3075 0bf2 192F      		mov r17,r25
 3076 0bf4 2A2D      		mov r18,r10
 3077 0bf6 3B2D      		mov r19,r11
 3078 0bf8 4C2D      		mov r20,r12
 3079 0bfa 5D2D      		mov r21,r13
 3080 0bfc 6E2D      		mov r22,r14
 3081 0bfe 7F2D      		mov r23,r15
 3082 0c00 802F      		mov r24,r16
 3083 0c02 912F      		mov r25,r17
 3084 0c04 0FE0      		ldi r16,lo8(15)
 3085 0c06 0E94 0000 		call __ashrdi3
 3086 0c0a A22E      		mov r10,r18
 3087 0c0c B32E      		mov r11,r19
 3088 0c0e C42E      		mov r12,r20
 3089 0c10 D52E      		mov r13,r21
 3090 0c12 E62E      		mov r14,r22
 3091 0c14 F72E      		mov r15,r23
 3092 0c16 082F      		mov r16,r24
 3093 0c18 192F      		mov r17,r25
 3094 0c1a D601      		movw r26,r12
 3095 0c1c C501      		movw r24,r10
 3096 0c1e 8093 0000 		sts xh,r24
 3097 0c22 9093 0000 		sts xh+1,r25
 3098 0c26 A093 0000 		sts xh+2,r26
 3099 0c2a B093 0000 		sts xh+3,r27
 357:adpcm.c       **** 
 358:adpcm.c       **** /* end of quadrature mirror filter code */
 359:adpcm.c       **** 
 360:adpcm.c       **** /* starting with lower sub band encoder */
 361:adpcm.c       **** 
 362:adpcm.c       **** /* filtez - compute predictor output section - zero section */
 363:adpcm.c       ****     szl = filtez(delay_bpl,delay_dltx);
 3100               		.loc 1 363 0
 3101 0c2e 60E0      		ldi r22,lo8(delay_dltx)
 3102 0c30 70E0      		ldi r23,hi8(delay_dltx)
 3103 0c32 80E0      		ldi r24,lo8(delay_bpl)
 3104 0c34 90E0      		ldi r25,hi8(delay_bpl)
 3105 0c36 0E94 0000 		call filtez
 3106 0c3a DC01      		movw r26,r24
 3107 0c3c CB01      		movw r24,r22
 3108 0c3e 8093 0000 		sts szl,r24
 3109 0c42 9093 0000 		sts szl+1,r25
 3110 0c46 A093 0000 		sts szl+2,r26
 3111 0c4a B093 0000 		sts szl+3,r27
 364:adpcm.c       **** 
 365:adpcm.c       **** /* filtep - compute predictor output signal (pole section) */
 366:adpcm.c       ****     spl = filtep(rlt1,al1,rlt2,al2);
 3112               		.loc 1 366 0
 3113 0c4e A090 0000 		lds r10,al2
 3114 0c52 B090 0000 		lds r11,al2+1
 3115 0c56 C090 0000 		lds r12,al2+2
 3116 0c5a D090 0000 		lds r13,al2+3
 3117 0c5e E090 0000 		lds r14,rlt2
 3118 0c62 F090 0000 		lds r15,rlt2+1
 3119 0c66 0091 0000 		lds r16,rlt2+2
 3120 0c6a 1091 0000 		lds r17,rlt2+3
 3121 0c6e 2091 0000 		lds r18,al1
 3122 0c72 3091 0000 		lds r19,al1+1
 3123 0c76 4091 0000 		lds r20,al1+2
 3124 0c7a 5091 0000 		lds r21,al1+3
 3125 0c7e 8091 0000 		lds r24,rlt1
 3126 0c82 9091 0000 		lds r25,rlt1+1
 3127 0c86 A091 0000 		lds r26,rlt1+2
 3128 0c8a B091 0000 		lds r27,rlt1+3
 3129 0c8e BC01      		movw r22,r24
 3130 0c90 CD01      		movw r24,r26
 3131 0c92 0E94 0000 		call filtep
 3132 0c96 DC01      		movw r26,r24
 3133 0c98 CB01      		movw r24,r22
 3134 0c9a 8093 0000 		sts spl,r24
 3135 0c9e 9093 0000 		sts spl+1,r25
 3136 0ca2 A093 0000 		sts spl+2,r26
 3137 0ca6 B093 0000 		sts spl+3,r27
 367:adpcm.c       **** 
 368:adpcm.c       **** /* compute the predictor output value in the lower sub_band encoder */
 369:adpcm.c       ****     sl = szl + spl;
 3138               		.loc 1 369 0
 3139 0caa 2091 0000 		lds r18,szl
 3140 0cae 3091 0000 		lds r19,szl+1
 3141 0cb2 4091 0000 		lds r20,szl+2
 3142 0cb6 5091 0000 		lds r21,szl+3
 3143 0cba 8091 0000 		lds r24,spl
 3144 0cbe 9091 0000 		lds r25,spl+1
 3145 0cc2 A091 0000 		lds r26,spl+2
 3146 0cc6 B091 0000 		lds r27,spl+3
 3147 0cca 820F      		add r24,r18
 3148 0ccc 931F      		adc r25,r19
 3149 0cce A41F      		adc r26,r20
 3150 0cd0 B51F      		adc r27,r21
 3151 0cd2 8093 0000 		sts sl,r24
 3152 0cd6 9093 0000 		sts sl+1,r25
 3153 0cda A093 0000 		sts sl+2,r26
 3154 0cde B093 0000 		sts sl+3,r27
 370:adpcm.c       ****     el = xl - sl;
 3155               		.loc 1 370 0
 3156 0ce2 2091 0000 		lds r18,xl
 3157 0ce6 3091 0000 		lds r19,xl+1
 3158 0cea 4091 0000 		lds r20,xl+2
 3159 0cee 5091 0000 		lds r21,xl+3
 3160 0cf2 8091 0000 		lds r24,sl
 3161 0cf6 9091 0000 		lds r25,sl+1
 3162 0cfa A091 0000 		lds r26,sl+2
 3163 0cfe B091 0000 		lds r27,sl+3
 3164 0d02 7901      		movw r14,r18
 3165 0d04 8A01      		movw r16,r20
 3166 0d06 E81A      		sub r14,r24
 3167 0d08 F90A      		sbc r15,r25
 3168 0d0a 0A0B      		sbc r16,r26
 3169 0d0c 1B0B      		sbc r17,r27
 3170 0d0e D801      		movw r26,r16
 3171 0d10 C701      		movw r24,r14
 3172 0d12 8093 0000 		sts el,r24
 3173 0d16 9093 0000 		sts el+1,r25
 3174 0d1a A093 0000 		sts el+2,r26
 3175 0d1e B093 0000 		sts el+3,r27
 371:adpcm.c       **** 
 372:adpcm.c       **** /* quantl: quantize the difference signal */
 373:adpcm.c       ****     il = quantl(el,detl);
 3176               		.loc 1 373 0
 3177 0d22 2091 0000 		lds r18,detl
 3178 0d26 3091 0000 		lds r19,detl+1
 3179 0d2a 4091 0000 		lds r20,detl+2
 3180 0d2e 5091 0000 		lds r21,detl+3
 3181 0d32 8091 0000 		lds r24,el
 3182 0d36 9091 0000 		lds r25,el+1
 3183 0d3a A091 0000 		lds r26,el+2
 3184 0d3e B091 0000 		lds r27,el+3
 3185 0d42 BC01      		movw r22,r24
 3186 0d44 CD01      		movw r24,r26
 3187 0d46 0E94 0000 		call quantl
 3188 0d4a DC01      		movw r26,r24
 3189 0d4c CB01      		movw r24,r22
 3190 0d4e 8093 0000 		sts il,r24
 3191 0d52 9093 0000 		sts il+1,r25
 3192 0d56 A093 0000 		sts il+2,r26
 3193 0d5a B093 0000 		sts il+3,r27
 374:adpcm.c       **** 
 375:adpcm.c       **** /* invqxl: computes quantized difference signal */
 376:adpcm.c       **** /* for invqbl, truncate by 2 lsbs, so mode = 3 */
 377:adpcm.c       ****     dlt = ((int64_t)detl*qq4_code4_table[il >> 2]) >> 15;
 3194               		.loc 1 377 0
 3195 0d5e 8091 0000 		lds r24,detl
 3196 0d62 9091 0000 		lds r25,detl+1
 3197 0d66 A091 0000 		lds r26,detl+2
 3198 0d6a B091 0000 		lds r27,detl+3
 3199 0d6e C158      		subi r28,lo8(-127)
 3200 0d70 DF4F      		sbci r29,hi8(-127)
 3201 0d72 8883      		st Y,r24
 3202 0d74 9983      		std Y+1,r25
 3203 0d76 AA83      		std Y+2,r26
 3204 0d78 BB83      		std Y+3,r27
 3205 0d7a CF57      		subi r28,lo8(127)
 3206 0d7c D040      		sbci r29,hi8(127)
 3207 0d7e BB0F      		lsl r27
 3208 0d80 880B      		sbc r24,r24
 3209 0d82 982F      		mov r25,r24
 3210 0d84 DC01      		movw r26,r24
 3211 0d86 CD57      		subi r28,lo8(-131)
 3212 0d88 DF4F      		sbci r29,hi8(-131)
 3213 0d8a 8883      		st Y,r24
 3214 0d8c C358      		subi r28,lo8(131)
 3215 0d8e D040      		sbci r29,hi8(131)
 3216 0d90 CC57      		subi r28,lo8(-132)
 3217 0d92 DF4F      		sbci r29,hi8(-132)
 3218 0d94 8883      		st Y,r24
 3219 0d96 C458      		subi r28,lo8(132)
 3220 0d98 D040      		sbci r29,hi8(132)
 3221 0d9a CB57      		subi r28,lo8(-133)
 3222 0d9c DF4F      		sbci r29,hi8(-133)
 3223 0d9e 8883      		st Y,r24
 3224 0da0 C558      		subi r28,lo8(133)
 3225 0da2 D040      		sbci r29,hi8(133)
 3226 0da4 CA57      		subi r28,lo8(-134)
 3227 0da6 DF4F      		sbci r29,hi8(-134)
 3228 0da8 8883      		st Y,r24
 3229 0daa C658      		subi r28,lo8(134)
 3230 0dac D040      		sbci r29,hi8(134)
 3231 0dae 8091 0000 		lds r24,il
 3232 0db2 9091 0000 		lds r25,il+1
 3233 0db6 A091 0000 		lds r26,il+2
 3234 0dba B091 0000 		lds r27,il+3
 3235 0dbe B595      		asr r27
 3236 0dc0 A795      		ror r26
 3237 0dc2 9795      		ror r25
 3238 0dc4 8795      		ror r24
 3239 0dc6 B595      		asr r27
 3240 0dc8 A795      		ror r26
 3241 0dca 9795      		ror r25
 3242 0dcc 8795      		ror r24
 3243 0dce 880F      		lsl r24
 3244 0dd0 991F      		rol r25
 3245 0dd2 880F      		lsl r24
 3246 0dd4 991F      		rol r25
 3247 0dd6 8050      		subi r24,lo8(-(qq4_code4_table))
 3248 0dd8 9040      		sbci r25,hi8(-(qq4_code4_table))
 3249 0dda FC01      		movw r30,r24
 3250 0ddc 8081      		ld r24,Z
 3251 0dde 9181      		ldd r25,Z+1
 3252 0de0 A281      		ldd r26,Z+2
 3253 0de2 B381      		ldd r27,Z+3
 3254 0de4 C957      		subi r28,lo8(-135)
 3255 0de6 DF4F      		sbci r29,hi8(-135)
 3256 0de8 8883      		st Y,r24
 3257 0dea 9983      		std Y+1,r25
 3258 0dec AA83      		std Y+2,r26
 3259 0dee BB83      		std Y+3,r27
 3260 0df0 C758      		subi r28,lo8(135)
 3261 0df2 D040      		sbci r29,hi8(135)
 3262 0df4 BB0F      		lsl r27
 3263 0df6 880B      		sbc r24,r24
 3264 0df8 982F      		mov r25,r24
 3265 0dfa DC01      		movw r26,r24
 3266 0dfc C557      		subi r28,lo8(-139)
 3267 0dfe DF4F      		sbci r29,hi8(-139)
 3268 0e00 8883      		st Y,r24
 3269 0e02 CB58      		subi r28,lo8(139)
 3270 0e04 D040      		sbci r29,hi8(139)
 3271 0e06 C457      		subi r28,lo8(-140)
 3272 0e08 DF4F      		sbci r29,hi8(-140)
 3273 0e0a 8883      		st Y,r24
 3274 0e0c CC58      		subi r28,lo8(140)
 3275 0e0e D040      		sbci r29,hi8(140)
 3276 0e10 C357      		subi r28,lo8(-141)
 3277 0e12 DF4F      		sbci r29,hi8(-141)
 3278 0e14 8883      		st Y,r24
 3279 0e16 CD58      		subi r28,lo8(141)
 3280 0e18 D040      		sbci r29,hi8(141)
 3281 0e1a C257      		subi r28,lo8(-142)
 3282 0e1c DF4F      		sbci r29,hi8(-142)
 3283 0e1e 8883      		st Y,r24
 3284 0e20 CE58      		subi r28,lo8(142)
 3285 0e22 D040      		sbci r29,hi8(142)
 3286 0e24 C957      		subi r28,lo8(-135)
 3287 0e26 DF4F      		sbci r29,hi8(-135)
 3288 0e28 A880      		ld r10,Y
 3289 0e2a C758      		subi r28,lo8(135)
 3290 0e2c D040      		sbci r29,hi8(135)
 3291 0e2e C857      		subi r28,lo8(-136)
 3292 0e30 DF4F      		sbci r29,hi8(-136)
 3293 0e32 B880      		ld r11,Y
 3294 0e34 C858      		subi r28,lo8(136)
 3295 0e36 D040      		sbci r29,hi8(136)
 3296 0e38 C757      		subi r28,lo8(-137)
 3297 0e3a DF4F      		sbci r29,hi8(-137)
 3298 0e3c C880      		ld r12,Y
 3299 0e3e C958      		subi r28,lo8(137)
 3300 0e40 D040      		sbci r29,hi8(137)
 3301 0e42 C657      		subi r28,lo8(-138)
 3302 0e44 DF4F      		sbci r29,hi8(-138)
 3303 0e46 D880      		ld r13,Y
 3304 0e48 CA58      		subi r28,lo8(138)
 3305 0e4a D040      		sbci r29,hi8(138)
 3306 0e4c C557      		subi r28,lo8(-139)
 3307 0e4e DF4F      		sbci r29,hi8(-139)
 3308 0e50 E880      		ld r14,Y
 3309 0e52 CB58      		subi r28,lo8(139)
 3310 0e54 D040      		sbci r29,hi8(139)
 3311 0e56 C457      		subi r28,lo8(-140)
 3312 0e58 DF4F      		sbci r29,hi8(-140)
 3313 0e5a F880      		ld r15,Y
 3314 0e5c CC58      		subi r28,lo8(140)
 3315 0e5e D040      		sbci r29,hi8(140)
 3316 0e60 C357      		subi r28,lo8(-141)
 3317 0e62 DF4F      		sbci r29,hi8(-141)
 3318 0e64 0881      		ld r16,Y
 3319 0e66 CD58      		subi r28,lo8(141)
 3320 0e68 D040      		sbci r29,hi8(141)
 3321 0e6a C257      		subi r28,lo8(-142)
 3322 0e6c DF4F      		sbci r29,hi8(-142)
 3323 0e6e 1881      		ld r17,Y
 3324 0e70 CE58      		subi r28,lo8(142)
 3325 0e72 D040      		sbci r29,hi8(142)
 3326 0e74 C158      		subi r28,lo8(-127)
 3327 0e76 DF4F      		sbci r29,hi8(-127)
 3328 0e78 2881      		ld r18,Y
 3329 0e7a CF57      		subi r28,lo8(127)
 3330 0e7c D040      		sbci r29,hi8(127)
 3331 0e7e C058      		subi r28,lo8(-128)
 3332 0e80 DF4F      		sbci r29,hi8(-128)
 3333 0e82 3881      		ld r19,Y
 3334 0e84 C058      		subi r28,lo8(128)
 3335 0e86 D040      		sbci r29,hi8(128)
 3336 0e88 CF57      		subi r28,lo8(-129)
 3337 0e8a DF4F      		sbci r29,hi8(-129)
 3338 0e8c 4881      		ld r20,Y
 3339 0e8e C158      		subi r28,lo8(129)
 3340 0e90 D040      		sbci r29,hi8(129)
 3341 0e92 CE57      		subi r28,lo8(-130)
 3342 0e94 DF4F      		sbci r29,hi8(-130)
 3343 0e96 5881      		ld r21,Y
 3344 0e98 C258      		subi r28,lo8(130)
 3345 0e9a D040      		sbci r29,hi8(130)
 3346 0e9c CD57      		subi r28,lo8(-131)
 3347 0e9e DF4F      		sbci r29,hi8(-131)
 3348 0ea0 6881      		ld r22,Y
 3349 0ea2 C358      		subi r28,lo8(131)
 3350 0ea4 D040      		sbci r29,hi8(131)
 3351 0ea6 CC57      		subi r28,lo8(-132)
 3352 0ea8 DF4F      		sbci r29,hi8(-132)
 3353 0eaa 7881      		ld r23,Y
 3354 0eac C458      		subi r28,lo8(132)
 3355 0eae D040      		sbci r29,hi8(132)
 3356 0eb0 CB57      		subi r28,lo8(-133)
 3357 0eb2 DF4F      		sbci r29,hi8(-133)
 3358 0eb4 8881      		ld r24,Y
 3359 0eb6 C558      		subi r28,lo8(133)
 3360 0eb8 D040      		sbci r29,hi8(133)
 3361 0eba CA57      		subi r28,lo8(-134)
 3362 0ebc DF4F      		sbci r29,hi8(-134)
 3363 0ebe 9881      		ld r25,Y
 3364 0ec0 C658      		subi r28,lo8(134)
 3365 0ec2 D040      		sbci r29,hi8(134)
 3366 0ec4 0E94 0000 		call __muldi3
 3367 0ec8 222E      		mov r2,r18
 3368 0eca 332E      		mov r3,r19
 3369 0ecc 442E      		mov r4,r20
 3370 0ece 552E      		mov r5,r21
 3371 0ed0 662E      		mov r6,r22
 3372 0ed2 772E      		mov r7,r23
 3373 0ed4 882E      		mov r8,r24
 3374 0ed6 992E      		mov r9,r25
 3375 0ed8 A22C      		mov r10,r2
 3376 0eda B32C      		mov r11,r3
 3377 0edc C42C      		mov r12,r4
 3378 0ede D52C      		mov r13,r5
 3379 0ee0 E62C      		mov r14,r6
 3380 0ee2 F72C      		mov r15,r7
 3381 0ee4 082D      		mov r16,r8
 3382 0ee6 192D      		mov r17,r9
 3383 0ee8 2A2D      		mov r18,r10
 3384 0eea 3B2D      		mov r19,r11
 3385 0eec 4C2D      		mov r20,r12
 3386 0eee 5D2D      		mov r21,r13
 3387 0ef0 6E2D      		mov r22,r14
 3388 0ef2 7F2D      		mov r23,r15
 3389 0ef4 802F      		mov r24,r16
 3390 0ef6 912F      		mov r25,r17
 3391 0ef8 0FE0      		ldi r16,lo8(15)
 3392 0efa 0E94 0000 		call __ashrdi3
 3393 0efe A22E      		mov r10,r18
 3394 0f00 B32E      		mov r11,r19
 3395 0f02 C42E      		mov r12,r20
 3396 0f04 D52E      		mov r13,r21
 3397 0f06 E62E      		mov r14,r22
 3398 0f08 F72E      		mov r15,r23
 3399 0f0a 082F      		mov r16,r24
 3400 0f0c 192F      		mov r17,r25
 3401 0f0e D601      		movw r26,r12
 3402 0f10 C501      		movw r24,r10
 3403 0f12 8093 0000 		sts dlt,r24
 3404 0f16 9093 0000 		sts dlt+1,r25
 3405 0f1a A093 0000 		sts dlt+2,r26
 3406 0f1e B093 0000 		sts dlt+3,r27
 378:adpcm.c       **** 
 379:adpcm.c       **** /* logscl: updates logarithmic quant. scale factor in low sub band */
 380:adpcm.c       ****     nbl = logscl(il,nbl);
 3407               		.loc 1 380 0
 3408 0f22 8091 0000 		lds r24,nbl
 3409 0f26 9091 0000 		lds r25,nbl+1
 3410 0f2a A091 0000 		lds r26,nbl+2
 3411 0f2e B091 0000 		lds r27,nbl+3
 3412 0f32 E090 0000 		lds r14,il
 3413 0f36 F090 0000 		lds r15,il+1
 3414 0f3a 0091 0000 		lds r16,il+2
 3415 0f3e 1091 0000 		lds r17,il+3
 3416 0f42 9C01      		movw r18,r24
 3417 0f44 AD01      		movw r20,r26
 3418 0f46 C801      		movw r24,r16
 3419 0f48 B701      		movw r22,r14
 3420 0f4a 0E94 0000 		call logscl
 3421 0f4e DC01      		movw r26,r24
 3422 0f50 CB01      		movw r24,r22
 3423 0f52 8093 0000 		sts nbl,r24
 3424 0f56 9093 0000 		sts nbl+1,r25
 3425 0f5a A093 0000 		sts nbl+2,r26
 3426 0f5e B093 0000 		sts nbl+3,r27
 381:adpcm.c       **** 
 382:adpcm.c       **** /* scalel: compute the quantizer scale factor in the lower sub band */
 383:adpcm.c       **** /* calling parameters nbl and 8 (constant such that scalel can be scaleh) */
 384:adpcm.c       ****     detl = scalel(nbl,8);
 3427               		.loc 1 384 0
 3428 0f62 8091 0000 		lds r24,nbl
 3429 0f66 9091 0000 		lds r25,nbl+1
 3430 0f6a A091 0000 		lds r26,nbl+2
 3431 0f6e B091 0000 		lds r27,nbl+3
 3432 0f72 28E0      		ldi r18,lo8(8)
 3433 0f74 30E0      		ldi r19,0
 3434 0f76 40E0      		ldi r20,0
 3435 0f78 50E0      		ldi r21,0
 3436 0f7a BC01      		movw r22,r24
 3437 0f7c CD01      		movw r24,r26
 3438 0f7e 0E94 0000 		call scalel
 3439 0f82 DC01      		movw r26,r24
 3440 0f84 CB01      		movw r24,r22
 3441 0f86 8093 0000 		sts detl,r24
 3442 0f8a 9093 0000 		sts detl+1,r25
 3443 0f8e A093 0000 		sts detl+2,r26
 3444 0f92 B093 0000 		sts detl+3,r27
 385:adpcm.c       **** 
 386:adpcm.c       **** /* parrec - simple addition to compute recontructed signal for adaptive pred */
 387:adpcm.c       ****     plt = dlt + szl;
 3445               		.loc 1 387 0
 3446 0f96 2091 0000 		lds r18,dlt
 3447 0f9a 3091 0000 		lds r19,dlt+1
 3448 0f9e 4091 0000 		lds r20,dlt+2
 3449 0fa2 5091 0000 		lds r21,dlt+3
 3450 0fa6 8091 0000 		lds r24,szl
 3451 0faa 9091 0000 		lds r25,szl+1
 3452 0fae A091 0000 		lds r26,szl+2
 3453 0fb2 B091 0000 		lds r27,szl+3
 3454 0fb6 820F      		add r24,r18
 3455 0fb8 931F      		adc r25,r19
 3456 0fba A41F      		adc r26,r20
 3457 0fbc B51F      		adc r27,r21
 3458 0fbe 8093 0000 		sts plt,r24
 3459 0fc2 9093 0000 		sts plt+1,r25
 3460 0fc6 A093 0000 		sts plt+2,r26
 3461 0fca B093 0000 		sts plt+3,r27
 388:adpcm.c       **** 
 389:adpcm.c       **** /* upzero: update zero section predictor coefficients (sixth order)*/
 390:adpcm.c       **** /* calling parameters: dlt, dlt1, dlt2, ..., dlt6 from dlt */
 391:adpcm.c       **** /*  bpli (linear_buffer in which all six values are delayed */
 392:adpcm.c       **** /* return params:      updated bpli, delayed dltx */
 393:adpcm.c       ****     upzero(dlt,delay_dltx,delay_bpl);
 3462               		.loc 1 393 0
 3463 0fce 8091 0000 		lds r24,dlt
 3464 0fd2 9091 0000 		lds r25,dlt+1
 3465 0fd6 A091 0000 		lds r26,dlt+2
 3466 0fda B091 0000 		lds r27,dlt+3
 3467 0fde 20E0      		ldi r18,lo8(delay_bpl)
 3468 0fe0 30E0      		ldi r19,hi8(delay_bpl)
 3469 0fe2 40E0      		ldi r20,lo8(delay_dltx)
 3470 0fe4 50E0      		ldi r21,hi8(delay_dltx)
 3471 0fe6 BC01      		movw r22,r24
 3472 0fe8 CD01      		movw r24,r26
 3473 0fea 0E94 0000 		call upzero
 394:adpcm.c       **** 
 395:adpcm.c       **** /* uppol2- update second predictor coefficient apl2 and delay it as al2 */
 396:adpcm.c       **** /* calling parameters: al1, al2, plt, plt1, plt2 */
 397:adpcm.c       ****     al2 = uppol2(al1,al2,plt,plt1,plt2);
 3474               		.loc 1 397 0
 3475 0fee 8091 0000 		lds r24,plt2
 3476 0ff2 9091 0000 		lds r25,plt2+1
 3477 0ff6 A091 0000 		lds r26,plt2+2
 3478 0ffa B091 0000 		lds r27,plt2+3
 3479 0ffe A090 0000 		lds r10,plt1
 3480 1002 B090 0000 		lds r11,plt1+1
 3481 1006 C090 0000 		lds r12,plt1+2
 3482 100a D090 0000 		lds r13,plt1+3
 3483 100e E090 0000 		lds r14,plt
 3484 1012 F090 0000 		lds r15,plt+1
 3485 1016 0091 0000 		lds r16,plt+2
 3486 101a 1091 0000 		lds r17,plt+3
 3487 101e 2091 0000 		lds r18,al2
 3488 1022 3091 0000 		lds r19,al2+1
 3489 1026 4091 0000 		lds r20,al2+2
 3490 102a 5091 0000 		lds r21,al2+3
 3491 102e 6090 0000 		lds r6,al1
 3492 1032 7090 0000 		lds r7,al1+1
 3493 1036 8090 0000 		lds r8,al1+2
 3494 103a 9090 0000 		lds r9,al1+3
 3495 103e 6B2F      		mov r22,r27
 3496 1040 6F93      		push r22
 3497 1042 6A2F      		mov r22,r26
 3498 1044 6F93      		push r22
 3499 1046 692F      		mov r22,r25
 3500 1048 6F93      		push r22
 3501 104a 8F93      		push r24
 3502 104c C401      		movw r24,r8
 3503 104e B301      		movw r22,r6
 3504 1050 0E94 0000 		call uppol2
 3505 1054 0F90      		pop __tmp_reg__
 3506 1056 0F90      		pop __tmp_reg__
 3507 1058 0F90      		pop __tmp_reg__
 3508 105a 0F90      		pop __tmp_reg__
 3509 105c DC01      		movw r26,r24
 3510 105e CB01      		movw r24,r22
 3511 1060 8093 0000 		sts al2,r24
 3512 1064 9093 0000 		sts al2+1,r25
 3513 1068 A093 0000 		sts al2+2,r26
 3514 106c B093 0000 		sts al2+3,r27
 398:adpcm.c       **** 
 399:adpcm.c       **** /* uppol1 :update first predictor coefficient apl1 and delay it as al1 */
 400:adpcm.c       **** /* calling parameters: al1, apl2, plt, plt1 */
 401:adpcm.c       ****     al1 = uppol1(al1,al2,plt,plt1);
 3515               		.loc 1 401 0
 3516 1070 8091 0000 		lds r24,plt1
 3517 1074 9091 0000 		lds r25,plt1+1
 3518 1078 A091 0000 		lds r26,plt1+2
 3519 107c B091 0000 		lds r27,plt1+3
 3520 1080 E090 0000 		lds r14,plt
 3521 1084 F090 0000 		lds r15,plt+1
 3522 1088 0091 0000 		lds r16,plt+2
 3523 108c 1091 0000 		lds r17,plt+3
 3524 1090 2091 0000 		lds r18,al2
 3525 1094 3091 0000 		lds r19,al2+1
 3526 1098 4091 0000 		lds r20,al2+2
 3527 109c 5091 0000 		lds r21,al2+3
 3528 10a0 6090 0000 		lds r6,al1
 3529 10a4 7090 0000 		lds r7,al1+1
 3530 10a8 8090 0000 		lds r8,al1+2
 3531 10ac 9090 0000 		lds r9,al1+3
 3532 10b0 5C01      		movw r10,r24
 3533 10b2 6D01      		movw r12,r26
 3534 10b4 C401      		movw r24,r8
 3535 10b6 B301      		movw r22,r6
 3536 10b8 0E94 0000 		call uppol1
 3537 10bc DC01      		movw r26,r24
 3538 10be CB01      		movw r24,r22
 3539 10c0 8093 0000 		sts al1,r24
 3540 10c4 9093 0000 		sts al1+1,r25
 3541 10c8 A093 0000 		sts al1+2,r26
 3542 10cc B093 0000 		sts al1+3,r27
 402:adpcm.c       **** 
 403:adpcm.c       **** /* recons : compute recontructed signal for adaptive predictor */
 404:adpcm.c       ****     rlt = sl + dlt;
 3543               		.loc 1 404 0
 3544 10d0 2091 0000 		lds r18,sl
 3545 10d4 3091 0000 		lds r19,sl+1
 3546 10d8 4091 0000 		lds r20,sl+2
 3547 10dc 5091 0000 		lds r21,sl+3
 3548 10e0 8091 0000 		lds r24,dlt
 3549 10e4 9091 0000 		lds r25,dlt+1
 3550 10e8 A091 0000 		lds r26,dlt+2
 3551 10ec B091 0000 		lds r27,dlt+3
 3552 10f0 820F      		add r24,r18
 3553 10f2 931F      		adc r25,r19
 3554 10f4 A41F      		adc r26,r20
 3555 10f6 B51F      		adc r27,r21
 3556 10f8 8093 0000 		sts rlt,r24
 3557 10fc 9093 0000 		sts rlt+1,r25
 3558 1100 A093 0000 		sts rlt+2,r26
 3559 1104 B093 0000 		sts rlt+3,r27
 405:adpcm.c       **** 
 406:adpcm.c       **** /* done with lower sub_band encoder; now implement delays for next time*/
 407:adpcm.c       ****     rlt2 = rlt1;
 3560               		.loc 1 407 0
 3561 1108 8091 0000 		lds r24,rlt1
 3562 110c 9091 0000 		lds r25,rlt1+1
 3563 1110 A091 0000 		lds r26,rlt1+2
 3564 1114 B091 0000 		lds r27,rlt1+3
 3565 1118 8093 0000 		sts rlt2,r24
 3566 111c 9093 0000 		sts rlt2+1,r25
 3567 1120 A093 0000 		sts rlt2+2,r26
 3568 1124 B093 0000 		sts rlt2+3,r27
 408:adpcm.c       ****     rlt1 = rlt;
 3569               		.loc 1 408 0
 3570 1128 8091 0000 		lds r24,rlt
 3571 112c 9091 0000 		lds r25,rlt+1
 3572 1130 A091 0000 		lds r26,rlt+2
 3573 1134 B091 0000 		lds r27,rlt+3
 3574 1138 8093 0000 		sts rlt1,r24
 3575 113c 9093 0000 		sts rlt1+1,r25
 3576 1140 A093 0000 		sts rlt1+2,r26
 3577 1144 B093 0000 		sts rlt1+3,r27
 409:adpcm.c       ****     plt2 = plt1;
 3578               		.loc 1 409 0
 3579 1148 8091 0000 		lds r24,plt1
 3580 114c 9091 0000 		lds r25,plt1+1
 3581 1150 A091 0000 		lds r26,plt1+2
 3582 1154 B091 0000 		lds r27,plt1+3
 3583 1158 8093 0000 		sts plt2,r24
 3584 115c 9093 0000 		sts plt2+1,r25
 3585 1160 A093 0000 		sts plt2+2,r26
 3586 1164 B093 0000 		sts plt2+3,r27
 410:adpcm.c       ****     plt1 = plt;
 3587               		.loc 1 410 0
 3588 1168 8091 0000 		lds r24,plt
 3589 116c 9091 0000 		lds r25,plt+1
 3590 1170 A091 0000 		lds r26,plt+2
 3591 1174 B091 0000 		lds r27,plt+3
 3592 1178 8093 0000 		sts plt1,r24
 3593 117c 9093 0000 		sts plt1+1,r25
 3594 1180 A093 0000 		sts plt1+2,r26
 3595 1184 B093 0000 		sts plt1+3,r27
 411:adpcm.c       **** 
 412:adpcm.c       **** /* high band encode */
 413:adpcm.c       **** 
 414:adpcm.c       ****     szh = filtez(delay_bph,delay_dhx);
 3596               		.loc 1 414 0
 3597 1188 60E0      		ldi r22,lo8(delay_dhx)
 3598 118a 70E0      		ldi r23,hi8(delay_dhx)
 3599 118c 80E0      		ldi r24,lo8(delay_bph)
 3600 118e 90E0      		ldi r25,hi8(delay_bph)
 3601 1190 0E94 0000 		call filtez
 3602 1194 DC01      		movw r26,r24
 3603 1196 CB01      		movw r24,r22
 3604 1198 8093 0000 		sts szh,r24
 3605 119c 9093 0000 		sts szh+1,r25
 3606 11a0 A093 0000 		sts szh+2,r26
 3607 11a4 B093 0000 		sts szh+3,r27
 415:adpcm.c       **** 
 416:adpcm.c       ****     sph = filtep(rh1,ah1,rh2,ah2);
 3608               		.loc 1 416 0
 3609 11a8 8091 0000 		lds r24,ah2
 3610 11ac 9091 0000 		lds r25,ah2+1
 3611 11b0 A091 0000 		lds r26,ah2+2
 3612 11b4 B091 0000 		lds r27,ah2+3
 3613 11b8 E090 0000 		lds r14,rh2
 3614 11bc F090 0000 		lds r15,rh2+1
 3615 11c0 0091 0000 		lds r16,rh2+2
 3616 11c4 1091 0000 		lds r17,rh2+3
 3617 11c8 2091 0000 		lds r18,ah1
 3618 11cc 3091 0000 		lds r19,ah1+1
 3619 11d0 4091 0000 		lds r20,ah1+2
 3620 11d4 5091 0000 		lds r21,ah1+3
 3621 11d8 6090 0000 		lds r6,rh1
 3622 11dc 7090 0000 		lds r7,rh1+1
 3623 11e0 8090 0000 		lds r8,rh1+2
 3624 11e4 9090 0000 		lds r9,rh1+3
 3625 11e8 5C01      		movw r10,r24
 3626 11ea 6D01      		movw r12,r26
 3627 11ec C401      		movw r24,r8
 3628 11ee B301      		movw r22,r6
 3629 11f0 0E94 0000 		call filtep
 3630 11f4 DC01      		movw r26,r24
 3631 11f6 CB01      		movw r24,r22
 3632 11f8 8093 0000 		sts sph,r24
 3633 11fc 9093 0000 		sts sph+1,r25
 3634 1200 A093 0000 		sts sph+2,r26
 3635 1204 B093 0000 		sts sph+3,r27
 417:adpcm.c       **** 
 418:adpcm.c       **** /* predic: sh = sph + szh */
 419:adpcm.c       ****     sh = sph + szh;
 3636               		.loc 1 419 0
 3637 1208 2091 0000 		lds r18,sph
 3638 120c 3091 0000 		lds r19,sph+1
 3639 1210 4091 0000 		lds r20,sph+2
 3640 1214 5091 0000 		lds r21,sph+3
 3641 1218 8091 0000 		lds r24,szh
 3642 121c 9091 0000 		lds r25,szh+1
 3643 1220 A091 0000 		lds r26,szh+2
 3644 1224 B091 0000 		lds r27,szh+3
 3645 1228 820F      		add r24,r18
 3646 122a 931F      		adc r25,r19
 3647 122c A41F      		adc r26,r20
 3648 122e B51F      		adc r27,r21
 3649 1230 8093 0000 		sts sh,r24
 3650 1234 9093 0000 		sts sh+1,r25
 3651 1238 A093 0000 		sts sh+2,r26
 3652 123c B093 0000 		sts sh+3,r27
 420:adpcm.c       **** /* subtra: eh = xh - sh */
 421:adpcm.c       ****     eh = xh - sh;
 3653               		.loc 1 421 0
 3654 1240 2091 0000 		lds r18,xh
 3655 1244 3091 0000 		lds r19,xh+1
 3656 1248 4091 0000 		lds r20,xh+2
 3657 124c 5091 0000 		lds r21,xh+3
 3658 1250 8091 0000 		lds r24,sh
 3659 1254 9091 0000 		lds r25,sh+1
 3660 1258 A091 0000 		lds r26,sh+2
 3661 125c B091 0000 		lds r27,sh+3
 3662 1260 7901      		movw r14,r18
 3663 1262 8A01      		movw r16,r20
 3664 1264 E81A      		sub r14,r24
 3665 1266 F90A      		sbc r15,r25
 3666 1268 0A0B      		sbc r16,r26
 3667 126a 1B0B      		sbc r17,r27
 3668 126c D801      		movw r26,r16
 3669 126e C701      		movw r24,r14
 3670 1270 8093 0000 		sts eh,r24
 3671 1274 9093 0000 		sts eh+1,r25
 3672 1278 A093 0000 		sts eh+2,r26
 3673 127c B093 0000 		sts eh+3,r27
 422:adpcm.c       **** 
 423:adpcm.c       **** /* quanth - quantization of difference signal for higher sub-band */
 424:adpcm.c       **** /* quanth: in-place for speed params: eh, deth (has init. value) */
 425:adpcm.c       ****     if(eh >= 0) {
 3674               		.loc 1 425 0
 3675 1280 8091 0000 		lds r24,eh
 3676 1284 9091 0000 		lds r25,eh+1
 3677 1288 A091 0000 		lds r26,eh+2
 3678 128c B091 0000 		lds r27,eh+3
 3679 1290 BB23      		tst r27
 3680 1292 04F0      		brlt .L24
 426:adpcm.c       ****         ih = 3;     /* 2,3 are pos codes */
 3681               		.loc 1 426 0
 3682 1294 83E0      		ldi r24,lo8(3)
 3683 1296 90E0      		ldi r25,0
 3684 1298 A0E0      		ldi r26,0
 3685 129a B0E0      		ldi r27,0
 3686 129c 8093 0000 		sts ih,r24
 3687 12a0 9093 0000 		sts ih+1,r25
 3688 12a4 A093 0000 		sts ih+2,r26
 3689 12a8 B093 0000 		sts ih+3,r27
 3690 12ac 00C0      		rjmp .L25
 3691               	.L24:
 427:adpcm.c       ****     }
 428:adpcm.c       ****     else {
 429:adpcm.c       ****         ih = 1;     /* 0,1 are neg codes */
 3692               		.loc 1 429 0
 3693 12ae 81E0      		ldi r24,lo8(1)
 3694 12b0 90E0      		ldi r25,0
 3695 12b2 A0E0      		ldi r26,0
 3696 12b4 B0E0      		ldi r27,0
 3697 12b6 8093 0000 		sts ih,r24
 3698 12ba 9093 0000 		sts ih+1,r25
 3699 12be A093 0000 		sts ih+2,r26
 3700 12c2 B093 0000 		sts ih+3,r27
 3701               	.L25:
 430:adpcm.c       ****     }
 431:adpcm.c       ****     decis = (564L*(int64_t)deth) >> 12L;
 3702               		.loc 1 431 0
 3703 12c6 8091 0000 		lds r24,deth
 3704 12ca 9091 0000 		lds r25,deth+1
 3705 12ce A091 0000 		lds r26,deth+2
 3706 12d2 B091 0000 		lds r27,deth+3
 3707 12d6 C157      		subi r28,lo8(-143)
 3708 12d8 DF4F      		sbci r29,hi8(-143)
 3709 12da 8883      		st Y,r24
 3710 12dc 9983      		std Y+1,r25
 3711 12de AA83      		std Y+2,r26
 3712 12e0 BB83      		std Y+3,r27
 3713 12e2 CF58      		subi r28,lo8(143)
 3714 12e4 D040      		sbci r29,hi8(143)
 3715 12e6 BB0F      		lsl r27
 3716 12e8 880B      		sbc r24,r24
 3717 12ea 982F      		mov r25,r24
 3718 12ec DC01      		movw r26,r24
 3719 12ee CD56      		subi r28,lo8(-147)
 3720 12f0 DF4F      		sbci r29,hi8(-147)
 3721 12f2 8883      		st Y,r24
 3722 12f4 C359      		subi r28,lo8(147)
 3723 12f6 D040      		sbci r29,hi8(147)
 3724 12f8 CC56      		subi r28,lo8(-148)
 3725 12fa DF4F      		sbci r29,hi8(-148)
 3726 12fc 8883      		st Y,r24
 3727 12fe C459      		subi r28,lo8(148)
 3728 1300 D040      		sbci r29,hi8(148)
 3729 1302 CB56      		subi r28,lo8(-149)
 3730 1304 DF4F      		sbci r29,hi8(-149)
 3731 1306 8883      		st Y,r24
 3732 1308 C559      		subi r28,lo8(149)
 3733 130a D040      		sbci r29,hi8(149)
 3734 130c CA56      		subi r28,lo8(-150)
 3735 130e DF4F      		sbci r29,hi8(-150)
 3736 1310 8883      		st Y,r24
 3737 1312 C659      		subi r28,lo8(150)
 3738 1314 D040      		sbci r29,hi8(150)
 3739 1316 C157      		subi r28,lo8(-143)
 3740 1318 DF4F      		sbci r29,hi8(-143)
 3741 131a 2880      		ld r2,Y
 3742 131c CF58      		subi r28,lo8(143)
 3743 131e D040      		sbci r29,hi8(143)
 3744 1320 C057      		subi r28,lo8(-144)
 3745 1322 DF4F      		sbci r29,hi8(-144)
 3746 1324 3880      		ld r3,Y
 3747 1326 C059      		subi r28,lo8(144)
 3748 1328 D040      		sbci r29,hi8(144)
 3749 132a CF56      		subi r28,lo8(-145)
 3750 132c DF4F      		sbci r29,hi8(-145)
 3751 132e 4880      		ld r4,Y
 3752 1330 C159      		subi r28,lo8(145)
 3753 1332 D040      		sbci r29,hi8(145)
 3754 1334 CE56      		subi r28,lo8(-146)
 3755 1336 DF4F      		sbci r29,hi8(-146)
 3756 1338 5880      		ld r5,Y
 3757 133a C259      		subi r28,lo8(146)
 3758 133c D040      		sbci r29,hi8(146)
 3759 133e CD56      		subi r28,lo8(-147)
 3760 1340 DF4F      		sbci r29,hi8(-147)
 3761 1342 6880      		ld r6,Y
 3762 1344 C359      		subi r28,lo8(147)
 3763 1346 D040      		sbci r29,hi8(147)
 3764 1348 CC56      		subi r28,lo8(-148)
 3765 134a DF4F      		sbci r29,hi8(-148)
 3766 134c 7880      		ld r7,Y
 3767 134e C459      		subi r28,lo8(148)
 3768 1350 D040      		sbci r29,hi8(148)
 3769 1352 CB56      		subi r28,lo8(-149)
 3770 1354 DF4F      		sbci r29,hi8(-149)
 3771 1356 8880      		ld r8,Y
 3772 1358 C559      		subi r28,lo8(149)
 3773 135a D040      		sbci r29,hi8(149)
 3774 135c CA56      		subi r28,lo8(-150)
 3775 135e DF4F      		sbci r29,hi8(-150)
 3776 1360 9880      		ld r9,Y
 3777 1362 C659      		subi r28,lo8(150)
 3778 1364 D040      		sbci r29,hi8(150)
 3779 1366 222D      		mov r18,r2
 3780 1368 332D      		mov r19,r3
 3781 136a 442D      		mov r20,r4
 3782 136c 552D      		mov r21,r5
 3783 136e 662D      		mov r22,r6
 3784 1370 772D      		mov r23,r7
 3785 1372 882D      		mov r24,r8
 3786 1374 992D      		mov r25,r9
 3787 1376 02E0      		ldi r16,lo8(2)
 3788 1378 0E94 0000 		call __ashldi3
 3789 137c A22E      		mov r10,r18
 3790 137e B32E      		mov r11,r19
 3791 1380 C42E      		mov r12,r20
 3792 1382 D52E      		mov r13,r21
 3793 1384 E62E      		mov r14,r22
 3794 1386 F72E      		mov r15,r23
 3795 1388 082F      		mov r16,r24
 3796 138a 192F      		mov r17,r25
 3797 138c 2A2D      		mov r18,r10
 3798 138e 3B2D      		mov r19,r11
 3799 1390 4C2D      		mov r20,r12
 3800 1392 5D2D      		mov r21,r13
 3801 1394 6E2D      		mov r22,r14
 3802 1396 7F2D      		mov r23,r15
 3803 1398 802F      		mov r24,r16
 3804 139a 912F      		mov r25,r17
 3805 139c C157      		subi r28,lo8(-143)
 3806 139e DF4F      		sbci r29,hi8(-143)
 3807 13a0 A880      		ld r10,Y
 3808 13a2 CF58      		subi r28,lo8(143)
 3809 13a4 D040      		sbci r29,hi8(143)
 3810 13a6 C057      		subi r28,lo8(-144)
 3811 13a8 DF4F      		sbci r29,hi8(-144)
 3812 13aa B880      		ld r11,Y
 3813 13ac C059      		subi r28,lo8(144)
 3814 13ae D040      		sbci r29,hi8(144)
 3815 13b0 CF56      		subi r28,lo8(-145)
 3816 13b2 DF4F      		sbci r29,hi8(-145)
 3817 13b4 C880      		ld r12,Y
 3818 13b6 C159      		subi r28,lo8(145)
 3819 13b8 D040      		sbci r29,hi8(145)
 3820 13ba CE56      		subi r28,lo8(-146)
 3821 13bc DF4F      		sbci r29,hi8(-146)
 3822 13be D880      		ld r13,Y
 3823 13c0 C259      		subi r28,lo8(146)
 3824 13c2 D040      		sbci r29,hi8(146)
 3825 13c4 CD56      		subi r28,lo8(-147)
 3826 13c6 DF4F      		sbci r29,hi8(-147)
 3827 13c8 E880      		ld r14,Y
 3828 13ca C359      		subi r28,lo8(147)
 3829 13cc D040      		sbci r29,hi8(147)
 3830 13ce CC56      		subi r28,lo8(-148)
 3831 13d0 DF4F      		sbci r29,hi8(-148)
 3832 13d2 F880      		ld r15,Y
 3833 13d4 C459      		subi r28,lo8(148)
 3834 13d6 D040      		sbci r29,hi8(148)
 3835 13d8 CB56      		subi r28,lo8(-149)
 3836 13da DF4F      		sbci r29,hi8(-149)
 3837 13dc 0881      		ld r16,Y
 3838 13de C559      		subi r28,lo8(149)
 3839 13e0 D040      		sbci r29,hi8(149)
 3840 13e2 CA56      		subi r28,lo8(-150)
 3841 13e4 DF4F      		sbci r29,hi8(-150)
 3842 13e6 1881      		ld r17,Y
 3843 13e8 C659      		subi r28,lo8(150)
 3844 13ea D040      		sbci r29,hi8(150)
 3845 13ec 0E94 0000 		call __subdi3
 3846 13f0 222E      		mov r2,r18
 3847 13f2 332E      		mov r3,r19
 3848 13f4 442E      		mov r4,r20
 3849 13f6 552E      		mov r5,r21
 3850 13f8 662E      		mov r6,r22
 3851 13fa 772E      		mov r7,r23
 3852 13fc 882E      		mov r8,r24
 3853 13fe 992E      		mov r9,r25
 3854 1400 222D      		mov r18,r2
 3855 1402 332D      		mov r19,r3
 3856 1404 442D      		mov r20,r4
 3857 1406 552D      		mov r21,r5
 3858 1408 662D      		mov r22,r6
 3859 140a 772D      		mov r23,r7
 3860 140c 882D      		mov r24,r8
 3861 140e 992D      		mov r25,r9
 3862 1410 04E0      		ldi r16,lo8(4)
 3863 1412 0E94 0000 		call __ashldi3
 3864 1416 A22E      		mov r10,r18
 3865 1418 B32E      		mov r11,r19
 3866 141a C42E      		mov r12,r20
 3867 141c D52E      		mov r13,r21
 3868 141e E62E      		mov r14,r22
 3869 1420 F72E      		mov r15,r23
 3870 1422 082F      		mov r16,r24
 3871 1424 192F      		mov r17,r25
 3872 1426 2A2D      		mov r18,r10
 3873 1428 3B2D      		mov r19,r11
 3874 142a 4C2D      		mov r20,r12
 3875 142c 5D2D      		mov r21,r13
 3876 142e 6E2D      		mov r22,r14
 3877 1430 7F2D      		mov r23,r15
 3878 1432 802F      		mov r24,r16
 3879 1434 912F      		mov r25,r17
 3880 1436 C157      		subi r28,lo8(-143)
 3881 1438 DF4F      		sbci r29,hi8(-143)
 3882 143a A880      		ld r10,Y
 3883 143c CF58      		subi r28,lo8(143)
 3884 143e D040      		sbci r29,hi8(143)
 3885 1440 C057      		subi r28,lo8(-144)
 3886 1442 DF4F      		sbci r29,hi8(-144)
 3887 1444 B880      		ld r11,Y
 3888 1446 C059      		subi r28,lo8(144)
 3889 1448 D040      		sbci r29,hi8(144)
 3890 144a CF56      		subi r28,lo8(-145)
 3891 144c DF4F      		sbci r29,hi8(-145)
 3892 144e C880      		ld r12,Y
 3893 1450 C159      		subi r28,lo8(145)
 3894 1452 D040      		sbci r29,hi8(145)
 3895 1454 CE56      		subi r28,lo8(-146)
 3896 1456 DF4F      		sbci r29,hi8(-146)
 3897 1458 D880      		ld r13,Y
 3898 145a C259      		subi r28,lo8(146)
 3899 145c D040      		sbci r29,hi8(146)
 3900 145e CD56      		subi r28,lo8(-147)
 3901 1460 DF4F      		sbci r29,hi8(-147)
 3902 1462 E880      		ld r14,Y
 3903 1464 C359      		subi r28,lo8(147)
 3904 1466 D040      		sbci r29,hi8(147)
 3905 1468 CC56      		subi r28,lo8(-148)
 3906 146a DF4F      		sbci r29,hi8(-148)
 3907 146c F880      		ld r15,Y
 3908 146e C459      		subi r28,lo8(148)
 3909 1470 D040      		sbci r29,hi8(148)
 3910 1472 CB56      		subi r28,lo8(-149)
 3911 1474 DF4F      		sbci r29,hi8(-149)
 3912 1476 0881      		ld r16,Y
 3913 1478 C559      		subi r28,lo8(149)
 3914 147a D040      		sbci r29,hi8(149)
 3915 147c CA56      		subi r28,lo8(-150)
 3916 147e DF4F      		sbci r29,hi8(-150)
 3917 1480 1881      		ld r17,Y
 3918 1482 C659      		subi r28,lo8(150)
 3919 1484 D040      		sbci r29,hi8(150)
 3920 1486 0E94 0000 		call __subdi3
 3921 148a 222E      		mov r2,r18
 3922 148c 332E      		mov r3,r19
 3923 148e 442E      		mov r4,r20
 3924 1490 552E      		mov r5,r21
 3925 1492 662E      		mov r6,r22
 3926 1494 772E      		mov r7,r23
 3927 1496 882E      		mov r8,r24
 3928 1498 992E      		mov r9,r25
 3929 149a 222D      		mov r18,r2
 3930 149c 332D      		mov r19,r3
 3931 149e 442D      		mov r20,r4
 3932 14a0 552D      		mov r21,r5
 3933 14a2 662D      		mov r22,r6
 3934 14a4 772D      		mov r23,r7
 3935 14a6 882D      		mov r24,r8
 3936 14a8 992D      		mov r25,r9
 3937 14aa 02E0      		ldi r16,lo8(2)
 3938 14ac 0E94 0000 		call __ashldi3
 3939 14b0 A22E      		mov r10,r18
 3940 14b2 B32E      		mov r11,r19
 3941 14b4 C42E      		mov r12,r20
 3942 14b6 D52E      		mov r13,r21
 3943 14b8 E62E      		mov r14,r22
 3944 14ba F72E      		mov r15,r23
 3945 14bc 082F      		mov r16,r24
 3946 14be 192F      		mov r17,r25
 3947 14c0 2A2D      		mov r18,r10
 3948 14c2 3B2D      		mov r19,r11
 3949 14c4 4C2D      		mov r20,r12
 3950 14c6 5D2D      		mov r21,r13
 3951 14c8 6E2D      		mov r22,r14
 3952 14ca 7F2D      		mov r23,r15
 3953 14cc 802F      		mov r24,r16
 3954 14ce 912F      		mov r25,r17
 3955 14d0 A22C      		mov r10,r2
 3956 14d2 B32C      		mov r11,r3
 3957 14d4 C42C      		mov r12,r4
 3958 14d6 D52C      		mov r13,r5
 3959 14d8 E62C      		mov r14,r6
 3960 14da F72C      		mov r15,r7
 3961 14dc 082D      		mov r16,r8
 3962 14de 192D      		mov r17,r9
 3963 14e0 0E94 0000 		call __subdi3
 3964 14e4 A22E      		mov r10,r18
 3965 14e6 B32E      		mov r11,r19
 3966 14e8 C42E      		mov r12,r20
 3967 14ea D52E      		mov r13,r21
 3968 14ec E62E      		mov r14,r22
 3969 14ee F72E      		mov r15,r23
 3970 14f0 082F      		mov r16,r24
 3971 14f2 192F      		mov r17,r25
 3972 14f4 2A2D      		mov r18,r10
 3973 14f6 3B2D      		mov r19,r11
 3974 14f8 4C2D      		mov r20,r12
 3975 14fa 5D2D      		mov r21,r13
 3976 14fc 6E2D      		mov r22,r14
 3977 14fe 7F2D      		mov r23,r15
 3978 1500 802F      		mov r24,r16
 3979 1502 912F      		mov r25,r17
 3980 1504 02E0      		ldi r16,lo8(2)
 3981 1506 0E94 0000 		call __ashldi3
 3982 150a 222E      		mov r2,r18
 3983 150c 332E      		mov r3,r19
 3984 150e 442E      		mov r4,r20
 3985 1510 552E      		mov r5,r21
 3986 1512 662E      		mov r6,r22
 3987 1514 772E      		mov r7,r23
 3988 1516 882E      		mov r8,r24
 3989 1518 992E      		mov r9,r25
 3990 151a A22C      		mov r10,r2
 3991 151c B32C      		mov r11,r3
 3992 151e C42C      		mov r12,r4
 3993 1520 D52C      		mov r13,r5
 3994 1522 E62C      		mov r14,r6
 3995 1524 F72C      		mov r15,r7
 3996 1526 082D      		mov r16,r8
 3997 1528 192D      		mov r17,r9
 3998 152a 2A2C      		mov r2,r10
 3999 152c 3B2C      		mov r3,r11
 4000 152e 4C2C      		mov r4,r12
 4001 1530 5D2C      		mov r5,r13
 4002 1532 6E2C      		mov r6,r14
 4003 1534 7F2C      		mov r7,r15
 4004 1536 802E      		mov r8,r16
 4005 1538 912E      		mov r9,r17
 4006 153a 222D      		mov r18,r2
 4007 153c 332D      		mov r19,r3
 4008 153e 442D      		mov r20,r4
 4009 1540 552D      		mov r21,r5
 4010 1542 662D      		mov r22,r6
 4011 1544 772D      		mov r23,r7
 4012 1546 882D      		mov r24,r8
 4013 1548 992D      		mov r25,r9
 4014 154a 0CE0      		ldi r16,lo8(12)
 4015 154c 0E94 0000 		call __ashrdi3
 4016 1550 A22E      		mov r10,r18
 4017 1552 B32E      		mov r11,r19
 4018 1554 C42E      		mov r12,r20
 4019 1556 D52E      		mov r13,r21
 4020 1558 E62E      		mov r14,r22
 4021 155a F72E      		mov r15,r23
 4022 155c 082F      		mov r16,r24
 4023 155e 192F      		mov r17,r25
 4024 1560 AB8E      		std Y+27,r10
 4025 1562 BC8E      		std Y+28,r11
 4026 1564 CD8E      		std Y+29,r12
 4027 1566 DE8E      		std Y+30,r13
 432:adpcm.c       ****     if(my_abs(eh) > decis) ih--;     /* mih = 2 case */
 4028               		.loc 1 432 0
 4029 1568 8091 0000 		lds r24,eh
 4030 156c 9091 0000 		lds r25,eh+1
 4031 1570 A091 0000 		lds r26,eh+2
 4032 1574 B091 0000 		lds r27,eh+3
 4033 1578 BC01      		movw r22,r24
 4034 157a CD01      		movw r24,r26
 4035 157c 0E94 0000 		call my_abs
 4036 1580 9B01      		movw r18,r22
 4037 1582 AC01      		movw r20,r24
 4038 1584 8B8D      		ldd r24,Y+27
 4039 1586 9C8D      		ldd r25,Y+28
 4040 1588 AD8D      		ldd r26,Y+29
 4041 158a BE8D      		ldd r27,Y+30
 4042 158c 8217      		cp r24,r18
 4043 158e 9307      		cpc r25,r19
 4044 1590 A407      		cpc r26,r20
 4045 1592 B507      		cpc r27,r21
 4046 1594 04F4      		brge .L26
 4047               		.loc 1 432 0 is_stmt 0 discriminator 1
 4048 1596 8091 0000 		lds r24,ih
 4049 159a 9091 0000 		lds r25,ih+1
 4050 159e A091 0000 		lds r26,ih+2
 4051 15a2 B091 0000 		lds r27,ih+3
 4052 15a6 0197      		sbiw r24,1
 4053 15a8 A109      		sbc r26,__zero_reg__
 4054 15aa B109      		sbc r27,__zero_reg__
 4055 15ac 8093 0000 		sts ih,r24
 4056 15b0 9093 0000 		sts ih+1,r25
 4057 15b4 A093 0000 		sts ih+2,r26
 4058 15b8 B093 0000 		sts ih+3,r27
 4059               	.L26:
 433:adpcm.c       **** 
 434:adpcm.c       **** /* invqah: compute the quantized difference signal, higher sub-band*/
 435:adpcm.c       ****     dh = ((int64_t)deth*qq2_code2_table[ih]) >> 15L ;
 4060               		.loc 1 435 0 is_stmt 1
 4061 15bc 8091 0000 		lds r24,deth
 4062 15c0 9091 0000 		lds r25,deth+1
 4063 15c4 A091 0000 		lds r26,deth+2
 4064 15c8 B091 0000 		lds r27,deth+3
 4065 15cc C956      		subi r28,lo8(-151)
 4066 15ce DF4F      		sbci r29,hi8(-151)
 4067 15d0 8883      		st Y,r24
 4068 15d2 9983      		std Y+1,r25
 4069 15d4 AA83      		std Y+2,r26
 4070 15d6 BB83      		std Y+3,r27
 4071 15d8 C759      		subi r28,lo8(151)
 4072 15da D040      		sbci r29,hi8(151)
 4073 15dc BB0F      		lsl r27
 4074 15de 880B      		sbc r24,r24
 4075 15e0 982F      		mov r25,r24
 4076 15e2 DC01      		movw r26,r24
 4077 15e4 C556      		subi r28,lo8(-155)
 4078 15e6 DF4F      		sbci r29,hi8(-155)
 4079 15e8 8883      		st Y,r24
 4080 15ea CB59      		subi r28,lo8(155)
 4081 15ec D040      		sbci r29,hi8(155)
 4082 15ee C456      		subi r28,lo8(-156)
 4083 15f0 DF4F      		sbci r29,hi8(-156)
 4084 15f2 8883      		st Y,r24
 4085 15f4 CC59      		subi r28,lo8(156)
 4086 15f6 D040      		sbci r29,hi8(156)
 4087 15f8 C356      		subi r28,lo8(-157)
 4088 15fa DF4F      		sbci r29,hi8(-157)
 4089 15fc 8883      		st Y,r24
 4090 15fe CD59      		subi r28,lo8(157)
 4091 1600 D040      		sbci r29,hi8(157)
 4092 1602 C256      		subi r28,lo8(-158)
 4093 1604 DF4F      		sbci r29,hi8(-158)
 4094 1606 8883      		st Y,r24
 4095 1608 CE59      		subi r28,lo8(158)
 4096 160a D040      		sbci r29,hi8(158)
 4097 160c 8091 0000 		lds r24,ih
 4098 1610 9091 0000 		lds r25,ih+1
 4099 1614 A091 0000 		lds r26,ih+2
 4100 1618 B091 0000 		lds r27,ih+3
 4101 161c 880F      		lsl r24
 4102 161e 991F      		rol r25
 4103 1620 880F      		lsl r24
 4104 1622 991F      		rol r25
 4105 1624 8050      		subi r24,lo8(-(qq2_code2_table))
 4106 1626 9040      		sbci r25,hi8(-(qq2_code2_table))
 4107 1628 FC01      		movw r30,r24
 4108 162a 8081      		ld r24,Z
 4109 162c 9181      		ldd r25,Z+1
 4110 162e A281      		ldd r26,Z+2
 4111 1630 B381      		ldd r27,Z+3
 4112 1632 C156      		subi r28,lo8(-159)
 4113 1634 DF4F      		sbci r29,hi8(-159)
 4114 1636 8883      		st Y,r24
 4115 1638 9983      		std Y+1,r25
 4116 163a AA83      		std Y+2,r26
 4117 163c BB83      		std Y+3,r27
 4118 163e CF59      		subi r28,lo8(159)
 4119 1640 D040      		sbci r29,hi8(159)
 4120 1642 BB0F      		lsl r27
 4121 1644 880B      		sbc r24,r24
 4122 1646 982F      		mov r25,r24
 4123 1648 DC01      		movw r26,r24
 4124 164a CD55      		subi r28,lo8(-163)
 4125 164c DF4F      		sbci r29,hi8(-163)
 4126 164e 8883      		st Y,r24
 4127 1650 C35A      		subi r28,lo8(163)
 4128 1652 D040      		sbci r29,hi8(163)
 4129 1654 CC55      		subi r28,lo8(-164)
 4130 1656 DF4F      		sbci r29,hi8(-164)
 4131 1658 8883      		st Y,r24
 4132 165a C45A      		subi r28,lo8(164)
 4133 165c D040      		sbci r29,hi8(164)
 4134 165e CB55      		subi r28,lo8(-165)
 4135 1660 DF4F      		sbci r29,hi8(-165)
 4136 1662 8883      		st Y,r24
 4137 1664 C55A      		subi r28,lo8(165)
 4138 1666 D040      		sbci r29,hi8(165)
 4139 1668 CA55      		subi r28,lo8(-166)
 4140 166a DF4F      		sbci r29,hi8(-166)
 4141 166c 8883      		st Y,r24
 4142 166e C65A      		subi r28,lo8(166)
 4143 1670 D040      		sbci r29,hi8(166)
 4144 1672 C156      		subi r28,lo8(-159)
 4145 1674 DF4F      		sbci r29,hi8(-159)
 4146 1676 A880      		ld r10,Y
 4147 1678 CF59      		subi r28,lo8(159)
 4148 167a D040      		sbci r29,hi8(159)
 4149 167c C056      		subi r28,lo8(-160)
 4150 167e DF4F      		sbci r29,hi8(-160)
 4151 1680 B880      		ld r11,Y
 4152 1682 C05A      		subi r28,lo8(160)
 4153 1684 D040      		sbci r29,hi8(160)
 4154 1686 CF55      		subi r28,lo8(-161)
 4155 1688 DF4F      		sbci r29,hi8(-161)
 4156 168a C880      		ld r12,Y
 4157 168c C15A      		subi r28,lo8(161)
 4158 168e D040      		sbci r29,hi8(161)
 4159 1690 CE55      		subi r28,lo8(-162)
 4160 1692 DF4F      		sbci r29,hi8(-162)
 4161 1694 D880      		ld r13,Y
 4162 1696 C25A      		subi r28,lo8(162)
 4163 1698 D040      		sbci r29,hi8(162)
 4164 169a CD55      		subi r28,lo8(-163)
 4165 169c DF4F      		sbci r29,hi8(-163)
 4166 169e E880      		ld r14,Y
 4167 16a0 C35A      		subi r28,lo8(163)
 4168 16a2 D040      		sbci r29,hi8(163)
 4169 16a4 CC55      		subi r28,lo8(-164)
 4170 16a6 DF4F      		sbci r29,hi8(-164)
 4171 16a8 F880      		ld r15,Y
 4172 16aa C45A      		subi r28,lo8(164)
 4173 16ac D040      		sbci r29,hi8(164)
 4174 16ae CB55      		subi r28,lo8(-165)
 4175 16b0 DF4F      		sbci r29,hi8(-165)
 4176 16b2 0881      		ld r16,Y
 4177 16b4 C55A      		subi r28,lo8(165)
 4178 16b6 D040      		sbci r29,hi8(165)
 4179 16b8 CA55      		subi r28,lo8(-166)
 4180 16ba DF4F      		sbci r29,hi8(-166)
 4181 16bc 1881      		ld r17,Y
 4182 16be C65A      		subi r28,lo8(166)
 4183 16c0 D040      		sbci r29,hi8(166)
 4184 16c2 C956      		subi r28,lo8(-151)
 4185 16c4 DF4F      		sbci r29,hi8(-151)
 4186 16c6 2881      		ld r18,Y
 4187 16c8 C759      		subi r28,lo8(151)
 4188 16ca D040      		sbci r29,hi8(151)
 4189 16cc C856      		subi r28,lo8(-152)
 4190 16ce DF4F      		sbci r29,hi8(-152)
 4191 16d0 3881      		ld r19,Y
 4192 16d2 C859      		subi r28,lo8(152)
 4193 16d4 D040      		sbci r29,hi8(152)
 4194 16d6 C756      		subi r28,lo8(-153)
 4195 16d8 DF4F      		sbci r29,hi8(-153)
 4196 16da 4881      		ld r20,Y
 4197 16dc C959      		subi r28,lo8(153)
 4198 16de D040      		sbci r29,hi8(153)
 4199 16e0 C656      		subi r28,lo8(-154)
 4200 16e2 DF4F      		sbci r29,hi8(-154)
 4201 16e4 5881      		ld r21,Y
 4202 16e6 CA59      		subi r28,lo8(154)
 4203 16e8 D040      		sbci r29,hi8(154)
 4204 16ea C556      		subi r28,lo8(-155)
 4205 16ec DF4F      		sbci r29,hi8(-155)
 4206 16ee 6881      		ld r22,Y
 4207 16f0 CB59      		subi r28,lo8(155)
 4208 16f2 D040      		sbci r29,hi8(155)
 4209 16f4 C456      		subi r28,lo8(-156)
 4210 16f6 DF4F      		sbci r29,hi8(-156)
 4211 16f8 7881      		ld r23,Y
 4212 16fa CC59      		subi r28,lo8(156)
 4213 16fc D040      		sbci r29,hi8(156)
 4214 16fe C356      		subi r28,lo8(-157)
 4215 1700 DF4F      		sbci r29,hi8(-157)
 4216 1702 8881      		ld r24,Y
 4217 1704 CD59      		subi r28,lo8(157)
 4218 1706 D040      		sbci r29,hi8(157)
 4219 1708 C256      		subi r28,lo8(-158)
 4220 170a DF4F      		sbci r29,hi8(-158)
 4221 170c 9881      		ld r25,Y
 4222 170e CE59      		subi r28,lo8(158)
 4223 1710 D040      		sbci r29,hi8(158)
 4224 1712 0E94 0000 		call __muldi3
 4225 1716 222E      		mov r2,r18
 4226 1718 332E      		mov r3,r19
 4227 171a 442E      		mov r4,r20
 4228 171c 552E      		mov r5,r21
 4229 171e 662E      		mov r6,r22
 4230 1720 772E      		mov r7,r23
 4231 1722 882E      		mov r8,r24
 4232 1724 992E      		mov r9,r25
 4233 1726 A22C      		mov r10,r2
 4234 1728 B32C      		mov r11,r3
 4235 172a C42C      		mov r12,r4
 4236 172c D52C      		mov r13,r5
 4237 172e E62C      		mov r14,r6
 4238 1730 F72C      		mov r15,r7
 4239 1732 082D      		mov r16,r8
 4240 1734 192D      		mov r17,r9
 4241 1736 2A2D      		mov r18,r10
 4242 1738 3B2D      		mov r19,r11
 4243 173a 4C2D      		mov r20,r12
 4244 173c 5D2D      		mov r21,r13
 4245 173e 6E2D      		mov r22,r14
 4246 1740 7F2D      		mov r23,r15
 4247 1742 802F      		mov r24,r16
 4248 1744 912F      		mov r25,r17
 4249 1746 0FE0      		ldi r16,lo8(15)
 4250 1748 0E94 0000 		call __ashrdi3
 4251 174c A22E      		mov r10,r18
 4252 174e B32E      		mov r11,r19
 4253 1750 C42E      		mov r12,r20
 4254 1752 D52E      		mov r13,r21
 4255 1754 E62E      		mov r14,r22
 4256 1756 F72E      		mov r15,r23
 4257 1758 082F      		mov r16,r24
 4258 175a 192F      		mov r17,r25
 4259 175c D601      		movw r26,r12
 4260 175e C501      		movw r24,r10
 4261 1760 8093 0000 		sts dh,r24
 4262 1764 9093 0000 		sts dh+1,r25
 4263 1768 A093 0000 		sts dh+2,r26
 4264 176c B093 0000 		sts dh+3,r27
 436:adpcm.c       **** 
 437:adpcm.c       **** /* logsch: update logarithmic quantizer scale factor in hi sub-band*/
 438:adpcm.c       ****     nbh = logsch(ih,nbh);
 4265               		.loc 1 438 0
 4266 1770 2091 0000 		lds r18,nbh
 4267 1774 3091 0000 		lds r19,nbh+1
 4268 1778 4091 0000 		lds r20,nbh+2
 4269 177c 5091 0000 		lds r21,nbh+3
 4270 1780 8091 0000 		lds r24,ih
 4271 1784 9091 0000 		lds r25,ih+1
 4272 1788 A091 0000 		lds r26,ih+2
 4273 178c B091 0000 		lds r27,ih+3
 4274 1790 BC01      		movw r22,r24
 4275 1792 CD01      		movw r24,r26
 4276 1794 0E94 0000 		call logsch
 4277 1798 DC01      		movw r26,r24
 4278 179a CB01      		movw r24,r22
 4279 179c 8093 0000 		sts nbh,r24
 4280 17a0 9093 0000 		sts nbh+1,r25
 4281 17a4 A093 0000 		sts nbh+2,r26
 4282 17a8 B093 0000 		sts nbh+3,r27
 439:adpcm.c       **** 
 440:adpcm.c       **** /* note : scalel and scaleh use same code, different parameters */
 441:adpcm.c       ****     deth = scalel(nbh,10);
 4283               		.loc 1 441 0
 4284 17ac 8091 0000 		lds r24,nbh
 4285 17b0 9091 0000 		lds r25,nbh+1
 4286 17b4 A091 0000 		lds r26,nbh+2
 4287 17b8 B091 0000 		lds r27,nbh+3
 4288 17bc 2AE0      		ldi r18,lo8(10)
 4289 17be 30E0      		ldi r19,0
 4290 17c0 40E0      		ldi r20,0
 4291 17c2 50E0      		ldi r21,0
 4292 17c4 BC01      		movw r22,r24
 4293 17c6 CD01      		movw r24,r26
 4294 17c8 0E94 0000 		call scalel
 4295 17cc DC01      		movw r26,r24
 4296 17ce CB01      		movw r24,r22
 4297 17d0 8093 0000 		sts deth,r24
 4298 17d4 9093 0000 		sts deth+1,r25
 4299 17d8 A093 0000 		sts deth+2,r26
 4300 17dc B093 0000 		sts deth+3,r27
 442:adpcm.c       **** 
 443:adpcm.c       **** /* parrec - add pole predictor output to quantized diff. signal */
 444:adpcm.c       ****     ph = dh + szh;
 4301               		.loc 1 444 0
 4302 17e0 2091 0000 		lds r18,dh
 4303 17e4 3091 0000 		lds r19,dh+1
 4304 17e8 4091 0000 		lds r20,dh+2
 4305 17ec 5091 0000 		lds r21,dh+3
 4306 17f0 8091 0000 		lds r24,szh
 4307 17f4 9091 0000 		lds r25,szh+1
 4308 17f8 A091 0000 		lds r26,szh+2
 4309 17fc B091 0000 		lds r27,szh+3
 4310 1800 820F      		add r24,r18
 4311 1802 931F      		adc r25,r19
 4312 1804 A41F      		adc r26,r20
 4313 1806 B51F      		adc r27,r21
 4314 1808 8093 0000 		sts ph,r24
 4315 180c 9093 0000 		sts ph+1,r25
 4316 1810 A093 0000 		sts ph+2,r26
 4317 1814 B093 0000 		sts ph+3,r27
 445:adpcm.c       **** 
 446:adpcm.c       **** /* upzero: update zero section predictor coefficients (sixth order) */
 447:adpcm.c       **** /* calling parameters: dh, dhi, bphi */
 448:adpcm.c       **** /* return params: updated bphi, delayed dhx */
 449:adpcm.c       ****     upzero(dh,delay_dhx,delay_bph);
 4318               		.loc 1 449 0
 4319 1818 8091 0000 		lds r24,dh
 4320 181c 9091 0000 		lds r25,dh+1
 4321 1820 A091 0000 		lds r26,dh+2
 4322 1824 B091 0000 		lds r27,dh+3
 4323 1828 20E0      		ldi r18,lo8(delay_bph)
 4324 182a 30E0      		ldi r19,hi8(delay_bph)
 4325 182c 40E0      		ldi r20,lo8(delay_dhx)
 4326 182e 50E0      		ldi r21,hi8(delay_dhx)
 4327 1830 BC01      		movw r22,r24
 4328 1832 CD01      		movw r24,r26
 4329 1834 0E94 0000 		call upzero
 450:adpcm.c       **** 
 451:adpcm.c       **** /* uppol2: update second predictor coef aph2 and delay as ah2 */
 452:adpcm.c       **** /* calling params: ah1, ah2, ph, ph1, ph2 */
 453:adpcm.c       ****     ah2 = uppol2(ah1,ah2,ph,ph1,ph2);
 4330               		.loc 1 453 0
 4331 1838 8091 0000 		lds r24,ph2
 4332 183c 9091 0000 		lds r25,ph2+1
 4333 1840 A091 0000 		lds r26,ph2+2
 4334 1844 B091 0000 		lds r27,ph2+3
 4335 1848 A090 0000 		lds r10,ph1
 4336 184c B090 0000 		lds r11,ph1+1
 4337 1850 C090 0000 		lds r12,ph1+2
 4338 1854 D090 0000 		lds r13,ph1+3
 4339 1858 E090 0000 		lds r14,ph
 4340 185c F090 0000 		lds r15,ph+1
 4341 1860 0091 0000 		lds r16,ph+2
 4342 1864 1091 0000 		lds r17,ph+3
 4343 1868 2091 0000 		lds r18,ah2
 4344 186c 3091 0000 		lds r19,ah2+1
 4345 1870 4091 0000 		lds r20,ah2+2
 4346 1874 5091 0000 		lds r21,ah2+3
 4347 1878 6090 0000 		lds r6,ah1
 4348 187c 7090 0000 		lds r7,ah1+1
 4349 1880 8090 0000 		lds r8,ah1+2
 4350 1884 9090 0000 		lds r9,ah1+3
 4351 1888 6B2F      		mov r22,r27
 4352 188a 6F93      		push r22
 4353 188c 6A2F      		mov r22,r26
 4354 188e 6F93      		push r22
 4355 1890 692F      		mov r22,r25
 4356 1892 6F93      		push r22
 4357 1894 8F93      		push r24
 4358 1896 C401      		movw r24,r8
 4359 1898 B301      		movw r22,r6
 4360 189a 0E94 0000 		call uppol2
 4361 189e 0F90      		pop __tmp_reg__
 4362 18a0 0F90      		pop __tmp_reg__
 4363 18a2 0F90      		pop __tmp_reg__
 4364 18a4 0F90      		pop __tmp_reg__
 4365 18a6 DC01      		movw r26,r24
 4366 18a8 CB01      		movw r24,r22
 4367 18aa 8093 0000 		sts ah2,r24
 4368 18ae 9093 0000 		sts ah2+1,r25
 4369 18b2 A093 0000 		sts ah2+2,r26
 4370 18b6 B093 0000 		sts ah2+3,r27
 454:adpcm.c       **** 
 455:adpcm.c       **** /* uppol1:  update first predictor coef. aph2 and delay it as ah1 */
 456:adpcm.c       ****     ah1 = uppol1(ah1,ah2,ph,ph1);
 4371               		.loc 1 456 0
 4372 18ba A090 0000 		lds r10,ph1
 4373 18be B090 0000 		lds r11,ph1+1
 4374 18c2 C090 0000 		lds r12,ph1+2
 4375 18c6 D090 0000 		lds r13,ph1+3
 4376 18ca E090 0000 		lds r14,ph
 4377 18ce F090 0000 		lds r15,ph+1
 4378 18d2 0091 0000 		lds r16,ph+2
 4379 18d6 1091 0000 		lds r17,ph+3
 4380 18da 2091 0000 		lds r18,ah2
 4381 18de 3091 0000 		lds r19,ah2+1
 4382 18e2 4091 0000 		lds r20,ah2+2
 4383 18e6 5091 0000 		lds r21,ah2+3
 4384 18ea 8091 0000 		lds r24,ah1
 4385 18ee 9091 0000 		lds r25,ah1+1
 4386 18f2 A091 0000 		lds r26,ah1+2
 4387 18f6 B091 0000 		lds r27,ah1+3
 4388 18fa BC01      		movw r22,r24
 4389 18fc CD01      		movw r24,r26
 4390 18fe 0E94 0000 		call uppol1
 4391 1902 DC01      		movw r26,r24
 4392 1904 CB01      		movw r24,r22
 4393 1906 8093 0000 		sts ah1,r24
 4394 190a 9093 0000 		sts ah1+1,r25
 4395 190e A093 0000 		sts ah1+2,r26
 4396 1912 B093 0000 		sts ah1+3,r27
 457:adpcm.c       **** 
 458:adpcm.c       **** /* recons for higher sub-band */
 459:adpcm.c       ****     yh = sh + dh;
 4397               		.loc 1 459 0
 4398 1916 2091 0000 		lds r18,sh
 4399 191a 3091 0000 		lds r19,sh+1
 4400 191e 4091 0000 		lds r20,sh+2
 4401 1922 5091 0000 		lds r21,sh+3
 4402 1926 8091 0000 		lds r24,dh
 4403 192a 9091 0000 		lds r25,dh+1
 4404 192e A091 0000 		lds r26,dh+2
 4405 1932 B091 0000 		lds r27,dh+3
 4406 1936 820F      		add r24,r18
 4407 1938 931F      		adc r25,r19
 4408 193a A41F      		adc r26,r20
 4409 193c B51F      		adc r27,r21
 4410 193e 8093 0000 		sts yh,r24
 4411 1942 9093 0000 		sts yh+1,r25
 4412 1946 A093 0000 		sts yh+2,r26
 4413 194a B093 0000 		sts yh+3,r27
 460:adpcm.c       **** 
 461:adpcm.c       **** /* done with higher sub-band encoder, now Delay for next time */
 462:adpcm.c       ****     rh2 = rh1;
 4414               		.loc 1 462 0
 4415 194e 8091 0000 		lds r24,rh1
 4416 1952 9091 0000 		lds r25,rh1+1
 4417 1956 A091 0000 		lds r26,rh1+2
 4418 195a B091 0000 		lds r27,rh1+3
 4419 195e 8093 0000 		sts rh2,r24
 4420 1962 9093 0000 		sts rh2+1,r25
 4421 1966 A093 0000 		sts rh2+2,r26
 4422 196a B093 0000 		sts rh2+3,r27
 463:adpcm.c       ****     rh1 = yh;
 4423               		.loc 1 463 0
 4424 196e 8091 0000 		lds r24,yh
 4425 1972 9091 0000 		lds r25,yh+1
 4426 1976 A091 0000 		lds r26,yh+2
 4427 197a B091 0000 		lds r27,yh+3
 4428 197e 8093 0000 		sts rh1,r24
 4429 1982 9093 0000 		sts rh1+1,r25
 4430 1986 A093 0000 		sts rh1+2,r26
 4431 198a B093 0000 		sts rh1+3,r27
 464:adpcm.c       ****     ph2 = ph1;
 4432               		.loc 1 464 0
 4433 198e 8091 0000 		lds r24,ph1
 4434 1992 9091 0000 		lds r25,ph1+1
 4435 1996 A091 0000 		lds r26,ph1+2
 4436 199a B091 0000 		lds r27,ph1+3
 4437 199e 8093 0000 		sts ph2,r24
 4438 19a2 9093 0000 		sts ph2+1,r25
 4439 19a6 A093 0000 		sts ph2+2,r26
 4440 19aa B093 0000 		sts ph2+3,r27
 465:adpcm.c       ****     ph1 = ph;
 4441               		.loc 1 465 0
 4442 19ae 8091 0000 		lds r24,ph
 4443 19b2 9091 0000 		lds r25,ph+1
 4444 19b6 A091 0000 		lds r26,ph+2
 4445 19ba B091 0000 		lds r27,ph+3
 4446 19be 8093 0000 		sts ph1,r24
 4447 19c2 9093 0000 		sts ph1+1,r25
 4448 19c6 A093 0000 		sts ph1+2,r26
 4449 19ca B093 0000 		sts ph1+3,r27
 466:adpcm.c       **** 
 467:adpcm.c       **** /* multiplex ih and il to get signals together */
 468:adpcm.c       ****     return(il | (ih << 6));
 4450               		.loc 1 468 0
 4451 19ce 8091 0000 		lds r24,ih
 4452 19d2 9091 0000 		lds r25,ih+1
 4453 19d6 A091 0000 		lds r26,ih+2
 4454 19da B091 0000 		lds r27,ih+3
 4455 19de 880F      		add r24,r24
 4456 19e0 991F      		adc r25,r25
 4457 19e2 AA1F      		adc r26,r26
 4458 19e4 BB1F      		adc r27,r27
 4459 19e6 880F      		add r24,r24
 4460 19e8 991F      		adc r25,r25
 4461 19ea AA1F      		adc r26,r26
 4462 19ec BB1F      		adc r27,r27
 4463 19ee 880F      		add r24,r24
 4464 19f0 991F      		adc r25,r25
 4465 19f2 AA1F      		adc r26,r26
 4466 19f4 BB1F      		adc r27,r27
 4467 19f6 880F      		add r24,r24
 4468 19f8 991F      		adc r25,r25
 4469 19fa AA1F      		adc r26,r26
 4470 19fc BB1F      		adc r27,r27
 4471 19fe 880F      		add r24,r24
 4472 1a00 991F      		adc r25,r25
 4473 1a02 AA1F      		adc r26,r26
 4474 1a04 BB1F      		adc r27,r27
 4475 1a06 880F      		add r24,r24
 4476 1a08 991F      		adc r25,r25
 4477 1a0a AA1F      		adc r26,r26
 4478 1a0c BB1F      		adc r27,r27
 4479 1a0e 9C01      		movw r18,r24
 4480 1a10 AD01      		movw r20,r26
 4481 1a12 8091 0000 		lds r24,il
 4482 1a16 9091 0000 		lds r25,il+1
 4483 1a1a A091 0000 		lds r26,il+2
 4484 1a1e B091 0000 		lds r27,il+3
 4485 1a22 822B      		or r24,r18
 4486 1a24 932B      		or r25,r19
 4487 1a26 A42B      		or r26,r20
 4488 1a28 B52B      		or r27,r21
 469:adpcm.c       **** }
 4489               		.loc 1 469 0
 4490 1a2a BC01      		movw r22,r24
 4491 1a2c CD01      		movw r24,r26
 4492               	/* epilogue start */
 4493 1a2e CA55      		subi r28,90
 4494 1a30 DF4F      		sbci r29,-1
 4495 1a32 0FB6      		in __tmp_reg__,__SREG__
 4496 1a34 F894      		cli
 4497 1a36 DEBF      		out __SP_H__,r29
 4498 1a38 0FBE      		out __SREG__,__tmp_reg__
 4499 1a3a CDBF      		out __SP_L__,r28
 4500 1a3c DF91      		pop r29
 4501 1a3e CF91      		pop r28
 4502 1a40 1F91      		pop r17
 4503 1a42 0F91      		pop r16
 4504 1a44 FF90      		pop r15
 4505 1a46 EF90      		pop r14
 4506 1a48 DF90      		pop r13
 4507 1a4a CF90      		pop r12
 4508 1a4c BF90      		pop r11
 4509 1a4e AF90      		pop r10
 4510 1a50 9F90      		pop r9
 4511 1a52 8F90      		pop r8
 4512 1a54 7F90      		pop r7
 4513 1a56 6F90      		pop r6
 4514 1a58 5F90      		pop r5
 4515 1a5a 4F90      		pop r4
 4516 1a5c 3F90      		pop r3
 4517 1a5e 2F90      		pop r2
 4518 1a60 0895      		ret
 4519               		.cfi_endproc
 4520               	.LFE5:
 4522               	.global	decode
 4524               	decode:
 4525               	.LFB6:
 470:adpcm.c       **** 
 471:adpcm.c       **** /* decode function, result in xout1 and xout2 */
 472:adpcm.c       **** 
 473:adpcm.c       **** void decode(int32_t input)
 474:adpcm.c       **** {
 4526               		.loc 1 474 0
 4527               		.cfi_startproc
 4528 1a62 2F92      		push r2
 4529               	.LCFI44:
 4530               		.cfi_def_cfa_offset 3
 4531               		.cfi_offset 2, -2
 4532 1a64 3F92      		push r3
 4533               	.LCFI45:
 4534               		.cfi_def_cfa_offset 4
 4535               		.cfi_offset 3, -3
 4536 1a66 4F92      		push r4
 4537               	.LCFI46:
 4538               		.cfi_def_cfa_offset 5
 4539               		.cfi_offset 4, -4
 4540 1a68 5F92      		push r5
 4541               	.LCFI47:
 4542               		.cfi_def_cfa_offset 6
 4543               		.cfi_offset 5, -5
 4544 1a6a 6F92      		push r6
 4545               	.LCFI48:
 4546               		.cfi_def_cfa_offset 7
 4547               		.cfi_offset 6, -6
 4548 1a6c 7F92      		push r7
 4549               	.LCFI49:
 4550               		.cfi_def_cfa_offset 8
 4551               		.cfi_offset 7, -7
 4552 1a6e 8F92      		push r8
 4553               	.LCFI50:
 4554               		.cfi_def_cfa_offset 9
 4555               		.cfi_offset 8, -8
 4556 1a70 9F92      		push r9
 4557               	.LCFI51:
 4558               		.cfi_def_cfa_offset 10
 4559               		.cfi_offset 9, -9
 4560 1a72 AF92      		push r10
 4561               	.LCFI52:
 4562               		.cfi_def_cfa_offset 11
 4563               		.cfi_offset 10, -10
 4564 1a74 BF92      		push r11
 4565               	.LCFI53:
 4566               		.cfi_def_cfa_offset 12
 4567               		.cfi_offset 11, -11
 4568 1a76 CF92      		push r12
 4569               	.LCFI54:
 4570               		.cfi_def_cfa_offset 13
 4571               		.cfi_offset 12, -12
 4572 1a78 DF92      		push r13
 4573               	.LCFI55:
 4574               		.cfi_def_cfa_offset 14
 4575               		.cfi_offset 13, -13
 4576 1a7a EF92      		push r14
 4577               	.LCFI56:
 4578               		.cfi_def_cfa_offset 15
 4579               		.cfi_offset 14, -14
 4580 1a7c FF92      		push r15
 4581               	.LCFI57:
 4582               		.cfi_def_cfa_offset 16
 4583               		.cfi_offset 15, -15
 4584 1a7e 0F93      		push r16
 4585               	.LCFI58:
 4586               		.cfi_def_cfa_offset 17
 4587               		.cfi_offset 16, -16
 4588 1a80 1F93      		push r17
 4589               	.LCFI59:
 4590               		.cfi_def_cfa_offset 18
 4591               		.cfi_offset 17, -17
 4592 1a82 CF93      		push r28
 4593               	.LCFI60:
 4594               		.cfi_def_cfa_offset 19
 4595               		.cfi_offset 28, -18
 4596 1a84 DF93      		push r29
 4597               	.LCFI61:
 4598               		.cfi_def_cfa_offset 20
 4599               		.cfi_offset 29, -19
 4600 1a86 CDB7      		in r28,__SP_L__
 4601 1a88 DEB7      		in r29,__SP_H__
 4602               	.LCFI62:
 4603               		.cfi_def_cfa_register 28
 4604 1a8a CA5A      		subi r28,-86
 4605 1a8c D109      		sbc r29,__zero_reg__
 4606               	.LCFI63:
 4607               		.cfi_def_cfa_offset 190
 4608 1a8e 0FB6      		in __tmp_reg__,__SREG__
 4609 1a90 F894      		cli
 4610 1a92 DEBF      		out __SP_H__,r29
 4611 1a94 0FBE      		out __SREG__,__tmp_reg__
 4612 1a96 CDBF      		out __SP_L__,r28
 4613               	/* prologue: function */
 4614               	/* frame size = 170 */
 4615               	/* stack size = 188 */
 4616               	.L__stack_usage = 188
 4617 1a98 6F8F      		std Y+31,r22
 4618 1a9a 78A3      		std Y+32,r23
 4619 1a9c 89A3      		std Y+33,r24
 4620 1a9e 9AA3      		std Y+34,r25
 475:adpcm.c       ****     int32_t i;
 476:adpcm.c       ****     int64_t  xa1,xa2;    /* qmf accumulators */
 477:adpcm.c       ****     int32_t *h_ptr,*ac_ptr,*ac_ptr1,*ad_ptr,*ad_ptr1;
 478:adpcm.c       **** 
 479:adpcm.c       **** /* split transmitted word from input into ilr and ih */
 480:adpcm.c       ****     ilr = input & 0x3f;
 4621               		.loc 1 480 0
 4622 1aa0 8F8D      		ldd r24,Y+31
 4623 1aa2 98A1      		ldd r25,Y+32
 4624 1aa4 A9A1      		ldd r26,Y+33
 4625 1aa6 BAA1      		ldd r27,Y+34
 4626 1aa8 8F73      		andi r24,63
 4627 1aaa 9927      		clr r25
 4628 1aac AA27      		clr r26
 4629 1aae BB27      		clr r27
 4630 1ab0 8093 0000 		sts ilr,r24
 4631 1ab4 9093 0000 		sts ilr+1,r25
 4632 1ab8 A093 0000 		sts ilr+2,r26
 4633 1abc B093 0000 		sts ilr+3,r27
 481:adpcm.c       ****     ih = input >> 6;
 4634               		.loc 1 481 0
 4635 1ac0 8F8D      		ldd r24,Y+31
 4636 1ac2 98A1      		ldd r25,Y+32
 4637 1ac4 A9A1      		ldd r26,Y+33
 4638 1ac6 BAA1      		ldd r27,Y+34
 4639 1ac8 6894      		set
 4640 1aca 15F8      		bld __zero_reg__,6-1
 4641               		1:
 4642 1acc B595      		asr r27
 4643 1ace A795      		ror r26
 4644 1ad0 9795      		ror r25
 4645 1ad2 8795      		ror r24
 4646 1ad4 1694      		lsr __zero_reg__
 4647 1ad6 01F4      		brne 1b
 4648 1ad8 8093 0000 		sts ih,r24
 4649 1adc 9093 0000 		sts ih+1,r25
 4650 1ae0 A093 0000 		sts ih+2,r26
 4651 1ae4 B093 0000 		sts ih+3,r27
 482:adpcm.c       **** 
 483:adpcm.c       **** /* LOWER SUB_BAND DECODER */
 484:adpcm.c       **** 
 485:adpcm.c       **** /* filtez: compute predictor output for zero section */
 486:adpcm.c       ****     dec_szl = filtez(dec_del_bpl,dec_del_dltx);
 4652               		.loc 1 486 0
 4653 1ae8 60E0      		ldi r22,lo8(dec_del_dltx)
 4654 1aea 70E0      		ldi r23,hi8(dec_del_dltx)
 4655 1aec 80E0      		ldi r24,lo8(dec_del_bpl)
 4656 1aee 90E0      		ldi r25,hi8(dec_del_bpl)
 4657 1af0 0E94 0000 		call filtez
 4658 1af4 DC01      		movw r26,r24
 4659 1af6 CB01      		movw r24,r22
 4660 1af8 8093 0000 		sts dec_szl,r24
 4661 1afc 9093 0000 		sts dec_szl+1,r25
 4662 1b00 A093 0000 		sts dec_szl+2,r26
 4663 1b04 B093 0000 		sts dec_szl+3,r27
 487:adpcm.c       **** 
 488:adpcm.c       **** /* filtep: compute predictor output signal for pole section */
 489:adpcm.c       ****     dec_spl = filtep(dec_rlt1,dec_al1,dec_rlt2,dec_al2);
 4664               		.loc 1 489 0
 4665 1b08 A090 0000 		lds r10,dec_al2
 4666 1b0c B090 0000 		lds r11,dec_al2+1
 4667 1b10 C090 0000 		lds r12,dec_al2+2
 4668 1b14 D090 0000 		lds r13,dec_al2+3
 4669 1b18 E090 0000 		lds r14,dec_rlt2
 4670 1b1c F090 0000 		lds r15,dec_rlt2+1
 4671 1b20 0091 0000 		lds r16,dec_rlt2+2
 4672 1b24 1091 0000 		lds r17,dec_rlt2+3
 4673 1b28 2091 0000 		lds r18,dec_al1
 4674 1b2c 3091 0000 		lds r19,dec_al1+1
 4675 1b30 4091 0000 		lds r20,dec_al1+2
 4676 1b34 5091 0000 		lds r21,dec_al1+3
 4677 1b38 8091 0000 		lds r24,dec_rlt1
 4678 1b3c 9091 0000 		lds r25,dec_rlt1+1
 4679 1b40 A091 0000 		lds r26,dec_rlt1+2
 4680 1b44 B091 0000 		lds r27,dec_rlt1+3
 4681 1b48 BC01      		movw r22,r24
 4682 1b4a CD01      		movw r24,r26
 4683 1b4c 0E94 0000 		call filtep
 4684 1b50 DC01      		movw r26,r24
 4685 1b52 CB01      		movw r24,r22
 4686 1b54 8093 0000 		sts dec_spl,r24
 4687 1b58 9093 0000 		sts dec_spl+1,r25
 4688 1b5c A093 0000 		sts dec_spl+2,r26
 4689 1b60 B093 0000 		sts dec_spl+3,r27
 490:adpcm.c       **** 
 491:adpcm.c       ****     dec_sl = dec_spl + dec_szl;
 4690               		.loc 1 491 0
 4691 1b64 2091 0000 		lds r18,dec_spl
 4692 1b68 3091 0000 		lds r19,dec_spl+1
 4693 1b6c 4091 0000 		lds r20,dec_spl+2
 4694 1b70 5091 0000 		lds r21,dec_spl+3
 4695 1b74 8091 0000 		lds r24,dec_szl
 4696 1b78 9091 0000 		lds r25,dec_szl+1
 4697 1b7c A091 0000 		lds r26,dec_szl+2
 4698 1b80 B091 0000 		lds r27,dec_szl+3
 4699 1b84 820F      		add r24,r18
 4700 1b86 931F      		adc r25,r19
 4701 1b88 A41F      		adc r26,r20
 4702 1b8a B51F      		adc r27,r21
 4703 1b8c 8093 0000 		sts dec_sl,r24
 4704 1b90 9093 0000 		sts dec_sl+1,r25
 4705 1b94 A093 0000 		sts dec_sl+2,r26
 4706 1b98 B093 0000 		sts dec_sl+3,r27
 492:adpcm.c       **** 
 493:adpcm.c       **** /* invqxl: compute quantized difference signal for adaptive predic */
 494:adpcm.c       ****     dec_dlt = ((int64_t)dec_detl*qq4_code4_table[ilr >> 2]) >> 15;
 4707               		.loc 1 494 0
 4708 1b9c 8091 0000 		lds r24,dec_detl
 4709 1ba0 9091 0000 		lds r25,dec_detl+1
 4710 1ba4 A091 0000 		lds r26,dec_detl+2
 4711 1ba8 B091 0000 		lds r27,dec_detl+3
 4712 1bac 8BA3      		std Y+35,r24
 4713 1bae 9CA3      		std Y+36,r25
 4714 1bb0 ADA3      		std Y+37,r26
 4715 1bb2 BEA3      		std Y+38,r27
 4716 1bb4 BB0F      		lsl r27
 4717 1bb6 880B      		sbc r24,r24
 4718 1bb8 982F      		mov r25,r24
 4719 1bba DC01      		movw r26,r24
 4720 1bbc 8FA3      		std Y+39,r24
 4721 1bbe 88A7      		std Y+40,r24
 4722 1bc0 89A7      		std Y+41,r24
 4723 1bc2 8AA7      		std Y+42,r24
 4724 1bc4 8091 0000 		lds r24,ilr
 4725 1bc8 9091 0000 		lds r25,ilr+1
 4726 1bcc A091 0000 		lds r26,ilr+2
 4727 1bd0 B091 0000 		lds r27,ilr+3
 4728 1bd4 B595      		asr r27
 4729 1bd6 A795      		ror r26
 4730 1bd8 9795      		ror r25
 4731 1bda 8795      		ror r24
 4732 1bdc B595      		asr r27
 4733 1bde A795      		ror r26
 4734 1be0 9795      		ror r25
 4735 1be2 8795      		ror r24
 4736 1be4 880F      		lsl r24
 4737 1be6 991F      		rol r25
 4738 1be8 880F      		lsl r24
 4739 1bea 991F      		rol r25
 4740 1bec 8050      		subi r24,lo8(-(qq4_code4_table))
 4741 1bee 9040      		sbci r25,hi8(-(qq4_code4_table))
 4742 1bf0 FC01      		movw r30,r24
 4743 1bf2 8081      		ld r24,Z
 4744 1bf4 9181      		ldd r25,Z+1
 4745 1bf6 A281      		ldd r26,Z+2
 4746 1bf8 B381      		ldd r27,Z+3
 4747 1bfa 1C01      		movw r2,r24
 4748 1bfc 2D01      		movw r4,r26
 4749 1bfe BB0F      		lsl r27
 4750 1c00 880B      		sbc r24,r24
 4751 1c02 982F      		mov r25,r24
 4752 1c04 DC01      		movw r26,r24
 4753 1c06 682E      		mov r6,r24
 4754 1c08 782E      		mov r7,r24
 4755 1c0a 882E      		mov r8,r24
 4756 1c0c 982E      		mov r9,r24
 4757 1c0e A22C      		mov r10,r2
 4758 1c10 B32C      		mov r11,r3
 4759 1c12 C42C      		mov r12,r4
 4760 1c14 D52C      		mov r13,r5
 4761 1c16 E62C      		mov r14,r6
 4762 1c18 F72C      		mov r15,r7
 4763 1c1a 082D      		mov r16,r8
 4764 1c1c 192D      		mov r17,r9
 4765 1c1e 2BA1      		ldd r18,Y+35
 4766 1c20 3CA1      		ldd r19,Y+36
 4767 1c22 4DA1      		ldd r20,Y+37
 4768 1c24 5EA1      		ldd r21,Y+38
 4769 1c26 6FA1      		ldd r22,Y+39
 4770 1c28 78A5      		ldd r23,Y+40
 4771 1c2a 89A5      		ldd r24,Y+41
 4772 1c2c 9AA5      		ldd r25,Y+42
 4773 1c2e 0E94 0000 		call __muldi3
 4774 1c32 222E      		mov r2,r18
 4775 1c34 332E      		mov r3,r19
 4776 1c36 442E      		mov r4,r20
 4777 1c38 552E      		mov r5,r21
 4778 1c3a 662E      		mov r6,r22
 4779 1c3c 772E      		mov r7,r23
 4780 1c3e 882E      		mov r8,r24
 4781 1c40 992E      		mov r9,r25
 4782 1c42 A22C      		mov r10,r2
 4783 1c44 B32C      		mov r11,r3
 4784 1c46 C42C      		mov r12,r4
 4785 1c48 D52C      		mov r13,r5
 4786 1c4a E62C      		mov r14,r6
 4787 1c4c F72C      		mov r15,r7
 4788 1c4e 082D      		mov r16,r8
 4789 1c50 192D      		mov r17,r9
 4790 1c52 2A2D      		mov r18,r10
 4791 1c54 3B2D      		mov r19,r11
 4792 1c56 4C2D      		mov r20,r12
 4793 1c58 5D2D      		mov r21,r13
 4794 1c5a 6E2D      		mov r22,r14
 4795 1c5c 7F2D      		mov r23,r15
 4796 1c5e 802F      		mov r24,r16
 4797 1c60 912F      		mov r25,r17
 4798 1c62 0FE0      		ldi r16,lo8(15)
 4799 1c64 0E94 0000 		call __ashrdi3
 4800 1c68 A22E      		mov r10,r18
 4801 1c6a B32E      		mov r11,r19
 4802 1c6c C42E      		mov r12,r20
 4803 1c6e D52E      		mov r13,r21
 4804 1c70 E62E      		mov r14,r22
 4805 1c72 F72E      		mov r15,r23
 4806 1c74 082F      		mov r16,r24
 4807 1c76 192F      		mov r17,r25
 4808 1c78 D601      		movw r26,r12
 4809 1c7a C501      		movw r24,r10
 4810 1c7c 8093 0000 		sts dec_dlt,r24
 4811 1c80 9093 0000 		sts dec_dlt+1,r25
 4812 1c84 A093 0000 		sts dec_dlt+2,r26
 4813 1c88 B093 0000 		sts dec_dlt+3,r27
 495:adpcm.c       **** 
 496:adpcm.c       **** /* invqxl: compute quantized difference signal for decoder output */
 497:adpcm.c       ****     dl = ((int64_t)dec_detl*qq6_code6_table[il]) >> 15;
 4814               		.loc 1 497 0
 4815 1c8c 8091 0000 		lds r24,dec_detl
 4816 1c90 9091 0000 		lds r25,dec_detl+1
 4817 1c94 A091 0000 		lds r26,dec_detl+2
 4818 1c98 B091 0000 		lds r27,dec_detl+3
 4819 1c9c 8BA7      		std Y+43,r24
 4820 1c9e 9CA7      		std Y+44,r25
 4821 1ca0 ADA7      		std Y+45,r26
 4822 1ca2 BEA7      		std Y+46,r27
 4823 1ca4 BB0F      		lsl r27
 4824 1ca6 880B      		sbc r24,r24
 4825 1ca8 982F      		mov r25,r24
 4826 1caa DC01      		movw r26,r24
 4827 1cac 8FA7      		std Y+47,r24
 4828 1cae 88AB      		std Y+48,r24
 4829 1cb0 89AB      		std Y+49,r24
 4830 1cb2 8AAB      		std Y+50,r24
 4831 1cb4 8091 0000 		lds r24,il
 4832 1cb8 9091 0000 		lds r25,il+1
 4833 1cbc A091 0000 		lds r26,il+2
 4834 1cc0 B091 0000 		lds r27,il+3
 4835 1cc4 880F      		lsl r24
 4836 1cc6 991F      		rol r25
 4837 1cc8 880F      		lsl r24
 4838 1cca 991F      		rol r25
 4839 1ccc 8050      		subi r24,lo8(-(qq6_code6_table))
 4840 1cce 9040      		sbci r25,hi8(-(qq6_code6_table))
 4841 1cd0 FC01      		movw r30,r24
 4842 1cd2 8081      		ld r24,Z
 4843 1cd4 9181      		ldd r25,Z+1
 4844 1cd6 A281      		ldd r26,Z+2
 4845 1cd8 B381      		ldd r27,Z+3
 4846 1cda 8BAB      		std Y+51,r24
 4847 1cdc 9CAB      		std Y+52,r25
 4848 1cde ADAB      		std Y+53,r26
 4849 1ce0 BEAB      		std Y+54,r27
 4850 1ce2 BB0F      		lsl r27
 4851 1ce4 880B      		sbc r24,r24
 4852 1ce6 982F      		mov r25,r24
 4853 1ce8 DC01      		movw r26,r24
 4854 1cea 8FAB      		std Y+55,r24
 4855 1cec 88AF      		std Y+56,r24
 4856 1cee 89AF      		std Y+57,r24
 4857 1cf0 8AAF      		std Y+58,r24
 4858 1cf2 ABA8      		ldd r10,Y+51
 4859 1cf4 BCA8      		ldd r11,Y+52
 4860 1cf6 CDA8      		ldd r12,Y+53
 4861 1cf8 DEA8      		ldd r13,Y+54
 4862 1cfa EFA8      		ldd r14,Y+55
 4863 1cfc F8AC      		ldd r15,Y+56
 4864 1cfe 09AD      		ldd r16,Y+57
 4865 1d00 1AAD      		ldd r17,Y+58
 4866 1d02 2BA5      		ldd r18,Y+43
 4867 1d04 3CA5      		ldd r19,Y+44
 4868 1d06 4DA5      		ldd r20,Y+45
 4869 1d08 5EA5      		ldd r21,Y+46
 4870 1d0a 6FA5      		ldd r22,Y+47
 4871 1d0c 78A9      		ldd r23,Y+48
 4872 1d0e 89A9      		ldd r24,Y+49
 4873 1d10 9AA9      		ldd r25,Y+50
 4874 1d12 0E94 0000 		call __muldi3
 4875 1d16 222E      		mov r2,r18
 4876 1d18 332E      		mov r3,r19
 4877 1d1a 442E      		mov r4,r20
 4878 1d1c 552E      		mov r5,r21
 4879 1d1e 662E      		mov r6,r22
 4880 1d20 772E      		mov r7,r23
 4881 1d22 882E      		mov r8,r24
 4882 1d24 992E      		mov r9,r25
 4883 1d26 A22C      		mov r10,r2
 4884 1d28 B32C      		mov r11,r3
 4885 1d2a C42C      		mov r12,r4
 4886 1d2c D52C      		mov r13,r5
 4887 1d2e E62C      		mov r14,r6
 4888 1d30 F72C      		mov r15,r7
 4889 1d32 082D      		mov r16,r8
 4890 1d34 192D      		mov r17,r9
 4891 1d36 2A2D      		mov r18,r10
 4892 1d38 3B2D      		mov r19,r11
 4893 1d3a 4C2D      		mov r20,r12
 4894 1d3c 5D2D      		mov r21,r13
 4895 1d3e 6E2D      		mov r22,r14
 4896 1d40 7F2D      		mov r23,r15
 4897 1d42 802F      		mov r24,r16
 4898 1d44 912F      		mov r25,r17
 4899 1d46 0FE0      		ldi r16,lo8(15)
 4900 1d48 0E94 0000 		call __ashrdi3
 4901 1d4c A22E      		mov r10,r18
 4902 1d4e B32E      		mov r11,r19
 4903 1d50 C42E      		mov r12,r20
 4904 1d52 D52E      		mov r13,r21
 4905 1d54 E62E      		mov r14,r22
 4906 1d56 F72E      		mov r15,r23
 4907 1d58 082F      		mov r16,r24
 4908 1d5a 192F      		mov r17,r25
 4909 1d5c D601      		movw r26,r12
 4910 1d5e C501      		movw r24,r10
 4911 1d60 8093 0000 		sts dl,r24
 4912 1d64 9093 0000 		sts dl+1,r25
 4913 1d68 A093 0000 		sts dl+2,r26
 4914 1d6c B093 0000 		sts dl+3,r27
 498:adpcm.c       **** 
 499:adpcm.c       ****     rl = dl + dec_sl;
 4915               		.loc 1 499 0
 4916 1d70 2091 0000 		lds r18,dl
 4917 1d74 3091 0000 		lds r19,dl+1
 4918 1d78 4091 0000 		lds r20,dl+2
 4919 1d7c 5091 0000 		lds r21,dl+3
 4920 1d80 8091 0000 		lds r24,dec_sl
 4921 1d84 9091 0000 		lds r25,dec_sl+1
 4922 1d88 A091 0000 		lds r26,dec_sl+2
 4923 1d8c B091 0000 		lds r27,dec_sl+3
 4924 1d90 820F      		add r24,r18
 4925 1d92 931F      		adc r25,r19
 4926 1d94 A41F      		adc r26,r20
 4927 1d96 B51F      		adc r27,r21
 4928 1d98 8093 0000 		sts rl,r24
 4929 1d9c 9093 0000 		sts rl+1,r25
 4930 1da0 A093 0000 		sts rl+2,r26
 4931 1da4 B093 0000 		sts rl+3,r27
 500:adpcm.c       **** 
 501:adpcm.c       **** /* logscl: quantizer scale factor adaptation in the lower sub-band */
 502:adpcm.c       ****     dec_nbl = logscl(ilr,dec_nbl);
 4932               		.loc 1 502 0
 4933 1da8 2091 0000 		lds r18,dec_nbl
 4934 1dac 3091 0000 		lds r19,dec_nbl+1
 4935 1db0 4091 0000 		lds r20,dec_nbl+2
 4936 1db4 5091 0000 		lds r21,dec_nbl+3
 4937 1db8 8091 0000 		lds r24,ilr
 4938 1dbc 9091 0000 		lds r25,ilr+1
 4939 1dc0 A091 0000 		lds r26,ilr+2
 4940 1dc4 B091 0000 		lds r27,ilr+3
 4941 1dc8 BC01      		movw r22,r24
 4942 1dca CD01      		movw r24,r26
 4943 1dcc 0E94 0000 		call logscl
 4944 1dd0 DC01      		movw r26,r24
 4945 1dd2 CB01      		movw r24,r22
 4946 1dd4 8093 0000 		sts dec_nbl,r24
 4947 1dd8 9093 0000 		sts dec_nbl+1,r25
 4948 1ddc A093 0000 		sts dec_nbl+2,r26
 4949 1de0 B093 0000 		sts dec_nbl+3,r27
 503:adpcm.c       **** 
 504:adpcm.c       **** /* scalel: computes quantizer scale factor in the lower sub band */
 505:adpcm.c       ****     dec_detl = scalel(dec_nbl,8);
 4950               		.loc 1 505 0
 4951 1de4 8091 0000 		lds r24,dec_nbl
 4952 1de8 9091 0000 		lds r25,dec_nbl+1
 4953 1dec A091 0000 		lds r26,dec_nbl+2
 4954 1df0 B091 0000 		lds r27,dec_nbl+3
 4955 1df4 28E0      		ldi r18,lo8(8)
 4956 1df6 30E0      		ldi r19,0
 4957 1df8 40E0      		ldi r20,0
 4958 1dfa 50E0      		ldi r21,0
 4959 1dfc BC01      		movw r22,r24
 4960 1dfe CD01      		movw r24,r26
 4961 1e00 0E94 0000 		call scalel
 4962 1e04 DC01      		movw r26,r24
 4963 1e06 CB01      		movw r24,r22
 4964 1e08 8093 0000 		sts dec_detl,r24
 4965 1e0c 9093 0000 		sts dec_detl+1,r25
 4966 1e10 A093 0000 		sts dec_detl+2,r26
 4967 1e14 B093 0000 		sts dec_detl+3,r27
 506:adpcm.c       **** 
 507:adpcm.c       **** /* parrec - add pole predictor output to quantized diff. signal */
 508:adpcm.c       **** /* for partially reconstructed signal */
 509:adpcm.c       ****     dec_plt = dec_dlt + dec_szl;
 4968               		.loc 1 509 0
 4969 1e18 2091 0000 		lds r18,dec_dlt
 4970 1e1c 3091 0000 		lds r19,dec_dlt+1
 4971 1e20 4091 0000 		lds r20,dec_dlt+2
 4972 1e24 5091 0000 		lds r21,dec_dlt+3
 4973 1e28 8091 0000 		lds r24,dec_szl
 4974 1e2c 9091 0000 		lds r25,dec_szl+1
 4975 1e30 A091 0000 		lds r26,dec_szl+2
 4976 1e34 B091 0000 		lds r27,dec_szl+3
 4977 1e38 820F      		add r24,r18
 4978 1e3a 931F      		adc r25,r19
 4979 1e3c A41F      		adc r26,r20
 4980 1e3e B51F      		adc r27,r21
 4981 1e40 8093 0000 		sts dec_plt,r24
 4982 1e44 9093 0000 		sts dec_plt+1,r25
 4983 1e48 A093 0000 		sts dec_plt+2,r26
 4984 1e4c B093 0000 		sts dec_plt+3,r27
 510:adpcm.c       **** 
 511:adpcm.c       **** /* upzero: update zero section predictor coefficients */
 512:adpcm.c       ****     upzero(dec_dlt,dec_del_dltx,dec_del_bpl);
 4985               		.loc 1 512 0
 4986 1e50 8091 0000 		lds r24,dec_dlt
 4987 1e54 9091 0000 		lds r25,dec_dlt+1
 4988 1e58 A091 0000 		lds r26,dec_dlt+2
 4989 1e5c B091 0000 		lds r27,dec_dlt+3
 4990 1e60 20E0      		ldi r18,lo8(dec_del_bpl)
 4991 1e62 30E0      		ldi r19,hi8(dec_del_bpl)
 4992 1e64 40E0      		ldi r20,lo8(dec_del_dltx)
 4993 1e66 50E0      		ldi r21,hi8(dec_del_dltx)
 4994 1e68 BC01      		movw r22,r24
 4995 1e6a CD01      		movw r24,r26
 4996 1e6c 0E94 0000 		call upzero
 513:adpcm.c       **** 
 514:adpcm.c       **** /* uppol2: update second predictor coefficient apl2 and delay it as al2 */
 515:adpcm.c       ****     dec_al2 = uppol2(dec_al1,dec_al2,dec_plt,dec_plt1,dec_plt2);
 4997               		.loc 1 515 0
 4998 1e70 8091 0000 		lds r24,dec_plt2
 4999 1e74 9091 0000 		lds r25,dec_plt2+1
 5000 1e78 A091 0000 		lds r26,dec_plt2+2
 5001 1e7c B091 0000 		lds r27,dec_plt2+3
 5002 1e80 A090 0000 		lds r10,dec_plt1
 5003 1e84 B090 0000 		lds r11,dec_plt1+1
 5004 1e88 C090 0000 		lds r12,dec_plt1+2
 5005 1e8c D090 0000 		lds r13,dec_plt1+3
 5006 1e90 E090 0000 		lds r14,dec_plt
 5007 1e94 F090 0000 		lds r15,dec_plt+1
 5008 1e98 0091 0000 		lds r16,dec_plt+2
 5009 1e9c 1091 0000 		lds r17,dec_plt+3
 5010 1ea0 2091 0000 		lds r18,dec_al2
 5011 1ea4 3091 0000 		lds r19,dec_al2+1
 5012 1ea8 4091 0000 		lds r20,dec_al2+2
 5013 1eac 5091 0000 		lds r21,dec_al2+3
 5014 1eb0 6090 0000 		lds r6,dec_al1
 5015 1eb4 7090 0000 		lds r7,dec_al1+1
 5016 1eb8 8090 0000 		lds r8,dec_al1+2
 5017 1ebc 9090 0000 		lds r9,dec_al1+3
 5018 1ec0 6B2F      		mov r22,r27
 5019 1ec2 6F93      		push r22
 5020 1ec4 6A2F      		mov r22,r26
 5021 1ec6 6F93      		push r22
 5022 1ec8 692F      		mov r22,r25
 5023 1eca 6F93      		push r22
 5024 1ecc 8F93      		push r24
 5025 1ece C401      		movw r24,r8
 5026 1ed0 B301      		movw r22,r6
 5027 1ed2 0E94 0000 		call uppol2
 5028 1ed6 0F90      		pop __tmp_reg__
 5029 1ed8 0F90      		pop __tmp_reg__
 5030 1eda 0F90      		pop __tmp_reg__
 5031 1edc 0F90      		pop __tmp_reg__
 5032 1ede DC01      		movw r26,r24
 5033 1ee0 CB01      		movw r24,r22
 5034 1ee2 8093 0000 		sts dec_al2,r24
 5035 1ee6 9093 0000 		sts dec_al2+1,r25
 5036 1eea A093 0000 		sts dec_al2+2,r26
 5037 1eee B093 0000 		sts dec_al2+3,r27
 516:adpcm.c       **** 
 517:adpcm.c       **** /* uppol1: update first predictor coef. (pole setion) */
 518:adpcm.c       ****     dec_al1 = uppol1(dec_al1,dec_al2,dec_plt,dec_plt1);
 5038               		.loc 1 518 0
 5039 1ef2 A090 0000 		lds r10,dec_plt1
 5040 1ef6 B090 0000 		lds r11,dec_plt1+1
 5041 1efa C090 0000 		lds r12,dec_plt1+2
 5042 1efe D090 0000 		lds r13,dec_plt1+3
 5043 1f02 E090 0000 		lds r14,dec_plt
 5044 1f06 F090 0000 		lds r15,dec_plt+1
 5045 1f0a 0091 0000 		lds r16,dec_plt+2
 5046 1f0e 1091 0000 		lds r17,dec_plt+3
 5047 1f12 2091 0000 		lds r18,dec_al2
 5048 1f16 3091 0000 		lds r19,dec_al2+1
 5049 1f1a 4091 0000 		lds r20,dec_al2+2
 5050 1f1e 5091 0000 		lds r21,dec_al2+3
 5051 1f22 8091 0000 		lds r24,dec_al1
 5052 1f26 9091 0000 		lds r25,dec_al1+1
 5053 1f2a A091 0000 		lds r26,dec_al1+2
 5054 1f2e B091 0000 		lds r27,dec_al1+3
 5055 1f32 BC01      		movw r22,r24
 5056 1f34 CD01      		movw r24,r26
 5057 1f36 0E94 0000 		call uppol1
 5058 1f3a DC01      		movw r26,r24
 5059 1f3c CB01      		movw r24,r22
 5060 1f3e 8093 0000 		sts dec_al1,r24
 5061 1f42 9093 0000 		sts dec_al1+1,r25
 5062 1f46 A093 0000 		sts dec_al1+2,r26
 5063 1f4a B093 0000 		sts dec_al1+3,r27
 519:adpcm.c       **** 
 520:adpcm.c       **** /* recons : compute recontructed signal for adaptive predictor */
 521:adpcm.c       ****     dec_rlt = dec_sl + dec_dlt;
 5064               		.loc 1 521 0
 5065 1f4e 2091 0000 		lds r18,dec_sl
 5066 1f52 3091 0000 		lds r19,dec_sl+1
 5067 1f56 4091 0000 		lds r20,dec_sl+2
 5068 1f5a 5091 0000 		lds r21,dec_sl+3
 5069 1f5e 8091 0000 		lds r24,dec_dlt
 5070 1f62 9091 0000 		lds r25,dec_dlt+1
 5071 1f66 A091 0000 		lds r26,dec_dlt+2
 5072 1f6a B091 0000 		lds r27,dec_dlt+3
 5073 1f6e 820F      		add r24,r18
 5074 1f70 931F      		adc r25,r19
 5075 1f72 A41F      		adc r26,r20
 5076 1f74 B51F      		adc r27,r21
 5077 1f76 8093 0000 		sts dec_rlt,r24
 5078 1f7a 9093 0000 		sts dec_rlt+1,r25
 5079 1f7e A093 0000 		sts dec_rlt+2,r26
 5080 1f82 B093 0000 		sts dec_rlt+3,r27
 522:adpcm.c       **** 
 523:adpcm.c       **** /* done with lower sub band decoder, implement delays for next time */
 524:adpcm.c       ****     dec_rlt2 = dec_rlt1;
 5081               		.loc 1 524 0
 5082 1f86 8091 0000 		lds r24,dec_rlt1
 5083 1f8a 9091 0000 		lds r25,dec_rlt1+1
 5084 1f8e A091 0000 		lds r26,dec_rlt1+2
 5085 1f92 B091 0000 		lds r27,dec_rlt1+3
 5086 1f96 8093 0000 		sts dec_rlt2,r24
 5087 1f9a 9093 0000 		sts dec_rlt2+1,r25
 5088 1f9e A093 0000 		sts dec_rlt2+2,r26
 5089 1fa2 B093 0000 		sts dec_rlt2+3,r27
 525:adpcm.c       ****     dec_rlt1 = dec_rlt;
 5090               		.loc 1 525 0
 5091 1fa6 8091 0000 		lds r24,dec_rlt
 5092 1faa 9091 0000 		lds r25,dec_rlt+1
 5093 1fae A091 0000 		lds r26,dec_rlt+2
 5094 1fb2 B091 0000 		lds r27,dec_rlt+3
 5095 1fb6 8093 0000 		sts dec_rlt1,r24
 5096 1fba 9093 0000 		sts dec_rlt1+1,r25
 5097 1fbe A093 0000 		sts dec_rlt1+2,r26
 5098 1fc2 B093 0000 		sts dec_rlt1+3,r27
 526:adpcm.c       ****     dec_plt2 = dec_plt1;
 5099               		.loc 1 526 0
 5100 1fc6 8091 0000 		lds r24,dec_plt1
 5101 1fca 9091 0000 		lds r25,dec_plt1+1
 5102 1fce A091 0000 		lds r26,dec_plt1+2
 5103 1fd2 B091 0000 		lds r27,dec_plt1+3
 5104 1fd6 8093 0000 		sts dec_plt2,r24
 5105 1fda 9093 0000 		sts dec_plt2+1,r25
 5106 1fde A093 0000 		sts dec_plt2+2,r26
 5107 1fe2 B093 0000 		sts dec_plt2+3,r27
 527:adpcm.c       ****     dec_plt1 = dec_plt;
 5108               		.loc 1 527 0
 5109 1fe6 8091 0000 		lds r24,dec_plt
 5110 1fea 9091 0000 		lds r25,dec_plt+1
 5111 1fee A091 0000 		lds r26,dec_plt+2
 5112 1ff2 B091 0000 		lds r27,dec_plt+3
 5113 1ff6 8093 0000 		sts dec_plt1,r24
 5114 1ffa 9093 0000 		sts dec_plt1+1,r25
 5115 1ffe A093 0000 		sts dec_plt1+2,r26
 5116 2002 B093 0000 		sts dec_plt1+3,r27
 528:adpcm.c       **** 
 529:adpcm.c       **** /* HIGH SUB-BAND DECODER */
 530:adpcm.c       **** 
 531:adpcm.c       **** /* filtez: compute predictor output for zero section */
 532:adpcm.c       ****     dec_szh = filtez(dec_del_bph,dec_del_dhx);
 5117               		.loc 1 532 0
 5118 2006 60E0      		ldi r22,lo8(dec_del_dhx)
 5119 2008 70E0      		ldi r23,hi8(dec_del_dhx)
 5120 200a 80E0      		ldi r24,lo8(dec_del_bph)
 5121 200c 90E0      		ldi r25,hi8(dec_del_bph)
 5122 200e 0E94 0000 		call filtez
 5123 2012 DC01      		movw r26,r24
 5124 2014 CB01      		movw r24,r22
 5125 2016 8093 0000 		sts dec_szh,r24
 5126 201a 9093 0000 		sts dec_szh+1,r25
 5127 201e A093 0000 		sts dec_szh+2,r26
 5128 2022 B093 0000 		sts dec_szh+3,r27
 533:adpcm.c       **** 
 534:adpcm.c       **** /* filtep: compute predictor output signal for pole section */
 535:adpcm.c       ****     dec_sph = filtep(dec_rh1,dec_ah1,dec_rh2,dec_ah2);
 5129               		.loc 1 535 0
 5130 2026 A090 0000 		lds r10,dec_ah2
 5131 202a B090 0000 		lds r11,dec_ah2+1
 5132 202e C090 0000 		lds r12,dec_ah2+2
 5133 2032 D090 0000 		lds r13,dec_ah2+3
 5134 2036 E090 0000 		lds r14,dec_rh2
 5135 203a F090 0000 		lds r15,dec_rh2+1
 5136 203e 0091 0000 		lds r16,dec_rh2+2
 5137 2042 1091 0000 		lds r17,dec_rh2+3
 5138 2046 2091 0000 		lds r18,dec_ah1
 5139 204a 3091 0000 		lds r19,dec_ah1+1
 5140 204e 4091 0000 		lds r20,dec_ah1+2
 5141 2052 5091 0000 		lds r21,dec_ah1+3
 5142 2056 8091 0000 		lds r24,dec_rh1
 5143 205a 9091 0000 		lds r25,dec_rh1+1
 5144 205e A091 0000 		lds r26,dec_rh1+2
 5145 2062 B091 0000 		lds r27,dec_rh1+3
 5146 2066 BC01      		movw r22,r24
 5147 2068 CD01      		movw r24,r26
 5148 206a 0E94 0000 		call filtep
 5149 206e DC01      		movw r26,r24
 5150 2070 CB01      		movw r24,r22
 5151 2072 8093 0000 		sts dec_sph,r24
 5152 2076 9093 0000 		sts dec_sph+1,r25
 5153 207a A093 0000 		sts dec_sph+2,r26
 5154 207e B093 0000 		sts dec_sph+3,r27
 536:adpcm.c       **** 
 537:adpcm.c       **** /* predic:compute the predictor output value in the higher sub_band decoder */
 538:adpcm.c       ****     dec_sh = dec_sph + dec_szh;
 5155               		.loc 1 538 0
 5156 2082 2091 0000 		lds r18,dec_sph
 5157 2086 3091 0000 		lds r19,dec_sph+1
 5158 208a 4091 0000 		lds r20,dec_sph+2
 5159 208e 5091 0000 		lds r21,dec_sph+3
 5160 2092 8091 0000 		lds r24,dec_szh
 5161 2096 9091 0000 		lds r25,dec_szh+1
 5162 209a A091 0000 		lds r26,dec_szh+2
 5163 209e B091 0000 		lds r27,dec_szh+3
 5164 20a2 820F      		add r24,r18
 5165 20a4 931F      		adc r25,r19
 5166 20a6 A41F      		adc r26,r20
 5167 20a8 B51F      		adc r27,r21
 5168 20aa 8093 0000 		sts dec_sh,r24
 5169 20ae 9093 0000 		sts dec_sh+1,r25
 5170 20b2 A093 0000 		sts dec_sh+2,r26
 5171 20b6 B093 0000 		sts dec_sh+3,r27
 539:adpcm.c       **** 
 540:adpcm.c       **** /* invqah: in-place compute the quantized difference signal */
 541:adpcm.c       ****     dec_dh = ((int64_t)dec_deth*qq2_code2_table[ih]) >> 15L ;
 5172               		.loc 1 541 0
 5173 20ba 8091 0000 		lds r24,dec_deth
 5174 20be 9091 0000 		lds r25,dec_deth+1
 5175 20c2 A091 0000 		lds r26,dec_deth+2
 5176 20c6 B091 0000 		lds r27,dec_deth+3
 5177 20ca 8BAF      		std Y+59,r24
 5178 20cc 9CAF      		std Y+60,r25
 5179 20ce ADAF      		std Y+61,r26
 5180 20d0 BEAF      		std Y+62,r27
 5181 20d2 BB0F      		lsl r27
 5182 20d4 880B      		sbc r24,r24
 5183 20d6 982F      		mov r25,r24
 5184 20d8 DC01      		movw r26,r24
 5185 20da 8FAF      		std Y+63,r24
 5186 20dc 2196      		adiw r28,64-63
 5187 20de 8FAF      		std Y+63,r24
 5188 20e0 2197      		sbiw r28,64-63
 5189 20e2 2296      		adiw r28,65-63
 5190 20e4 8FAF      		std Y+63,r24
 5191 20e6 2297      		sbiw r28,65-63
 5192 20e8 2396      		adiw r28,66-63
 5193 20ea 8FAF      		std Y+63,r24
 5194 20ec 2397      		sbiw r28,66-63
 5195 20ee 8091 0000 		lds r24,ih
 5196 20f2 9091 0000 		lds r25,ih+1
 5197 20f6 A091 0000 		lds r26,ih+2
 5198 20fa B091 0000 		lds r27,ih+3
 5199 20fe 880F      		lsl r24
 5200 2100 991F      		rol r25
 5201 2102 880F      		lsl r24
 5202 2104 991F      		rol r25
 5203 2106 8050      		subi r24,lo8(-(qq2_code2_table))
 5204 2108 9040      		sbci r25,hi8(-(qq2_code2_table))
 5205 210a FC01      		movw r30,r24
 5206 210c 8081      		ld r24,Z
 5207 210e 9181      		ldd r25,Z+1
 5208 2110 A281      		ldd r26,Z+2
 5209 2112 B381      		ldd r27,Z+3
 5210 2114 2796      		adiw r28,67-60
 5211 2116 8CAF      		std Y+60,r24
 5212 2118 9DAF      		std Y+61,r25
 5213 211a AEAF      		std Y+62,r26
 5214 211c BFAF      		std Y+63,r27
 5215 211e 2797      		sbiw r28,67-60
 5216 2120 BB0F      		lsl r27
 5217 2122 880B      		sbc r24,r24
 5218 2124 982F      		mov r25,r24
 5219 2126 DC01      		movw r26,r24
 5220 2128 2896      		adiw r28,71-63
 5221 212a 8FAF      		std Y+63,r24
 5222 212c 2897      		sbiw r28,71-63
 5223 212e 2996      		adiw r28,72-63
 5224 2130 8FAF      		std Y+63,r24
 5225 2132 2997      		sbiw r28,72-63
 5226 2134 2A96      		adiw r28,73-63
 5227 2136 8FAF      		std Y+63,r24
 5228 2138 2A97      		sbiw r28,73-63
 5229 213a 2B96      		adiw r28,74-63
 5230 213c 8FAF      		std Y+63,r24
 5231 213e 2B97      		sbiw r28,74-63
 5232 2140 2496      		adiw r28,67-63
 5233 2142 AFAC      		ldd r10,Y+63
 5234 2144 2497      		sbiw r28,67-63
 5235 2146 2596      		adiw r28,68-63
 5236 2148 BFAC      		ldd r11,Y+63
 5237 214a 2597      		sbiw r28,68-63
 5238 214c 2696      		adiw r28,69-63
 5239 214e CFAC      		ldd r12,Y+63
 5240 2150 2697      		sbiw r28,69-63
 5241 2152 2796      		adiw r28,70-63
 5242 2154 DFAC      		ldd r13,Y+63
 5243 2156 2797      		sbiw r28,70-63
 5244 2158 2896      		adiw r28,71-63
 5245 215a EFAC      		ldd r14,Y+63
 5246 215c 2897      		sbiw r28,71-63
 5247 215e 2996      		adiw r28,72-63
 5248 2160 FFAC      		ldd r15,Y+63
 5249 2162 2997      		sbiw r28,72-63
 5250 2164 2A96      		adiw r28,73-63
 5251 2166 0FAD      		ldd r16,Y+63
 5252 2168 2A97      		sbiw r28,73-63
 5253 216a 2B96      		adiw r28,74-63
 5254 216c 1FAD      		ldd r17,Y+63
 5255 216e 2B97      		sbiw r28,74-63
 5256 2170 2BAD      		ldd r18,Y+59
 5257 2172 3CAD      		ldd r19,Y+60
 5258 2174 4DAD      		ldd r20,Y+61
 5259 2176 5EAD      		ldd r21,Y+62
 5260 2178 6FAD      		ldd r22,Y+63
 5261 217a 2196      		adiw r28,64-63
 5262 217c 7FAD      		ldd r23,Y+63
 5263 217e 2197      		sbiw r28,64-63
 5264 2180 2296      		adiw r28,65-63
 5265 2182 8FAD      		ldd r24,Y+63
 5266 2184 2297      		sbiw r28,65-63
 5267 2186 2396      		adiw r28,66-63
 5268 2188 9FAD      		ldd r25,Y+63
 5269 218a 2397      		sbiw r28,66-63
 5270 218c 0E94 0000 		call __muldi3
 5271 2190 222E      		mov r2,r18
 5272 2192 332E      		mov r3,r19
 5273 2194 442E      		mov r4,r20
 5274 2196 552E      		mov r5,r21
 5275 2198 662E      		mov r6,r22
 5276 219a 772E      		mov r7,r23
 5277 219c 882E      		mov r8,r24
 5278 219e 992E      		mov r9,r25
 5279 21a0 A22C      		mov r10,r2
 5280 21a2 B32C      		mov r11,r3
 5281 21a4 C42C      		mov r12,r4
 5282 21a6 D52C      		mov r13,r5
 5283 21a8 E62C      		mov r14,r6
 5284 21aa F72C      		mov r15,r7
 5285 21ac 082D      		mov r16,r8
 5286 21ae 192D      		mov r17,r9
 5287 21b0 2A2D      		mov r18,r10
 5288 21b2 3B2D      		mov r19,r11
 5289 21b4 4C2D      		mov r20,r12
 5290 21b6 5D2D      		mov r21,r13
 5291 21b8 6E2D      		mov r22,r14
 5292 21ba 7F2D      		mov r23,r15
 5293 21bc 802F      		mov r24,r16
 5294 21be 912F      		mov r25,r17
 5295 21c0 0FE0      		ldi r16,lo8(15)
 5296 21c2 0E94 0000 		call __ashrdi3
 5297 21c6 A22E      		mov r10,r18
 5298 21c8 B32E      		mov r11,r19
 5299 21ca C42E      		mov r12,r20
 5300 21cc D52E      		mov r13,r21
 5301 21ce E62E      		mov r14,r22
 5302 21d0 F72E      		mov r15,r23
 5303 21d2 082F      		mov r16,r24
 5304 21d4 192F      		mov r17,r25
 5305 21d6 D601      		movw r26,r12
 5306 21d8 C501      		movw r24,r10
 5307 21da 8093 0000 		sts dec_dh,r24
 5308 21de 9093 0000 		sts dec_dh+1,r25
 5309 21e2 A093 0000 		sts dec_dh+2,r26
 5310 21e6 B093 0000 		sts dec_dh+3,r27
 542:adpcm.c       **** 
 543:adpcm.c       **** /* logsch: update logarithmic quantizer scale factor in hi sub band */
 544:adpcm.c       ****     dec_nbh = logsch(ih,dec_nbh);
 5311               		.loc 1 544 0
 5312 21ea 2091 0000 		lds r18,dec_nbh
 5313 21ee 3091 0000 		lds r19,dec_nbh+1
 5314 21f2 4091 0000 		lds r20,dec_nbh+2
 5315 21f6 5091 0000 		lds r21,dec_nbh+3
 5316 21fa 8091 0000 		lds r24,ih
 5317 21fe 9091 0000 		lds r25,ih+1
 5318 2202 A091 0000 		lds r26,ih+2
 5319 2206 B091 0000 		lds r27,ih+3
 5320 220a BC01      		movw r22,r24
 5321 220c CD01      		movw r24,r26
 5322 220e 0E94 0000 		call logsch
 5323 2212 DC01      		movw r26,r24
 5324 2214 CB01      		movw r24,r22
 5325 2216 8093 0000 		sts dec_nbh,r24
 5326 221a 9093 0000 		sts dec_nbh+1,r25
 5327 221e A093 0000 		sts dec_nbh+2,r26
 5328 2222 B093 0000 		sts dec_nbh+3,r27
 545:adpcm.c       **** 
 546:adpcm.c       **** /* scalel: compute the quantizer scale factor in the higher sub band */
 547:adpcm.c       ****     dec_deth = scalel(dec_nbh,10);
 5329               		.loc 1 547 0
 5330 2226 8091 0000 		lds r24,dec_nbh
 5331 222a 9091 0000 		lds r25,dec_nbh+1
 5332 222e A091 0000 		lds r26,dec_nbh+2
 5333 2232 B091 0000 		lds r27,dec_nbh+3
 5334 2236 2AE0      		ldi r18,lo8(10)
 5335 2238 30E0      		ldi r19,0
 5336 223a 40E0      		ldi r20,0
 5337 223c 50E0      		ldi r21,0
 5338 223e BC01      		movw r22,r24
 5339 2240 CD01      		movw r24,r26
 5340 2242 0E94 0000 		call scalel
 5341 2246 DC01      		movw r26,r24
 5342 2248 CB01      		movw r24,r22
 5343 224a 8093 0000 		sts dec_deth,r24
 5344 224e 9093 0000 		sts dec_deth+1,r25
 5345 2252 A093 0000 		sts dec_deth+2,r26
 5346 2256 B093 0000 		sts dec_deth+3,r27
 548:adpcm.c       **** 
 549:adpcm.c       **** /* parrec: compute partially recontructed signal */
 550:adpcm.c       ****     dec_ph = dec_dh + dec_szh;
 5347               		.loc 1 550 0
 5348 225a 2091 0000 		lds r18,dec_dh
 5349 225e 3091 0000 		lds r19,dec_dh+1
 5350 2262 4091 0000 		lds r20,dec_dh+2
 5351 2266 5091 0000 		lds r21,dec_dh+3
 5352 226a 8091 0000 		lds r24,dec_szh
 5353 226e 9091 0000 		lds r25,dec_szh+1
 5354 2272 A091 0000 		lds r26,dec_szh+2
 5355 2276 B091 0000 		lds r27,dec_szh+3
 5356 227a 820F      		add r24,r18
 5357 227c 931F      		adc r25,r19
 5358 227e A41F      		adc r26,r20
 5359 2280 B51F      		adc r27,r21
 5360 2282 8093 0000 		sts dec_ph,r24
 5361 2286 9093 0000 		sts dec_ph+1,r25
 5362 228a A093 0000 		sts dec_ph+2,r26
 5363 228e B093 0000 		sts dec_ph+3,r27
 551:adpcm.c       **** 
 552:adpcm.c       **** /* upzero: update zero section predictor coefficients */
 553:adpcm.c       ****     upzero(dec_dh,dec_del_dhx,dec_del_bph);
 5364               		.loc 1 553 0
 5365 2292 8091 0000 		lds r24,dec_dh
 5366 2296 9091 0000 		lds r25,dec_dh+1
 5367 229a A091 0000 		lds r26,dec_dh+2
 5368 229e B091 0000 		lds r27,dec_dh+3
 5369 22a2 20E0      		ldi r18,lo8(dec_del_bph)
 5370 22a4 30E0      		ldi r19,hi8(dec_del_bph)
 5371 22a6 40E0      		ldi r20,lo8(dec_del_dhx)
 5372 22a8 50E0      		ldi r21,hi8(dec_del_dhx)
 5373 22aa BC01      		movw r22,r24
 5374 22ac CD01      		movw r24,r26
 5375 22ae 0E94 0000 		call upzero
 554:adpcm.c       **** 
 555:adpcm.c       **** /* uppol2: update second predictor coefficient aph2 and delay it as ah2 */
 556:adpcm.c       ****     dec_ah2 = uppol2(dec_ah1,dec_ah2,dec_ph,dec_ph1,dec_ph2);
 5376               		.loc 1 556 0
 5377 22b2 8091 0000 		lds r24,dec_ph2
 5378 22b6 9091 0000 		lds r25,dec_ph2+1
 5379 22ba A091 0000 		lds r26,dec_ph2+2
 5380 22be B091 0000 		lds r27,dec_ph2+3
 5381 22c2 A090 0000 		lds r10,dec_ph1
 5382 22c6 B090 0000 		lds r11,dec_ph1+1
 5383 22ca C090 0000 		lds r12,dec_ph1+2
 5384 22ce D090 0000 		lds r13,dec_ph1+3
 5385 22d2 E090 0000 		lds r14,dec_ph
 5386 22d6 F090 0000 		lds r15,dec_ph+1
 5387 22da 0091 0000 		lds r16,dec_ph+2
 5388 22de 1091 0000 		lds r17,dec_ph+3
 5389 22e2 2091 0000 		lds r18,dec_ah2
 5390 22e6 3091 0000 		lds r19,dec_ah2+1
 5391 22ea 4091 0000 		lds r20,dec_ah2+2
 5392 22ee 5091 0000 		lds r21,dec_ah2+3
 5393 22f2 6090 0000 		lds r6,dec_ah1
 5394 22f6 7090 0000 		lds r7,dec_ah1+1
 5395 22fa 8090 0000 		lds r8,dec_ah1+2
 5396 22fe 9090 0000 		lds r9,dec_ah1+3
 5397 2302 6B2F      		mov r22,r27
 5398 2304 6F93      		push r22
 5399 2306 6A2F      		mov r22,r26
 5400 2308 6F93      		push r22
 5401 230a 692F      		mov r22,r25
 5402 230c 6F93      		push r22
 5403 230e 8F93      		push r24
 5404 2310 C401      		movw r24,r8
 5405 2312 B301      		movw r22,r6
 5406 2314 0E94 0000 		call uppol2
 5407 2318 0F90      		pop __tmp_reg__
 5408 231a 0F90      		pop __tmp_reg__
 5409 231c 0F90      		pop __tmp_reg__
 5410 231e 0F90      		pop __tmp_reg__
 5411 2320 DC01      		movw r26,r24
 5412 2322 CB01      		movw r24,r22
 5413 2324 8093 0000 		sts dec_ah2,r24
 5414 2328 9093 0000 		sts dec_ah2+1,r25
 5415 232c A093 0000 		sts dec_ah2+2,r26
 5416 2330 B093 0000 		sts dec_ah2+3,r27
 557:adpcm.c       **** 
 558:adpcm.c       **** /* uppol1: update first predictor coef. (pole setion) */
 559:adpcm.c       ****     dec_ah1 = uppol1(dec_ah1,dec_ah2,dec_ph,dec_ph1);
 5417               		.loc 1 559 0
 5418 2334 A090 0000 		lds r10,dec_ph1
 5419 2338 B090 0000 		lds r11,dec_ph1+1
 5420 233c C090 0000 		lds r12,dec_ph1+2
 5421 2340 D090 0000 		lds r13,dec_ph1+3
 5422 2344 E090 0000 		lds r14,dec_ph
 5423 2348 F090 0000 		lds r15,dec_ph+1
 5424 234c 0091 0000 		lds r16,dec_ph+2
 5425 2350 1091 0000 		lds r17,dec_ph+3
 5426 2354 2091 0000 		lds r18,dec_ah2
 5427 2358 3091 0000 		lds r19,dec_ah2+1
 5428 235c 4091 0000 		lds r20,dec_ah2+2
 5429 2360 5091 0000 		lds r21,dec_ah2+3
 5430 2364 8091 0000 		lds r24,dec_ah1
 5431 2368 9091 0000 		lds r25,dec_ah1+1
 5432 236c A091 0000 		lds r26,dec_ah1+2
 5433 2370 B091 0000 		lds r27,dec_ah1+3
 5434 2374 BC01      		movw r22,r24
 5435 2376 CD01      		movw r24,r26
 5436 2378 0E94 0000 		call uppol1
 5437 237c DC01      		movw r26,r24
 5438 237e CB01      		movw r24,r22
 5439 2380 8093 0000 		sts dec_ah1,r24
 5440 2384 9093 0000 		sts dec_ah1+1,r25
 5441 2388 A093 0000 		sts dec_ah1+2,r26
 5442 238c B093 0000 		sts dec_ah1+3,r27
 560:adpcm.c       **** 
 561:adpcm.c       **** /* recons : compute recontructed signal for adaptive predictor */
 562:adpcm.c       ****     rh = dec_sh + dec_dh;
 5443               		.loc 1 562 0
 5444 2390 2091 0000 		lds r18,dec_sh
 5445 2394 3091 0000 		lds r19,dec_sh+1
 5446 2398 4091 0000 		lds r20,dec_sh+2
 5447 239c 5091 0000 		lds r21,dec_sh+3
 5448 23a0 8091 0000 		lds r24,dec_dh
 5449 23a4 9091 0000 		lds r25,dec_dh+1
 5450 23a8 A091 0000 		lds r26,dec_dh+2
 5451 23ac B091 0000 		lds r27,dec_dh+3
 5452 23b0 820F      		add r24,r18
 5453 23b2 931F      		adc r25,r19
 5454 23b4 A41F      		adc r26,r20
 5455 23b6 B51F      		adc r27,r21
 5456 23b8 8093 0000 		sts rh,r24
 5457 23bc 9093 0000 		sts rh+1,r25
 5458 23c0 A093 0000 		sts rh+2,r26
 5459 23c4 B093 0000 		sts rh+3,r27
 563:adpcm.c       **** 
 564:adpcm.c       **** /* done with high band decode, implementing delays for next time here */
 565:adpcm.c       ****     dec_rh2 = dec_rh1;
 5460               		.loc 1 565 0
 5461 23c8 8091 0000 		lds r24,dec_rh1
 5462 23cc 9091 0000 		lds r25,dec_rh1+1
 5463 23d0 A091 0000 		lds r26,dec_rh1+2
 5464 23d4 B091 0000 		lds r27,dec_rh1+3
 5465 23d8 8093 0000 		sts dec_rh2,r24
 5466 23dc 9093 0000 		sts dec_rh2+1,r25
 5467 23e0 A093 0000 		sts dec_rh2+2,r26
 5468 23e4 B093 0000 		sts dec_rh2+3,r27
 566:adpcm.c       ****     dec_rh1 = rh;
 5469               		.loc 1 566 0
 5470 23e8 8091 0000 		lds r24,rh
 5471 23ec 9091 0000 		lds r25,rh+1
 5472 23f0 A091 0000 		lds r26,rh+2
 5473 23f4 B091 0000 		lds r27,rh+3
 5474 23f8 8093 0000 		sts dec_rh1,r24
 5475 23fc 9093 0000 		sts dec_rh1+1,r25
 5476 2400 A093 0000 		sts dec_rh1+2,r26
 5477 2404 B093 0000 		sts dec_rh1+3,r27
 567:adpcm.c       ****     dec_ph2 = dec_ph1;
 5478               		.loc 1 567 0
 5479 2408 8091 0000 		lds r24,dec_ph1
 5480 240c 9091 0000 		lds r25,dec_ph1+1
 5481 2410 A091 0000 		lds r26,dec_ph1+2
 5482 2414 B091 0000 		lds r27,dec_ph1+3
 5483 2418 8093 0000 		sts dec_ph2,r24
 5484 241c 9093 0000 		sts dec_ph2+1,r25
 5485 2420 A093 0000 		sts dec_ph2+2,r26
 5486 2424 B093 0000 		sts dec_ph2+3,r27
 568:adpcm.c       ****     dec_ph1 = dec_ph;
 5487               		.loc 1 568 0
 5488 2428 8091 0000 		lds r24,dec_ph
 5489 242c 9091 0000 		lds r25,dec_ph+1
 5490 2430 A091 0000 		lds r26,dec_ph+2
 5491 2434 B091 0000 		lds r27,dec_ph+3
 5492 2438 8093 0000 		sts dec_ph1,r24
 5493 243c 9093 0000 		sts dec_ph1+1,r25
 5494 2440 A093 0000 		sts dec_ph1+2,r26
 5495 2444 B093 0000 		sts dec_ph1+3,r27
 569:adpcm.c       **** 
 570:adpcm.c       **** /* end of higher sub_band decoder */
 571:adpcm.c       **** 
 572:adpcm.c       **** /* end with receive quadrature mirror filters */
 573:adpcm.c       ****     xd = rl - rh;
 5496               		.loc 1 573 0
 5497 2448 2091 0000 		lds r18,rl
 5498 244c 3091 0000 		lds r19,rl+1
 5499 2450 4091 0000 		lds r20,rl+2
 5500 2454 5091 0000 		lds r21,rl+3
 5501 2458 8091 0000 		lds r24,rh
 5502 245c 9091 0000 		lds r25,rh+1
 5503 2460 A091 0000 		lds r26,rh+2
 5504 2464 B091 0000 		lds r27,rh+3
 5505 2468 7901      		movw r14,r18
 5506 246a 8A01      		movw r16,r20
 5507 246c E81A      		sub r14,r24
 5508 246e F90A      		sbc r15,r25
 5509 2470 0A0B      		sbc r16,r26
 5510 2472 1B0B      		sbc r17,r27
 5511 2474 D801      		movw r26,r16
 5512 2476 C701      		movw r24,r14
 5513 2478 8093 0000 		sts xd,r24
 5514 247c 9093 0000 		sts xd+1,r25
 5515 2480 A093 0000 		sts xd+2,r26
 5516 2484 B093 0000 		sts xd+3,r27
 574:adpcm.c       ****     xs = rl + rh;
 5517               		.loc 1 574 0
 5518 2488 2091 0000 		lds r18,rl
 5519 248c 3091 0000 		lds r19,rl+1
 5520 2490 4091 0000 		lds r20,rl+2
 5521 2494 5091 0000 		lds r21,rl+3
 5522 2498 8091 0000 		lds r24,rh
 5523 249c 9091 0000 		lds r25,rh+1
 5524 24a0 A091 0000 		lds r26,rh+2
 5525 24a4 B091 0000 		lds r27,rh+3
 5526 24a8 820F      		add r24,r18
 5527 24aa 931F      		adc r25,r19
 5528 24ac A41F      		adc r26,r20
 5529 24ae B51F      		adc r27,r21
 5530 24b0 8093 0000 		sts xs,r24
 5531 24b4 9093 0000 		sts xs+1,r25
 5532 24b8 A093 0000 		sts xs+2,r26
 5533 24bc B093 0000 		sts xs+3,r27
 575:adpcm.c       **** 
 576:adpcm.c       **** /* receive quadrature mirror filters implemented here */
 577:adpcm.c       ****     h_ptr = h;
 5534               		.loc 1 577 0
 5535 24c0 80E0      		ldi r24,lo8(h)
 5536 24c2 90E0      		ldi r25,hi8(h)
 5537 24c4 9E8B      		std Y+22,r25
 5538 24c6 8D8B      		std Y+21,r24
 578:adpcm.c       ****     ac_ptr = accumc;
 5539               		.loc 1 578 0
 5540 24c8 80E0      		ldi r24,lo8(accumc)
 5541 24ca 90E0      		ldi r25,hi8(accumc)
 5542 24cc 988F      		std Y+24,r25
 5543 24ce 8F8B      		std Y+23,r24
 579:adpcm.c       ****     ad_ptr = accumd;
 5544               		.loc 1 579 0
 5545 24d0 80E0      		ldi r24,lo8(accumd)
 5546 24d2 90E0      		ldi r25,hi8(accumd)
 5547 24d4 9C8F      		std Y+28,r25
 5548 24d6 8B8F      		std Y+27,r24
 580:adpcm.c       ****     xa1 = (int64_t)xd * (*h_ptr++);
 5549               		.loc 1 580 0
 5550 24d8 8091 0000 		lds r24,xd
 5551 24dc 9091 0000 		lds r25,xd+1
 5552 24e0 A091 0000 		lds r26,xd+2
 5553 24e4 B091 0000 		lds r27,xd+3
 5554 24e8 2F96      		adiw r28,75-60
 5555 24ea 8CAF      		std Y+60,r24
 5556 24ec 9DAF      		std Y+61,r25
 5557 24ee AEAF      		std Y+62,r26
 5558 24f0 BFAF      		std Y+63,r27
 5559 24f2 2F97      		sbiw r28,75-60
 5560 24f4 BB0F      		lsl r27
 5561 24f6 880B      		sbc r24,r24
 5562 24f8 982F      		mov r25,r24
 5563 24fa DC01      		movw r26,r24
 5564 24fc 6096      		adiw r28,79-63
 5565 24fe 8FAF      		std Y+63,r24
 5566 2500 6097      		sbiw r28,79-63
 5567 2502 6196      		adiw r28,80-63
 5568 2504 8FAF      		std Y+63,r24
 5569 2506 6197      		sbiw r28,80-63
 5570 2508 6296      		adiw r28,81-63
 5571 250a 8FAF      		std Y+63,r24
 5572 250c 6297      		sbiw r28,81-63
 5573 250e 6396      		adiw r28,82-63
 5574 2510 8FAF      		std Y+63,r24
 5575 2512 6397      		sbiw r28,82-63
 5576 2514 2D89      		ldd r18,Y+21
 5577 2516 3E89      		ldd r19,Y+22
 5578 2518 C901      		movw r24,r18
 5579 251a 0496      		adiw r24,4
 5580 251c 9E8B      		std Y+22,r25
 5581 251e 8D8B      		std Y+21,r24
 5582 2520 F901      		movw r30,r18
 5583 2522 8081      		ld r24,Z
 5584 2524 9181      		ldd r25,Z+1
 5585 2526 A281      		ldd r26,Z+2
 5586 2528 B381      		ldd r27,Z+3
 5587 252a 6796      		adiw r28,83-60
 5588 252c 8CAF      		std Y+60,r24
 5589 252e 9DAF      		std Y+61,r25
 5590 2530 AEAF      		std Y+62,r26
 5591 2532 BFAF      		std Y+63,r27
 5592 2534 6797      		sbiw r28,83-60
 5593 2536 BB0F      		lsl r27
 5594 2538 880B      		sbc r24,r24
 5595 253a 982F      		mov r25,r24
 5596 253c DC01      		movw r26,r24
 5597 253e 6896      		adiw r28,87-63
 5598 2540 8FAF      		std Y+63,r24
 5599 2542 6897      		sbiw r28,87-63
 5600 2544 6996      		adiw r28,88-63
 5601 2546 8FAF      		std Y+63,r24
 5602 2548 6997      		sbiw r28,88-63
 5603 254a 6A96      		adiw r28,89-63
 5604 254c 8FAF      		std Y+63,r24
 5605 254e 6A97      		sbiw r28,89-63
 5606 2550 6B96      		adiw r28,90-63
 5607 2552 8FAF      		std Y+63,r24
 5608 2554 6B97      		sbiw r28,90-63
 5609 2556 6496      		adiw r28,83-63
 5610 2558 AFAC      		ldd r10,Y+63
 5611 255a 6497      		sbiw r28,83-63
 5612 255c 6596      		adiw r28,84-63
 5613 255e BFAC      		ldd r11,Y+63
 5614 2560 6597      		sbiw r28,84-63
 5615 2562 6696      		adiw r28,85-63
 5616 2564 CFAC      		ldd r12,Y+63
 5617 2566 6697      		sbiw r28,85-63
 5618 2568 6796      		adiw r28,86-63
 5619 256a DFAC      		ldd r13,Y+63
 5620 256c 6797      		sbiw r28,86-63
 5621 256e 6896      		adiw r28,87-63
 5622 2570 EFAC      		ldd r14,Y+63
 5623 2572 6897      		sbiw r28,87-63
 5624 2574 6996      		adiw r28,88-63
 5625 2576 FFAC      		ldd r15,Y+63
 5626 2578 6997      		sbiw r28,88-63
 5627 257a 6A96      		adiw r28,89-63
 5628 257c 0FAD      		ldd r16,Y+63
 5629 257e 6A97      		sbiw r28,89-63
 5630 2580 6B96      		adiw r28,90-63
 5631 2582 1FAD      		ldd r17,Y+63
 5632 2584 6B97      		sbiw r28,90-63
 5633 2586 2C96      		adiw r28,75-63
 5634 2588 2FAD      		ldd r18,Y+63
 5635 258a 2C97      		sbiw r28,75-63
 5636 258c 2D96      		adiw r28,76-63
 5637 258e 3FAD      		ldd r19,Y+63
 5638 2590 2D97      		sbiw r28,76-63
 5639 2592 2E96      		adiw r28,77-63
 5640 2594 4FAD      		ldd r20,Y+63
 5641 2596 2E97      		sbiw r28,77-63
 5642 2598 2F96      		adiw r28,78-63
 5643 259a 5FAD      		ldd r21,Y+63
 5644 259c 2F97      		sbiw r28,78-63
 5645 259e 6096      		adiw r28,79-63
 5646 25a0 6FAD      		ldd r22,Y+63
 5647 25a2 6097      		sbiw r28,79-63
 5648 25a4 6196      		adiw r28,80-63
 5649 25a6 7FAD      		ldd r23,Y+63
 5650 25a8 6197      		sbiw r28,80-63
 5651 25aa 6296      		adiw r28,81-63
 5652 25ac 8FAD      		ldd r24,Y+63
 5653 25ae 6297      		sbiw r28,81-63
 5654 25b0 6396      		adiw r28,82-63
 5655 25b2 9FAD      		ldd r25,Y+63
 5656 25b4 6397      		sbiw r28,82-63
 5657 25b6 0E94 0000 		call __muldi3
 5658 25ba A22E      		mov r10,r18
 5659 25bc B32E      		mov r11,r19
 5660 25be C42E      		mov r12,r20
 5661 25c0 D52E      		mov r13,r21
 5662 25c2 E62E      		mov r14,r22
 5663 25c4 F72E      		mov r15,r23
 5664 25c6 082F      		mov r16,r24
 5665 25c8 192F      		mov r17,r25
 5666 25ca AD82      		std Y+5,r10
 5667 25cc BE82      		std Y+6,r11
 5668 25ce CF82      		std Y+7,r12
 5669 25d0 D886      		std Y+8,r13
 5670 25d2 E986      		std Y+9,r14
 5671 25d4 FA86      		std Y+10,r15
 5672 25d6 0B87      		std Y+11,r16
 5673 25d8 1C87      		std Y+12,r17
 581:adpcm.c       ****     xa2 = (int64_t)xs * (*h_ptr++);
 5674               		.loc 1 581 0
 5675 25da 8091 0000 		lds r24,xs
 5676 25de 9091 0000 		lds r25,xs+1
 5677 25e2 A091 0000 		lds r26,xs+2
 5678 25e6 B091 0000 		lds r27,xs+3
 5679 25ea 6F96      		adiw r28,91-60
 5680 25ec 8CAF      		std Y+60,r24
 5681 25ee 9DAF      		std Y+61,r25
 5682 25f0 AEAF      		std Y+62,r26
 5683 25f2 BFAF      		std Y+63,r27
 5684 25f4 6F97      		sbiw r28,91-60
 5685 25f6 BB0F      		lsl r27
 5686 25f8 880B      		sbc r24,r24
 5687 25fa 982F      		mov r25,r24
 5688 25fc DC01      		movw r26,r24
 5689 25fe A096      		adiw r28,95-63
 5690 2600 8FAF      		std Y+63,r24
 5691 2602 A097      		sbiw r28,95-63
 5692 2604 A196      		adiw r28,96-63
 5693 2606 8FAF      		std Y+63,r24
 5694 2608 A197      		sbiw r28,96-63
 5695 260a A296      		adiw r28,97-63
 5696 260c 8FAF      		std Y+63,r24
 5697 260e A297      		sbiw r28,97-63
 5698 2610 A396      		adiw r28,98-63
 5699 2612 8FAF      		std Y+63,r24
 5700 2614 A397      		sbiw r28,98-63
 5701 2616 2D89      		ldd r18,Y+21
 5702 2618 3E89      		ldd r19,Y+22
 5703 261a C901      		movw r24,r18
 5704 261c 0496      		adiw r24,4
 5705 261e 9E8B      		std Y+22,r25
 5706 2620 8D8B      		std Y+21,r24
 5707 2622 F901      		movw r30,r18
 5708 2624 8081      		ld r24,Z
 5709 2626 9181      		ldd r25,Z+1
 5710 2628 A281      		ldd r26,Z+2
 5711 262a B381      		ldd r27,Z+3
 5712 262c A796      		adiw r28,99-60
 5713 262e 8CAF      		std Y+60,r24
 5714 2630 9DAF      		std Y+61,r25
 5715 2632 AEAF      		std Y+62,r26
 5716 2634 BFAF      		std Y+63,r27
 5717 2636 A797      		sbiw r28,99-60
 5718 2638 BB0F      		lsl r27
 5719 263a 880B      		sbc r24,r24
 5720 263c 982F      		mov r25,r24
 5721 263e DC01      		movw r26,r24
 5722 2640 A896      		adiw r28,103-63
 5723 2642 8FAF      		std Y+63,r24
 5724 2644 A897      		sbiw r28,103-63
 5725 2646 A996      		adiw r28,104-63
 5726 2648 8FAF      		std Y+63,r24
 5727 264a A997      		sbiw r28,104-63
 5728 264c AA96      		adiw r28,105-63
 5729 264e 8FAF      		std Y+63,r24
 5730 2650 AA97      		sbiw r28,105-63
 5731 2652 AB96      		adiw r28,106-63
 5732 2654 8FAF      		std Y+63,r24
 5733 2656 AB97      		sbiw r28,106-63
 5734 2658 A496      		adiw r28,99-63
 5735 265a AFAC      		ldd r10,Y+63
 5736 265c A497      		sbiw r28,99-63
 5737 265e A596      		adiw r28,100-63
 5738 2660 BFAC      		ldd r11,Y+63
 5739 2662 A597      		sbiw r28,100-63
 5740 2664 A696      		adiw r28,101-63
 5741 2666 CFAC      		ldd r12,Y+63
 5742 2668 A697      		sbiw r28,101-63
 5743 266a A796      		adiw r28,102-63
 5744 266c DFAC      		ldd r13,Y+63
 5745 266e A797      		sbiw r28,102-63
 5746 2670 A896      		adiw r28,103-63
 5747 2672 EFAC      		ldd r14,Y+63
 5748 2674 A897      		sbiw r28,103-63
 5749 2676 A996      		adiw r28,104-63
 5750 2678 FFAC      		ldd r15,Y+63
 5751 267a A997      		sbiw r28,104-63
 5752 267c AA96      		adiw r28,105-63
 5753 267e 0FAD      		ldd r16,Y+63
 5754 2680 AA97      		sbiw r28,105-63
 5755 2682 AB96      		adiw r28,106-63
 5756 2684 1FAD      		ldd r17,Y+63
 5757 2686 AB97      		sbiw r28,106-63
 5758 2688 6C96      		adiw r28,91-63
 5759 268a 2FAD      		ldd r18,Y+63
 5760 268c 6C97      		sbiw r28,91-63
 5761 268e 6D96      		adiw r28,92-63
 5762 2690 3FAD      		ldd r19,Y+63
 5763 2692 6D97      		sbiw r28,92-63
 5764 2694 6E96      		adiw r28,93-63
 5765 2696 4FAD      		ldd r20,Y+63
 5766 2698 6E97      		sbiw r28,93-63
 5767 269a 6F96      		adiw r28,94-63
 5768 269c 5FAD      		ldd r21,Y+63
 5769 269e 6F97      		sbiw r28,94-63
 5770 26a0 A096      		adiw r28,95-63
 5771 26a2 6FAD      		ldd r22,Y+63
 5772 26a4 A097      		sbiw r28,95-63
 5773 26a6 A196      		adiw r28,96-63
 5774 26a8 7FAD      		ldd r23,Y+63
 5775 26aa A197      		sbiw r28,96-63
 5776 26ac A296      		adiw r28,97-63
 5777 26ae 8FAD      		ldd r24,Y+63
 5778 26b0 A297      		sbiw r28,97-63
 5779 26b2 A396      		adiw r28,98-63
 5780 26b4 9FAD      		ldd r25,Y+63
 5781 26b6 A397      		sbiw r28,98-63
 5782 26b8 0E94 0000 		call __muldi3
 5783 26bc A22E      		mov r10,r18
 5784 26be B32E      		mov r11,r19
 5785 26c0 C42E      		mov r12,r20
 5786 26c2 D52E      		mov r13,r21
 5787 26c4 E62E      		mov r14,r22
 5788 26c6 F72E      		mov r15,r23
 5789 26c8 082F      		mov r16,r24
 5790 26ca 192F      		mov r17,r25
 5791 26cc AD86      		std Y+13,r10
 5792 26ce BE86      		std Y+14,r11
 5793 26d0 CF86      		std Y+15,r12
 5794 26d2 D88A      		std Y+16,r13
 5795 26d4 E98A      		std Y+17,r14
 5796 26d6 FA8A      		std Y+18,r15
 5797 26d8 0B8B      		std Y+19,r16
 5798 26da 1C8B      		std Y+20,r17
 582:adpcm.c       **** /* main multiply accumulate loop for samples and coefficients */
 583:adpcm.c       ****     for(i = 0 ; i < 10 ; i++) {
 5799               		.loc 1 583 0
 5800 26dc 1982      		std Y+1,__zero_reg__
 5801 26de 1A82      		std Y+2,__zero_reg__
 5802 26e0 1B82      		std Y+3,__zero_reg__
 5803 26e2 1C82      		std Y+4,__zero_reg__
 5804 26e4 00C0      		rjmp .L29
 5805               	.L30:
 584:adpcm.c       ****         xa1 += (int64_t)(*ac_ptr++) * (*h_ptr++);
 5806               		.loc 1 584 0 discriminator 2
 5807 26e6 2F89      		ldd r18,Y+23
 5808 26e8 388D      		ldd r19,Y+24
 5809 26ea C901      		movw r24,r18
 5810 26ec 0496      		adiw r24,4
 5811 26ee 988F      		std Y+24,r25
 5812 26f0 8F8B      		std Y+23,r24
 5813 26f2 F901      		movw r30,r18
 5814 26f4 8081      		ld r24,Z
 5815 26f6 9181      		ldd r25,Z+1
 5816 26f8 A281      		ldd r26,Z+2
 5817 26fa B381      		ldd r27,Z+3
 5818 26fc AF96      		adiw r28,107-60
 5819 26fe 8CAF      		std Y+60,r24
 5820 2700 9DAF      		std Y+61,r25
 5821 2702 AEAF      		std Y+62,r26
 5822 2704 BFAF      		std Y+63,r27
 5823 2706 AF97      		sbiw r28,107-60
 5824 2708 BB0F      		lsl r27
 5825 270a 880B      		sbc r24,r24
 5826 270c 982F      		mov r25,r24
 5827 270e DC01      		movw r26,r24
 5828 2710 E096      		adiw r28,111-63
 5829 2712 8FAF      		std Y+63,r24
 5830 2714 E097      		sbiw r28,111-63
 5831 2716 E196      		adiw r28,112-63
 5832 2718 8FAF      		std Y+63,r24
 5833 271a E197      		sbiw r28,112-63
 5834 271c E296      		adiw r28,113-63
 5835 271e 8FAF      		std Y+63,r24
 5836 2720 E297      		sbiw r28,113-63
 5837 2722 E396      		adiw r28,114-63
 5838 2724 8FAF      		std Y+63,r24
 5839 2726 E397      		sbiw r28,114-63
 5840 2728 2D89      		ldd r18,Y+21
 5841 272a 3E89      		ldd r19,Y+22
 5842 272c C901      		movw r24,r18
 5843 272e 0496      		adiw r24,4
 5844 2730 9E8B      		std Y+22,r25
 5845 2732 8D8B      		std Y+21,r24
 5846 2734 F901      		movw r30,r18
 5847 2736 8081      		ld r24,Z
 5848 2738 9181      		ldd r25,Z+1
 5849 273a A281      		ldd r26,Z+2
 5850 273c B381      		ldd r27,Z+3
 5851 273e E796      		adiw r28,115-60
 5852 2740 8CAF      		std Y+60,r24
 5853 2742 9DAF      		std Y+61,r25
 5854 2744 AEAF      		std Y+62,r26
 5855 2746 BFAF      		std Y+63,r27
 5856 2748 E797      		sbiw r28,115-60
 5857 274a BB0F      		lsl r27
 5858 274c 880B      		sbc r24,r24
 5859 274e 982F      		mov r25,r24
 5860 2750 DC01      		movw r26,r24
 5861 2752 E896      		adiw r28,119-63
 5862 2754 8FAF      		std Y+63,r24
 5863 2756 E897      		sbiw r28,119-63
 5864 2758 E996      		adiw r28,120-63
 5865 275a 8FAF      		std Y+63,r24
 5866 275c E997      		sbiw r28,120-63
 5867 275e EA96      		adiw r28,121-63
 5868 2760 8FAF      		std Y+63,r24
 5869 2762 EA97      		sbiw r28,121-63
 5870 2764 EB96      		adiw r28,122-63
 5871 2766 8FAF      		std Y+63,r24
 5872 2768 EB97      		sbiw r28,122-63
 5873 276a E496      		adiw r28,115-63
 5874 276c AFAC      		ldd r10,Y+63
 5875 276e E497      		sbiw r28,115-63
 5876 2770 E596      		adiw r28,116-63
 5877 2772 BFAC      		ldd r11,Y+63
 5878 2774 E597      		sbiw r28,116-63
 5879 2776 E696      		adiw r28,117-63
 5880 2778 CFAC      		ldd r12,Y+63
 5881 277a E697      		sbiw r28,117-63
 5882 277c E796      		adiw r28,118-63
 5883 277e DFAC      		ldd r13,Y+63
 5884 2780 E797      		sbiw r28,118-63
 5885 2782 E896      		adiw r28,119-63
 5886 2784 EFAC      		ldd r14,Y+63
 5887 2786 E897      		sbiw r28,119-63
 5888 2788 E996      		adiw r28,120-63
 5889 278a FFAC      		ldd r15,Y+63
 5890 278c E997      		sbiw r28,120-63
 5891 278e EA96      		adiw r28,121-63
 5892 2790 0FAD      		ldd r16,Y+63
 5893 2792 EA97      		sbiw r28,121-63
 5894 2794 EB96      		adiw r28,122-63
 5895 2796 1FAD      		ldd r17,Y+63
 5896 2798 EB97      		sbiw r28,122-63
 5897 279a AC96      		adiw r28,107-63
 5898 279c 2FAD      		ldd r18,Y+63
 5899 279e AC97      		sbiw r28,107-63
 5900 27a0 AD96      		adiw r28,108-63
 5901 27a2 3FAD      		ldd r19,Y+63
 5902 27a4 AD97      		sbiw r28,108-63
 5903 27a6 AE96      		adiw r28,109-63
 5904 27a8 4FAD      		ldd r20,Y+63
 5905 27aa AE97      		sbiw r28,109-63
 5906 27ac AF96      		adiw r28,110-63
 5907 27ae 5FAD      		ldd r21,Y+63
 5908 27b0 AF97      		sbiw r28,110-63
 5909 27b2 E096      		adiw r28,111-63
 5910 27b4 6FAD      		ldd r22,Y+63
 5911 27b6 E097      		sbiw r28,111-63
 5912 27b8 E196      		adiw r28,112-63
 5913 27ba 7FAD      		ldd r23,Y+63
 5914 27bc E197      		sbiw r28,112-63
 5915 27be E296      		adiw r28,113-63
 5916 27c0 8FAD      		ldd r24,Y+63
 5917 27c2 E297      		sbiw r28,113-63
 5918 27c4 E396      		adiw r28,114-63
 5919 27c6 9FAD      		ldd r25,Y+63
 5920 27c8 E397      		sbiw r28,114-63
 5921 27ca 0E94 0000 		call __muldi3
 5922 27ce 222E      		mov r2,r18
 5923 27d0 332E      		mov r3,r19
 5924 27d2 442E      		mov r4,r20
 5925 27d4 552E      		mov r5,r21
 5926 27d6 662E      		mov r6,r22
 5927 27d8 772E      		mov r7,r23
 5928 27da 882E      		mov r8,r24
 5929 27dc 992E      		mov r9,r25
 5930 27de A22C      		mov r10,r2
 5931 27e0 B32C      		mov r11,r3
 5932 27e2 C42C      		mov r12,r4
 5933 27e4 D52C      		mov r13,r5
 5934 27e6 E62C      		mov r14,r6
 5935 27e8 F72C      		mov r15,r7
 5936 27ea 082D      		mov r16,r8
 5937 27ec 192D      		mov r17,r9
 5938 27ee 2A2D      		mov r18,r10
 5939 27f0 3B2D      		mov r19,r11
 5940 27f2 4C2D      		mov r20,r12
 5941 27f4 5D2D      		mov r21,r13
 5942 27f6 6E2D      		mov r22,r14
 5943 27f8 7F2D      		mov r23,r15
 5944 27fa 802F      		mov r24,r16
 5945 27fc 912F      		mov r25,r17
 5946 27fe AD80      		ldd r10,Y+5
 5947 2800 BE80      		ldd r11,Y+6
 5948 2802 CF80      		ldd r12,Y+7
 5949 2804 D884      		ldd r13,Y+8
 5950 2806 E984      		ldd r14,Y+9
 5951 2808 FA84      		ldd r15,Y+10
 5952 280a 0B85      		ldd r16,Y+11
 5953 280c 1C85      		ldd r17,Y+12
 5954 280e 0E94 0000 		call __adddi3
 5955 2812 A22E      		mov r10,r18
 5956 2814 B32E      		mov r11,r19
 5957 2816 C42E      		mov r12,r20
 5958 2818 D52E      		mov r13,r21
 5959 281a E62E      		mov r14,r22
 5960 281c F72E      		mov r15,r23
 5961 281e 082F      		mov r16,r24
 5962 2820 192F      		mov r17,r25
 5963 2822 AD82      		std Y+5,r10
 5964 2824 BE82      		std Y+6,r11
 5965 2826 CF82      		std Y+7,r12
 5966 2828 D886      		std Y+8,r13
 5967 282a E986      		std Y+9,r14
 5968 282c FA86      		std Y+10,r15
 5969 282e 0B87      		std Y+11,r16
 5970 2830 1C87      		std Y+12,r17
 585:adpcm.c       ****         xa2 += (int64_t)(*ad_ptr++) * (*h_ptr++);
 5971               		.loc 1 585 0 discriminator 2
 5972 2832 2B8D      		ldd r18,Y+27
 5973 2834 3C8D      		ldd r19,Y+28
 5974 2836 C901      		movw r24,r18
 5975 2838 0496      		adiw r24,4
 5976 283a 9C8F      		std Y+28,r25
 5977 283c 8B8F      		std Y+27,r24
 5978 283e F901      		movw r30,r18
 5979 2840 8081      		ld r24,Z
 5980 2842 9181      		ldd r25,Z+1
 5981 2844 A281      		ldd r26,Z+2
 5982 2846 B381      		ldd r27,Z+3
 5983 2848 EF96      		adiw r28,123-60
 5984 284a 8CAF      		std Y+60,r24
 5985 284c 9DAF      		std Y+61,r25
 5986 284e AEAF      		std Y+62,r26
 5987 2850 BFAF      		std Y+63,r27
 5988 2852 EF97      		sbiw r28,123-60
 5989 2854 BB0F      		lsl r27
 5990 2856 880B      		sbc r24,r24
 5991 2858 982F      		mov r25,r24
 5992 285a DC01      		movw r26,r24
 5993 285c C158      		subi r28,lo8(-127)
 5994 285e DF4F      		sbci r29,hi8(-127)
 5995 2860 8883      		st Y,r24
 5996 2862 CF57      		subi r28,lo8(127)
 5997 2864 D040      		sbci r29,hi8(127)
 5998 2866 C058      		subi r28,lo8(-128)
 5999 2868 DF4F      		sbci r29,hi8(-128)
 6000 286a 8883      		st Y,r24
 6001 286c C058      		subi r28,lo8(128)
 6002 286e D040      		sbci r29,hi8(128)
 6003 2870 CF57      		subi r28,lo8(-129)
 6004 2872 DF4F      		sbci r29,hi8(-129)
 6005 2874 8883      		st Y,r24
 6006 2876 C158      		subi r28,lo8(129)
 6007 2878 D040      		sbci r29,hi8(129)
 6008 287a CE57      		subi r28,lo8(-130)
 6009 287c DF4F      		sbci r29,hi8(-130)
 6010 287e 8883      		st Y,r24
 6011 2880 C258      		subi r28,lo8(130)
 6012 2882 D040      		sbci r29,hi8(130)
 6013 2884 2D89      		ldd r18,Y+21
 6014 2886 3E89      		ldd r19,Y+22
 6015 2888 C901      		movw r24,r18
 6016 288a 0496      		adiw r24,4
 6017 288c 9E8B      		std Y+22,r25
 6018 288e 8D8B      		std Y+21,r24
 6019 2890 F901      		movw r30,r18
 6020 2892 8081      		ld r24,Z
 6021 2894 9181      		ldd r25,Z+1
 6022 2896 A281      		ldd r26,Z+2
 6023 2898 B381      		ldd r27,Z+3
 6024 289a CD57      		subi r28,lo8(-131)
 6025 289c DF4F      		sbci r29,hi8(-131)
 6026 289e 8883      		st Y,r24
 6027 28a0 9983      		std Y+1,r25
 6028 28a2 AA83      		std Y+2,r26
 6029 28a4 BB83      		std Y+3,r27
 6030 28a6 C358      		subi r28,lo8(131)
 6031 28a8 D040      		sbci r29,hi8(131)
 6032 28aa BB0F      		lsl r27
 6033 28ac 880B      		sbc r24,r24
 6034 28ae 982F      		mov r25,r24
 6035 28b0 DC01      		movw r26,r24
 6036 28b2 C957      		subi r28,lo8(-135)
 6037 28b4 DF4F      		sbci r29,hi8(-135)
 6038 28b6 8883      		st Y,r24
 6039 28b8 C758      		subi r28,lo8(135)
 6040 28ba D040      		sbci r29,hi8(135)
 6041 28bc C857      		subi r28,lo8(-136)
 6042 28be DF4F      		sbci r29,hi8(-136)
 6043 28c0 8883      		st Y,r24
 6044 28c2 C858      		subi r28,lo8(136)
 6045 28c4 D040      		sbci r29,hi8(136)
 6046 28c6 C757      		subi r28,lo8(-137)
 6047 28c8 DF4F      		sbci r29,hi8(-137)
 6048 28ca 8883      		st Y,r24
 6049 28cc C958      		subi r28,lo8(137)
 6050 28ce D040      		sbci r29,hi8(137)
 6051 28d0 C657      		subi r28,lo8(-138)
 6052 28d2 DF4F      		sbci r29,hi8(-138)
 6053 28d4 8883      		st Y,r24
 6054 28d6 CA58      		subi r28,lo8(138)
 6055 28d8 D040      		sbci r29,hi8(138)
 6056 28da CD57      		subi r28,lo8(-131)
 6057 28dc DF4F      		sbci r29,hi8(-131)
 6058 28de A880      		ld r10,Y
 6059 28e0 C358      		subi r28,lo8(131)
 6060 28e2 D040      		sbci r29,hi8(131)
 6061 28e4 CC57      		subi r28,lo8(-132)
 6062 28e6 DF4F      		sbci r29,hi8(-132)
 6063 28e8 B880      		ld r11,Y
 6064 28ea C458      		subi r28,lo8(132)
 6065 28ec D040      		sbci r29,hi8(132)
 6066 28ee CB57      		subi r28,lo8(-133)
 6067 28f0 DF4F      		sbci r29,hi8(-133)
 6068 28f2 C880      		ld r12,Y
 6069 28f4 C558      		subi r28,lo8(133)
 6070 28f6 D040      		sbci r29,hi8(133)
 6071 28f8 CA57      		subi r28,lo8(-134)
 6072 28fa DF4F      		sbci r29,hi8(-134)
 6073 28fc D880      		ld r13,Y
 6074 28fe C658      		subi r28,lo8(134)
 6075 2900 D040      		sbci r29,hi8(134)
 6076 2902 C957      		subi r28,lo8(-135)
 6077 2904 DF4F      		sbci r29,hi8(-135)
 6078 2906 E880      		ld r14,Y
 6079 2908 C758      		subi r28,lo8(135)
 6080 290a D040      		sbci r29,hi8(135)
 6081 290c C857      		subi r28,lo8(-136)
 6082 290e DF4F      		sbci r29,hi8(-136)
 6083 2910 F880      		ld r15,Y
 6084 2912 C858      		subi r28,lo8(136)
 6085 2914 D040      		sbci r29,hi8(136)
 6086 2916 C757      		subi r28,lo8(-137)
 6087 2918 DF4F      		sbci r29,hi8(-137)
 6088 291a 0881      		ld r16,Y
 6089 291c C958      		subi r28,lo8(137)
 6090 291e D040      		sbci r29,hi8(137)
 6091 2920 C657      		subi r28,lo8(-138)
 6092 2922 DF4F      		sbci r29,hi8(-138)
 6093 2924 1881      		ld r17,Y
 6094 2926 CA58      		subi r28,lo8(138)
 6095 2928 D040      		sbci r29,hi8(138)
 6096 292a EC96      		adiw r28,123-63
 6097 292c 2FAD      		ldd r18,Y+63
 6098 292e EC97      		sbiw r28,123-63
 6099 2930 ED96      		adiw r28,124-63
 6100 2932 3FAD      		ldd r19,Y+63
 6101 2934 ED97      		sbiw r28,124-63
 6102 2936 EE96      		adiw r28,125-63
 6103 2938 4FAD      		ldd r20,Y+63
 6104 293a EE97      		sbiw r28,125-63
 6105 293c EF96      		adiw r28,126-63
 6106 293e 5FAD      		ldd r21,Y+63
 6107 2940 EF97      		sbiw r28,126-63
 6108 2942 C158      		subi r28,lo8(-127)
 6109 2944 DF4F      		sbci r29,hi8(-127)
 6110 2946 6881      		ld r22,Y
 6111 2948 CF57      		subi r28,lo8(127)
 6112 294a D040      		sbci r29,hi8(127)
 6113 294c C058      		subi r28,lo8(-128)
