   1               		.file	"adpcm.c"
   2               	__SP_H__ = 0x3e
   3               	__SP_L__ = 0x3d
   4               	__SREG__ = 0x3f
   5               	__RAMPZ__ = 0x3b
   6               	__tmp_reg__ = 0
   7               	__zero_reg__ = 1
   8               		.text
   9               	.Ltext0:
  10               		.comm	tqmf,96,1
  11               	.global	h
  12               		.data
  15               	h:
  16 0000 0C        		.byte	12
  17 0001 00        		.byte	0
  18 0002 00        		.byte	0
  19 0003 00        		.byte	0
  20 0004 D4        		.byte	-44
  21 0005 FF        		.byte	-1
  22 0006 FF        		.byte	-1
  23 0007 FF        		.byte	-1
  24 0008 D4        		.byte	-44
  25 0009 FF        		.byte	-1
  26 000a FF        		.byte	-1
  27 000b FF        		.byte	-1
  28 000c D4        		.byte	-44
  29 000d 00        		.byte	0
  30 000e 00        		.byte	0
  31 000f 00        		.byte	0
  32 0010 30        		.byte	48
  33 0011 00        		.byte	0
  34 0012 00        		.byte	0
  35 0013 00        		.byte	0
  36 0014 90        		.byte	-112
  37 0015 FD        		.byte	-3
  38 0016 FF        		.byte	-1
  39 0017 FF        		.byte	-1
  40 0018 80        		.byte	-128
  41 0019 00        		.byte	0
  42 001a 00        		.byte	0
  43 001b 00        		.byte	0
  44 001c A8        		.byte	-88
  45 001d 05        		.byte	5
  46 001e 00        		.byte	0
  47 001f 00        		.byte	0
  48 0020 B8        		.byte	-72
  49 0021 FC        		.byte	-4
  50 0022 FF        		.byte	-1
  51 0023 FF        		.byte	-1
  52 0024 6C        		.byte	108
  53 0025 F3        		.byte	-13
  54 0026 FF        		.byte	-1
  55 0027 FF        		.byte	-1
  56 0028 DC        		.byte	-36
  57 0029 0E        		.byte	14
  58 002a 00        		.byte	0
  59 002b 00        		.byte	0
  60 002c 90        		.byte	-112
  61 002d 3C        		.byte	60
  62 002e 00        		.byte	0
  63 002f 00        		.byte	0
  64 0030 90        		.byte	-112
  65 0031 3C        		.byte	60
  66 0032 00        		.byte	0
  67 0033 00        		.byte	0
  68 0034 DC        		.byte	-36
  69 0035 0E        		.byte	14
  70 0036 00        		.byte	0
  71 0037 00        		.byte	0
  72 0038 6C        		.byte	108
  73 0039 F3        		.byte	-13
  74 003a FF        		.byte	-1
  75 003b FF        		.byte	-1
  76 003c B8        		.byte	-72
  77 003d FC        		.byte	-4
  78 003e FF        		.byte	-1
  79 003f FF        		.byte	-1
  80 0040 A8        		.byte	-88
  81 0041 05        		.byte	5
  82 0042 00        		.byte	0
  83 0043 00        		.byte	0
  84 0044 80        		.byte	-128
  85 0045 00        		.byte	0
  86 0046 00        		.byte	0
  87 0047 00        		.byte	0
  88 0048 90        		.byte	-112
  89 0049 FD        		.byte	-3
  90 004a FF        		.byte	-1
  91 004b FF        		.byte	-1
  92 004c 30        		.byte	48
  93 004d 00        		.byte	0
  94 004e 00        		.byte	0
  95 004f 00        		.byte	0
  96 0050 D4        		.byte	-44
  97 0051 00        		.byte	0
  98 0052 00        		.byte	0
  99 0053 00        		.byte	0
 100 0054 D4        		.byte	-44
 101 0055 FF        		.byte	-1
 102 0056 FF        		.byte	-1
 103 0057 FF        		.byte	-1
 104 0058 D4        		.byte	-44
 105 0059 FF        		.byte	-1
 106 005a FF        		.byte	-1
 107 005b FF        		.byte	-1
 108 005c 0C        		.byte	12
 109 005d 00        		.byte	0
 110 005e 00        		.byte	0
 111 005f 00        		.byte	0
 112               		.comm	xl,4,1
 113               		.comm	xh,4,1
 114               		.comm	accumc,44,1
 115               		.comm	accumd,44,1
 116               		.comm	xout1,4,1
 117               		.comm	xout2,4,1
 118               		.comm	xs,4,1
 119               		.comm	xd,4,1
 120               		.comm	il,4,1
 121               		.comm	szl,4,1
 122               		.comm	spl,4,1
 123               		.comm	sl,4,1
 124               		.comm	el,4,1
 125               	.global	qq4_code4_table
 128               	qq4_code4_table:
 129 0060 00        		.byte	0
 130 0061 00        		.byte	0
 131 0062 00        		.byte	0
 132 0063 00        		.byte	0
 133 0064 18        		.byte	24
 134 0065 B0        		.byte	-80
 135 0066 FF        		.byte	-1
 136 0067 FF        		.byte	-1
 137 0068 A0        		.byte	-96
 138 0069 CD        		.byte	-51
 139 006a FF        		.byte	-1
 140 006b FF        		.byte	-1
 141 006c F8        		.byte	-8
 142 006d DC        		.byte	-36
 143 006e FF        		.byte	-1
 144 006f FF        		.byte	-1
 145 0070 70        		.byte	112
 146 0071 E7        		.byte	-25
 147 0072 FF        		.byte	-1
 148 0073 FF        		.byte	-1
 149 0074 70        		.byte	112
 150 0075 EF        		.byte	-17
 151 0076 FF        		.byte	-1
 152 0077 FF        		.byte	-1
 153 0078 E8        		.byte	-24
 154 0079 F5        		.byte	-11
 155 007a FF        		.byte	-1
 156 007b FF        		.byte	-1
 157 007c 50        		.byte	80
 158 007d FB        		.byte	-5
 159 007e FF        		.byte	-1
 160 007f FF        		.byte	-1
 161 0080 E8        		.byte	-24
 162 0081 4F        		.byte	79
 163 0082 00        		.byte	0
 164 0083 00        		.byte	0
 165 0084 60        		.byte	96
 166 0085 32        		.byte	50
 167 0086 00        		.byte	0
 168 0087 00        		.byte	0
 169 0088 08        		.byte	8
 170 0089 23        		.byte	35
 171 008a 00        		.byte	0
 172 008b 00        		.byte	0
 173 008c 90        		.byte	-112
 174 008d 18        		.byte	24
 175 008e 00        		.byte	0
 176 008f 00        		.byte	0
 177 0090 90        		.byte	-112
 178 0091 10        		.byte	16
 179 0092 00        		.byte	0
 180 0093 00        		.byte	0
 181 0094 18        		.byte	24
 182 0095 0A        		.byte	10
 183 0096 00        		.byte	0
 184 0097 00        		.byte	0
 185 0098 B0        		.byte	-80
 186 0099 04        		.byte	4
 187 009a 00        		.byte	0
 188 009b 00        		.byte	0
 189 009c 00        		.byte	0
 190 009d 00        		.byte	0
 191 009e 00        		.byte	0
 192 009f 00        		.byte	0
 193               	.global	qq5_code5_table
 196               	qq5_code5_table:
 197 00a0 E8        		.byte	-24
 198 00a1 FE        		.byte	-2
 199 00a2 FF        		.byte	-1
 200 00a3 FF        		.byte	-1
 201 00a4 E8        		.byte	-24
 202 00a5 FE        		.byte	-2
 203 00a6 FF        		.byte	-1
 204 00a7 FF        		.byte	-1
 205 00a8 C8        		.byte	-56
 206 00a9 A4        		.byte	-92
 207 00aa FF        		.byte	-1
 208 00ab FF        		.byte	-1
 209 00ac 68        		.byte	104
 210 00ad BB        		.byte	-69
 211 00ae FF        		.byte	-1
 212 00af FF        		.byte	-1
 213 00b0 D8        		.byte	-40
 214 00b1 C8        		.byte	-56
 215 00b2 FF        		.byte	-1
 216 00b3 FF        		.byte	-1
 217 00b4 70        		.byte	112
 218 00b5 D2        		.byte	-46
 219 00b6 FF        		.byte	-1
 220 00b7 FF        		.byte	-1
 221 00b8 E8        		.byte	-24
 222 00b9 D9        		.byte	-39
 223 00ba FF        		.byte	-1
 224 00bb FF        		.byte	-1
 225 00bc 08        		.byte	8
 226 00bd E0        		.byte	-32
 227 00be FF        		.byte	-1
 228 00bf FF        		.byte	-1
 229 00c0 30        		.byte	48
 230 00c1 E5        		.byte	-27
 231 00c2 FF        		.byte	-1
 232 00c3 FF        		.byte	-1
 233 00c4 B0        		.byte	-80
 234 00c5 E9        		.byte	-23
 235 00c6 FF        		.byte	-1
 236 00c7 FF        		.byte	-1
 237 00c8 A8        		.byte	-88
 238 00c9 ED        		.byte	-19
 239 00ca FF        		.byte	-1
 240 00cb FF        		.byte	-1
 241 00cc 38        		.byte	56
 242 00cd F1        		.byte	-15
 243 00ce FF        		.byte	-1
 244 00cf FF        		.byte	-1
 245 00d0 70        		.byte	112
 246 00d1 F4        		.byte	-12
 247 00d2 FF        		.byte	-1
 248 00d3 FF        		.byte	-1
 249 00d4 60        		.byte	96
 250 00d5 F7        		.byte	-9
 251 00d6 FF        		.byte	-1
 252 00d7 FF        		.byte	-1
 253 00d8 10        		.byte	16
 254 00d9 FA        		.byte	-6
 255 00da FF        		.byte	-1
 256 00db FF        		.byte	-1
 257 00dc 90        		.byte	-112
 258 00dd FC        		.byte	-4
 259 00de FF        		.byte	-1
 260 00df FF        		.byte	-1
 261 00e0 38        		.byte	56
 262 00e1 5B        		.byte	91
 263 00e2 00        		.byte	0
 264 00e3 00        		.byte	0
 265 00e4 98        		.byte	-104
 266 00e5 44        		.byte	68
 267 00e6 00        		.byte	0
 268 00e7 00        		.byte	0
 269 00e8 28        		.byte	40
 270 00e9 37        		.byte	55
 271 00ea 00        		.byte	0
 272 00eb 00        		.byte	0
 273 00ec 90        		.byte	-112
 274 00ed 2D        		.byte	45
 275 00ee 00        		.byte	0
 276 00ef 00        		.byte	0
 277 00f0 18        		.byte	24
 278 00f1 26        		.byte	38
 279 00f2 00        		.byte	0
 280 00f3 00        		.byte	0
 281 00f4 F8        		.byte	-8
 282 00f5 1F        		.byte	31
 283 00f6 00        		.byte	0
 284 00f7 00        		.byte	0
 285 00f8 D0        		.byte	-48
 286 00f9 1A        		.byte	26
 287 00fa 00        		.byte	0
 288 00fb 00        		.byte	0
 289 00fc 50        		.byte	80
 290 00fd 16        		.byte	22
 291 00fe 00        		.byte	0
 292 00ff 00        		.byte	0
 293 0100 58        		.byte	88
 294 0101 12        		.byte	18
 295 0102 00        		.byte	0
 296 0103 00        		.byte	0
 297 0104 C8        		.byte	-56
 298 0105 0E        		.byte	14
 299 0106 00        		.byte	0
 300 0107 00        		.byte	0
 301 0108 90        		.byte	-112
 302 0109 0B        		.byte	11
 303 010a 00        		.byte	0
 304 010b 00        		.byte	0
 305 010c A0        		.byte	-96
 306 010d 08        		.byte	8
 307 010e 00        		.byte	0
 308 010f 00        		.byte	0
 309 0110 F0        		.byte	-16
 310 0111 05        		.byte	5
 311 0112 00        		.byte	0
 312 0113 00        		.byte	0
 313 0114 70        		.byte	112
 314 0115 03        		.byte	3
 315 0116 00        		.byte	0
 316 0117 00        		.byte	0
 317 0118 18        		.byte	24
 318 0119 01        		.byte	1
 319 011a 00        		.byte	0
 320 011b 00        		.byte	0
 321 011c E8        		.byte	-24
 322 011d FE        		.byte	-2
 323 011e FF        		.byte	-1
 324 011f FF        		.byte	-1
 325               	.global	qq6_code6_table
 328               	qq6_code6_table:
 329 0120 78        		.byte	120
 330 0121 FF        		.byte	-1
 331 0122 FF        		.byte	-1
 332 0123 FF        		.byte	-1
 333 0124 78        		.byte	120
 334 0125 FF        		.byte	-1
 335 0126 FF        		.byte	-1
 336 0127 FF        		.byte	-1
 337 0128 78        		.byte	120
 338 0129 FF        		.byte	-1
 339 012a FF        		.byte	-1
 340 012b FF        		.byte	-1
 341 012c 78        		.byte	120
 342 012d FF        		.byte	-1
 343 012e FF        		.byte	-1
 344 012f FF        		.byte	-1
 345 0130 18        		.byte	24
 346 0131 9F        		.byte	-97
 347 0132 FF        		.byte	-1
 348 0133 FF        		.byte	-1
 349 0134 70        		.byte	112
 350 0135 AA        		.byte	-86
 351 0136 FF        		.byte	-1
 352 0137 FF        		.byte	-1
 353 0138 C0        		.byte	-64
 354 0139 B5        		.byte	-75
 355 013a FF        		.byte	-1
 356 013b FF        		.byte	-1
 357 013c C0        		.byte	-64
 358 013d BE        		.byte	-66
 359 013e FF        		.byte	-1
 360 013f FF        		.byte	-1
 361 0140 78        		.byte	120
 362 0141 C5        		.byte	-59
 363 0142 FF        		.byte	-1
 364 0143 FF        		.byte	-1
 365 0144 38        		.byte	56
 366 0145 CB        		.byte	-53
 367 0146 FF        		.byte	-1
 368 0147 FF        		.byte	-1
 369 0148 08        		.byte	8
 370 0149 D0        		.byte	-48
 371 014a FF        		.byte	-1
 372 014b FF        		.byte	-1
 373 014c 48        		.byte	72
 374 014d D4        		.byte	-44
 375 014e FF        		.byte	-1
 376 014f FF        		.byte	-1
 377 0150 08        		.byte	8
 378 0151 D8        		.byte	-40
 379 0152 FF        		.byte	-1
 380 0153 FF        		.byte	-1
 381 0154 70        		.byte	112
 382 0155 DB        		.byte	-37
 383 0156 FF        		.byte	-1
 384 0157 FF        		.byte	-1
 385 0158 80        		.byte	-128
 386 0159 DE        		.byte	-34
 387 015a FF        		.byte	-1
 388 015b FF        		.byte	-1
 389 015c 50        		.byte	80
 390 015d E1        		.byte	-31
 391 015e FF        		.byte	-1
 392 015f FF        		.byte	-1
 393 0160 E8        		.byte	-24
 394 0161 E3        		.byte	-29
 395 0162 FF        		.byte	-1
 396 0163 FF        		.byte	-1
 397 0164 50        		.byte	80
 398 0165 E6        		.byte	-26
 399 0166 FF        		.byte	-1
 400 0167 FF        		.byte	-1
 401 0168 90        		.byte	-112
 402 0169 E8        		.byte	-24
 403 016a FF        		.byte	-1
 404 016b FF        		.byte	-1
 405 016c B0        		.byte	-80
 406 016d EA        		.byte	-22
 407 016e FF        		.byte	-1
 408 016f FF        		.byte	-1
 409 0170 B0        		.byte	-80
 410 0171 EC        		.byte	-20
 411 0172 FF        		.byte	-1
 412 0173 FF        		.byte	-1
 413 0174 90        		.byte	-112
 414 0175 EE        		.byte	-18
 415 0176 FF        		.byte	-1
 416 0177 FF        		.byte	-1
 417 0178 58        		.byte	88
 418 0179 F0        		.byte	-16
 419 017a FF        		.byte	-1
 420 017b FF        		.byte	-1
 421 017c 08        		.byte	8
 422 017d F2        		.byte	-14
 423 017e FF        		.byte	-1
 424 017f FF        		.byte	-1
 425 0180 A0        		.byte	-96
 426 0181 F3        		.byte	-13
 427 0182 FF        		.byte	-1
 428 0183 FF        		.byte	-1
 429 0184 28        		.byte	40
 430 0185 F5        		.byte	-11
 431 0186 FF        		.byte	-1
 432 0187 FF        		.byte	-1
 433 0188 A0        		.byte	-96
 434 0189 F6        		.byte	-10
 435 018a FF        		.byte	-1
 436 018b FF        		.byte	-1
 437 018c 10        		.byte	16
 438 018d F8        		.byte	-8
 439 018e FF        		.byte	-1
 440 018f FF        		.byte	-1
 441 0190 68        		.byte	104
 442 0191 F9        		.byte	-7
 443 0192 FF        		.byte	-1
 444 0193 FF        		.byte	-1
 445 0194 B0        		.byte	-80
 446 0195 FA        		.byte	-6
 447 0196 FF        		.byte	-1
 448 0197 FF        		.byte	-1
 449 0198 F0        		.byte	-16
 450 0199 FB        		.byte	-5
 451 019a FF        		.byte	-1
 452 019b FF        		.byte	-1
 453 019c 28        		.byte	40
 454 019d FD        		.byte	-3
 455 019e FF        		.byte	-1
 456 019f FF        		.byte	-1
 457 01a0 E8        		.byte	-24
 458 01a1 60        		.byte	96
 459 01a2 00        		.byte	0
 460 01a3 00        		.byte	0
 461 01a4 90        		.byte	-112
 462 01a5 55        		.byte	85
 463 01a6 00        		.byte	0
 464 01a7 00        		.byte	0
 465 01a8 40        		.byte	64
 466 01a9 4A        		.byte	74
 467 01aa 00        		.byte	0
 468 01ab 00        		.byte	0
 469 01ac 40        		.byte	64
 470 01ad 41        		.byte	65
 471 01ae 00        		.byte	0
 472 01af 00        		.byte	0
 473 01b0 88        		.byte	-120
 474 01b1 3A        		.byte	58
 475 01b2 00        		.byte	0
 476 01b3 00        		.byte	0
 477 01b4 C8        		.byte	-56
 478 01b5 34        		.byte	52
 479 01b6 00        		.byte	0
 480 01b7 00        		.byte	0
 481 01b8 F8        		.byte	-8
 482 01b9 2F        		.byte	47
 483 01ba 00        		.byte	0
 484 01bb 00        		.byte	0
 485 01bc B8        		.byte	-72
 486 01bd 2B        		.byte	43
 487 01be 00        		.byte	0
 488 01bf 00        		.byte	0
 489 01c0 F8        		.byte	-8
 490 01c1 27        		.byte	39
 491 01c2 00        		.byte	0
 492 01c3 00        		.byte	0
 493 01c4 90        		.byte	-112
 494 01c5 24        		.byte	36
 495 01c6 00        		.byte	0
 496 01c7 00        		.byte	0
 497 01c8 80        		.byte	-128
 498 01c9 21        		.byte	33
 499 01ca 00        		.byte	0
 500 01cb 00        		.byte	0
 501 01cc B0        		.byte	-80
 502 01cd 1E        		.byte	30
 503 01ce 00        		.byte	0
 504 01cf 00        		.byte	0
 505 01d0 18        		.byte	24
 506 01d1 1C        		.byte	28
 507 01d2 00        		.byte	0
 508 01d3 00        		.byte	0
 509 01d4 B0        		.byte	-80
 510 01d5 19        		.byte	25
 511 01d6 00        		.byte	0
 512 01d7 00        		.byte	0
 513 01d8 70        		.byte	112
 514 01d9 17        		.byte	23
 515 01da 00        		.byte	0
 516 01db 00        		.byte	0
 517 01dc 50        		.byte	80
 518 01dd 15        		.byte	21
 519 01de 00        		.byte	0
 520 01df 00        		.byte	0
 521 01e0 50        		.byte	80
 522 01e1 13        		.byte	19
 523 01e2 00        		.byte	0
 524 01e3 00        		.byte	0
 525 01e4 70        		.byte	112
 526 01e5 11        		.byte	17
 527 01e6 00        		.byte	0
 528 01e7 00        		.byte	0
 529 01e8 A8        		.byte	-88
 530 01e9 0F        		.byte	15
 531 01ea 00        		.byte	0
 532 01eb 00        		.byte	0
 533 01ec F8        		.byte	-8
 534 01ed 0D        		.byte	13
 535 01ee 00        		.byte	0
 536 01ef 00        		.byte	0
 537 01f0 60        		.byte	96
 538 01f1 0C        		.byte	12
 539 01f2 00        		.byte	0
 540 01f3 00        		.byte	0
 541 01f4 D8        		.byte	-40
 542 01f5 0A        		.byte	10
 543 01f6 00        		.byte	0
 544 01f7 00        		.byte	0
 545 01f8 60        		.byte	96
 546 01f9 09        		.byte	9
 547 01fa 00        		.byte	0
 548 01fb 00        		.byte	0
 549 01fc F0        		.byte	-16
 550 01fd 07        		.byte	7
 551 01fe 00        		.byte	0
 552 01ff 00        		.byte	0
 553 0200 98        		.byte	-104
 554 0201 06        		.byte	6
 555 0202 00        		.byte	0
 556 0203 00        		.byte	0
 557 0204 50        		.byte	80
 558 0205 05        		.byte	5
 559 0206 00        		.byte	0
 560 0207 00        		.byte	0
 561 0208 10        		.byte	16
 562 0209 04        		.byte	4
 563 020a 00        		.byte	0
 564 020b 00        		.byte	0
 565 020c D8        		.byte	-40
 566 020d 02        		.byte	2
 567 020e 00        		.byte	0
 568 020f 00        		.byte	0
 569 0210 B0        		.byte	-80
 570 0211 01        		.byte	1
 571 0212 00        		.byte	0
 572 0213 00        		.byte	0
 573 0214 88        		.byte	-120
 574 0215 00        		.byte	0
 575 0216 00        		.byte	0
 576 0217 00        		.byte	0
 577 0218 50        		.byte	80
 578 0219 FE        		.byte	-2
 579 021a FF        		.byte	-1
 580 021b FF        		.byte	-1
 581 021c 78        		.byte	120
 582 021d FF        		.byte	-1
 583 021e FF        		.byte	-1
 584 021f FF        		.byte	-1
 585               		.comm	delay_bpl,24,1
 586               		.comm	delay_dltx,24,1
 587               	.global	wl_code_table
 590               	wl_code_table:
 591 0220 C4        		.byte	-60
 592 0221 FF        		.byte	-1
 593 0222 FF        		.byte	-1
 594 0223 FF        		.byte	-1
 595 0224 E2        		.byte	-30
 596 0225 0B        		.byte	11
 597 0226 00        		.byte	0
 598 0227 00        		.byte	0
 599 0228 AE        		.byte	-82
 600 0229 04        		.byte	4
 601 022a 00        		.byte	0
 602 022b 00        		.byte	0
 603 022c 1A        		.byte	26
 604 022d 02        		.byte	2
 605 022e 00        		.byte	0
 606 022f 00        		.byte	0
 607 0230 4E        		.byte	78
 608 0231 01        		.byte	1
 609 0232 00        		.byte	0
 610 0233 00        		.byte	0
 611 0234 AC        		.byte	-84
 612 0235 00        		.byte	0
 613 0236 00        		.byte	0
 614 0237 00        		.byte	0
 615 0238 3A        		.byte	58
 616 0239 00        		.byte	0
 617 023a 00        		.byte	0
 618 023b 00        		.byte	0
 619 023c E2        		.byte	-30
 620 023d FF        		.byte	-1
 621 023e FF        		.byte	-1
 622 023f FF        		.byte	-1
 623 0240 E2        		.byte	-30
 624 0241 0B        		.byte	11
 625 0242 00        		.byte	0
 626 0243 00        		.byte	0
 627 0244 AE        		.byte	-82
 628 0245 04        		.byte	4
 629 0246 00        		.byte	0
 630 0247 00        		.byte	0
 631 0248 1A        		.byte	26
 632 0249 02        		.byte	2
 633 024a 00        		.byte	0
 634 024b 00        		.byte	0
 635 024c 4E        		.byte	78
 636 024d 01        		.byte	1
 637 024e 00        		.byte	0
 638 024f 00        		.byte	0
 639 0250 AC        		.byte	-84
 640 0251 00        		.byte	0
 641 0252 00        		.byte	0
 642 0253 00        		.byte	0
 643 0254 3A        		.byte	58
 644 0255 00        		.byte	0
 645 0256 00        		.byte	0
 646 0257 00        		.byte	0
 647 0258 E2        		.byte	-30
 648 0259 FF        		.byte	-1
 649 025a FF        		.byte	-1
 650 025b FF        		.byte	-1
 651 025c C4        		.byte	-60
 652 025d FF        		.byte	-1
 653 025e FF        		.byte	-1
 654 025f FF        		.byte	-1
 655               	.global	wl_table
 658               	wl_table:
 659 0260 C4        		.byte	-60
 660 0261 FF        		.byte	-1
 661 0262 FF        		.byte	-1
 662 0263 FF        		.byte	-1
 663 0264 E2        		.byte	-30
 664 0265 FF        		.byte	-1
 665 0266 FF        		.byte	-1
 666 0267 FF        		.byte	-1
 667 0268 3A        		.byte	58
 668 0269 00        		.byte	0
 669 026a 00        		.byte	0
 670 026b 00        		.byte	0
 671 026c AC        		.byte	-84
 672 026d 00        		.byte	0
 673 026e 00        		.byte	0
 674 026f 00        		.byte	0
 675 0270 4E        		.byte	78
 676 0271 01        		.byte	1
 677 0272 00        		.byte	0
 678 0273 00        		.byte	0
 679 0274 1A        		.byte	26
 680 0275 02        		.byte	2
 681 0276 00        		.byte	0
 682 0277 00        		.byte	0
 683 0278 AE        		.byte	-82
 684 0279 04        		.byte	4
 685 027a 00        		.byte	0
 686 027b 00        		.byte	0
 687 027c E2        		.byte	-30
 688 027d 0B        		.byte	11
 689 027e 00        		.byte	0
 690 027f 00        		.byte	0
 691               	.global	ilb_table
 694               	ilb_table:
 695 0280 00        		.byte	0
 696 0281 08        		.byte	8
 697 0282 00        		.byte	0
 698 0283 00        		.byte	0
 699 0284 2D        		.byte	45
 700 0285 08        		.byte	8
 701 0286 00        		.byte	0
 702 0287 00        		.byte	0
 703 0288 5B        		.byte	91
 704 0289 08        		.byte	8
 705 028a 00        		.byte	0
 706 028b 00        		.byte	0
 707 028c 8A        		.byte	-118
 708 028d 08        		.byte	8
 709 028e 00        		.byte	0
 710 028f 00        		.byte	0
 711 0290 B9        		.byte	-71
 712 0291 08        		.byte	8
 713 0292 00        		.byte	0
 714 0293 00        		.byte	0
 715 0294 EA        		.byte	-22
 716 0295 08        		.byte	8
 717 0296 00        		.byte	0
 718 0297 00        		.byte	0
 719 0298 1C        		.byte	28
 720 0299 09        		.byte	9
 721 029a 00        		.byte	0
 722 029b 00        		.byte	0
 723 029c 4F        		.byte	79
 724 029d 09        		.byte	9
 725 029e 00        		.byte	0
 726 029f 00        		.byte	0
 727 02a0 83        		.byte	-125
 728 02a1 09        		.byte	9
 729 02a2 00        		.byte	0
 730 02a3 00        		.byte	0
 731 02a4 B9        		.byte	-71
 732 02a5 09        		.byte	9
 733 02a6 00        		.byte	0
 734 02a7 00        		.byte	0
 735 02a8 EF        		.byte	-17
 736 02a9 09        		.byte	9
 737 02aa 00        		.byte	0
 738 02ab 00        		.byte	0
 739 02ac 27        		.byte	39
 740 02ad 0A        		.byte	10
 741 02ae 00        		.byte	0
 742 02af 00        		.byte	0
 743 02b0 60        		.byte	96
 744 02b1 0A        		.byte	10
 745 02b2 00        		.byte	0
 746 02b3 00        		.byte	0
 747 02b4 9A        		.byte	-102
 748 02b5 0A        		.byte	10
 749 02b6 00        		.byte	0
 750 02b7 00        		.byte	0
 751 02b8 D6        		.byte	-42
 752 02b9 0A        		.byte	10
 753 02ba 00        		.byte	0
 754 02bb 00        		.byte	0
 755 02bc 12        		.byte	18
 756 02bd 0B        		.byte	11
 757 02be 00        		.byte	0
 758 02bf 00        		.byte	0
 759 02c0 50        		.byte	80
 760 02c1 0B        		.byte	11
 761 02c2 00        		.byte	0
 762 02c3 00        		.byte	0
 763 02c4 90        		.byte	-112
 764 02c5 0B        		.byte	11
 765 02c6 00        		.byte	0
 766 02c7 00        		.byte	0
 767 02c8 D1        		.byte	-47
 768 02c9 0B        		.byte	11
 769 02ca 00        		.byte	0
 770 02cb 00        		.byte	0
 771 02cc 13        		.byte	19
 772 02cd 0C        		.byte	12
 773 02ce 00        		.byte	0
 774 02cf 00        		.byte	0
 775 02d0 56        		.byte	86
 776 02d1 0C        		.byte	12
 777 02d2 00        		.byte	0
 778 02d3 00        		.byte	0
 779 02d4 9C        		.byte	-100
 780 02d5 0C        		.byte	12
 781 02d6 00        		.byte	0
 782 02d7 00        		.byte	0
 783 02d8 E2        		.byte	-30
 784 02d9 0C        		.byte	12
 785 02da 00        		.byte	0
 786 02db 00        		.byte	0
 787 02dc 2B        		.byte	43
 788 02dd 0D        		.byte	13
 789 02de 00        		.byte	0
 790 02df 00        		.byte	0
 791 02e0 74        		.byte	116
 792 02e1 0D        		.byte	13
 793 02e2 00        		.byte	0
 794 02e3 00        		.byte	0
 795 02e4 C0        		.byte	-64
 796 02e5 0D        		.byte	13
 797 02e6 00        		.byte	0
 798 02e7 00        		.byte	0
 799 02e8 0D        		.byte	13
 800 02e9 0E        		.byte	14
 801 02ea 00        		.byte	0
 802 02eb 00        		.byte	0
 803 02ec 5C        		.byte	92
 804 02ed 0E        		.byte	14
 805 02ee 00        		.byte	0
 806 02ef 00        		.byte	0
 807 02f0 AC        		.byte	-84
 808 02f1 0E        		.byte	14
 809 02f2 00        		.byte	0
 810 02f3 00        		.byte	0
 811 02f4 FE        		.byte	-2
 812 02f5 0E        		.byte	14
 813 02f6 00        		.byte	0
 814 02f7 00        		.byte	0
 815 02f8 52        		.byte	82
 816 02f9 0F        		.byte	15
 817 02fa 00        		.byte	0
 818 02fb 00        		.byte	0
 819 02fc A8        		.byte	-88
 820 02fd 0F        		.byte	15
 821 02fe 00        		.byte	0
 822 02ff 00        		.byte	0
 823               		.comm	nbl,4,1
 824               		.comm	al1,4,1
 825               		.comm	al2,4,1
 826               		.comm	plt,4,1
 827               		.comm	plt1,4,1
 828               		.comm	plt2,4,1
 829               		.comm	rs,4,1
 830               		.comm	dlt,4,1
 831               		.comm	rlt,4,1
 832               		.comm	rlt1,4,1
 833               		.comm	rlt2,4,1
 834               	.global	decis_levl
 837               	decis_levl:
 838 0300 18        		.byte	24
 839 0301 01        		.byte	1
 840 0302 00        		.byte	0
 841 0303 00        		.byte	0
 842 0304 40        		.byte	64
 843 0305 02        		.byte	2
 844 0306 00        		.byte	0
 845 0307 00        		.byte	0
 846 0308 70        		.byte	112
 847 0309 03        		.byte	3
 848 030a 00        		.byte	0
 849 030b 00        		.byte	0
 850 030c B0        		.byte	-80
 851 030d 04        		.byte	4
 852 030e 00        		.byte	0
 853 030f 00        		.byte	0
 854 0310 F0        		.byte	-16
 855 0311 05        		.byte	5
 856 0312 00        		.byte	0
 857 0313 00        		.byte	0
 858 0314 48        		.byte	72
 859 0315 07        		.byte	7
 860 0316 00        		.byte	0
 861 0317 00        		.byte	0
 862 0318 A0        		.byte	-96
 863 0319 08        		.byte	8
 864 031a 00        		.byte	0
 865 031b 00        		.byte	0
 866 031c 18        		.byte	24
 867 031d 0A        		.byte	10
 868 031e 00        		.byte	0
 869 031f 00        		.byte	0
 870 0320 90        		.byte	-112
 871 0321 0B        		.byte	11
 872 0322 00        		.byte	0
 873 0323 00        		.byte	0
 874 0324 30        		.byte	48
 875 0325 0D        		.byte	13
 876 0326 00        		.byte	0
 877 0327 00        		.byte	0
 878 0328 C8        		.byte	-56
 879 0329 0E        		.byte	14
 880 032a 00        		.byte	0
 881 032b 00        		.byte	0
 882 032c 90        		.byte	-112
 883 032d 10        		.byte	16
 884 032e 00        		.byte	0
 885 032f 00        		.byte	0
 886 0330 58        		.byte	88
 887 0331 12        		.byte	18
 888 0332 00        		.byte	0
 889 0333 00        		.byte	0
 890 0334 50        		.byte	80
 891 0335 14        		.byte	20
 892 0336 00        		.byte	0
 893 0337 00        		.byte	0
 894 0338 50        		.byte	80
 895 0339 16        		.byte	22
 896 033a 00        		.byte	0
 897 033b 00        		.byte	0
 898 033c 90        		.byte	-112
 899 033d 18        		.byte	24
 900 033e 00        		.byte	0
 901 033f 00        		.byte	0
 902 0340 D0        		.byte	-48
 903 0341 1A        		.byte	26
 904 0342 00        		.byte	0
 905 0343 00        		.byte	0
 906 0344 60        		.byte	96
 907 0345 1D        		.byte	29
 908 0346 00        		.byte	0
 909 0347 00        		.byte	0
 910 0348 F8        		.byte	-8
 911 0349 1F        		.byte	31
 912 034a 00        		.byte	0
 913 034b 00        		.byte	0
 914 034c 08        		.byte	8
 915 034d 23        		.byte	35
 916 034e 00        		.byte	0
 917 034f 00        		.byte	0
 918 0350 18        		.byte	24
 919 0351 26        		.byte	38
 920 0352 00        		.byte	0
 921 0353 00        		.byte	0
 922 0354 D8        		.byte	-40
 923 0355 29        		.byte	41
 924 0356 00        		.byte	0
 925 0357 00        		.byte	0
 926 0358 90        		.byte	-112
 927 0359 2D        		.byte	45
 928 035a 00        		.byte	0
 929 035b 00        		.byte	0
 930 035c 60        		.byte	96
 931 035d 32        		.byte	50
 932 035e 00        		.byte	0
 933 035f 00        		.byte	0
 934 0360 28        		.byte	40
 935 0361 37        		.byte	55
 936 0362 00        		.byte	0
 937 0363 00        		.byte	0
 938 0364 E0        		.byte	-32
 939 0365 3D        		.byte	61
 940 0366 00        		.byte	0
 941 0367 00        		.byte	0
 942 0368 98        		.byte	-104
 943 0369 44        		.byte	68
 944 036a 00        		.byte	0
 945 036b 00        		.byte	0
 946 036c E8        		.byte	-24
 947 036d 4F        		.byte	79
 948 036e 00        		.byte	0
 949 036f 00        		.byte	0
 950 0370 38        		.byte	56
 951 0371 5B        		.byte	91
 952 0372 00        		.byte	0
 953 0373 00        		.byte	0
 954 0374 FF        		.byte	-1
 955 0375 7F        		.byte	127
 956 0376 00        		.byte	0
 957 0377 00        		.byte	0
 958               		.comm	detl,4,1
 959               	.global	quant26bt_pos
 962               	quant26bt_pos:
 963 0378 3D        		.byte	61
 964 0379 00        		.byte	0
 965 037a 00        		.byte	0
 966 037b 00        		.byte	0
 967 037c 3C        		.byte	60
 968 037d 00        		.byte	0
 969 037e 00        		.byte	0
 970 037f 00        		.byte	0
 971 0380 3B        		.byte	59
 972 0381 00        		.byte	0
 973 0382 00        		.byte	0
 974 0383 00        		.byte	0
 975 0384 3A        		.byte	58
 976 0385 00        		.byte	0
 977 0386 00        		.byte	0
 978 0387 00        		.byte	0
 979 0388 39        		.byte	57
 980 0389 00        		.byte	0
 981 038a 00        		.byte	0
 982 038b 00        		.byte	0
 983 038c 38        		.byte	56
 984 038d 00        		.byte	0
 985 038e 00        		.byte	0
 986 038f 00        		.byte	0
 987 0390 37        		.byte	55
 988 0391 00        		.byte	0
 989 0392 00        		.byte	0
 990 0393 00        		.byte	0
 991 0394 36        		.byte	54
 992 0395 00        		.byte	0
 993 0396 00        		.byte	0
 994 0397 00        		.byte	0
 995 0398 35        		.byte	53
 996 0399 00        		.byte	0
 997 039a 00        		.byte	0
 998 039b 00        		.byte	0
 999 039c 34        		.byte	52
 1000 039d 00        		.byte	0
 1001 039e 00        		.byte	0
 1002 039f 00        		.byte	0
 1003 03a0 33        		.byte	51
 1004 03a1 00        		.byte	0
 1005 03a2 00        		.byte	0
 1006 03a3 00        		.byte	0
 1007 03a4 32        		.byte	50
 1008 03a5 00        		.byte	0
 1009 03a6 00        		.byte	0
 1010 03a7 00        		.byte	0
 1011 03a8 31        		.byte	49
 1012 03a9 00        		.byte	0
 1013 03aa 00        		.byte	0
 1014 03ab 00        		.byte	0
 1015 03ac 30        		.byte	48
 1016 03ad 00        		.byte	0
 1017 03ae 00        		.byte	0
 1018 03af 00        		.byte	0
 1019 03b0 2F        		.byte	47
 1020 03b1 00        		.byte	0
 1021 03b2 00        		.byte	0
 1022 03b3 00        		.byte	0
 1023 03b4 2E        		.byte	46
 1024 03b5 00        		.byte	0
 1025 03b6 00        		.byte	0
 1026 03b7 00        		.byte	0
 1027 03b8 2D        		.byte	45
 1028 03b9 00        		.byte	0
 1029 03ba 00        		.byte	0
 1030 03bb 00        		.byte	0
 1031 03bc 2C        		.byte	44
 1032 03bd 00        		.byte	0
 1033 03be 00        		.byte	0
 1034 03bf 00        		.byte	0
 1035 03c0 2B        		.byte	43
 1036 03c1 00        		.byte	0
 1037 03c2 00        		.byte	0
 1038 03c3 00        		.byte	0
 1039 03c4 2A        		.byte	42
 1040 03c5 00        		.byte	0
 1041 03c6 00        		.byte	0
 1042 03c7 00        		.byte	0
 1043 03c8 29        		.byte	41
 1044 03c9 00        		.byte	0
 1045 03ca 00        		.byte	0
 1046 03cb 00        		.byte	0
 1047 03cc 28        		.byte	40
 1048 03cd 00        		.byte	0
 1049 03ce 00        		.byte	0
 1050 03cf 00        		.byte	0
 1051 03d0 27        		.byte	39
 1052 03d1 00        		.byte	0
 1053 03d2 00        		.byte	0
 1054 03d3 00        		.byte	0
 1055 03d4 26        		.byte	38
 1056 03d5 00        		.byte	0
 1057 03d6 00        		.byte	0
 1058 03d7 00        		.byte	0
 1059 03d8 25        		.byte	37
 1060 03d9 00        		.byte	0
 1061 03da 00        		.byte	0
 1062 03db 00        		.byte	0
 1063 03dc 24        		.byte	36
 1064 03dd 00        		.byte	0
 1065 03de 00        		.byte	0
 1066 03df 00        		.byte	0
 1067 03e0 23        		.byte	35
 1068 03e1 00        		.byte	0
 1069 03e2 00        		.byte	0
 1070 03e3 00        		.byte	0
 1071 03e4 22        		.byte	34
 1072 03e5 00        		.byte	0
 1073 03e6 00        		.byte	0
 1074 03e7 00        		.byte	0
 1075 03e8 21        		.byte	33
 1076 03e9 00        		.byte	0
 1077 03ea 00        		.byte	0
 1078 03eb 00        		.byte	0
 1079 03ec 20        		.byte	32
 1080 03ed 00        		.byte	0
 1081 03ee 00        		.byte	0
 1082 03ef 00        		.byte	0
 1083 03f0 20        		.byte	32
 1084 03f1 00        		.byte	0
 1085 03f2 00        		.byte	0
 1086 03f3 00        		.byte	0
 1087               	.global	quant26bt_neg
 1090               	quant26bt_neg:
 1091 03f4 3F        		.byte	63
 1092 03f5 00        		.byte	0
 1093 03f6 00        		.byte	0
 1094 03f7 00        		.byte	0
 1095 03f8 3E        		.byte	62
 1096 03f9 00        		.byte	0
 1097 03fa 00        		.byte	0
 1098 03fb 00        		.byte	0
 1099 03fc 1F        		.byte	31
 1100 03fd 00        		.byte	0
 1101 03fe 00        		.byte	0
 1102 03ff 00        		.byte	0
 1103 0400 1E        		.byte	30
 1104 0401 00        		.byte	0
 1105 0402 00        		.byte	0
 1106 0403 00        		.byte	0
 1107 0404 1D        		.byte	29
 1108 0405 00        		.byte	0
 1109 0406 00        		.byte	0
 1110 0407 00        		.byte	0
 1111 0408 1C        		.byte	28
 1112 0409 00        		.byte	0
 1113 040a 00        		.byte	0
 1114 040b 00        		.byte	0
 1115 040c 1B        		.byte	27
 1116 040d 00        		.byte	0
 1117 040e 00        		.byte	0
 1118 040f 00        		.byte	0
 1119 0410 1A        		.byte	26
 1120 0411 00        		.byte	0
 1121 0412 00        		.byte	0
 1122 0413 00        		.byte	0
 1123 0414 19        		.byte	25
 1124 0415 00        		.byte	0
 1125 0416 00        		.byte	0
 1126 0417 00        		.byte	0
 1127 0418 18        		.byte	24
 1128 0419 00        		.byte	0
 1129 041a 00        		.byte	0
 1130 041b 00        		.byte	0
 1131 041c 17        		.byte	23
 1132 041d 00        		.byte	0
 1133 041e 00        		.byte	0
 1134 041f 00        		.byte	0
 1135 0420 16        		.byte	22
 1136 0421 00        		.byte	0
 1137 0422 00        		.byte	0
 1138 0423 00        		.byte	0
 1139 0424 15        		.byte	21
 1140 0425 00        		.byte	0
 1141 0426 00        		.byte	0
 1142 0427 00        		.byte	0
 1143 0428 14        		.byte	20
 1144 0429 00        		.byte	0
 1145 042a 00        		.byte	0
 1146 042b 00        		.byte	0
 1147 042c 13        		.byte	19
 1148 042d 00        		.byte	0
 1149 042e 00        		.byte	0
 1150 042f 00        		.byte	0
 1151 0430 12        		.byte	18
 1152 0431 00        		.byte	0
 1153 0432 00        		.byte	0
 1154 0433 00        		.byte	0
 1155 0434 11        		.byte	17
 1156 0435 00        		.byte	0
 1157 0436 00        		.byte	0
 1158 0437 00        		.byte	0
 1159 0438 10        		.byte	16
 1160 0439 00        		.byte	0
 1161 043a 00        		.byte	0
 1162 043b 00        		.byte	0
 1163 043c 0F        		.byte	15
 1164 043d 00        		.byte	0
 1165 043e 00        		.byte	0
 1166 043f 00        		.byte	0
 1167 0440 0E        		.byte	14
 1168 0441 00        		.byte	0
 1169 0442 00        		.byte	0
 1170 0443 00        		.byte	0
 1171 0444 0D        		.byte	13
 1172 0445 00        		.byte	0
 1173 0446 00        		.byte	0
 1174 0447 00        		.byte	0
 1175 0448 0C        		.byte	12
 1176 0449 00        		.byte	0
 1177 044a 00        		.byte	0
 1178 044b 00        		.byte	0
 1179 044c 0B        		.byte	11
 1180 044d 00        		.byte	0
 1181 044e 00        		.byte	0
 1182 044f 00        		.byte	0
 1183 0450 0A        		.byte	10
 1184 0451 00        		.byte	0
 1185 0452 00        		.byte	0
 1186 0453 00        		.byte	0
 1187 0454 09        		.byte	9
 1188 0455 00        		.byte	0
 1189 0456 00        		.byte	0
 1190 0457 00        		.byte	0
 1191 0458 08        		.byte	8
 1192 0459 00        		.byte	0
 1193 045a 00        		.byte	0
 1194 045b 00        		.byte	0
 1195 045c 07        		.byte	7
 1196 045d 00        		.byte	0
 1197 045e 00        		.byte	0
 1198 045f 00        		.byte	0
 1199 0460 06        		.byte	6
 1200 0461 00        		.byte	0
 1201 0462 00        		.byte	0
 1202 0463 00        		.byte	0
 1203 0464 05        		.byte	5
 1204 0465 00        		.byte	0
 1205 0466 00        		.byte	0
 1206 0467 00        		.byte	0
 1207 0468 04        		.byte	4
 1208 0469 00        		.byte	0
 1209 046a 00        		.byte	0
 1210 046b 00        		.byte	0
 1211 046c 04        		.byte	4
 1212 046d 00        		.byte	0
 1213 046e 00        		.byte	0
 1214 046f 00        		.byte	0
 1215               		.comm	deth,4,1
 1216               		.comm	sh,4,1
 1217               		.comm	eh,4,1
 1218               	.global	qq2_code2_table
 1221               	qq2_code2_table:
 1222 0470 10        		.byte	16
 1223 0471 E3        		.byte	-29
 1224 0472 FF        		.byte	-1
 1225 0473 FF        		.byte	-1
 1226 0474 B0        		.byte	-80
 1227 0475 F9        		.byte	-7
 1228 0476 FF        		.byte	-1
 1229 0477 FF        		.byte	-1
 1230 0478 F0        		.byte	-16
 1231 0479 1C        		.byte	28
 1232 047a 00        		.byte	0
 1233 047b 00        		.byte	0
 1234 047c 50        		.byte	80
 1235 047d 06        		.byte	6
 1236 047e 00        		.byte	0
 1237 047f 00        		.byte	0
 1238               	.global	wh_code_table
 1241               	wh_code_table:
 1242 0480 1E        		.byte	30
 1243 0481 03        		.byte	3
 1244 0482 00        		.byte	0
 1245 0483 00        		.byte	0
 1246 0484 2A        		.byte	42
 1247 0485 FF        		.byte	-1
 1248 0486 FF        		.byte	-1
 1249 0487 FF        		.byte	-1
 1250 0488 1E        		.byte	30
 1251 0489 03        		.byte	3
 1252 048a 00        		.byte	0
 1253 048b 00        		.byte	0
 1254 048c 2A        		.byte	42
 1255 048d FF        		.byte	-1
 1256 048e FF        		.byte	-1
 1257 048f FF        		.byte	-1
 1258               		.comm	dh,4,1
 1259               		.comm	ih,4,1
 1260               		.comm	nbh,4,1
 1261               		.comm	szh,4,1
 1262               		.comm	sph,4,1
 1263               		.comm	ph,4,1
 1264               		.comm	yh,4,1
 1265               		.comm	rh,4,1
 1266               		.comm	delay_dhx,24,1
 1267               		.comm	delay_bph,24,1
 1268               		.comm	ah1,4,1
 1269               		.comm	ah2,4,1
 1270               		.comm	ph1,4,1
 1271               		.comm	ph2,4,1
 1272               		.comm	rh1,4,1
 1273               		.comm	rh2,4,1
 1274               		.comm	ilr,4,1
 1275               		.comm	yl,4,1
 1276               		.comm	rl,4,1
 1277               		.comm	dec_deth,4,1
 1278               		.comm	dec_detl,4,1
 1279               		.comm	dec_dlt,4,1
 1280               		.comm	dec_del_bpl,24,1
 1281               		.comm	dec_del_dltx,24,1
 1282               		.comm	dec_plt,4,1
 1283               		.comm	dec_plt1,4,1
 1284               		.comm	dec_plt2,4,1
 1285               		.comm	dec_szl,4,1
 1286               		.comm	dec_spl,4,1
 1287               		.comm	dec_sl,4,1
 1288               		.comm	dec_rlt1,4,1
 1289               		.comm	dec_rlt2,4,1
 1290               		.comm	dec_rlt,4,1
 1291               		.comm	dec_al1,4,1
 1292               		.comm	dec_al2,4,1
 1293               		.comm	dl,4,1
 1294               		.comm	dec_nbl,4,1
 1295               		.comm	dec_yh,4,1
 1296               		.comm	dec_dh,4,1
 1297               		.comm	dec_nbh,4,1
 1298               		.comm	dec_del_bph,24,1
 1299               		.comm	dec_del_dhx,24,1
 1300               		.comm	dec_szh,4,1
 1301               		.comm	dec_rh1,4,1
 1302               		.comm	dec_rh2,4,1
 1303               		.comm	dec_ah1,4,1
 1304               		.comm	dec_ah2,4,1
 1305               		.comm	dec_ph,4,1
 1306               		.comm	dec_sph,4,1
 1307               		.comm	dec_sh,4,1
 1308               		.comm	dec_rh,4,1
 1309               		.comm	dec_ph1,4,1
 1310               		.comm	dec_ph2,4,1
 1311               		.text
 1312               	.global	my_abs
 1314               	my_abs:
 1315               	.LFB1:
 1316               		.file 1 "adpcm.c"
   1:adpcm.c       **** /* $Id: adpcm.c,v 1.7 2005/06/15 07:27:31 ael01 Exp $ */
   2:adpcm.c       **** /*************************************************************************/
   3:adpcm.c       **** /*                                                                       */
   4:adpcm.c       **** /*   SNU-RT Benchmark Suite for Worst Case Timing Analysis               */
   5:adpcm.c       **** /*   =====================================================               */
   6:adpcm.c       **** /*                              Collected and Modified by S.-S. Lim      */
   7:adpcm.c       **** /*                                           sslim@archi.snu.ac.kr       */
   8:adpcm.c       **** /*                                         Real-Time Research Group      */
   9:adpcm.c       **** /*                                        Seoul National University      */
  10:adpcm.c       **** /*                                                                       */
  11:adpcm.c       **** /*                                                                       */
  12:adpcm.c       **** /*        < Features > - restrictions for our experimental environment   */
  13:adpcm.c       **** /*                                                                       */
  14:adpcm.c       **** /*          1. Completely structured.                                    */
  15:adpcm.c       **** /*               - There are no unconditional jumps.                     */
  16:adpcm.c       **** /*               - There are no exit from loop bodies.                   */
  17:adpcm.c       **** /*                 (There are no 'break' or 'return' in loop bodies)     */
  18:adpcm.c       **** /*          2. No 'switch' statements.                                   */
  19:adpcm.c       **** /*          3. No 'do..while' statements.                                */
  20:adpcm.c       **** /*          4. Expressions are restricted.                               */
  21:adpcm.c       **** /*               - There are no multiple expressions joined by 'or',     */
  22:adpcm.c       **** /*                'and' operations.                                      */
  23:adpcm.c       **** /*          5. No library calls.                                         */
  24:adpcm.c       **** /*               - All the functions needed are implemented in the       */
  25:adpcm.c       **** /*                 source file.                                          */
  26:adpcm.c       **** /*          6. Printouts removed (Jan G)                                 */
  27:adpcm.c       **** /*                                                                       */
  28:adpcm.c       **** /*                                                                       */
  29:adpcm.c       **** /*                                                                       */
  30:adpcm.c       **** /*************************************************************************/
  31:adpcm.c       **** /*                                                                       */
  32:adpcm.c       **** /*  FILE: adpcm.c                                                        */
  33:adpcm.c       **** /*  SOURCE : C Algorithms for Real-Time DSP by P. M. Embree              */
  34:adpcm.c       **** /*                                                                       */
  35:adpcm.c       **** /*  DESCRIPTION :                                                        */
  36:adpcm.c       **** /*                                                                       */
  37:adpcm.c       **** /*     CCITT G.722 ADPCM (Adaptive Differential Pulse Code Modulation)   */
  38:adpcm.c       **** /*     algorithm.                                                        */
  39:adpcm.c       **** /*     16khz sample rate data is stored in the array test_data[SIZE].    */
  40:adpcm.c       **** /*     Results are stored in the array compressed[SIZE] and result[SIZE].*/
  41:adpcm.c       **** /*     Execution time is determined by the constant SIZE (default value  */
  42:adpcm.c       **** /*     is 2000).                                                         */
  43:adpcm.c       **** /*                                                                       */
  44:adpcm.c       **** #ifdef __AVR__
  45:adpcm.c       ****   #include <stdint.h>
  46:adpcm.c       ****   #include <inttypes.h>
  47:adpcm.c       ****   #include <avr/pgmspace.h>
  48:adpcm.c       **** #define STORE_IN_TEXT_SEGMENT   PROGMEM /* __attribute__ ((section (".text"))) */
  49:adpcm.c       **** 
  50:adpcm.c       **** #else
  51:adpcm.c       ****   #include <inttypes.h>
  52:adpcm.c       ****   #define STORE_IN_TEXT_SEGMENT   /* nada */
  53:adpcm.c       **** #endif
  54:adpcm.c       **** 
  55:adpcm.c       **** /* common sampling rate for sound cards on IBM/PC */
  56:adpcm.c       **** #define SAMPLE_RATE 11025
  57:adpcm.c       **** 
  58:adpcm.c       **** #define PI 3141
  59:adpcm.c       **** #define SIZE 20
  60:adpcm.c       **** #define IN_END (SIZE*2) // Bugfix MBe, 2015/Jul/22: SIZE -> IN_END
  61:adpcm.c       **** 
  62:adpcm.c       **** /* COMPLEX STRUCTURE */
  63:adpcm.c       **** 
  64:adpcm.c       **** typedef struct {
  65:adpcm.c       ****     int32_t real, imag;
  66:adpcm.c       **** } COMPLEX;
  67:adpcm.c       **** 
  68:adpcm.c       **** /* function prototypes for fft and filter functions */
  69:adpcm.c       **** void fft(COMPLEX *,int32_t);
  70:adpcm.c       **** int32_t fir_filter(int32_t input,int32_t *coef,int32_t n,int32_t *history);
  71:adpcm.c       **** int32_t iir_filter(int32_t input,int32_t *coef,int32_t n,int32_t *history);
  72:adpcm.c       **** int32_t gaussian(void);
  73:adpcm.c       **** int32_t my_abs(int32_t n);
  74:adpcm.c       **** 
  75:adpcm.c       **** void setup_codec(int32_t),key_down(),int_enable(),int_disable();
  76:adpcm.c       **** int32_t flags(int32_t);
  77:adpcm.c       **** 
  78:adpcm.c       **** int32_t getinput(void);
  79:adpcm.c       **** void sendout(int32_t),flush();
  80:adpcm.c       **** 
  81:adpcm.c       **** int32_t encode(int32_t,int32_t);
  82:adpcm.c       **** void decode(int32_t);
  83:adpcm.c       **** int32_t filtez(int32_t *bpl,int32_t *dlt);
  84:adpcm.c       **** void upzero(int32_t dlt,int32_t *dlti,int32_t *bli);
  85:adpcm.c       **** int32_t filtep(int32_t rlt1,int32_t al1,int32_t rlt2,int32_t al2);
  86:adpcm.c       **** int32_t quantl(int32_t el,int32_t detl);
  87:adpcm.c       **** /* int32_t invqxl(int32_t il,int32_t detl,int32_t *code_table,int32_t mode); */
  88:adpcm.c       **** int32_t logscl(int32_t il,int32_t nbl);
  89:adpcm.c       **** int32_t scalel(int32_t nbl,int32_t shift_constant);
  90:adpcm.c       **** int32_t uppol2(int32_t al1,int32_t al2,int32_t plt,int32_t plt1,int32_t plt2);
  91:adpcm.c       **** int32_t uppol1(int32_t al1,int32_t apl2,int32_t plt,int32_t plt1);
  92:adpcm.c       **** /* int32_t invqah(int32_t ih,int32_t deth); */
  93:adpcm.c       **** int32_t logsch(int32_t ih,int32_t nbh);
  94:adpcm.c       **** void reset();
  95:adpcm.c       **** int32_t my_fabs(int32_t n);
  96:adpcm.c       **** int32_t my_cos(int32_t n);
  97:adpcm.c       **** int32_t my_sin(int32_t n);
  98:adpcm.c       **** 
  99:adpcm.c       **** /* G722 C code */
 100:adpcm.c       **** 
 101:adpcm.c       **** /* variables for transimit quadrature mirror filter here */
 102:adpcm.c       **** int32_t tqmf[24];
 103:adpcm.c       **** 
 104:adpcm.c       **** /* QMF filter coefficients:
 105:adpcm.c       **** scaled by a factor of 4 compared to G722 CCITT recommendation */
 106:adpcm.c       **** int32_t h[24] = {
 107:adpcm.c       ****     12,   -44,   -44,   212,    48,  -624,   128,  1448,
 108:adpcm.c       ****   -840, -3220,  3804, 15504, 15504,  3804, -3220,  -840,
 109:adpcm.c       ****   1448,   128,  -624,    48,   212,   -44,   -44,    12
 110:adpcm.c       **** };
 111:adpcm.c       **** 
 112:adpcm.c       **** int32_t xl,xh;
 113:adpcm.c       **** 
 114:adpcm.c       **** /* variables for receive quadrature mirror filter here */
 115:adpcm.c       **** int32_t accumc[11],accumd[11];
 116:adpcm.c       **** 
 117:adpcm.c       **** /* outputs of decode() */
 118:adpcm.c       **** int32_t xout1,xout2;
 119:adpcm.c       **** 
 120:adpcm.c       **** int32_t xs,xd;
 121:adpcm.c       **** 
 122:adpcm.c       **** /* variables for encoder (hi and lo) here */
 123:adpcm.c       **** 
 124:adpcm.c       **** int32_t il,szl,spl,sl,el;
 125:adpcm.c       **** 
 126:adpcm.c       **** int32_t qq4_code4_table[16] = {
 127:adpcm.c       ****      0,  -20456,  -12896,   -8968,   -6288,   -4240,   -2584,   -1200,
 128:adpcm.c       ****  20456,   12896,    8968,    6288,    4240,    2584,    1200,       0
 129:adpcm.c       **** };
 130:adpcm.c       **** 
 131:adpcm.c       **** int32_t qq5_code5_table[32] = {
 132:adpcm.c       ****   -280,    -280,  -23352,  -17560,  -14120,  -11664,   -9752,   -8184,
 133:adpcm.c       ****  -6864,   -5712,   -4696,   -3784,   -2960,   -2208,   -1520,    -880,
 134:adpcm.c       ****  23352,   17560,   14120,   11664,    9752,    8184,    6864,    5712,
 135:adpcm.c       ****   4696,    3784,    2960,    2208,    1520,     880,     280,    -280
 136:adpcm.c       **** };
 137:adpcm.c       **** 
 138:adpcm.c       **** int32_t qq6_code6_table[64] = {
 139:adpcm.c       ****   -136,    -136,    -136,    -136,  -24808,  -21904,  -19008,  -16704,
 140:adpcm.c       **** -14984,  -13512,  -12280,  -11192,  -10232,   -9360,   -8576,   -7856,
 141:adpcm.c       ****  -7192,   -6576,   -6000,   -5456,   -4944,   -4464,   -4008,   -3576,
 142:adpcm.c       ****  -3168,   -2776,   -2400,   -2032,   -1688,   -1360,   -1040,    -728,
 143:adpcm.c       ****  24808,   21904,   19008,   16704,   14984,   13512,   12280,   11192,
 144:adpcm.c       ****  10232,    9360,    8576,    7856,    7192,    6576,    6000,    5456,
 145:adpcm.c       ****   4944,    4464,    4008,    3576,    3168,    2776,    2400,    2032,
 146:adpcm.c       ****   1688,    1360,    1040,     728,     432,     136,    -432,    -136
 147:adpcm.c       **** };
 148:adpcm.c       **** 
 149:adpcm.c       **** int32_t delay_bpl[6];
 150:adpcm.c       **** 
 151:adpcm.c       **** int32_t delay_dltx[6];
 152:adpcm.c       **** 
 153:adpcm.c       **** int32_t wl_code_table[16] = {
 154:adpcm.c       ****    -60,  3042,  1198,   538,   334,   172,    58,   -30,
 155:adpcm.c       ****   3042,  1198,   538,   334,   172,    58,   -30,   -60
 156:adpcm.c       **** };
 157:adpcm.c       **** 
 158:adpcm.c       **** int32_t wl_table[8] = {
 159:adpcm.c       ****    -60,   -30,    58,   172,   334,   538,  1198,  3042
 160:adpcm.c       **** };
 161:adpcm.c       **** 
 162:adpcm.c       **** int32_t ilb_table[32] = {
 163:adpcm.c       ****   2048,  2093,  2139,  2186,  2233,  2282,  2332,  2383,
 164:adpcm.c       ****   2435,  2489,  2543,  2599,  2656,  2714,  2774,  2834,
 165:adpcm.c       ****   2896,  2960,  3025,  3091,  3158,  3228,  3298,  3371,
 166:adpcm.c       ****   3444,  3520,  3597,  3676,  3756,  3838,  3922,  4008
 167:adpcm.c       **** };
 168:adpcm.c       **** 
 169:adpcm.c       **** int32_t         nbl;                  /* delay line */
 170:adpcm.c       **** int32_t         al1,al2;
 171:adpcm.c       **** int32_t         plt,plt1,plt2;
 172:adpcm.c       **** int32_t         rs;
 173:adpcm.c       **** int32_t         dlt;
 174:adpcm.c       **** int32_t         rlt,rlt1,rlt2;
 175:adpcm.c       **** 
 176:adpcm.c       **** /* decision levels - pre-multiplied by 8, 0 to indicate end */
 177:adpcm.c       **** int32_t decis_levl[30] = {
 178:adpcm.c       ****    280,   576,   880,  1200,  1520,  1864,  2208,  2584,
 179:adpcm.c       ****   2960,  3376,  3784,  4240,  4696,  5200,  5712,  6288,
 180:adpcm.c       ****   6864,  7520,  8184,  8968,  9752, 10712, 11664, 12896,
 181:adpcm.c       ****  14120, 15840, 17560, 20456, 23352, 32767
 182:adpcm.c       **** };
 183:adpcm.c       **** 
 184:adpcm.c       **** int32_t         detl;
 185:adpcm.c       **** 
 186:adpcm.c       **** /* quantization table 31 int64_t to make quantl look-up easier,
 187:adpcm.c       **** last entry is for mil=30 case when wd is max */
 188:adpcm.c       **** int32_t quant26bt_pos[31] = {
 189:adpcm.c       ****     61,    60,    59,    58,    57,    56,    55,    54,
 190:adpcm.c       ****     53,    52,    51,    50,    49,    48,    47,    46,
 191:adpcm.c       ****     45,    44,    43,    42,    41,    40,    39,    38,
 192:adpcm.c       ****     37,    36,    35,    34,    33,    32,    32
 193:adpcm.c       **** };
 194:adpcm.c       **** 
 195:adpcm.c       **** /* quantization table 31 int64_t to make quantl look-up easier,
 196:adpcm.c       **** last entry is for mil=30 case when wd is max */
 197:adpcm.c       **** int32_t quant26bt_neg[31] = {
 198:adpcm.c       ****     63,    62,    31,    30,    29,    28,    27,    26,
 199:adpcm.c       ****     25,    24,    23,    22,    21,    20,    19,    18,
 200:adpcm.c       ****     17,    16,    15,    14,    13,    12,    11,    10,
 201:adpcm.c       ****      9,     8,     7,     6,     5,     4,     4
 202:adpcm.c       **** };
 203:adpcm.c       **** 
 204:adpcm.c       **** 
 205:adpcm.c       **** int32_t         deth;
 206:adpcm.c       **** int32_t         sh;         /* this comes from adaptive predictor */
 207:adpcm.c       **** int32_t         eh;
 208:adpcm.c       **** 
 209:adpcm.c       **** int32_t qq2_code2_table[4] = {
 210:adpcm.c       ****   -7408,   -1616,   7408,  1616
 211:adpcm.c       **** };
 212:adpcm.c       **** 
 213:adpcm.c       **** int32_t wh_code_table[4] = {
 214:adpcm.c       ****    798,   -214,    798,   -214
 215:adpcm.c       **** };
 216:adpcm.c       **** 
 217:adpcm.c       **** 
 218:adpcm.c       **** int32_t         dh,ih;
 219:adpcm.c       **** int32_t         nbh,szh;
 220:adpcm.c       **** int32_t         sph,ph,yh,rh;
 221:adpcm.c       **** 
 222:adpcm.c       **** int32_t         delay_dhx[6];
 223:adpcm.c       **** 
 224:adpcm.c       **** int32_t         delay_bph[6];
 225:adpcm.c       **** 
 226:adpcm.c       **** int32_t         ah1,ah2;
 227:adpcm.c       **** int32_t         ph1,ph2;
 228:adpcm.c       **** int32_t         rh1,rh2;
 229:adpcm.c       **** 
 230:adpcm.c       **** /* variables for decoder here */
 231:adpcm.c       **** int32_t         ilr,yl,rl;
 232:adpcm.c       **** int32_t         dec_deth,dec_detl,dec_dlt;
 233:adpcm.c       **** 
 234:adpcm.c       **** int32_t         dec_del_bpl[6];
 235:adpcm.c       **** 
 236:adpcm.c       **** int32_t         dec_del_dltx[6];
 237:adpcm.c       **** 
 238:adpcm.c       **** int32_t     dec_plt,dec_plt1,dec_plt2;
 239:adpcm.c       **** int32_t     dec_szl,dec_spl,dec_sl;
 240:adpcm.c       **** int32_t     dec_rlt1,dec_rlt2,dec_rlt;
 241:adpcm.c       **** int32_t     dec_al1,dec_al2;
 242:adpcm.c       **** int32_t     dl;
 243:adpcm.c       **** int32_t     dec_nbl,dec_yh,dec_dh,dec_nbh;
 244:adpcm.c       **** 
 245:adpcm.c       **** /* variables used in filtez */
 246:adpcm.c       **** int32_t         dec_del_bph[6];
 247:adpcm.c       **** 
 248:adpcm.c       **** int32_t         dec_del_dhx[6];
 249:adpcm.c       **** 
 250:adpcm.c       **** int32_t         dec_szh;
 251:adpcm.c       **** /* variables used in filtep */
 252:adpcm.c       **** int32_t         dec_rh1,dec_rh2;
 253:adpcm.c       **** int32_t         dec_ah1,dec_ah2;
 254:adpcm.c       **** int32_t         dec_ph,dec_sph;
 255:adpcm.c       **** 
 256:adpcm.c       **** int32_t     dec_sh,dec_rh;
 257:adpcm.c       **** 
 258:adpcm.c       **** int32_t     dec_ph1,dec_ph2;
 259:adpcm.c       **** 
 260:adpcm.c       **** /* G722 encode function two ints in, one 8 bit output */
 261:adpcm.c       **** 
 262:adpcm.c       **** /* put input samples in xin1 = first value, xin2 = second value */
 263:adpcm.c       **** /* returns il and ih stored together */
 264:adpcm.c       **** 
 265:adpcm.c       **** /* MAX: 1 */
 266:adpcm.c       **** int32_t my_abs(int32_t n)
 267:adpcm.c       **** {
 1317               		.loc 1 267 0
 1318 0000 CF93      		push r28
 1319               	.LCFI0:
 1320 0002 DF93      		push r29
 1321               	.LCFI1:
 1322 0004 CDB7      		in r28,__SP_L__
 1323 0006 DEB7      		in r29,__SP_H__
 1324               	.LCFI2:
 1325 0008 2897      		sbiw r28,8
 1326               	.LCFI3:
 1327 000a 0FB6      		in __tmp_reg__,__SREG__
 1328 000c F894      		cli
 1329 000e DEBF      		out __SP_H__,r29
 1330 0010 0FBE      		out __SREG__,__tmp_reg__
 1331 0012 CDBF      		out __SP_L__,r28
 1332               	/* prologue: function */
 1333               	/* frame size = 8 */
 1334               	/* stack size = 10 */
 1335               	.L__stack_usage = 10
 1336 0014 6D83      		std Y+5,r22
 1337 0016 7E83      		std Y+6,r23
 1338 0018 8F83      		std Y+7,r24
 1339 001a 9887      		std Y+8,r25
 268:adpcm.c       ****   int32_t m;
 269:adpcm.c       **** 
 270:adpcm.c       ****   if (n >= 0) m = n;
 1340               		.loc 1 270 0
 1341 001c 8D81      		ldd r24,Y+5
 1342 001e 9E81      		ldd r25,Y+6
 1343 0020 AF81      		ldd r26,Y+7
 1344 0022 B885      		ldd r27,Y+8
 1345 0024 BB23      		tst r27
 1346 0026 04F0      		brlt .L2
 1347               		.loc 1 270 0 is_stmt 0 discriminator 1
 1348 0028 8D81      		ldd r24,Y+5
 1349 002a 9E81      		ldd r25,Y+6
 1350 002c AF81      		ldd r26,Y+7
 1351 002e B885      		ldd r27,Y+8
 1352 0030 8983      		std Y+1,r24
 1353 0032 9A83      		std Y+2,r25
 1354 0034 AB83      		std Y+3,r26
 1355 0036 BC83      		std Y+4,r27
 1356 0038 00C0      		rjmp .L3
 1357               	.L2:
 271:adpcm.c       ****   else m = -n;
 1358               		.loc 1 271 0 is_stmt 1
 1359 003a 8D81      		ldd r24,Y+5
 1360 003c 9E81      		ldd r25,Y+6
 1361 003e AF81      		ldd r26,Y+7
 1362 0040 B885      		ldd r27,Y+8
 1363 0042 B095      		com r27
 1364 0044 A095      		com r26
 1365 0046 9095      		com r25
 1366 0048 8195      		neg r24
 1367 004a 9F4F      		sbci r25,lo8(-1)
 1368 004c AF4F      		sbci r26,lo8(-1)
 1369 004e BF4F      		sbci r27,lo8(-1)
 1370 0050 8983      		std Y+1,r24
 1371 0052 9A83      		std Y+2,r25
 1372 0054 AB83      		std Y+3,r26
 1373 0056 BC83      		std Y+4,r27
 1374               	.L3:
 272:adpcm.c       ****   return m;
 1375               		.loc 1 272 0
 1376 0058 8981      		ldd r24,Y+1
 1377 005a 9A81      		ldd r25,Y+2
 1378 005c AB81      		ldd r26,Y+3
 1379 005e BC81      		ldd r27,Y+4
 273:adpcm.c       **** }
 1380               		.loc 1 273 0
 1381 0060 BC01      		movw r22,r24
 1382 0062 CD01      		movw r24,r26
 1383               	/* epilogue start */
 1384 0064 2896      		adiw r28,8
 1385 0066 0FB6      		in __tmp_reg__,__SREG__
 1386 0068 F894      		cli
 1387 006a DEBF      		out __SP_H__,r29
 1388 006c 0FBE      		out __SREG__,__tmp_reg__
 1389 006e CDBF      		out __SP_L__,r28
 1390 0070 DF91      		pop r29
 1391 0072 CF91      		pop r28
 1392 0074 0895      		ret
 1393               	.LFE1:
 1395               	.global	my_fabs
 1397               	my_fabs:
 1398               	.LFB2:
 274:adpcm.c       **** 
 275:adpcm.c       **** /* MAX: 1 */
 276:adpcm.c       **** int32_t my_fabs(int32_t n)
 277:adpcm.c       **** {
 1399               		.loc 1 277 0
 1400 0076 CF93      		push r28
 1401               	.LCFI4:
 1402 0078 DF93      		push r29
 1403               	.LCFI5:
 1404 007a CDB7      		in r28,__SP_L__
 1405 007c DEB7      		in r29,__SP_H__
 1406               	.LCFI6:
 1407 007e 2897      		sbiw r28,8
 1408               	.LCFI7:
 1409 0080 0FB6      		in __tmp_reg__,__SREG__
 1410 0082 F894      		cli
 1411 0084 DEBF      		out __SP_H__,r29
 1412 0086 0FBE      		out __SREG__,__tmp_reg__
 1413 0088 CDBF      		out __SP_L__,r28
 1414               	/* prologue: function */
 1415               	/* frame size = 8 */
 1416               	/* stack size = 10 */
 1417               	.L__stack_usage = 10
 1418 008a 6D83      		std Y+5,r22
 1419 008c 7E83      		std Y+6,r23
 1420 008e 8F83      		std Y+7,r24
 1421 0090 9887      		std Y+8,r25
 278:adpcm.c       ****   int32_t f;
 279:adpcm.c       **** 
 280:adpcm.c       ****   if (n >= 0) f = n;
 1422               		.loc 1 280 0
 1423 0092 8D81      		ldd r24,Y+5
 1424 0094 9E81      		ldd r25,Y+6
 1425 0096 AF81      		ldd r26,Y+7
 1426 0098 B885      		ldd r27,Y+8
 1427 009a BB23      		tst r27
 1428 009c 04F0      		brlt .L6
 1429               		.loc 1 280 0 is_stmt 0 discriminator 1
 1430 009e 8D81      		ldd r24,Y+5
 1431 00a0 9E81      		ldd r25,Y+6
 1432 00a2 AF81      		ldd r26,Y+7
 1433 00a4 B885      		ldd r27,Y+8
 1434 00a6 8983      		std Y+1,r24
 1435 00a8 9A83      		std Y+2,r25
 1436 00aa AB83      		std Y+3,r26
 1437 00ac BC83      		std Y+4,r27
 1438 00ae 00C0      		rjmp .L7
 1439               	.L6:
 281:adpcm.c       ****   else f = -n;
 1440               		.loc 1 281 0 is_stmt 1
 1441 00b0 8D81      		ldd r24,Y+5
 1442 00b2 9E81      		ldd r25,Y+6
 1443 00b4 AF81      		ldd r26,Y+7
 1444 00b6 B885      		ldd r27,Y+8
 1445 00b8 B095      		com r27
 1446 00ba A095      		com r26
 1447 00bc 9095      		com r25
 1448 00be 8195      		neg r24
 1449 00c0 9F4F      		sbci r25,lo8(-1)
 1450 00c2 AF4F      		sbci r26,lo8(-1)
 1451 00c4 BF4F      		sbci r27,lo8(-1)
 1452 00c6 8983      		std Y+1,r24
 1453 00c8 9A83      		std Y+2,r25
 1454 00ca AB83      		std Y+3,r26
 1455 00cc BC83      		std Y+4,r27
 1456               	.L7:
 282:adpcm.c       ****   return f;
 1457               		.loc 1 282 0
 1458 00ce 8981      		ldd r24,Y+1
 1459 00d0 9A81      		ldd r25,Y+2
 1460 00d2 AB81      		ldd r26,Y+3
 1461 00d4 BC81      		ldd r27,Y+4
 283:adpcm.c       **** }
 1462               		.loc 1 283 0
 1463 00d6 BC01      		movw r22,r24
 1464 00d8 CD01      		movw r24,r26
 1465               	/* epilogue start */
 1466 00da 2896      		adiw r28,8
 1467 00dc 0FB6      		in __tmp_reg__,__SREG__
 1468 00de F894      		cli
 1469 00e0 DEBF      		out __SP_H__,r29
 1470 00e2 0FBE      		out __SREG__,__tmp_reg__
 1471 00e4 CDBF      		out __SP_L__,r28
 1472 00e6 DF91      		pop r29
 1473 00e8 CF91      		pop r28
 1474 00ea 0895      		ret
 1475               	.LFE2:
 1477               	.global	my_sin
 1479               	my_sin:
 1480               	.LFB3:
 284:adpcm.c       **** 
 285:adpcm.c       **** int32_t my_sin(int32_t rad)
 286:adpcm.c       **** {
 1481               		.loc 1 286 0
 1482 00ec EF92      		push r14
 1483               	.LCFI8:
 1484 00ee FF92      		push r15
 1485               	.LCFI9:
 1486 00f0 0F93      		push r16
 1487               	.LCFI10:
 1488 00f2 1F93      		push r17
 1489               	.LCFI11:
 1490 00f4 CF93      		push r28
 1491               	.LCFI12:
 1492 00f6 DF93      		push r29
 1493               	.LCFI13:
 1494 00f8 CDB7      		in r28,__SP_L__
 1495 00fa DEB7      		in r29,__SP_H__
 1496               	.LCFI14:
 1497 00fc 6097      		sbiw r28,16
 1498               	.LCFI15:
 1499 00fe 0FB6      		in __tmp_reg__,__SREG__
 1500 0100 F894      		cli
 1501 0102 DEBF      		out __SP_H__,r29
 1502 0104 0FBE      		out __SREG__,__tmp_reg__
 1503 0106 CDBF      		out __SP_L__,r28
 1504               	/* prologue: function */
 1505               	/* frame size = 16 */
 1506               	/* stack size = 22 */
 1507               	.L__stack_usage = 22
 1508 0108 6D87      		std Y+13,r22
 1509 010a 7E87      		std Y+14,r23
 1510 010c 8F87      		std Y+15,r24
 1511 010e 988B      		std Y+16,r25
 287:adpcm.c       ****   int32_t diff;
 288:adpcm.c       ****   int32_t app=0;
 1512               		.loc 1 288 0
 1513 0110 1D82      		std Y+5,__zero_reg__
 1514 0112 1E82      		std Y+6,__zero_reg__
 1515 0114 1F82      		std Y+7,__zero_reg__
 1516 0116 1886      		std Y+8,__zero_reg__
 289:adpcm.c       **** 
 290:adpcm.c       ****   int32_t inc = 1;
 1517               		.loc 1 290 0
 1518 0118 81E0      		ldi r24,lo8(1)
 1519 011a 90E0      		ldi r25,0
 1520 011c A0E0      		ldi r26,0
 1521 011e B0E0      		ldi r27,0
 1522 0120 8987      		std Y+9,r24
 1523 0122 9A87      		std Y+10,r25
 1524 0124 AB87      		std Y+11,r26
 1525 0126 BC87      		std Y+12,r27
 291:adpcm.c       **** 
 292:adpcm.c       ****   /* MAX dependent on rad's value, say 50 */
 293:adpcm.c       ****   while (rad > 2*PI)
 1526               		.loc 1 293 0
 1527 0128 00C0      		rjmp .L10
 1528               	.L11:
 294:adpcm.c       ****       rad -= 2*PI;
 1529               		.loc 1 294 0
 1530 012a 8D85      		ldd r24,Y+13
 1531 012c 9E85      		ldd r25,Y+14
 1532 012e AF85      		ldd r26,Y+15
 1533 0130 B889      		ldd r27,Y+16
 1534 0132 8A58      		subi r24,-118
 1535 0134 9841      		sbci r25,24
 1536 0136 A109      		sbc r26,__zero_reg__
 1537 0138 B109      		sbc r27,__zero_reg__
 1538 013a 8D87      		std Y+13,r24
 1539 013c 9E87      		std Y+14,r25
 1540 013e AF87      		std Y+15,r26
 1541 0140 B88B      		std Y+16,r27
 1542               	.L10:
 293:adpcm.c       ****   while (rad > 2*PI)
 1543               		.loc 1 293 0 discriminator 1
 1544 0142 8D85      		ldd r24,Y+13
 1545 0144 9E85      		ldd r25,Y+14
 1546 0146 AF85      		ldd r26,Y+15
 1547 0148 B889      		ldd r27,Y+16
 1548 014a 8B38      		cpi r24,-117
 1549 014c 28E1      		ldi r18,24
 1550 014e 9207      		cpc r25,r18
 1551 0150 A105      		cpc r26,__zero_reg__
 1552 0152 B105      		cpc r27,__zero_reg__
 1553 0154 04F4      		brge .L11
 295:adpcm.c       ****   /* MAX dependent on rad's value, say 50 */
 296:adpcm.c       ****   while (rad < -2*PI)
 1554               		.loc 1 296 0
 1555 0156 00C0      		rjmp .L12
 1556               	.L13:
 297:adpcm.c       ****       rad += 2*PI;
 1557               		.loc 1 297 0
 1558 0158 8D85      		ldd r24,Y+13
 1559 015a 9E85      		ldd r25,Y+14
 1560 015c AF85      		ldd r26,Y+15
 1561 015e B889      		ldd r27,Y+16
 1562 0160 8657      		subi r24,118
 1563 0162 974E      		sbci r25,-25
 1564 0164 AF4F      		sbci r26,-1
 1565 0166 BF4F      		sbci r27,-1
 1566 0168 8D87      		std Y+13,r24
 1567 016a 9E87      		std Y+14,r25
 1568 016c AF87      		std Y+15,r26
 1569 016e B88B      		std Y+16,r27
 1570               	.L12:
 296:adpcm.c       ****   while (rad < -2*PI)
 1571               		.loc 1 296 0 discriminator 1
 1572 0170 8D85      		ldd r24,Y+13
 1573 0172 9E85      		ldd r25,Y+14
 1574 0174 AF85      		ldd r26,Y+15
 1575 0176 B889      		ldd r27,Y+16
 1576 0178 8637      		cpi r24,118
 1577 017a 27EE      		ldi r18,-25
 1578 017c 9207      		cpc r25,r18
 1579 017e 2FEF      		ldi r18,-1
 1580 0180 A207      		cpc r26,r18
 1581 0182 B207      		cpc r27,r18
 1582 0184 04F0      		brlt .L13
 298:adpcm.c       ****    diff = rad;
 1583               		.loc 1 298 0
 1584 0186 8D85      		ldd r24,Y+13
 1585 0188 9E85      		ldd r25,Y+14
 1586 018a AF85      		ldd r26,Y+15
 1587 018c B889      		ldd r27,Y+16
 1588 018e 8983      		std Y+1,r24
 1589 0190 9A83      		std Y+2,r25
 1590 0192 AB83      		std Y+3,r26
 1591 0194 BC83      		std Y+4,r27
 299:adpcm.c       ****    app = diff;
 1592               		.loc 1 299 0
 1593 0196 8981      		ldd r24,Y+1
 1594 0198 9A81      		ldd r25,Y+2
 1595 019a AB81      		ldd r26,Y+3
 1596 019c BC81      		ldd r27,Y+4
 1597 019e 8D83      		std Y+5,r24
 1598 01a0 9E83      		std Y+6,r25
 1599 01a2 AF83      		std Y+7,r26
 1600 01a4 B887      		std Y+8,r27
 300:adpcm.c       ****   diff = (diff * (-(rad*rad))) /
 1601               		.loc 1 300 0
 1602 01a6 2D85      		ldd r18,Y+13
 1603 01a8 3E85      		ldd r19,Y+14
 1604 01aa 4F85      		ldd r20,Y+15
 1605 01ac 5889      		ldd r21,Y+16
 1606 01ae 8D85      		ldd r24,Y+13
 1607 01b0 9E85      		ldd r25,Y+14
 1608 01b2 AF85      		ldd r26,Y+15
 1609 01b4 B889      		ldd r27,Y+16
 1610 01b6 BC01      		movw r22,r24
 1611 01b8 CD01      		movw r24,r26
 1612 01ba 0E94 0000 		call __mulsi3
 1613 01be DC01      		movw r26,r24
 1614 01c0 CB01      		movw r24,r22
 1615 01c2 2227      		clr r18
 1616 01c4 3327      		clr r19
 1617 01c6 A901      		movw r20,r18
 1618 01c8 281B      		sub r18,r24
 1619 01ca 390B      		sbc r19,r25
 1620 01cc 4A0B      		sbc r20,r26
 1621 01ce 5B0B      		sbc r21,r27
 1622 01d0 8981      		ldd r24,Y+1
 1623 01d2 9A81      		ldd r25,Y+2
 1624 01d4 AB81      		ldd r26,Y+3
 1625 01d6 BC81      		ldd r27,Y+4
 1626 01d8 BC01      		movw r22,r24
 1627 01da CD01      		movw r24,r26
 1628 01dc 0E94 0000 		call __mulsi3
 1629 01e0 7B01      		movw r14,r22
 1630 01e2 8C01      		movw r16,r24
 301:adpcm.c       ****      ((2 * inc) * (2 * inc + 1));
 1631               		.loc 1 301 0
 1632 01e4 8985      		ldd r24,Y+9
 1633 01e6 9A85      		ldd r25,Y+10
 1634 01e8 AB85      		ldd r26,Y+11
 1635 01ea BC85      		ldd r27,Y+12
 1636 01ec 9C01      		movw r18,r24
 1637 01ee AD01      		movw r20,r26
 1638 01f0 220F      		lsl r18
 1639 01f2 331F      		rol r19
 1640 01f4 441F      		rol r20
 1641 01f6 551F      		rol r21
 1642 01f8 8985      		ldd r24,Y+9
 1643 01fa 9A85      		ldd r25,Y+10
 1644 01fc AB85      		ldd r26,Y+11
 1645 01fe BC85      		ldd r27,Y+12
 1646 0200 880F      		lsl r24
 1647 0202 991F      		rol r25
 1648 0204 AA1F      		rol r26
 1649 0206 BB1F      		rol r27
 1650 0208 0196      		adiw r24,1
 1651 020a A11D      		adc r26,__zero_reg__
 1652 020c B11D      		adc r27,__zero_reg__
 1653 020e BC01      		movw r22,r24
 1654 0210 CD01      		movw r24,r26
 1655 0212 0E94 0000 		call __mulsi3
 1656 0216 9B01      		movw r18,r22
 1657 0218 AC01      		movw r20,r24
 300:adpcm.c       ****   diff = (diff * (-(rad*rad))) /
 1658               		.loc 1 300 0
 1659 021a C801      		movw r24,r16
 1660 021c B701      		movw r22,r14
 1661 021e 0E94 0000 		call __divmodsi4
 1662 0222 2983      		std Y+1,r18
 1663 0224 3A83      		std Y+2,r19
 1664 0226 4B83      		std Y+3,r20
 1665 0228 5C83      		std Y+4,r21
 302:adpcm.c       ****   app = app + diff;
 1666               		.loc 1 302 0
 1667 022a 2D81      		ldd r18,Y+5
 1668 022c 3E81      		ldd r19,Y+6
 1669 022e 4F81      		ldd r20,Y+7
 1670 0230 5885      		ldd r21,Y+8
 1671 0232 8981      		ldd r24,Y+1
 1672 0234 9A81      		ldd r25,Y+2
 1673 0236 AB81      		ldd r26,Y+3
 1674 0238 BC81      		ldd r27,Y+4
 1675 023a 820F      		add r24,r18
 1676 023c 931F      		adc r25,r19
 1677 023e A41F      		adc r26,r20
 1678 0240 B51F      		adc r27,r21
 1679 0242 8D83      		std Y+5,r24
 1680 0244 9E83      		std Y+6,r25
 1681 0246 AF83      		std Y+7,r26
 1682 0248 B887      		std Y+8,r27
 303:adpcm.c       ****   inc++;
 1683               		.loc 1 303 0
 1684 024a 8985      		ldd r24,Y+9
 1685 024c 9A85      		ldd r25,Y+10
 1686 024e AB85      		ldd r26,Y+11
 1687 0250 BC85      		ldd r27,Y+12
 1688 0252 0196      		adiw r24,1
 1689 0254 A11D      		adc r26,__zero_reg__
 1690 0256 B11D      		adc r27,__zero_reg__
 1691 0258 8987      		std Y+9,r24
 1692 025a 9A87      		std Y+10,r25
 1693 025c AB87      		std Y+11,r26
 1694 025e BC87      		std Y+12,r27
 304:adpcm.c       ****   /* REALLY: while(my_fabs(diff) >= 0.00001) { */
 305:adpcm.c       ****   /* MAX: 1000 */
 306:adpcm.c       ****   while(my_fabs(diff) >= 1) {
 1695               		.loc 1 306 0
 1696 0260 00C0      		rjmp .L14
 1697               	.L15:
 307:adpcm.c       ****     diff = (diff * (-(rad*rad))) /
 1698               		.loc 1 307 0
 1699 0262 2D85      		ldd r18,Y+13
 1700 0264 3E85      		ldd r19,Y+14
 1701 0266 4F85      		ldd r20,Y+15
 1702 0268 5889      		ldd r21,Y+16
 1703 026a 8D85      		ldd r24,Y+13
 1704 026c 9E85      		ldd r25,Y+14
 1705 026e AF85      		ldd r26,Y+15
 1706 0270 B889      		ldd r27,Y+16
 1707 0272 BC01      		movw r22,r24
 1708 0274 CD01      		movw r24,r26
 1709 0276 0E94 0000 		call __mulsi3
 1710 027a DC01      		movw r26,r24
 1711 027c CB01      		movw r24,r22
 1712 027e 2227      		clr r18
 1713 0280 3327      		clr r19
 1714 0282 A901      		movw r20,r18
 1715 0284 281B      		sub r18,r24
 1716 0286 390B      		sbc r19,r25
 1717 0288 4A0B      		sbc r20,r26
 1718 028a 5B0B      		sbc r21,r27
 1719 028c 8981      		ldd r24,Y+1
 1720 028e 9A81      		ldd r25,Y+2
 1721 0290 AB81      		ldd r26,Y+3
 1722 0292 BC81      		ldd r27,Y+4
 1723 0294 BC01      		movw r22,r24
 1724 0296 CD01      		movw r24,r26
 1725 0298 0E94 0000 		call __mulsi3
 1726 029c 7B01      		movw r14,r22
 1727 029e 8C01      		movw r16,r24
 308:adpcm.c       **** 	((2 * inc) * (2 * inc + 1));
 1728               		.loc 1 308 0
 1729 02a0 8985      		ldd r24,Y+9
 1730 02a2 9A85      		ldd r25,Y+10
 1731 02a4 AB85      		ldd r26,Y+11
 1732 02a6 BC85      		ldd r27,Y+12
 1733 02a8 9C01      		movw r18,r24
 1734 02aa AD01      		movw r20,r26
 1735 02ac 220F      		lsl r18
 1736 02ae 331F      		rol r19
 1737 02b0 441F      		rol r20
 1738 02b2 551F      		rol r21
 1739 02b4 8985      		ldd r24,Y+9
 1740 02b6 9A85      		ldd r25,Y+10
 1741 02b8 AB85      		ldd r26,Y+11
 1742 02ba BC85      		ldd r27,Y+12
 1743 02bc 880F      		lsl r24
 1744 02be 991F      		rol r25
 1745 02c0 AA1F      		rol r26
 1746 02c2 BB1F      		rol r27
 1747 02c4 0196      		adiw r24,1
 1748 02c6 A11D      		adc r26,__zero_reg__
 1749 02c8 B11D      		adc r27,__zero_reg__
 1750 02ca BC01      		movw r22,r24
 1751 02cc CD01      		movw r24,r26
 1752 02ce 0E94 0000 		call __mulsi3
 1753 02d2 9B01      		movw r18,r22
 1754 02d4 AC01      		movw r20,r24
 307:adpcm.c       ****     diff = (diff * (-(rad*rad))) /
 1755               		.loc 1 307 0
 1756 02d6 C801      		movw r24,r16
 1757 02d8 B701      		movw r22,r14
 1758 02da 0E94 0000 		call __divmodsi4
 1759 02de 2983      		std Y+1,r18
 1760 02e0 3A83      		std Y+2,r19
 1761 02e2 4B83      		std Y+3,r20
 1762 02e4 5C83      		std Y+4,r21
 309:adpcm.c       ****     app = app + diff;
 1763               		.loc 1 309 0
 1764 02e6 2D81      		ldd r18,Y+5
 1765 02e8 3E81      		ldd r19,Y+6
 1766 02ea 4F81      		ldd r20,Y+7
 1767 02ec 5885      		ldd r21,Y+8
 1768 02ee 8981      		ldd r24,Y+1
 1769 02f0 9A81      		ldd r25,Y+2
 1770 02f2 AB81      		ldd r26,Y+3
 1771 02f4 BC81      		ldd r27,Y+4
 1772 02f6 820F      		add r24,r18
 1773 02f8 931F      		adc r25,r19
 1774 02fa A41F      		adc r26,r20
 1775 02fc B51F      		adc r27,r21
 1776 02fe 8D83      		std Y+5,r24
 1777 0300 9E83      		std Y+6,r25
 1778 0302 AF83      		std Y+7,r26
 1779 0304 B887      		std Y+8,r27
 310:adpcm.c       ****     inc++;
 1780               		.loc 1 310 0
 1781 0306 8985      		ldd r24,Y+9
 1782 0308 9A85      		ldd r25,Y+10
 1783 030a AB85      		ldd r26,Y+11
 1784 030c BC85      		ldd r27,Y+12
 1785 030e 0196      		adiw r24,1
 1786 0310 A11D      		adc r26,__zero_reg__
 1787 0312 B11D      		adc r27,__zero_reg__
 1788 0314 8987      		std Y+9,r24
 1789 0316 9A87      		std Y+10,r25
 1790 0318 AB87      		std Y+11,r26
 1791 031a BC87      		std Y+12,r27
 1792               	.L14:
 306:adpcm.c       ****   while(my_fabs(diff) >= 1) {
 1793               		.loc 1 306 0 discriminator 1
 1794 031c 8981      		ldd r24,Y+1
 1795 031e 9A81      		ldd r25,Y+2
 1796 0320 AB81      		ldd r26,Y+3
 1797 0322 BC81      		ldd r27,Y+4
 1798 0324 BC01      		movw r22,r24
 1799 0326 CD01      		movw r24,r26
 1800 0328 0E94 0000 		call my_fabs
 1801 032c DC01      		movw r26,r24
 1802 032e CB01      		movw r24,r22
 1803 0330 1816      		cp __zero_reg__,r24
 1804 0332 1906      		cpc __zero_reg__,r25
 1805 0334 1A06      		cpc __zero_reg__,r26
 1806 0336 1B06      		cpc __zero_reg__,r27
 1807 0338 04F4      		brge .+2
 1808 033a 00C0      		rjmp .L15
 311:adpcm.c       ****   }
 312:adpcm.c       **** 
 313:adpcm.c       ****   return app;
 1809               		.loc 1 313 0
 1810 033c 8D81      		ldd r24,Y+5
 1811 033e 9E81      		ldd r25,Y+6
 1812 0340 AF81      		ldd r26,Y+7
 1813 0342 B885      		ldd r27,Y+8
 314:adpcm.c       **** }
 1814               		.loc 1 314 0
 1815 0344 BC01      		movw r22,r24
 1816 0346 CD01      		movw r24,r26
 1817               	/* epilogue start */
 1818 0348 6096      		adiw r28,16
 1819 034a 0FB6      		in __tmp_reg__,__SREG__
 1820 034c F894      		cli
 1821 034e DEBF      		out __SP_H__,r29
 1822 0350 0FBE      		out __SREG__,__tmp_reg__
 1823 0352 CDBF      		out __SP_L__,r28
 1824 0354 DF91      		pop r29
 1825 0356 CF91      		pop r28
 1826 0358 1F91      		pop r17
 1827 035a 0F91      		pop r16
 1828 035c FF90      		pop r15
 1829 035e EF90      		pop r14
 1830 0360 0895      		ret
 1831               	.LFE3:
 1833               	.global	my_cos
 1835               	my_cos:
 1836               	.LFB4:
 315:adpcm.c       **** 
 316:adpcm.c       **** 
 317:adpcm.c       **** int32_t my_cos(int32_t rad)
 318:adpcm.c       **** {
 1837               		.loc 1 318 0
 1838 0362 EF92      		push r14
 1839               	.LCFI16:
 1840 0364 FF92      		push r15
 1841               	.LCFI17:
 1842 0366 0F93      		push r16
 1843               	.LCFI18:
 1844 0368 1F93      		push r17
 1845               	.LCFI19:
 1846 036a CF93      		push r28
 1847               	.LCFI20:
 1848 036c DF93      		push r29
 1849               	.LCFI21:
 1850 036e 00D0      		rcall .
 1851 0370 00D0      		rcall .
 1852               	.LCFI22:
 1853 0372 CDB7      		in r28,__SP_L__
 1854 0374 DEB7      		in r29,__SP_H__
 1855               	.LCFI23:
 1856               	/* prologue: function */
 1857               	/* frame size = 4 */
 1858               	/* stack size = 10 */
 1859               	.L__stack_usage = 10
 1860 0376 6983      		std Y+1,r22
 1861 0378 7A83      		std Y+2,r23
 1862 037a 8B83      		std Y+3,r24
 1863 037c 9C83      		std Y+4,r25
 319:adpcm.c       ****   return (my_sin (PI / 2 - rad));
 1864               		.loc 1 319 0
 1865 037e 22E2      		ldi r18,lo8(34)
 1866 0380 36E0      		ldi r19,lo8(6)
 1867 0382 40E0      		ldi r20,0
 1868 0384 50E0      		ldi r21,0
 1869 0386 8981      		ldd r24,Y+1
 1870 0388 9A81      		ldd r25,Y+2
 1871 038a AB81      		ldd r26,Y+3
 1872 038c BC81      		ldd r27,Y+4
 1873 038e 7901      		movw r14,r18
 1874 0390 8A01      		movw r16,r20
 1875 0392 E81A      		sub r14,r24
 1876 0394 F90A      		sbc r15,r25
 1877 0396 0A0B      		sbc r16,r26
 1878 0398 1B0B      		sbc r17,r27
 1879 039a D801      		movw r26,r16
 1880 039c C701      		movw r24,r14
 1881 039e BC01      		movw r22,r24
 1882 03a0 CD01      		movw r24,r26
 1883 03a2 0E94 0000 		call my_sin
 1884 03a6 DC01      		movw r26,r24
 1885 03a8 CB01      		movw r24,r22
 320:adpcm.c       **** }
 1886               		.loc 1 320 0
 1887 03aa BC01      		movw r22,r24
 1888 03ac CD01      		movw r24,r26
 1889               	/* epilogue start */
 1890 03ae 0F90      		pop __tmp_reg__
 1891 03b0 0F90      		pop __tmp_reg__
 1892 03b2 0F90      		pop __tmp_reg__
 1893 03b4 0F90      		pop __tmp_reg__
 1894 03b6 DF91      		pop r29
 1895 03b8 CF91      		pop r28
 1896 03ba 1F91      		pop r17
 1897 03bc 0F91      		pop r16
 1898 03be FF90      		pop r15
 1899 03c0 EF90      		pop r14
 1900 03c2 0895      		ret
 1901               	.LFE4:
 1903               	.global	__muldi3
 1904               	.global	encode
 1906               	encode:
 1907               	.LFB5:
 321:adpcm.c       **** 
 322:adpcm.c       **** 
 323:adpcm.c       **** /* MAX: 1 */
 324:adpcm.c       **** int32_t encode(int32_t xin1,int32_t xin2)
 325:adpcm.c       **** {
 1908               		.loc 1 325 0
 1909 03c4 2F92      		push r2
 1910               	.LCFI24:
 1911 03c6 3F92      		push r3
 1912               	.LCFI25:
 1913 03c8 4F92      		push r4
 1914               	.LCFI26:
 1915 03ca 5F92      		push r5
 1916               	.LCFI27:
 1917 03cc 6F92      		push r6
 1918               	.LCFI28:
 1919 03ce 7F92      		push r7
 1920               	.LCFI29:
 1921 03d0 8F92      		push r8
 1922               	.LCFI30:
 1923 03d2 9F92      		push r9
 1924               	.LCFI31:
 1925 03d4 AF92      		push r10
 1926               	.LCFI32:
 1927 03d6 BF92      		push r11
 1928               	.LCFI33:
 1929 03d8 CF92      		push r12
 1930               	.LCFI34:
 1931 03da DF92      		push r13
 1932               	.LCFI35:
 1933 03dc EF92      		push r14
 1934               	.LCFI36:
 1935 03de FF92      		push r15
 1936               	.LCFI37:
 1937 03e0 0F93      		push r16
 1938               	.LCFI38:
 1939 03e2 1F93      		push r17
 1940               	.LCFI39:
 1941 03e4 CF93      		push r28
 1942               	.LCFI40:
 1943 03e6 DF93      		push r29
 1944               	.LCFI41:
 1945 03e8 CDB7      		in r28,__SP_L__
 1946 03ea DEB7      		in r29,__SP_H__
 1947               	.LCFI42:
 1948 03ec C65A      		subi r28,-90
 1949 03ee D109      		sbc r29,__zero_reg__
 1950               	.LCFI43:
 1951 03f0 0FB6      		in __tmp_reg__,__SREG__
 1952 03f2 F894      		cli
 1953 03f4 DEBF      		out __SP_H__,r29
 1954 03f6 0FBE      		out __SREG__,__tmp_reg__
 1955 03f8 CDBF      		out __SP_L__,r28
 1956               	/* prologue: function */
 1957               	/* frame size = 166 */
 1958               	/* stack size = 184 */
 1959               	.L__stack_usage = 184
 1960 03fa 6F8F      		std Y+31,r22
 1961 03fc 78A3      		std Y+32,r23
 1962 03fe 89A3      		std Y+33,r24
 1963 0400 9AA3      		std Y+34,r25
 1964 0402 2BA3      		std Y+35,r18
 1965 0404 3CA3      		std Y+36,r19
 1966 0406 4DA3      		std Y+37,r20
 1967 0408 5EA3      		std Y+38,r21
 326:adpcm.c       ****     int32_t i;
 327:adpcm.c       ****     int32_t *h_ptr,*tqmf_ptr,*tqmf_ptr1;
 328:adpcm.c       ****     int64_t  xa,xb;
 329:adpcm.c       ****     int32_t decis;
 330:adpcm.c       **** 
 331:adpcm.c       **** /* transmit quadrature mirror filters implemented here */
 332:adpcm.c       ****     h_ptr = h;
 1968               		.loc 1 332 0
 1969 040a 80E0      		ldi r24,lo8(h)
 1970 040c 90E0      		ldi r25,hi8(h)
 1971 040e 9E83      		std Y+6,r25
 1972 0410 8D83      		std Y+5,r24
 333:adpcm.c       ****     tqmf_ptr = tqmf;
 1973               		.loc 1 333 0
 1974 0412 80E0      		ldi r24,lo8(tqmf)
 1975 0414 90E0      		ldi r25,hi8(tqmf)
 1976 0416 9887      		std Y+8,r25
 1977 0418 8F83      		std Y+7,r24
 334:adpcm.c       ****     xa = (int64_t)(*tqmf_ptr++) * (*h_ptr++);
 1978               		.loc 1 334 0
 1979 041a 8F81      		ldd r24,Y+7
 1980 041c 9885      		ldd r25,Y+8
 1981 041e FC01      		movw r30,r24
 1982 0420 8081      		ld r24,Z
 1983 0422 9181      		ldd r25,Z+1
 1984 0424 A281      		ldd r26,Z+2
 1985 0426 B381      		ldd r27,Z+3
 1986 0428 8FA3      		std Y+39,r24
 1987 042a 98A7      		std Y+40,r25
 1988 042c A9A7      		std Y+41,r26
 1989 042e BAA7      		std Y+42,r27
 1990 0430 BB0F      		lsl r27
 1991 0432 880B      		sbc r24,r24
 1992 0434 982F      		mov r25,r24
 1993 0436 DC01      		movw r26,r24
 1994 0438 8BA7      		std Y+43,r24
 1995 043a 8CA7      		std Y+44,r24
 1996 043c 8DA7      		std Y+45,r24
 1997 043e 8EA7      		std Y+46,r24
 1998 0440 8D81      		ldd r24,Y+5
 1999 0442 9E81      		ldd r25,Y+6
 2000 0444 FC01      		movw r30,r24
 2001 0446 8081      		ld r24,Z
 2002 0448 9181      		ldd r25,Z+1
 2003 044a A281      		ldd r26,Z+2
 2004 044c B381      		ldd r27,Z+3
 2005 044e 1C01      		movw r2,r24
 2006 0450 2D01      		movw r4,r26
 2007 0452 BB0F      		lsl r27
 2008 0454 880B      		sbc r24,r24
 2009 0456 982F      		mov r25,r24
 2010 0458 DC01      		movw r26,r24
 2011 045a 682E      		mov r6,r24
 2012 045c 782E      		mov r7,r24
 2013 045e 882E      		mov r8,r24
 2014 0460 982E      		mov r9,r24
 2015 0462 A22C      		mov r10,r2
 2016 0464 B32C      		mov r11,r3
 2017 0466 C42C      		mov r12,r4
 2018 0468 D52C      		mov r13,r5
 2019 046a E62C      		mov r14,r6
 2020 046c F72C      		mov r15,r7
 2021 046e 082D      		mov r16,r8
 2022 0470 192D      		mov r17,r9
 2023 0472 2FA1      		ldd r18,Y+39
 2024 0474 38A5      		ldd r19,Y+40
 2025 0476 49A5      		ldd r20,Y+41
 2026 0478 5AA5      		ldd r21,Y+42
 2027 047a 6BA5      		ldd r22,Y+43
 2028 047c 7CA5      		ldd r23,Y+44
 2029 047e 8DA5      		ldd r24,Y+45
 2030 0480 9EA5      		ldd r25,Y+46
 2031 0482 0E94 0000 		call __muldi3
 2032 0486 A22E      		mov r10,r18
 2033 0488 B32E      		mov r11,r19
 2034 048a C42E      		mov r12,r20
 2035 048c D52E      		mov r13,r21
 2036 048e E62E      		mov r14,r22
 2037 0490 F72E      		mov r15,r23
 2038 0492 082F      		mov r16,r24
 2039 0494 192F      		mov r17,r25
 2040 0496 AB86      		std Y+11,r10
 2041 0498 BC86      		std Y+12,r11
 2042 049a CD86      		std Y+13,r12
 2043 049c DE86      		std Y+14,r13
 2044 049e EF86      		std Y+15,r14
 2045 04a0 F88A      		std Y+16,r15
 2046 04a2 098B      		std Y+17,r16
 2047 04a4 1A8B      		std Y+18,r17
 2048 04a6 8F81      		ldd r24,Y+7
 2049 04a8 9885      		ldd r25,Y+8
 2050 04aa 0496      		adiw r24,4
 2051 04ac 9887      		std Y+8,r25
 2052 04ae 8F83      		std Y+7,r24
 2053 04b0 8D81      		ldd r24,Y+5
 2054 04b2 9E81      		ldd r25,Y+6
 2055 04b4 0496      		adiw r24,4
 2056 04b6 9E83      		std Y+6,r25
 2057 04b8 8D83      		std Y+5,r24
 335:adpcm.c       ****     xb = (int64_t)(*tqmf_ptr++) * (*h_ptr++);
 2058               		.loc 1 335 0
 2059 04ba 8F81      		ldd r24,Y+7
 2060 04bc 9885      		ldd r25,Y+8
 2061 04be FC01      		movw r30,r24
 2062 04c0 8081      		ld r24,Z
 2063 04c2 9181      		ldd r25,Z+1
 2064 04c4 A281      		ldd r26,Z+2
 2065 04c6 B381      		ldd r27,Z+3
 2066 04c8 8FA7      		std Y+47,r24
 2067 04ca 98AB      		std Y+48,r25
 2068 04cc A9AB      		std Y+49,r26
 2069 04ce BAAB      		std Y+50,r27
 2070 04d0 BB0F      		lsl r27
 2071 04d2 880B      		sbc r24,r24
 2072 04d4 982F      		mov r25,r24
 2073 04d6 DC01      		movw r26,r24
 2074 04d8 8BAB      		std Y+51,r24
 2075 04da 8CAB      		std Y+52,r24
 2076 04dc 8DAB      		std Y+53,r24
 2077 04de 8EAB      		std Y+54,r24
 2078 04e0 8D81      		ldd r24,Y+5
 2079 04e2 9E81      		ldd r25,Y+6
 2080 04e4 FC01      		movw r30,r24
 2081 04e6 8081      		ld r24,Z
 2082 04e8 9181      		ldd r25,Z+1
 2083 04ea A281      		ldd r26,Z+2
 2084 04ec B381      		ldd r27,Z+3
 2085 04ee 8FAB      		std Y+55,r24
 2086 04f0 98AF      		std Y+56,r25
 2087 04f2 A9AF      		std Y+57,r26
 2088 04f4 BAAF      		std Y+58,r27
 2089 04f6 BB0F      		lsl r27
 2090 04f8 880B      		sbc r24,r24
 2091 04fa 982F      		mov r25,r24
 2092 04fc DC01      		movw r26,r24
 2093 04fe 8BAF      		std Y+59,r24
 2094 0500 8CAF      		std Y+60,r24
 2095 0502 8DAF      		std Y+61,r24
 2096 0504 8EAF      		std Y+62,r24
 2097 0506 AFA8      		ldd r10,Y+55
 2098 0508 B8AC      		ldd r11,Y+56
 2099 050a C9AC      		ldd r12,Y+57
 2100 050c DAAC      		ldd r13,Y+58
 2101 050e EBAC      		ldd r14,Y+59
 2102 0510 FCAC      		ldd r15,Y+60
 2103 0512 0DAD      		ldd r16,Y+61
 2104 0514 1EAD      		ldd r17,Y+62
 2105 0516 2FA5      		ldd r18,Y+47
 2106 0518 38A9      		ldd r19,Y+48
 2107 051a 49A9      		ldd r20,Y+49
 2108 051c 5AA9      		ldd r21,Y+50
 2109 051e 6BA9      		ldd r22,Y+51
 2110 0520 7CA9      		ldd r23,Y+52
 2111 0522 8DA9      		ldd r24,Y+53
 2112 0524 9EA9      		ldd r25,Y+54
 2113 0526 0E94 0000 		call __muldi3
 2114 052a A22E      		mov r10,r18
 2115 052c B32E      		mov r11,r19
 2116 052e C42E      		mov r12,r20
 2117 0530 D52E      		mov r13,r21
 2118 0532 E62E      		mov r14,r22
 2119 0534 F72E      		mov r15,r23
 2120 0536 082F      		mov r16,r24
 2121 0538 192F      		mov r17,r25
 2122 053a AB8A      		std Y+19,r10
 2123 053c BC8A      		std Y+20,r11
 2124 053e CD8A      		std Y+21,r12
 2125 0540 DE8A      		std Y+22,r13
 2126 0542 EF8A      		std Y+23,r14
 2127 0544 F88E      		std Y+24,r15
 2128 0546 098F      		std Y+25,r16
 2129 0548 1A8F      		std Y+26,r17
 2130 054a 8F81      		ldd r24,Y+7
 2131 054c 9885      		ldd r25,Y+8
 2132 054e 0496      		adiw r24,4
 2133 0550 9887      		std Y+8,r25
 2134 0552 8F83      		std Y+7,r24
 2135 0554 8D81      		ldd r24,Y+5
 2136 0556 9E81      		ldd r25,Y+6
 2137 0558 0496      		adiw r24,4
 2138 055a 9E83      		std Y+6,r25
 2139 055c 8D83      		std Y+5,r24
 336:adpcm.c       **** /* main multiply accumulate loop for samples and coefficients */
 337:adpcm.c       ****     /* MAX: 10 */
 338:adpcm.c       ****     for(i = 0 ; i < 10 ; i++) {
 2140               		.loc 1 338 0
 2141 055e 1982      		std Y+1,__zero_reg__
 2142 0560 1A82      		std Y+2,__zero_reg__
 2143 0562 1B82      		std Y+3,__zero_reg__
 2144 0564 1C82      		std Y+4,__zero_reg__
 2145 0566 00C0      		rjmp .L20
 2146               	.L21:
 339:adpcm.c       ****         xa += (int64_t)(*tqmf_ptr++) * (*h_ptr++);
 2147               		.loc 1 339 0 discriminator 2
 2148 0568 8F81      		ldd r24,Y+7
 2149 056a 9885      		ldd r25,Y+8
 2150 056c FC01      		movw r30,r24
 2151 056e 8081      		ld r24,Z
 2152 0570 9181      		ldd r25,Z+1
 2153 0572 A281      		ldd r26,Z+2
 2154 0574 B381      		ldd r27,Z+3
 2155 0576 2396      		adiw r28,63-60
 2156 0578 8CAF      		std Y+60,r24
 2157 057a 9DAF      		std Y+61,r25
 2158 057c AEAF      		std Y+62,r26
 2159 057e BFAF      		std Y+63,r27
 2160 0580 2397      		sbiw r28,63-60
 2161 0582 BB0F      		lsl r27
 2162 0584 880B      		sbc r24,r24
 2163 0586 982F      		mov r25,r24
 2164 0588 DC01      		movw r26,r24
 2165 058a 2496      		adiw r28,67-63
 2166 058c 8FAF      		std Y+63,r24
 2167 058e 2497      		sbiw r28,67-63
 2168 0590 2596      		adiw r28,68-63
 2169 0592 8FAF      		std Y+63,r24
 2170 0594 2597      		sbiw r28,68-63
 2171 0596 2696      		adiw r28,69-63
 2172 0598 8FAF      		std Y+63,r24
 2173 059a 2697      		sbiw r28,69-63
 2174 059c 2796      		adiw r28,70-63
 2175 059e 8FAF      		std Y+63,r24
 2176 05a0 2797      		sbiw r28,70-63
 2177 05a2 8D81      		ldd r24,Y+5
 2178 05a4 9E81      		ldd r25,Y+6
 2179 05a6 FC01      		movw r30,r24
 2180 05a8 8081      		ld r24,Z
 2181 05aa 9181      		ldd r25,Z+1
 2182 05ac A281      		ldd r26,Z+2
 2183 05ae B381      		ldd r27,Z+3
 2184 05b0 2B96      		adiw r28,71-60
 2185 05b2 8CAF      		std Y+60,r24
 2186 05b4 9DAF      		std Y+61,r25
 2187 05b6 AEAF      		std Y+62,r26
 2188 05b8 BFAF      		std Y+63,r27
 2189 05ba 2B97      		sbiw r28,71-60
 2190 05bc BB0F      		lsl r27
 2191 05be 880B      		sbc r24,r24
 2192 05c0 982F      		mov r25,r24
 2193 05c2 DC01      		movw r26,r24
 2194 05c4 2C96      		adiw r28,75-63
 2195 05c6 8FAF      		std Y+63,r24
 2196 05c8 2C97      		sbiw r28,75-63
 2197 05ca 2D96      		adiw r28,76-63
 2198 05cc 8FAF      		std Y+63,r24
 2199 05ce 2D97      		sbiw r28,76-63
 2200 05d0 2E96      		adiw r28,77-63
 2201 05d2 8FAF      		std Y+63,r24
 2202 05d4 2E97      		sbiw r28,77-63
 2203 05d6 2F96      		adiw r28,78-63
 2204 05d8 8FAF      		std Y+63,r24
 2205 05da 2F97      		sbiw r28,78-63
 2206 05dc 2896      		adiw r28,71-63
 2207 05de AFAC      		ldd r10,Y+63
 2208 05e0 2897      		sbiw r28,71-63
 2209 05e2 2996      		adiw r28,72-63
 2210 05e4 BFAC      		ldd r11,Y+63
 2211 05e6 2997      		sbiw r28,72-63
 2212 05e8 2A96      		adiw r28,73-63
 2213 05ea CFAC      		ldd r12,Y+63
 2214 05ec 2A97      		sbiw r28,73-63
 2215 05ee 2B96      		adiw r28,74-63
 2216 05f0 DFAC      		ldd r13,Y+63
 2217 05f2 2B97      		sbiw r28,74-63
 2218 05f4 2C96      		adiw r28,75-63
 2219 05f6 EFAC      		ldd r14,Y+63
 2220 05f8 2C97      		sbiw r28,75-63
 2221 05fa 2D96      		adiw r28,76-63
 2222 05fc FFAC      		ldd r15,Y+63
 2223 05fe 2D97      		sbiw r28,76-63
 2224 0600 2E96      		adiw r28,77-63
 2225 0602 0FAD      		ldd r16,Y+63
 2226 0604 2E97      		sbiw r28,77-63
 2227 0606 2F96      		adiw r28,78-63
 2228 0608 1FAD      		ldd r17,Y+63
 2229 060a 2F97      		sbiw r28,78-63
 2230 060c 2FAD      		ldd r18,Y+63
 2231 060e 2196      		adiw r28,64-63
 2232 0610 3FAD      		ldd r19,Y+63
 2233 0612 2197      		sbiw r28,64-63
 2234 0614 2296      		adiw r28,65-63
 2235 0616 4FAD      		ldd r20,Y+63
 2236 0618 2297      		sbiw r28,65-63
 2237 061a 2396      		adiw r28,66-63
 2238 061c 5FAD      		ldd r21,Y+63
 2239 061e 2397      		sbiw r28,66-63
 2240 0620 2496      		adiw r28,67-63
 2241 0622 6FAD      		ldd r22,Y+63
 2242 0624 2497      		sbiw r28,67-63
 2243 0626 2596      		adiw r28,68-63
 2244 0628 7FAD      		ldd r23,Y+63
 2245 062a 2597      		sbiw r28,68-63
 2246 062c 2696      		adiw r28,69-63
 2247 062e 8FAD      		ldd r24,Y+63
 2248 0630 2697      		sbiw r28,69-63
 2249 0632 2796      		adiw r28,70-63
 2250 0634 9FAD      		ldd r25,Y+63
 2251 0636 2797      		sbiw r28,70-63
 2252 0638 0E94 0000 		call __muldi3
 2253 063c A22E      		mov r10,r18
 2254 063e B32E      		mov r11,r19
 2255 0640 C42E      		mov r12,r20
 2256 0642 D52E      		mov r13,r21
 2257 0644 E62E      		mov r14,r22
 2258 0646 F72E      		mov r15,r23
 2259 0648 082F      		mov r16,r24
 2260 064a 192F      		mov r17,r25
 2261 064c 2A2C      		mov r2,r10
 2262 064e 3B2C      		mov r3,r11
 2263 0650 4C2C      		mov r4,r12
 2264 0652 5D2C      		mov r5,r13
 2265 0654 6E2C      		mov r6,r14
 2266 0656 7F2C      		mov r7,r15
 2267 0658 802E      		mov r8,r16
 2268 065a 912E      		mov r9,r17
 2269 065c 2B85      		ldd r18,Y+11
 2270 065e 3C85      		ldd r19,Y+12
 2271 0660 4D85      		ldd r20,Y+13
 2272 0662 5E85      		ldd r21,Y+14
 2273 0664 6F85      		ldd r22,Y+15
 2274 0666 7889      		ldd r23,Y+16
 2275 0668 8989      		ldd r24,Y+17
 2276 066a 9A89      		ldd r25,Y+18
 2277 066c A22C      		mov r10,r2
 2278 066e B32C      		mov r11,r3
 2279 0670 C42C      		mov r12,r4
 2280 0672 D52C      		mov r13,r5
 2281 0674 E62C      		mov r14,r6
 2282 0676 F72C      		mov r15,r7
 2283 0678 082D      		mov r16,r8
 2284 067a 192D      		mov r17,r9
 2285 067c 0E94 0000 		call __adddi3
 2286 0680 2B87      		std Y+11,r18
 2287 0682 3C87      		std Y+12,r19
 2288 0684 4D87      		std Y+13,r20
 2289 0686 5E87      		std Y+14,r21
 2290 0688 6F87      		std Y+15,r22
 2291 068a 788B      		std Y+16,r23
 2292 068c 898B      		std Y+17,r24
 2293 068e 9A8B      		std Y+18,r25
 2294 0690 8F81      		ldd r24,Y+7
 2295 0692 9885      		ldd r25,Y+8
 2296 0694 0496      		adiw r24,4
 2297 0696 9887      		std Y+8,r25
 2298 0698 8F83      		std Y+7,r24
 2299 069a 8D81      		ldd r24,Y+5
 2300 069c 9E81      		ldd r25,Y+6
 2301 069e 0496      		adiw r24,4
 2302 06a0 9E83      		std Y+6,r25
 2303 06a2 8D83      		std Y+5,r24
 340:adpcm.c       ****         xb += (int64_t)(*tqmf_ptr++) * (*h_ptr++);
 2304               		.loc 1 340 0 discriminator 2
 2305 06a4 8F81      		ldd r24,Y+7
 2306 06a6 9885      		ldd r25,Y+8
 2307 06a8 FC01      		movw r30,r24
 2308 06aa 8081      		ld r24,Z
 2309 06ac 9181      		ldd r25,Z+1
 2310 06ae A281      		ldd r26,Z+2
 2311 06b0 B381      		ldd r27,Z+3
 2312 06b2 6396      		adiw r28,79-60
 2313 06b4 8CAF      		std Y+60,r24
 2314 06b6 9DAF      		std Y+61,r25
 2315 06b8 AEAF      		std Y+62,r26
 2316 06ba BFAF      		std Y+63,r27
 2317 06bc 6397      		sbiw r28,79-60
 2318 06be BB0F      		lsl r27
 2319 06c0 880B      		sbc r24,r24
 2320 06c2 982F      		mov r25,r24
 2321 06c4 DC01      		movw r26,r24
 2322 06c6 6496      		adiw r28,83-63
 2323 06c8 8FAF      		std Y+63,r24
 2324 06ca 6497      		sbiw r28,83-63
 2325 06cc 6596      		adiw r28,84-63
 2326 06ce 8FAF      		std Y+63,r24
 2327 06d0 6597      		sbiw r28,84-63
 2328 06d2 6696      		adiw r28,85-63
 2329 06d4 8FAF      		std Y+63,r24
 2330 06d6 6697      		sbiw r28,85-63
 2331 06d8 6796      		adiw r28,86-63
 2332 06da 8FAF      		std Y+63,r24
 2333 06dc 6797      		sbiw r28,86-63
 2334 06de 8D81      		ldd r24,Y+5
 2335 06e0 9E81      		ldd r25,Y+6
 2336 06e2 FC01      		movw r30,r24
 2337 06e4 8081      		ld r24,Z
 2338 06e6 9181      		ldd r25,Z+1
 2339 06e8 A281      		ldd r26,Z+2
 2340 06ea B381      		ldd r27,Z+3
 2341 06ec 6B96      		adiw r28,87-60
 2342 06ee 8CAF      		std Y+60,r24
 2343 06f0 9DAF      		std Y+61,r25
 2344 06f2 AEAF      		std Y+62,r26
 2345 06f4 BFAF      		std Y+63,r27
 2346 06f6 6B97      		sbiw r28,87-60
 2347 06f8 BB0F      		lsl r27
 2348 06fa 880B      		sbc r24,r24
 2349 06fc 982F      		mov r25,r24
 2350 06fe DC01      		movw r26,r24
 2351 0700 6C96      		adiw r28,91-63
 2352 0702 8FAF      		std Y+63,r24
 2353 0704 6C97      		sbiw r28,91-63
 2354 0706 6D96      		adiw r28,92-63
 2355 0708 8FAF      		std Y+63,r24
 2356 070a 6D97      		sbiw r28,92-63
 2357 070c 6E96      		adiw r28,93-63
 2358 070e 8FAF      		std Y+63,r24
 2359 0710 6E97      		sbiw r28,93-63
 2360 0712 6F96      		adiw r28,94-63
 2361 0714 8FAF      		std Y+63,r24
 2362 0716 6F97      		sbiw r28,94-63
 2363 0718 6896      		adiw r28,87-63
 2364 071a AFAC      		ldd r10,Y+63
 2365 071c 6897      		sbiw r28,87-63
 2366 071e 6996      		adiw r28,88-63
 2367 0720 BFAC      		ldd r11,Y+63
 2368 0722 6997      		sbiw r28,88-63
 2369 0724 6A96      		adiw r28,89-63
 2370 0726 CFAC      		ldd r12,Y+63
 2371 0728 6A97      		sbiw r28,89-63
 2372 072a 6B96      		adiw r28,90-63
 2373 072c DFAC      		ldd r13,Y+63
 2374 072e 6B97      		sbiw r28,90-63
 2375 0730 6C96      		adiw r28,91-63
 2376 0732 EFAC      		ldd r14,Y+63
 2377 0734 6C97      		sbiw r28,91-63
 2378 0736 6D96      		adiw r28,92-63
 2379 0738 FFAC      		ldd r15,Y+63
 2380 073a 6D97      		sbiw r28,92-63
 2381 073c 6E96      		adiw r28,93-63
 2382 073e 0FAD      		ldd r16,Y+63
 2383 0740 6E97      		sbiw r28,93-63
 2384 0742 6F96      		adiw r28,94-63
 2385 0744 1FAD      		ldd r17,Y+63
 2386 0746 6F97      		sbiw r28,94-63
 2387 0748 6096      		adiw r28,79-63
 2388 074a 2FAD      		ldd r18,Y+63
 2389 074c 6097      		sbiw r28,79-63
 2390 074e 6196      		adiw r28,80-63
 2391 0750 3FAD      		ldd r19,Y+63
 2392 0752 6197      		sbiw r28,80-63
 2393 0754 6296      		adiw r28,81-63
 2394 0756 4FAD      		ldd r20,Y+63
 2395 0758 6297      		sbiw r28,81-63
 2396 075a 6396      		adiw r28,82-63
 2397 075c 5FAD      		ldd r21,Y+63
 2398 075e 6397      		sbiw r28,82-63
 2399 0760 6496      		adiw r28,83-63
 2400 0762 6FAD      		ldd r22,Y+63
 2401 0764 6497      		sbiw r28,83-63
 2402 0766 6596      		adiw r28,84-63
 2403 0768 7FAD      		ldd r23,Y+63
 2404 076a 6597      		sbiw r28,84-63
 2405 076c 6696      		adiw r28,85-63
 2406 076e 8FAD      		ldd r24,Y+63
 2407 0770 6697      		sbiw r28,85-63
 2408 0772 6796      		adiw r28,86-63
 2409 0774 9FAD      		ldd r25,Y+63
 2410 0776 6797      		sbiw r28,86-63
 2411 0778 0E94 0000 		call __muldi3
 2412 077c A22E      		mov r10,r18
 2413 077e B32E      		mov r11,r19
 2414 0780 C42E      		mov r12,r20
 2415 0782 D52E      		mov r13,r21
 2416 0784 E62E      		mov r14,r22
 2417 0786 F72E      		mov r15,r23
 2418 0788 082F      		mov r16,r24
 2419 078a 192F      		mov r17,r25
 2420 078c 2A2C      		mov r2,r10
 2421 078e 3B2C      		mov r3,r11
 2422 0790 4C2C      		mov r4,r12
 2423 0792 5D2C      		mov r5,r13
 2424 0794 6E2C      		mov r6,r14
 2425 0796 7F2C      		mov r7,r15
 2426 0798 802E      		mov r8,r16
 2427 079a 912E      		mov r9,r17
 2428 079c 2B89      		ldd r18,Y+19
 2429 079e 3C89      		ldd r19,Y+20
 2430 07a0 4D89      		ldd r20,Y+21
 2431 07a2 5E89      		ldd r21,Y+22
 2432 07a4 6F89      		ldd r22,Y+23
 2433 07a6 788D      		ldd r23,Y+24
 2434 07a8 898D      		ldd r24,Y+25
 2435 07aa 9A8D      		ldd r25,Y+26
 2436 07ac A22C      		mov r10,r2
 2437 07ae B32C      		mov r11,r3
 2438 07b0 C42C      		mov r12,r4
 2439 07b2 D52C      		mov r13,r5
 2440 07b4 E62C      		mov r14,r6
 2441 07b6 F72C      		mov r15,r7
 2442 07b8 082D      		mov r16,r8
 2443 07ba 192D      		mov r17,r9
 2444 07bc 0E94 0000 		call __adddi3
 2445 07c0 2B8B      		std Y+19,r18
 2446 07c2 3C8B      		std Y+20,r19
 2447 07c4 4D8B      		std Y+21,r20
 2448 07c6 5E8B      		std Y+22,r21
 2449 07c8 6F8B      		std Y+23,r22
 2450 07ca 788F      		std Y+24,r23
 2451 07cc 898F      		std Y+25,r24
 2452 07ce 9A8F      		std Y+26,r25
 2453 07d0 8F81      		ldd r24,Y+7
 2454 07d2 9885      		ldd r25,Y+8
 2455 07d4 0496      		adiw r24,4
 2456 07d6 9887      		std Y+8,r25
 2457 07d8 8F83      		std Y+7,r24
 2458 07da 8D81      		ldd r24,Y+5
 2459 07dc 9E81      		ldd r25,Y+6
 2460 07de 0496      		adiw r24,4
 2461 07e0 9E83      		std Y+6,r25
 2462 07e2 8D83      		std Y+5,r24
 338:adpcm.c       ****     for(i = 0 ; i < 10 ; i++) {
 2463               		.loc 1 338 0 discriminator 2
 2464 07e4 8981      		ldd r24,Y+1
 2465 07e6 9A81      		ldd r25,Y+2
 2466 07e8 AB81      		ldd r26,Y+3
 2467 07ea BC81      		ldd r27,Y+4
 2468 07ec 0196      		adiw r24,1
 2469 07ee A11D      		adc r26,__zero_reg__
 2470 07f0 B11D      		adc r27,__zero_reg__
 2471 07f2 8983      		std Y+1,r24
 2472 07f4 9A83      		std Y+2,r25
 2473 07f6 AB83      		std Y+3,r26
 2474 07f8 BC83      		std Y+4,r27
 2475               	.L20:
 338:adpcm.c       ****     for(i = 0 ; i < 10 ; i++) {
 2476               		.loc 1 338 0 is_stmt 0 discriminator 1
 2477 07fa 8981      		ldd r24,Y+1
 2478 07fc 9A81      		ldd r25,Y+2
 2479 07fe AB81      		ldd r26,Y+3
 2480 0800 BC81      		ldd r27,Y+4
 2481 0802 8A30      		cpi r24,10
 2482 0804 9105      		cpc r25,__zero_reg__
 2483 0806 A105      		cpc r26,__zero_reg__
 2484 0808 B105      		cpc r27,__zero_reg__
 2485 080a 04F4      		brge .+2
 2486 080c 00C0      		rjmp .L21
 341:adpcm.c       ****     }
 342:adpcm.c       **** /* final mult/accumulate */
 343:adpcm.c       ****     xa += (int64_t)(*tqmf_ptr++) * (*h_ptr++);
 2487               		.loc 1 343 0 is_stmt 1
 2488 080e 8F81      		ldd r24,Y+7
 2489 0810 9885      		ldd r25,Y+8
 2490 0812 FC01      		movw r30,r24
 2491 0814 8081      		ld r24,Z
 2492 0816 9181      		ldd r25,Z+1
 2493 0818 A281      		ldd r26,Z+2
 2494 081a B381      		ldd r27,Z+3
 2495 081c A396      		adiw r28,95-60
 2496 081e 8CAF      		std Y+60,r24
 2497 0820 9DAF      		std Y+61,r25
 2498 0822 AEAF      		std Y+62,r26
 2499 0824 BFAF      		std Y+63,r27
 2500 0826 A397      		sbiw r28,95-60
 2501 0828 BB0F      		lsl r27
 2502 082a 880B      		sbc r24,r24
 2503 082c 982F      		mov r25,r24
 2504 082e DC01      		movw r26,r24
 2505 0830 A496      		adiw r28,99-63
 2506 0832 8FAF      		std Y+63,r24
 2507 0834 A497      		sbiw r28,99-63
 2508 0836 A596      		adiw r28,100-63
 2509 0838 8FAF      		std Y+63,r24
 2510 083a A597      		sbiw r28,100-63
 2511 083c A696      		adiw r28,101-63
 2512 083e 8FAF      		std Y+63,r24
 2513 0840 A697      		sbiw r28,101-63
 2514 0842 A796      		adiw r28,102-63
 2515 0844 8FAF      		std Y+63,r24
 2516 0846 A797      		sbiw r28,102-63
 2517 0848 8D81      		ldd r24,Y+5
 2518 084a 9E81      		ldd r25,Y+6
 2519 084c FC01      		movw r30,r24
 2520 084e 8081      		ld r24,Z
 2521 0850 9181      		ldd r25,Z+1
 2522 0852 A281      		ldd r26,Z+2
 2523 0854 B381      		ldd r27,Z+3
 2524 0856 AB96      		adiw r28,103-60
 2525 0858 8CAF      		std Y+60,r24
 2526 085a 9DAF      		std Y+61,r25
 2527 085c AEAF      		std Y+62,r26
 2528 085e BFAF      		std Y+63,r27
 2529 0860 AB97      		sbiw r28,103-60
 2530 0862 BB0F      		lsl r27
 2531 0864 880B      		sbc r24,r24
 2532 0866 982F      		mov r25,r24
 2533 0868 DC01      		movw r26,r24
 2534 086a AC96      		adiw r28,107-63
 2535 086c 8FAF      		std Y+63,r24
 2536 086e AC97      		sbiw r28,107-63
 2537 0870 AD96      		adiw r28,108-63
 2538 0872 8FAF      		std Y+63,r24
 2539 0874 AD97      		sbiw r28,108-63
 2540 0876 AE96      		adiw r28,109-63
 2541 0878 8FAF      		std Y+63,r24
 2542 087a AE97      		sbiw r28,109-63
 2543 087c AF96      		adiw r28,110-63
 2544 087e 8FAF      		std Y+63,r24
 2545 0880 AF97      		sbiw r28,110-63
 2546 0882 A896      		adiw r28,103-63
 2547 0884 AFAC      		ldd r10,Y+63
 2548 0886 A897      		sbiw r28,103-63
 2549 0888 A996      		adiw r28,104-63
 2550 088a BFAC      		ldd r11,Y+63
 2551 088c A997      		sbiw r28,104-63
 2552 088e AA96      		adiw r28,105-63
 2553 0890 CFAC      		ldd r12,Y+63
 2554 0892 AA97      		sbiw r28,105-63
 2555 0894 AB96      		adiw r28,106-63
 2556 0896 DFAC      		ldd r13,Y+63
 2557 0898 AB97      		sbiw r28,106-63
 2558 089a AC96      		adiw r28,107-63
 2559 089c EFAC      		ldd r14,Y+63
 2560 089e AC97      		sbiw r28,107-63
 2561 08a0 AD96      		adiw r28,108-63
 2562 08a2 FFAC      		ldd r15,Y+63
 2563 08a4 AD97      		sbiw r28,108-63
 2564 08a6 AE96      		adiw r28,109-63
 2565 08a8 0FAD      		ldd r16,Y+63
 2566 08aa AE97      		sbiw r28,109-63
 2567 08ac AF96      		adiw r28,110-63
 2568 08ae 1FAD      		ldd r17,Y+63
 2569 08b0 AF97      		sbiw r28,110-63
 2570 08b2 A096      		adiw r28,95-63
 2571 08b4 2FAD      		ldd r18,Y+63
 2572 08b6 A097      		sbiw r28,95-63
 2573 08b8 A196      		adiw r28,96-63
 2574 08ba 3FAD      		ldd r19,Y+63
 2575 08bc A197      		sbiw r28,96-63
 2576 08be A296      		adiw r28,97-63
 2577 08c0 4FAD      		ldd r20,Y+63
 2578 08c2 A297      		sbiw r28,97-63
 2579 08c4 A396      		adiw r28,98-63
 2580 08c6 5FAD      		ldd r21,Y+63
 2581 08c8 A397      		sbiw r28,98-63
 2582 08ca A496      		adiw r28,99-63
 2583 08cc 6FAD      		ldd r22,Y+63
 2584 08ce A497      		sbiw r28,99-63
 2585 08d0 A596      		adiw r28,100-63
 2586 08d2 7FAD      		ldd r23,Y+63
 2587 08d4 A597      		sbiw r28,100-63
 2588 08d6 A696      		adiw r28,101-63
 2589 08d8 8FAD      		ldd r24,Y+63
 2590 08da A697      		sbiw r28,101-63
 2591 08dc A796      		adiw r28,102-63
 2592 08de 9FAD      		ldd r25,Y+63
 2593 08e0 A797      		sbiw r28,102-63
 2594 08e2 0E94 0000 		call __muldi3
 2595 08e6 A22E      		mov r10,r18
 2596 08e8 B32E      		mov r11,r19
 2597 08ea C42E      		mov r12,r20
 2598 08ec D52E      		mov r13,r21
 2599 08ee E62E      		mov r14,r22
 2600 08f0 F72E      		mov r15,r23
 2601 08f2 082F      		mov r16,r24
 2602 08f4 192F      		mov r17,r25
 2603 08f6 2A2C      		mov r2,r10
 2604 08f8 3B2C      		mov r3,r11
 2605 08fa 4C2C      		mov r4,r12
 2606 08fc 5D2C      		mov r5,r13
 2607 08fe 6E2C      		mov r6,r14
 2608 0900 7F2C      		mov r7,r15
 2609 0902 802E      		mov r8,r16
 2610 0904 912E      		mov r9,r17
 2611 0906 2B85      		ldd r18,Y+11
 2612 0908 3C85      		ldd r19,Y+12
 2613 090a 4D85      		ldd r20,Y+13
 2614 090c 5E85      		ldd r21,Y+14
 2615 090e 6F85      		ldd r22,Y+15
 2616 0910 7889      		ldd r23,Y+16
 2617 0912 8989      		ldd r24,Y+17
 2618 0914 9A89      		ldd r25,Y+18
 2619 0916 A22C      		mov r10,r2
 2620 0918 B32C      		mov r11,r3
 2621 091a C42C      		mov r12,r4
 2622 091c D52C      		mov r13,r5
 2623 091e E62C      		mov r14,r6
 2624 0920 F72C      		mov r15,r7
 2625 0922 082D      		mov r16,r8
 2626 0924 192D      		mov r17,r9
 2627 0926 0E94 0000 		call __adddi3
 2628 092a 2B87      		std Y+11,r18
 2629 092c 3C87      		std Y+12,r19
 2630 092e 4D87      		std Y+13,r20
 2631 0930 5E87      		std Y+14,r21
 2632 0932 6F87      		std Y+15,r22
 2633 0934 788B      		std Y+16,r23
 2634 0936 898B      		std Y+17,r24
 2635 0938 9A8B      		std Y+18,r25
 2636 093a 8F81      		ldd r24,Y+7
 2637 093c 9885      		ldd r25,Y+8
 2638 093e 0496      		adiw r24,4
 2639 0940 9887      		std Y+8,r25
 2640 0942 8F83      		std Y+7,r24
 2641 0944 8D81      		ldd r24,Y+5
 2642 0946 9E81      		ldd r25,Y+6
 2643 0948 0496      		adiw r24,4
 2644 094a 9E83      		std Y+6,r25
 2645 094c 8D83      		std Y+5,r24
 344:adpcm.c       ****     xb += (int64_t)(*tqmf_ptr) * (*h_ptr++);
 2646               		.loc 1 344 0
 2647 094e 8F81      		ldd r24,Y+7
 2648 0950 9885      		ldd r25,Y+8
 2649 0952 FC01      		movw r30,r24
 2650 0954 8081      		ld r24,Z
 2651 0956 9181      		ldd r25,Z+1
 2652 0958 A281      		ldd r26,Z+2
 2653 095a B381      		ldd r27,Z+3
 2654 095c E396      		adiw r28,111-60
 2655 095e 8CAF      		std Y+60,r24
 2656 0960 9DAF      		std Y+61,r25
 2657 0962 AEAF      		std Y+62,r26
 2658 0964 BFAF      		std Y+63,r27
 2659 0966 E397      		sbiw r28,111-60
 2660 0968 BB0F      		lsl r27
 2661 096a 880B      		sbc r24,r24
 2662 096c 982F      		mov r25,r24
 2663 096e DC01      		movw r26,r24
 2664 0970 E496      		adiw r28,115-63
 2665 0972 8FAF      		std Y+63,r24
 2666 0974 E497      		sbiw r28,115-63
 2667 0976 E596      		adiw r28,116-63
 2668 0978 8FAF      		std Y+63,r24
 2669 097a E597      		sbiw r28,116-63
 2670 097c E696      		adiw r28,117-63
 2671 097e 8FAF      		std Y+63,r24
 2672 0980 E697      		sbiw r28,117-63
 2673 0982 E796      		adiw r28,118-63
 2674 0984 8FAF      		std Y+63,r24
 2675 0986 E797      		sbiw r28,118-63
 2676 0988 8D81      		ldd r24,Y+5
 2677 098a 9E81      		ldd r25,Y+6
 2678 098c FC01      		movw r30,r24
 2679 098e 8081      		ld r24,Z
 2680 0990 9181      		ldd r25,Z+1
 2681 0992 A281      		ldd r26,Z+2
 2682 0994 B381      		ldd r27,Z+3
 2683 0996 EB96      		adiw r28,119-60
 2684 0998 8CAF      		std Y+60,r24
 2685 099a 9DAF      		std Y+61,r25
 2686 099c AEAF      		std Y+62,r26
 2687 099e BFAF      		std Y+63,r27
 2688 09a0 EB97      		sbiw r28,119-60
 2689 09a2 BB0F      		lsl r27
 2690 09a4 880B      		sbc r24,r24
 2691 09a6 982F      		mov r25,r24
 2692 09a8 DC01      		movw r26,r24
 2693 09aa EC96      		adiw r28,123-63
 2694 09ac 8FAF      		std Y+63,r24
 2695 09ae EC97      		sbiw r28,123-63
 2696 09b0 ED96      		adiw r28,124-63
 2697 09b2 8FAF      		std Y+63,r24
 2698 09b4 ED97      		sbiw r28,124-63
 2699 09b6 EE96      		adiw r28,125-63
 2700 09b8 8FAF      		std Y+63,r24
 2701 09ba EE97      		sbiw r28,125-63
 2702 09bc EF96      		adiw r28,126-63
 2703 09be 8FAF      		std Y+63,r24
 2704 09c0 EF97      		sbiw r28,126-63
 2705 09c2 E896      		adiw r28,119-63
 2706 09c4 AFAC      		ldd r10,Y+63
 2707 09c6 E897      		sbiw r28,119-63
 2708 09c8 E996      		adiw r28,120-63
 2709 09ca BFAC      		ldd r11,Y+63
 2710 09cc E997      		sbiw r28,120-63
 2711 09ce EA96      		adiw r28,121-63
 2712 09d0 CFAC      		ldd r12,Y+63
 2713 09d2 EA97      		sbiw r28,121-63
 2714 09d4 EB96      		adiw r28,122-63
 2715 09d6 DFAC      		ldd r13,Y+63
 2716 09d8 EB97      		sbiw r28,122-63
 2717 09da EC96      		adiw r28,123-63
 2718 09dc EFAC      		ldd r14,Y+63
 2719 09de EC97      		sbiw r28,123-63
 2720 09e0 ED96      		adiw r28,124-63
 2721 09e2 FFAC      		ldd r15,Y+63
 2722 09e4 ED97      		sbiw r28,124-63
 2723 09e6 EE96      		adiw r28,125-63
 2724 09e8 0FAD      		ldd r16,Y+63
 2725 09ea EE97      		sbiw r28,125-63
 2726 09ec EF96      		adiw r28,126-63
 2727 09ee 1FAD      		ldd r17,Y+63
 2728 09f0 EF97      		sbiw r28,126-63
 2729 09f2 E096      		adiw r28,111-63
 2730 09f4 2FAD      		ldd r18,Y+63
 2731 09f6 E097      		sbiw r28,111-63
 2732 09f8 E196      		adiw r28,112-63
 2733 09fa 3FAD      		ldd r19,Y+63
 2734 09fc E197      		sbiw r28,112-63
 2735 09fe E296      		adiw r28,113-63
 2736 0a00 4FAD      		ldd r20,Y+63
 2737 0a02 E297      		sbiw r28,113-63
 2738 0a04 E396      		adiw r28,114-63
 2739 0a06 5FAD      		ldd r21,Y+63
 2740 0a08 E397      		sbiw r28,114-63
 2741 0a0a E496      		adiw r28,115-63
 2742 0a0c 6FAD      		ldd r22,Y+63
 2743 0a0e E497      		sbiw r28,115-63
 2744 0a10 E596      		adiw r28,116-63
 2745 0a12 7FAD      		ldd r23,Y+63
 2746 0a14 E597      		sbiw r28,116-63
 2747 0a16 E696      		adiw r28,117-63
 2748 0a18 8FAD      		ldd r24,Y+63
 2749 0a1a E697      		sbiw r28,117-63
 2750 0a1c E796      		adiw r28,118-63
 2751 0a1e 9FAD      		ldd r25,Y+63
 2752 0a20 E797      		sbiw r28,118-63
 2753 0a22 0E94 0000 		call __muldi3
 2754 0a26 A22E      		mov r10,r18
 2755 0a28 B32E      		mov r11,r19
 2756 0a2a C42E      		mov r12,r20
 2757 0a2c D52E      		mov r13,r21
 2758 0a2e E62E      		mov r14,r22
 2759 0a30 F72E      		mov r15,r23
 2760 0a32 082F      		mov r16,r24
 2761 0a34 192F      		mov r17,r25
 2762 0a36 2A2C      		mov r2,r10
 2763 0a38 3B2C      		mov r3,r11
 2764 0a3a 4C2C      		mov r4,r12
 2765 0a3c 5D2C      		mov r5,r13
 2766 0a3e 6E2C      		mov r6,r14
 2767 0a40 7F2C      		mov r7,r15
 2768 0a42 802E      		mov r8,r16
 2769 0a44 912E      		mov r9,r17
 2770 0a46 2B89      		ldd r18,Y+19
 2771 0a48 3C89      		ldd r19,Y+20
 2772 0a4a 4D89      		ldd r20,Y+21
 2773 0a4c 5E89      		ldd r21,Y+22
 2774 0a4e 6F89      		ldd r22,Y+23
 2775 0a50 788D      		ldd r23,Y+24
 2776 0a52 898D      		ldd r24,Y+25
 2777 0a54 9A8D      		ldd r25,Y+26
 2778 0a56 A22C      		mov r10,r2
 2779 0a58 B32C      		mov r11,r3
 2780 0a5a C42C      		mov r12,r4
 2781 0a5c D52C      		mov r13,r5
 2782 0a5e E62C      		mov r14,r6
 2783 0a60 F72C      		mov r15,r7
 2784 0a62 082D      		mov r16,r8
 2785 0a64 192D      		mov r17,r9
 2786 0a66 0E94 0000 		call __adddi3
 2787 0a6a 2B8B      		std Y+19,r18
 2788 0a6c 3C8B      		std Y+20,r19
 2789 0a6e 4D8B      		std Y+21,r20
 2790 0a70 5E8B      		std Y+22,r21
 2791 0a72 6F8B      		std Y+23,r22
 2792 0a74 788F      		std Y+24,r23
 2793 0a76 898F      		std Y+25,r24
 2794 0a78 9A8F      		std Y+26,r25
 2795 0a7a 8D81      		ldd r24,Y+5
 2796 0a7c 9E81      		ldd r25,Y+6
 2797 0a7e 0496      		adiw r24,4
 2798 0a80 9E83      		std Y+6,r25
 2799 0a82 8D83      		std Y+5,r24
 345:adpcm.c       **** 
 346:adpcm.c       **** /* update delay line tqmf */
 347:adpcm.c       ****     tqmf_ptr1 = tqmf_ptr - 2;
 2800               		.loc 1 347 0
 2801 0a84 8F81      		ldd r24,Y+7
 2802 0a86 9885      		ldd r25,Y+8
 2803 0a88 0897      		sbiw r24,8
 2804 0a8a 9A87      		std Y+10,r25
 2805 0a8c 8987      		std Y+9,r24
 348:adpcm.c       ****     /* MAX: 22 */
 349:adpcm.c       ****     for(i = 0 ; i < 22 ; i++) 
 2806               		.loc 1 349 0
 2807 0a8e 1982      		std Y+1,__zero_reg__
 2808 0a90 1A82      		std Y+2,__zero_reg__
 2809 0a92 1B82      		std Y+3,__zero_reg__
 2810 0a94 1C82      		std Y+4,__zero_reg__
 2811 0a96 00C0      		rjmp .L22
 2812               	.L23:
 350:adpcm.c       ****         *tqmf_ptr-- = *tqmf_ptr1--;
 2813               		.loc 1 350 0 discriminator 2
 2814 0a98 8985      		ldd r24,Y+9
 2815 0a9a 9A85      		ldd r25,Y+10
 2816 0a9c FC01      		movw r30,r24
 2817 0a9e 8081      		ld r24,Z
 2818 0aa0 9181      		ldd r25,Z+1
 2819 0aa2 A281      		ldd r26,Z+2
 2820 0aa4 B381      		ldd r27,Z+3
 2821 0aa6 2F81      		ldd r18,Y+7
 2822 0aa8 3885      		ldd r19,Y+8
 2823 0aaa F901      		movw r30,r18
 2824 0aac 8083      		st Z,r24
 2825 0aae 9183      		std Z+1,r25
 2826 0ab0 A283      		std Z+2,r26
 2827 0ab2 B383      		std Z+3,r27
 2828 0ab4 8F81      		ldd r24,Y+7
 2829 0ab6 9885      		ldd r25,Y+8
 2830 0ab8 0497      		sbiw r24,4
 2831 0aba 9887      		std Y+8,r25
 2832 0abc 8F83      		std Y+7,r24
 2833 0abe 8985      		ldd r24,Y+9
 2834 0ac0 9A85      		ldd r25,Y+10
 2835 0ac2 0497      		sbiw r24,4
 2836 0ac4 9A87      		std Y+10,r25
 2837 0ac6 8987      		std Y+9,r24
 349:adpcm.c       ****     for(i = 0 ; i < 22 ; i++) 
 2838               		.loc 1 349 0 discriminator 2
 2839 0ac8 8981      		ldd r24,Y+1
 2840 0aca 9A81      		ldd r25,Y+2
 2841 0acc AB81      		ldd r26,Y+3
 2842 0ace BC81      		ldd r27,Y+4
 2843 0ad0 0196      		adiw r24,1
 2844 0ad2 A11D      		adc r26,__zero_reg__
 2845 0ad4 B11D      		adc r27,__zero_reg__
 2846 0ad6 8983      		std Y+1,r24
 2847 0ad8 9A83      		std Y+2,r25
 2848 0ada AB83      		std Y+3,r26
 2849 0adc BC83      		std Y+4,r27
 2850               	.L22:
 349:adpcm.c       ****     for(i = 0 ; i < 22 ; i++) 
 2851               		.loc 1 349 0 is_stmt 0 discriminator 1
 2852 0ade 8981      		ldd r24,Y+1
 2853 0ae0 9A81      		ldd r25,Y+2
 2854 0ae2 AB81      		ldd r26,Y+3
 2855 0ae4 BC81      		ldd r27,Y+4
 2856 0ae6 8631      		cpi r24,22
 2857 0ae8 9105      		cpc r25,__zero_reg__
 2858 0aea A105      		cpc r26,__zero_reg__
 2859 0aec B105      		cpc r27,__zero_reg__
 2860 0aee 04F0      		brlt .L23
 351:adpcm.c       ****     *tqmf_ptr-- = xin1;
 2861               		.loc 1 351 0 is_stmt 1
 2862 0af0 2F81      		ldd r18,Y+7
 2863 0af2 3885      		ldd r19,Y+8
 2864 0af4 8F8D      		ldd r24,Y+31
 2865 0af6 98A1      		ldd r25,Y+32
 2866 0af8 A9A1      		ldd r26,Y+33
 2867 0afa BAA1      		ldd r27,Y+34
 2868 0afc F901      		movw r30,r18
 2869 0afe 8083      		st Z,r24
 2870 0b00 9183      		std Z+1,r25
 2871 0b02 A283      		std Z+2,r26
 2872 0b04 B383      		std Z+3,r27
 2873 0b06 8F81      		ldd r24,Y+7
 2874 0b08 9885      		ldd r25,Y+8
 2875 0b0a 0497      		sbiw r24,4
 2876 0b0c 9887      		std Y+8,r25
 2877 0b0e 8F83      		std Y+7,r24
 352:adpcm.c       ****     *tqmf_ptr = xin2;
 2878               		.loc 1 352 0
 2879 0b10 2F81      		ldd r18,Y+7
 2880 0b12 3885      		ldd r19,Y+8
 2881 0b14 8BA1      		ldd r24,Y+35
 2882 0b16 9CA1      		ldd r25,Y+36
 2883 0b18 ADA1      		ldd r26,Y+37
 2884 0b1a BEA1      		ldd r27,Y+38
 2885 0b1c F901      		movw r30,r18
 2886 0b1e 8083      		st Z,r24
 2887 0b20 9183      		std Z+1,r25
 2888 0b22 A283      		std Z+2,r26
 2889 0b24 B383      		std Z+3,r27
 353:adpcm.c       **** 
 354:adpcm.c       **** /* scale outputs */
 355:adpcm.c       ****     xl = (xa + xb) >> 15;
 2890               		.loc 1 355 0
 2891 0b26 2B85      		ldd r18,Y+11
 2892 0b28 3C85      		ldd r19,Y+12
 2893 0b2a 4D85      		ldd r20,Y+13
 2894 0b2c 5E85      		ldd r21,Y+14
 2895 0b2e 6F85      		ldd r22,Y+15
 2896 0b30 7889      		ldd r23,Y+16
 2897 0b32 8989      		ldd r24,Y+17
 2898 0b34 9A89      		ldd r25,Y+18
 2899 0b36 AB88      		ldd r10,Y+19
 2900 0b38 BC88      		ldd r11,Y+20
 2901 0b3a CD88      		ldd r12,Y+21
 2902 0b3c DE88      		ldd r13,Y+22
 2903 0b3e EF88      		ldd r14,Y+23
 2904 0b40 F88C      		ldd r15,Y+24
 2905 0b42 098D      		ldd r16,Y+25
 2906 0b44 1A8D      		ldd r17,Y+26
 2907 0b46 0E94 0000 		call __adddi3
 2908 0b4a A22E      		mov r10,r18
 2909 0b4c B32E      		mov r11,r19
 2910 0b4e C42E      		mov r12,r20
 2911 0b50 D52E      		mov r13,r21
 2912 0b52 E62E      		mov r14,r22
 2913 0b54 F72E      		mov r15,r23
 2914 0b56 082F      		mov r16,r24
 2915 0b58 192F      		mov r17,r25
 2916 0b5a 2A2D      		mov r18,r10
 2917 0b5c 3B2D      		mov r19,r11
 2918 0b5e 4C2D      		mov r20,r12
 2919 0b60 5D2D      		mov r21,r13
 2920 0b62 6E2D      		mov r22,r14
 2921 0b64 7F2D      		mov r23,r15
 2922 0b66 802F      		mov r24,r16
 2923 0b68 912F      		mov r25,r17
 2924 0b6a 0FE0      		ldi r16,lo8(15)
 2925 0b6c 0E94 0000 		call __ashrdi3
 2926 0b70 A22E      		mov r10,r18
 2927 0b72 B32E      		mov r11,r19
 2928 0b74 C42E      		mov r12,r20
 2929 0b76 D52E      		mov r13,r21
 2930 0b78 E62E      		mov r14,r22
 2931 0b7a F72E      		mov r15,r23
 2932 0b7c 082F      		mov r16,r24
 2933 0b7e 192F      		mov r17,r25
 2934 0b80 D601      		movw r26,r12
 2935 0b82 C501      		movw r24,r10
 2936 0b84 8093 0000 		sts xl,r24
 2937 0b88 9093 0000 		sts xl+1,r25
 2938 0b8c A093 0000 		sts xl+2,r26
 2939 0b90 B093 0000 		sts xl+3,r27
 356:adpcm.c       ****     xh = (xa - xb) >> 15;
 2940               		.loc 1 356 0
 2941 0b94 2B85      		ldd r18,Y+11
 2942 0b96 3C85      		ldd r19,Y+12
 2943 0b98 4D85      		ldd r20,Y+13
 2944 0b9a 5E85      		ldd r21,Y+14
 2945 0b9c 6F85      		ldd r22,Y+15
 2946 0b9e 7889      		ldd r23,Y+16
 2947 0ba0 8989      		ldd r24,Y+17
 2948 0ba2 9A89      		ldd r25,Y+18
 2949 0ba4 AB88      		ldd r10,Y+19
 2950 0ba6 BC88      		ldd r11,Y+20
 2951 0ba8 CD88      		ldd r12,Y+21
 2952 0baa DE88      		ldd r13,Y+22
 2953 0bac EF88      		ldd r14,Y+23
 2954 0bae F88C      		ldd r15,Y+24
 2955 0bb0 098D      		ldd r16,Y+25
 2956 0bb2 1A8D      		ldd r17,Y+26
 2957 0bb4 0E94 0000 		call __subdi3
 2958 0bb8 A22E      		mov r10,r18
 2959 0bba B32E      		mov r11,r19
 2960 0bbc C42E      		mov r12,r20
 2961 0bbe D52E      		mov r13,r21
 2962 0bc0 E62E      		mov r14,r22
 2963 0bc2 F72E      		mov r15,r23
 2964 0bc4 082F      		mov r16,r24
 2965 0bc6 192F      		mov r17,r25
 2966 0bc8 2A2D      		mov r18,r10
 2967 0bca 3B2D      		mov r19,r11
 2968 0bcc 4C2D      		mov r20,r12
 2969 0bce 5D2D      		mov r21,r13
 2970 0bd0 6E2D      		mov r22,r14
 2971 0bd2 7F2D      		mov r23,r15
 2972 0bd4 802F      		mov r24,r16
 2973 0bd6 912F      		mov r25,r17
 2974 0bd8 0FE0      		ldi r16,lo8(15)
 2975 0bda 0E94 0000 		call __ashrdi3
 2976 0bde A22E      		mov r10,r18
 2977 0be0 B32E      		mov r11,r19
 2978 0be2 C42E      		mov r12,r20
 2979 0be4 D52E      		mov r13,r21
 2980 0be6 E62E      		mov r14,r22
 2981 0be8 F72E      		mov r15,r23
 2982 0bea 082F      		mov r16,r24
 2983 0bec 192F      		mov r17,r25
 2984 0bee D601      		movw r26,r12
 2985 0bf0 C501      		movw r24,r10
 2986 0bf2 8093 0000 		sts xh,r24
 2987 0bf6 9093 0000 		sts xh+1,r25
 2988 0bfa A093 0000 		sts xh+2,r26
 2989 0bfe B093 0000 		sts xh+3,r27
 357:adpcm.c       **** 
 358:adpcm.c       **** /* end of quadrature mirror filter code */
 359:adpcm.c       **** 
 360:adpcm.c       **** /* starting with lower sub band encoder */
 361:adpcm.c       **** 
 362:adpcm.c       **** /* filtez - compute predictor output section - zero section */
 363:adpcm.c       ****     szl = filtez(delay_bpl,delay_dltx);
 2990               		.loc 1 363 0
 2991 0c02 60E0      		ldi r22,lo8(delay_dltx)
 2992 0c04 70E0      		ldi r23,hi8(delay_dltx)
 2993 0c06 80E0      		ldi r24,lo8(delay_bpl)
 2994 0c08 90E0      		ldi r25,hi8(delay_bpl)
 2995 0c0a 0E94 0000 		call filtez
 2996 0c0e DC01      		movw r26,r24
 2997 0c10 CB01      		movw r24,r22
 2998 0c12 8093 0000 		sts szl,r24
 2999 0c16 9093 0000 		sts szl+1,r25
 3000 0c1a A093 0000 		sts szl+2,r26
 3001 0c1e B093 0000 		sts szl+3,r27
 364:adpcm.c       **** 
 365:adpcm.c       **** /* filtep - compute predictor output signal (pole section) */
 366:adpcm.c       ****     spl = filtep(rlt1,al1,rlt2,al2);
 3002               		.loc 1 366 0
 3003 0c22 A090 0000 		lds r10,al2
 3004 0c26 B090 0000 		lds r11,al2+1
 3005 0c2a C090 0000 		lds r12,al2+2
 3006 0c2e D090 0000 		lds r13,al2+3
 3007 0c32 E090 0000 		lds r14,rlt2
 3008 0c36 F090 0000 		lds r15,rlt2+1
 3009 0c3a 0091 0000 		lds r16,rlt2+2
 3010 0c3e 1091 0000 		lds r17,rlt2+3
 3011 0c42 2091 0000 		lds r18,al1
 3012 0c46 3091 0000 		lds r19,al1+1
 3013 0c4a 4091 0000 		lds r20,al1+2
 3014 0c4e 5091 0000 		lds r21,al1+3
 3015 0c52 8091 0000 		lds r24,rlt1
 3016 0c56 9091 0000 		lds r25,rlt1+1
 3017 0c5a A091 0000 		lds r26,rlt1+2
 3018 0c5e B091 0000 		lds r27,rlt1+3
 3019 0c62 BC01      		movw r22,r24
 3020 0c64 CD01      		movw r24,r26
 3021 0c66 0E94 0000 		call filtep
 3022 0c6a DC01      		movw r26,r24
 3023 0c6c CB01      		movw r24,r22
 3024 0c6e 8093 0000 		sts spl,r24
 3025 0c72 9093 0000 		sts spl+1,r25
 3026 0c76 A093 0000 		sts spl+2,r26
 3027 0c7a B093 0000 		sts spl+3,r27
 367:adpcm.c       **** 
 368:adpcm.c       **** /* compute the predictor output value in the lower sub_band encoder */
 369:adpcm.c       ****     sl = szl + spl;
 3028               		.loc 1 369 0
 3029 0c7e 2091 0000 		lds r18,szl
 3030 0c82 3091 0000 		lds r19,szl+1
 3031 0c86 4091 0000 		lds r20,szl+2
 3032 0c8a 5091 0000 		lds r21,szl+3
 3033 0c8e 8091 0000 		lds r24,spl
 3034 0c92 9091 0000 		lds r25,spl+1
 3035 0c96 A091 0000 		lds r26,spl+2
 3036 0c9a B091 0000 		lds r27,spl+3
 3037 0c9e 820F      		add r24,r18
 3038 0ca0 931F      		adc r25,r19
 3039 0ca2 A41F      		adc r26,r20
 3040 0ca4 B51F      		adc r27,r21
 3041 0ca6 8093 0000 		sts sl,r24
 3042 0caa 9093 0000 		sts sl+1,r25
 3043 0cae A093 0000 		sts sl+2,r26
 3044 0cb2 B093 0000 		sts sl+3,r27
 370:adpcm.c       ****     el = xl - sl;
 3045               		.loc 1 370 0
 3046 0cb6 2091 0000 		lds r18,xl
 3047 0cba 3091 0000 		lds r19,xl+1
 3048 0cbe 4091 0000 		lds r20,xl+2
 3049 0cc2 5091 0000 		lds r21,xl+3
 3050 0cc6 8091 0000 		lds r24,sl
 3051 0cca 9091 0000 		lds r25,sl+1
 3052 0cce A091 0000 		lds r26,sl+2
 3053 0cd2 B091 0000 		lds r27,sl+3
 3054 0cd6 7901      		movw r14,r18
 3055 0cd8 8A01      		movw r16,r20
 3056 0cda E81A      		sub r14,r24
 3057 0cdc F90A      		sbc r15,r25
 3058 0cde 0A0B      		sbc r16,r26
 3059 0ce0 1B0B      		sbc r17,r27
 3060 0ce2 D801      		movw r26,r16
 3061 0ce4 C701      		movw r24,r14
 3062 0ce6 8093 0000 		sts el,r24
 3063 0cea 9093 0000 		sts el+1,r25
 3064 0cee A093 0000 		sts el+2,r26
 3065 0cf2 B093 0000 		sts el+3,r27
 371:adpcm.c       **** 
 372:adpcm.c       **** /* quantl: quantize the difference signal */
 373:adpcm.c       ****     il = quantl(el,detl);
 3066               		.loc 1 373 0
 3067 0cf6 2091 0000 		lds r18,detl
 3068 0cfa 3091 0000 		lds r19,detl+1
 3069 0cfe 4091 0000 		lds r20,detl+2
 3070 0d02 5091 0000 		lds r21,detl+3
 3071 0d06 8091 0000 		lds r24,el
 3072 0d0a 9091 0000 		lds r25,el+1
 3073 0d0e A091 0000 		lds r26,el+2
 3074 0d12 B091 0000 		lds r27,el+3
 3075 0d16 BC01      		movw r22,r24
 3076 0d18 CD01      		movw r24,r26
 3077 0d1a 0E94 0000 		call quantl
 3078 0d1e DC01      		movw r26,r24
 3079 0d20 CB01      		movw r24,r22
 3080 0d22 8093 0000 		sts il,r24
 3081 0d26 9093 0000 		sts il+1,r25
 3082 0d2a A093 0000 		sts il+2,r26
 3083 0d2e B093 0000 		sts il+3,r27
 374:adpcm.c       **** 
 375:adpcm.c       **** /* invqxl: computes quantized difference signal */
 376:adpcm.c       **** /* for invqbl, truncate by 2 lsbs, so mode = 3 */
 377:adpcm.c       ****     dlt = ((int64_t)detl*qq4_code4_table[il >> 2]) >> 15;
 3084               		.loc 1 377 0
 3085 0d32 8091 0000 		lds r24,detl
 3086 0d36 9091 0000 		lds r25,detl+1
 3087 0d3a A091 0000 		lds r26,detl+2
 3088 0d3e B091 0000 		lds r27,detl+3
 3089 0d42 C158      		subi r28,lo8(-127)
 3090 0d44 DF4F      		sbci r29,hi8(-127)
 3091 0d46 8883      		st Y,r24
 3092 0d48 9983      		std Y+1,r25
 3093 0d4a AA83      		std Y+2,r26
 3094 0d4c BB83      		std Y+3,r27
 3095 0d4e CF57      		subi r28,lo8(127)
 3096 0d50 D040      		sbci r29,hi8(127)
 3097 0d52 BB0F      		lsl r27
 3098 0d54 880B      		sbc r24,r24
 3099 0d56 982F      		mov r25,r24
 3100 0d58 DC01      		movw r26,r24
 3101 0d5a CD57      		subi r28,lo8(-131)
 3102 0d5c DF4F      		sbci r29,hi8(-131)
 3103 0d5e 8883      		st Y,r24
 3104 0d60 C358      		subi r28,lo8(131)
 3105 0d62 D040      		sbci r29,hi8(131)
 3106 0d64 CC57      		subi r28,lo8(-132)
 3107 0d66 DF4F      		sbci r29,hi8(-132)
 3108 0d68 8883      		st Y,r24
 3109 0d6a C458      		subi r28,lo8(132)
 3110 0d6c D040      		sbci r29,hi8(132)
 3111 0d6e CB57      		subi r28,lo8(-133)
 3112 0d70 DF4F      		sbci r29,hi8(-133)
 3113 0d72 8883      		st Y,r24
 3114 0d74 C558      		subi r28,lo8(133)
 3115 0d76 D040      		sbci r29,hi8(133)
 3116 0d78 CA57      		subi r28,lo8(-134)
 3117 0d7a DF4F      		sbci r29,hi8(-134)
 3118 0d7c 8883      		st Y,r24
 3119 0d7e C658      		subi r28,lo8(134)
 3120 0d80 D040      		sbci r29,hi8(134)
 3121 0d82 8091 0000 		lds r24,il
 3122 0d86 9091 0000 		lds r25,il+1
 3123 0d8a A091 0000 		lds r26,il+2
 3124 0d8e B091 0000 		lds r27,il+3
 3125 0d92 B595      		asr r27
 3126 0d94 A795      		ror r26
 3127 0d96 9795      		ror r25
 3128 0d98 8795      		ror r24
 3129 0d9a B595      		asr r27
 3130 0d9c A795      		ror r26
 3131 0d9e 9795      		ror r25
 3132 0da0 8795      		ror r24
 3133 0da2 880F      		lsl r24
 3134 0da4 991F      		rol r25
 3135 0da6 880F      		lsl r24
 3136 0da8 991F      		rol r25
 3137 0daa 8050      		subi r24,lo8(-(qq4_code4_table))
 3138 0dac 9040      		sbci r25,hi8(-(qq4_code4_table))
 3139 0dae FC01      		movw r30,r24
 3140 0db0 8081      		ld r24,Z
 3141 0db2 9181      		ldd r25,Z+1
 3142 0db4 A281      		ldd r26,Z+2
 3143 0db6 B381      		ldd r27,Z+3
 3144 0db8 C957      		subi r28,lo8(-135)
 3145 0dba DF4F      		sbci r29,hi8(-135)
 3146 0dbc 8883      		st Y,r24
 3147 0dbe 9983      		std Y+1,r25
 3148 0dc0 AA83      		std Y+2,r26
 3149 0dc2 BB83      		std Y+3,r27
 3150 0dc4 C758      		subi r28,lo8(135)
 3151 0dc6 D040      		sbci r29,hi8(135)
 3152 0dc8 BB0F      		lsl r27
 3153 0dca 880B      		sbc r24,r24
 3154 0dcc 982F      		mov r25,r24
 3155 0dce DC01      		movw r26,r24
 3156 0dd0 C557      		subi r28,lo8(-139)
 3157 0dd2 DF4F      		sbci r29,hi8(-139)
 3158 0dd4 8883      		st Y,r24
 3159 0dd6 CB58      		subi r28,lo8(139)
 3160 0dd8 D040      		sbci r29,hi8(139)
 3161 0dda C457      		subi r28,lo8(-140)
 3162 0ddc DF4F      		sbci r29,hi8(-140)
 3163 0dde 8883      		st Y,r24
 3164 0de0 CC58      		subi r28,lo8(140)
 3165 0de2 D040      		sbci r29,hi8(140)
 3166 0de4 C357      		subi r28,lo8(-141)
 3167 0de6 DF4F      		sbci r29,hi8(-141)
 3168 0de8 8883      		st Y,r24
 3169 0dea CD58      		subi r28,lo8(141)
 3170 0dec D040      		sbci r29,hi8(141)
 3171 0dee C257      		subi r28,lo8(-142)
 3172 0df0 DF4F      		sbci r29,hi8(-142)
 3173 0df2 8883      		st Y,r24
 3174 0df4 CE58      		subi r28,lo8(142)
 3175 0df6 D040      		sbci r29,hi8(142)
 3176 0df8 C957      		subi r28,lo8(-135)
 3177 0dfa DF4F      		sbci r29,hi8(-135)
 3178 0dfc A880      		ld r10,Y
 3179 0dfe C758      		subi r28,lo8(135)
 3180 0e00 D040      		sbci r29,hi8(135)
 3181 0e02 C857      		subi r28,lo8(-136)
 3182 0e04 DF4F      		sbci r29,hi8(-136)
 3183 0e06 B880      		ld r11,Y
 3184 0e08 C858      		subi r28,lo8(136)
 3185 0e0a D040      		sbci r29,hi8(136)
 3186 0e0c C757      		subi r28,lo8(-137)
 3187 0e0e DF4F      		sbci r29,hi8(-137)
 3188 0e10 C880      		ld r12,Y
 3189 0e12 C958      		subi r28,lo8(137)
 3190 0e14 D040      		sbci r29,hi8(137)
 3191 0e16 C657      		subi r28,lo8(-138)
 3192 0e18 DF4F      		sbci r29,hi8(-138)
 3193 0e1a D880      		ld r13,Y
 3194 0e1c CA58      		subi r28,lo8(138)
 3195 0e1e D040      		sbci r29,hi8(138)
 3196 0e20 C557      		subi r28,lo8(-139)
 3197 0e22 DF4F      		sbci r29,hi8(-139)
 3198 0e24 E880      		ld r14,Y
 3199 0e26 CB58      		subi r28,lo8(139)
 3200 0e28 D040      		sbci r29,hi8(139)
 3201 0e2a C457      		subi r28,lo8(-140)
 3202 0e2c DF4F      		sbci r29,hi8(-140)
 3203 0e2e F880      		ld r15,Y
 3204 0e30 CC58      		subi r28,lo8(140)
 3205 0e32 D040      		sbci r29,hi8(140)
 3206 0e34 C357      		subi r28,lo8(-141)
 3207 0e36 DF4F      		sbci r29,hi8(-141)
 3208 0e38 0881      		ld r16,Y
 3209 0e3a CD58      		subi r28,lo8(141)
 3210 0e3c D040      		sbci r29,hi8(141)
 3211 0e3e C257      		subi r28,lo8(-142)
 3212 0e40 DF4F      		sbci r29,hi8(-142)
 3213 0e42 1881      		ld r17,Y
 3214 0e44 CE58      		subi r28,lo8(142)
 3215 0e46 D040      		sbci r29,hi8(142)
 3216 0e48 C158      		subi r28,lo8(-127)
 3217 0e4a DF4F      		sbci r29,hi8(-127)
 3218 0e4c 2881      		ld r18,Y
 3219 0e4e CF57      		subi r28,lo8(127)
 3220 0e50 D040      		sbci r29,hi8(127)
 3221 0e52 C058      		subi r28,lo8(-128)
 3222 0e54 DF4F      		sbci r29,hi8(-128)
 3223 0e56 3881      		ld r19,Y
 3224 0e58 C058      		subi r28,lo8(128)
 3225 0e5a D040      		sbci r29,hi8(128)
 3226 0e5c CF57      		subi r28,lo8(-129)
 3227 0e5e DF4F      		sbci r29,hi8(-129)
 3228 0e60 4881      		ld r20,Y
 3229 0e62 C158      		subi r28,lo8(129)
 3230 0e64 D040      		sbci r29,hi8(129)
 3231 0e66 CE57      		subi r28,lo8(-130)
 3232 0e68 DF4F      		sbci r29,hi8(-130)
 3233 0e6a 5881      		ld r21,Y
 3234 0e6c C258      		subi r28,lo8(130)
 3235 0e6e D040      		sbci r29,hi8(130)
 3236 0e70 CD57      		subi r28,lo8(-131)
 3237 0e72 DF4F      		sbci r29,hi8(-131)
 3238 0e74 6881      		ld r22,Y
 3239 0e76 C358      		subi r28,lo8(131)
 3240 0e78 D040      		sbci r29,hi8(131)
 3241 0e7a CC57      		subi r28,lo8(-132)
 3242 0e7c DF4F      		sbci r29,hi8(-132)
 3243 0e7e 7881      		ld r23,Y
 3244 0e80 C458      		subi r28,lo8(132)
 3245 0e82 D040      		sbci r29,hi8(132)
 3246 0e84 CB57      		subi r28,lo8(-133)
 3247 0e86 DF4F      		sbci r29,hi8(-133)
 3248 0e88 8881      		ld r24,Y
 3249 0e8a C558      		subi r28,lo8(133)
 3250 0e8c D040      		sbci r29,hi8(133)
 3251 0e8e CA57      		subi r28,lo8(-134)
 3252 0e90 DF4F      		sbci r29,hi8(-134)
 3253 0e92 9881      		ld r25,Y
 3254 0e94 C658      		subi r28,lo8(134)
 3255 0e96 D040      		sbci r29,hi8(134)
 3256 0e98 0E94 0000 		call __muldi3
 3257 0e9c 222E      		mov r2,r18
 3258 0e9e 332E      		mov r3,r19
 3259 0ea0 442E      		mov r4,r20
 3260 0ea2 552E      		mov r5,r21
 3261 0ea4 662E      		mov r6,r22
 3262 0ea6 772E      		mov r7,r23
 3263 0ea8 882E      		mov r8,r24
 3264 0eaa 992E      		mov r9,r25
 3265 0eac A22C      		mov r10,r2
 3266 0eae B32C      		mov r11,r3
 3267 0eb0 C42C      		mov r12,r4
 3268 0eb2 D52C      		mov r13,r5
 3269 0eb4 E62C      		mov r14,r6
 3270 0eb6 F72C      		mov r15,r7
 3271 0eb8 082D      		mov r16,r8
 3272 0eba 192D      		mov r17,r9
 3273 0ebc 2A2D      		mov r18,r10
 3274 0ebe 3B2D      		mov r19,r11
 3275 0ec0 4C2D      		mov r20,r12
 3276 0ec2 5D2D      		mov r21,r13
 3277 0ec4 6E2D      		mov r22,r14
 3278 0ec6 7F2D      		mov r23,r15
 3279 0ec8 802F      		mov r24,r16
 3280 0eca 912F      		mov r25,r17
 3281 0ecc 0FE0      		ldi r16,lo8(15)
 3282 0ece 0E94 0000 		call __ashrdi3
 3283 0ed2 A22E      		mov r10,r18
 3284 0ed4 B32E      		mov r11,r19
 3285 0ed6 C42E      		mov r12,r20
 3286 0ed8 D52E      		mov r13,r21
 3287 0eda E62E      		mov r14,r22
 3288 0edc F72E      		mov r15,r23
 3289 0ede 082F      		mov r16,r24
 3290 0ee0 192F      		mov r17,r25
 3291 0ee2 D601      		movw r26,r12
 3292 0ee4 C501      		movw r24,r10
 3293 0ee6 8093 0000 		sts dlt,r24
 3294 0eea 9093 0000 		sts dlt+1,r25
 3295 0eee A093 0000 		sts dlt+2,r26
 3296 0ef2 B093 0000 		sts dlt+3,r27
 378:adpcm.c       **** 
 379:adpcm.c       **** /* logscl: updates logarithmic quant. scale factor in low sub band */
 380:adpcm.c       ****     nbl = logscl(il,nbl);
 3297               		.loc 1 380 0
 3298 0ef6 8091 0000 		lds r24,nbl
 3299 0efa 9091 0000 		lds r25,nbl+1
 3300 0efe A091 0000 		lds r26,nbl+2
 3301 0f02 B091 0000 		lds r27,nbl+3
 3302 0f06 E090 0000 		lds r14,il
 3303 0f0a F090 0000 		lds r15,il+1
 3304 0f0e 0091 0000 		lds r16,il+2
 3305 0f12 1091 0000 		lds r17,il+3
 3306 0f16 9C01      		movw r18,r24
 3307 0f18 AD01      		movw r20,r26
 3308 0f1a C801      		movw r24,r16
 3309 0f1c B701      		movw r22,r14
 3310 0f1e 0E94 0000 		call logscl
 3311 0f22 DC01      		movw r26,r24
 3312 0f24 CB01      		movw r24,r22
 3313 0f26 8093 0000 		sts nbl,r24
 3314 0f2a 9093 0000 		sts nbl+1,r25
 3315 0f2e A093 0000 		sts nbl+2,r26
 3316 0f32 B093 0000 		sts nbl+3,r27
 381:adpcm.c       **** 
 382:adpcm.c       **** /* scalel: compute the quantizer scale factor in the lower sub band */
 383:adpcm.c       **** /* calling parameters nbl and 8 (constant such that scalel can be scaleh) */
 384:adpcm.c       ****     detl = scalel(nbl,8);
 3317               		.loc 1 384 0
 3318 0f36 8091 0000 		lds r24,nbl
 3319 0f3a 9091 0000 		lds r25,nbl+1
 3320 0f3e A091 0000 		lds r26,nbl+2
 3321 0f42 B091 0000 		lds r27,nbl+3
 3322 0f46 28E0      		ldi r18,lo8(8)
 3323 0f48 30E0      		ldi r19,0
 3324 0f4a 40E0      		ldi r20,0
 3325 0f4c 50E0      		ldi r21,0
 3326 0f4e BC01      		movw r22,r24
 3327 0f50 CD01      		movw r24,r26
 3328 0f52 0E94 0000 		call scalel
 3329 0f56 DC01      		movw r26,r24
 3330 0f58 CB01      		movw r24,r22
 3331 0f5a 8093 0000 		sts detl,r24
 3332 0f5e 9093 0000 		sts detl+1,r25
 3333 0f62 A093 0000 		sts detl+2,r26
 3334 0f66 B093 0000 		sts detl+3,r27
 385:adpcm.c       **** 
 386:adpcm.c       **** /* parrec - simple addition to compute recontructed signal for adaptive pred */
 387:adpcm.c       ****     plt = dlt + szl;
 3335               		.loc 1 387 0
 3336 0f6a 2091 0000 		lds r18,dlt
 3337 0f6e 3091 0000 		lds r19,dlt+1
 3338 0f72 4091 0000 		lds r20,dlt+2
 3339 0f76 5091 0000 		lds r21,dlt+3
 3340 0f7a 8091 0000 		lds r24,szl
 3341 0f7e 9091 0000 		lds r25,szl+1
 3342 0f82 A091 0000 		lds r26,szl+2
 3343 0f86 B091 0000 		lds r27,szl+3
 3344 0f8a 820F      		add r24,r18
 3345 0f8c 931F      		adc r25,r19
 3346 0f8e A41F      		adc r26,r20
 3347 0f90 B51F      		adc r27,r21
 3348 0f92 8093 0000 		sts plt,r24
 3349 0f96 9093 0000 		sts plt+1,r25
 3350 0f9a A093 0000 		sts plt+2,r26
 3351 0f9e B093 0000 		sts plt+3,r27
 388:adpcm.c       **** 
 389:adpcm.c       **** /* upzero: update zero section predictor coefficients (sixth order)*/
 390:adpcm.c       **** /* calling parameters: dlt, dlt1, dlt2, ..., dlt6 from dlt */
 391:adpcm.c       **** /*  bpli (linear_buffer in which all six values are delayed */
 392:adpcm.c       **** /* return params:      updated bpli, delayed dltx */
 393:adpcm.c       ****     upzero(dlt,delay_dltx,delay_bpl);
 3352               		.loc 1 393 0
 3353 0fa2 8091 0000 		lds r24,dlt
 3354 0fa6 9091 0000 		lds r25,dlt+1
 3355 0faa A091 0000 		lds r26,dlt+2
 3356 0fae B091 0000 		lds r27,dlt+3
 3357 0fb2 20E0      		ldi r18,lo8(delay_bpl)
 3358 0fb4 30E0      		ldi r19,hi8(delay_bpl)
 3359 0fb6 40E0      		ldi r20,lo8(delay_dltx)
 3360 0fb8 50E0      		ldi r21,hi8(delay_dltx)
 3361 0fba BC01      		movw r22,r24
 3362 0fbc CD01      		movw r24,r26
 3363 0fbe 0E94 0000 		call upzero
 394:adpcm.c       **** 
 395:adpcm.c       **** /* uppol2- update second predictor coefficient apl2 and delay it as al2 */
 396:adpcm.c       **** /* calling parameters: al1, al2, plt, plt1, plt2 */
 397:adpcm.c       ****     al2 = uppol2(al1,al2,plt,plt1,plt2);
 3364               		.loc 1 397 0
 3365 0fc2 8091 0000 		lds r24,plt2
 3366 0fc6 9091 0000 		lds r25,plt2+1
 3367 0fca A091 0000 		lds r26,plt2+2
 3368 0fce B091 0000 		lds r27,plt2+3
 3369 0fd2 A090 0000 		lds r10,plt1
 3370 0fd6 B090 0000 		lds r11,plt1+1
 3371 0fda C090 0000 		lds r12,plt1+2
 3372 0fde D090 0000 		lds r13,plt1+3
 3373 0fe2 E090 0000 		lds r14,plt
 3374 0fe6 F090 0000 		lds r15,plt+1
 3375 0fea 0091 0000 		lds r16,plt+2
 3376 0fee 1091 0000 		lds r17,plt+3
 3377 0ff2 2091 0000 		lds r18,al2
 3378 0ff6 3091 0000 		lds r19,al2+1
 3379 0ffa 4091 0000 		lds r20,al2+2
 3380 0ffe 5091 0000 		lds r21,al2+3
 3381 1002 6090 0000 		lds r6,al1
 3382 1006 7090 0000 		lds r7,al1+1
 3383 100a 8090 0000 		lds r8,al1+2
 3384 100e 9090 0000 		lds r9,al1+3
 3385 1012 6B2F      		mov r22,r27
 3386 1014 6F93      		push r22
 3387 1016 6A2F      		mov r22,r26
 3388 1018 6F93      		push r22
 3389 101a 692F      		mov r22,r25
 3390 101c 6F93      		push r22
 3391 101e 8F93      		push r24
 3392 1020 C401      		movw r24,r8
 3393 1022 B301      		movw r22,r6
 3394 1024 0E94 0000 		call uppol2
 3395 1028 0F90      		pop __tmp_reg__
 3396 102a 0F90      		pop __tmp_reg__
 3397 102c 0F90      		pop __tmp_reg__
 3398 102e 0F90      		pop __tmp_reg__
 3399 1030 DC01      		movw r26,r24
 3400 1032 CB01      		movw r24,r22
 3401 1034 8093 0000 		sts al2,r24
 3402 1038 9093 0000 		sts al2+1,r25
 3403 103c A093 0000 		sts al2+2,r26
 3404 1040 B093 0000 		sts al2+3,r27
 398:adpcm.c       **** 
 399:adpcm.c       **** /* uppol1 :update first predictor coefficient apl1 and delay it as al1 */
 400:adpcm.c       **** /* calling parameters: al1, apl2, plt, plt1 */
 401:adpcm.c       ****     al1 = uppol1(al1,al2,plt,plt1);
 3405               		.loc 1 401 0
 3406 1044 8091 0000 		lds r24,plt1
 3407 1048 9091 0000 		lds r25,plt1+1
 3408 104c A091 0000 		lds r26,plt1+2
 3409 1050 B091 0000 		lds r27,plt1+3
 3410 1054 E090 0000 		lds r14,plt
 3411 1058 F090 0000 		lds r15,plt+1
 3412 105c 0091 0000 		lds r16,plt+2
 3413 1060 1091 0000 		lds r17,plt+3
 3414 1064 2091 0000 		lds r18,al2
 3415 1068 3091 0000 		lds r19,al2+1
 3416 106c 4091 0000 		lds r20,al2+2
 3417 1070 5091 0000 		lds r21,al2+3
 3418 1074 6090 0000 		lds r6,al1
 3419 1078 7090 0000 		lds r7,al1+1
 3420 107c 8090 0000 		lds r8,al1+2
 3421 1080 9090 0000 		lds r9,al1+3
 3422 1084 5C01      		movw r10,r24
 3423 1086 6D01      		movw r12,r26
 3424 1088 C401      		movw r24,r8
 3425 108a B301      		movw r22,r6
 3426 108c 0E94 0000 		call uppol1
 3427 1090 DC01      		movw r26,r24
 3428 1092 CB01      		movw r24,r22
 3429 1094 8093 0000 		sts al1,r24
 3430 1098 9093 0000 		sts al1+1,r25
 3431 109c A093 0000 		sts al1+2,r26
 3432 10a0 B093 0000 		sts al1+3,r27
 402:adpcm.c       **** 
 403:adpcm.c       **** /* recons : compute recontructed signal for adaptive predictor */
 404:adpcm.c       ****     rlt = sl + dlt;
 3433               		.loc 1 404 0
 3434 10a4 2091 0000 		lds r18,sl
 3435 10a8 3091 0000 		lds r19,sl+1
 3436 10ac 4091 0000 		lds r20,sl+2
 3437 10b0 5091 0000 		lds r21,sl+3
 3438 10b4 8091 0000 		lds r24,dlt
 3439 10b8 9091 0000 		lds r25,dlt+1
 3440 10bc A091 0000 		lds r26,dlt+2
 3441 10c0 B091 0000 		lds r27,dlt+3
 3442 10c4 820F      		add r24,r18
 3443 10c6 931F      		adc r25,r19
 3444 10c8 A41F      		adc r26,r20
 3445 10ca B51F      		adc r27,r21
 3446 10cc 8093 0000 		sts rlt,r24
 3447 10d0 9093 0000 		sts rlt+1,r25
 3448 10d4 A093 0000 		sts rlt+2,r26
 3449 10d8 B093 0000 		sts rlt+3,r27
 405:adpcm.c       **** 
 406:adpcm.c       **** /* done with lower sub_band encoder; now implement delays for next time*/
 407:adpcm.c       ****     rlt2 = rlt1;
 3450               		.loc 1 407 0
 3451 10dc 8091 0000 		lds r24,rlt1
 3452 10e0 9091 0000 		lds r25,rlt1+1
 3453 10e4 A091 0000 		lds r26,rlt1+2
 3454 10e8 B091 0000 		lds r27,rlt1+3
 3455 10ec 8093 0000 		sts rlt2,r24
 3456 10f0 9093 0000 		sts rlt2+1,r25
 3457 10f4 A093 0000 		sts rlt2+2,r26
 3458 10f8 B093 0000 		sts rlt2+3,r27
 408:adpcm.c       ****     rlt1 = rlt;
 3459               		.loc 1 408 0
 3460 10fc 8091 0000 		lds r24,rlt
 3461 1100 9091 0000 		lds r25,rlt+1
 3462 1104 A091 0000 		lds r26,rlt+2
 3463 1108 B091 0000 		lds r27,rlt+3
 3464 110c 8093 0000 		sts rlt1,r24
 3465 1110 9093 0000 		sts rlt1+1,r25
 3466 1114 A093 0000 		sts rlt1+2,r26
 3467 1118 B093 0000 		sts rlt1+3,r27
 409:adpcm.c       ****     plt2 = plt1;
 3468               		.loc 1 409 0
 3469 111c 8091 0000 		lds r24,plt1
 3470 1120 9091 0000 		lds r25,plt1+1
 3471 1124 A091 0000 		lds r26,plt1+2
 3472 1128 B091 0000 		lds r27,plt1+3
 3473 112c 8093 0000 		sts plt2,r24
 3474 1130 9093 0000 		sts plt2+1,r25
 3475 1134 A093 0000 		sts plt2+2,r26
 3476 1138 B093 0000 		sts plt2+3,r27
 410:adpcm.c       ****     plt1 = plt;
 3477               		.loc 1 410 0
 3478 113c 8091 0000 		lds r24,plt
 3479 1140 9091 0000 		lds r25,plt+1
 3480 1144 A091 0000 		lds r26,plt+2
 3481 1148 B091 0000 		lds r27,plt+3
 3482 114c 8093 0000 		sts plt1,r24
 3483 1150 9093 0000 		sts plt1+1,r25
 3484 1154 A093 0000 		sts plt1+2,r26
 3485 1158 B093 0000 		sts plt1+3,r27
 411:adpcm.c       **** 
 412:adpcm.c       **** /* high band encode */
 413:adpcm.c       **** 
 414:adpcm.c       ****     szh = filtez(delay_bph,delay_dhx);
 3486               		.loc 1 414 0
 3487 115c 60E0      		ldi r22,lo8(delay_dhx)
 3488 115e 70E0      		ldi r23,hi8(delay_dhx)
 3489 1160 80E0      		ldi r24,lo8(delay_bph)
 3490 1162 90E0      		ldi r25,hi8(delay_bph)
 3491 1164 0E94 0000 		call filtez
 3492 1168 DC01      		movw r26,r24
 3493 116a CB01      		movw r24,r22
 3494 116c 8093 0000 		sts szh,r24
 3495 1170 9093 0000 		sts szh+1,r25
 3496 1174 A093 0000 		sts szh+2,r26
 3497 1178 B093 0000 		sts szh+3,r27
 415:adpcm.c       **** 
 416:adpcm.c       ****     sph = filtep(rh1,ah1,rh2,ah2);
 3498               		.loc 1 416 0
 3499 117c 8091 0000 		lds r24,ah2
 3500 1180 9091 0000 		lds r25,ah2+1
 3501 1184 A091 0000 		lds r26,ah2+2
 3502 1188 B091 0000 		lds r27,ah2+3
 3503 118c E090 0000 		lds r14,rh2
 3504 1190 F090 0000 		lds r15,rh2+1
 3505 1194 0091 0000 		lds r16,rh2+2
 3506 1198 1091 0000 		lds r17,rh2+3
 3507 119c 2091 0000 		lds r18,ah1
 3508 11a0 3091 0000 		lds r19,ah1+1
 3509 11a4 4091 0000 		lds r20,ah1+2
 3510 11a8 5091 0000 		lds r21,ah1+3
 3511 11ac 6090 0000 		lds r6,rh1
 3512 11b0 7090 0000 		lds r7,rh1+1
 3513 11b4 8090 0000 		lds r8,rh1+2
 3514 11b8 9090 0000 		lds r9,rh1+3
 3515 11bc 5C01      		movw r10,r24
 3516 11be 6D01      		movw r12,r26
 3517 11c0 C401      		movw r24,r8
 3518 11c2 B301      		movw r22,r6
 3519 11c4 0E94 0000 		call filtep
 3520 11c8 DC01      		movw r26,r24
 3521 11ca CB01      		movw r24,r22
 3522 11cc 8093 0000 		sts sph,r24
 3523 11d0 9093 0000 		sts sph+1,r25
 3524 11d4 A093 0000 		sts sph+2,r26
 3525 11d8 B093 0000 		sts sph+3,r27
 417:adpcm.c       **** 
 418:adpcm.c       **** /* predic: sh = sph + szh */
 419:adpcm.c       ****     sh = sph + szh;
 3526               		.loc 1 419 0
 3527 11dc 2091 0000 		lds r18,sph
 3528 11e0 3091 0000 		lds r19,sph+1
 3529 11e4 4091 0000 		lds r20,sph+2
 3530 11e8 5091 0000 		lds r21,sph+3
 3531 11ec 8091 0000 		lds r24,szh
 3532 11f0 9091 0000 		lds r25,szh+1
 3533 11f4 A091 0000 		lds r26,szh+2
 3534 11f8 B091 0000 		lds r27,szh+3
 3535 11fc 820F      		add r24,r18
 3536 11fe 931F      		adc r25,r19
 3537 1200 A41F      		adc r26,r20
 3538 1202 B51F      		adc r27,r21
 3539 1204 8093 0000 		sts sh,r24
 3540 1208 9093 0000 		sts sh+1,r25
 3541 120c A093 0000 		sts sh+2,r26
 3542 1210 B093 0000 		sts sh+3,r27
 420:adpcm.c       **** /* subtra: eh = xh - sh */
 421:adpcm.c       ****     eh = xh - sh;
 3543               		.loc 1 421 0
 3544 1214 2091 0000 		lds r18,xh
 3545 1218 3091 0000 		lds r19,xh+1
 3546 121c 4091 0000 		lds r20,xh+2
 3547 1220 5091 0000 		lds r21,xh+3
 3548 1224 8091 0000 		lds r24,sh
 3549 1228 9091 0000 		lds r25,sh+1
 3550 122c A091 0000 		lds r26,sh+2
 3551 1230 B091 0000 		lds r27,sh+3
 3552 1234 7901      		movw r14,r18
 3553 1236 8A01      		movw r16,r20
 3554 1238 E81A      		sub r14,r24
 3555 123a F90A      		sbc r15,r25
 3556 123c 0A0B      		sbc r16,r26
 3557 123e 1B0B      		sbc r17,r27
 3558 1240 D801      		movw r26,r16
 3559 1242 C701      		movw r24,r14
 3560 1244 8093 0000 		sts eh,r24
 3561 1248 9093 0000 		sts eh+1,r25
 3562 124c A093 0000 		sts eh+2,r26
 3563 1250 B093 0000 		sts eh+3,r27
 422:adpcm.c       **** 
 423:adpcm.c       **** /* quanth - quantization of difference signal for higher sub-band */
 424:adpcm.c       **** /* quanth: in-place for speed params: eh, deth (has init. value) */
 425:adpcm.c       ****     if(eh >= 0) {
 3564               		.loc 1 425 0
 3565 1254 8091 0000 		lds r24,eh
 3566 1258 9091 0000 		lds r25,eh+1
 3567 125c A091 0000 		lds r26,eh+2
 3568 1260 B091 0000 		lds r27,eh+3
 3569 1264 BB23      		tst r27
 3570 1266 04F0      		brlt .L24
 426:adpcm.c       ****         ih = 3;     /* 2,3 are pos codes */
 3571               		.loc 1 426 0
 3572 1268 83E0      		ldi r24,lo8(3)
 3573 126a 90E0      		ldi r25,0
 3574 126c A0E0      		ldi r26,0
 3575 126e B0E0      		ldi r27,0
 3576 1270 8093 0000 		sts ih,r24
 3577 1274 9093 0000 		sts ih+1,r25
 3578 1278 A093 0000 		sts ih+2,r26
 3579 127c B093 0000 		sts ih+3,r27
 3580 1280 00C0      		rjmp .L25
 3581               	.L24:
 427:adpcm.c       ****     }
 428:adpcm.c       ****     else {
 429:adpcm.c       ****         ih = 1;     /* 0,1 are neg codes */
 3582               		.loc 1 429 0
 3583 1282 81E0      		ldi r24,lo8(1)
 3584 1284 90E0      		ldi r25,0
 3585 1286 A0E0      		ldi r26,0
 3586 1288 B0E0      		ldi r27,0
 3587 128a 8093 0000 		sts ih,r24
 3588 128e 9093 0000 		sts ih+1,r25
 3589 1292 A093 0000 		sts ih+2,r26
 3590 1296 B093 0000 		sts ih+3,r27
 3591               	.L25:
 430:adpcm.c       ****     }
 431:adpcm.c       ****     decis = (564L*(int64_t)deth) >> 12L;
 3592               		.loc 1 431 0
 3593 129a 8091 0000 		lds r24,deth
 3594 129e 9091 0000 		lds r25,deth+1
 3595 12a2 A091 0000 		lds r26,deth+2
 3596 12a6 B091 0000 		lds r27,deth+3
 3597 12aa C157      		subi r28,lo8(-143)
 3598 12ac DF4F      		sbci r29,hi8(-143)
 3599 12ae 8883      		st Y,r24
 3600 12b0 9983      		std Y+1,r25
 3601 12b2 AA83      		std Y+2,r26
 3602 12b4 BB83      		std Y+3,r27
 3603 12b6 CF58      		subi r28,lo8(143)
 3604 12b8 D040      		sbci r29,hi8(143)
 3605 12ba BB0F      		lsl r27
 3606 12bc 880B      		sbc r24,r24
 3607 12be 982F      		mov r25,r24
 3608 12c0 DC01      		movw r26,r24
 3609 12c2 CD56      		subi r28,lo8(-147)
 3610 12c4 DF4F      		sbci r29,hi8(-147)
 3611 12c6 8883      		st Y,r24
 3612 12c8 C359      		subi r28,lo8(147)
 3613 12ca D040      		sbci r29,hi8(147)
 3614 12cc CC56      		subi r28,lo8(-148)
 3615 12ce DF4F      		sbci r29,hi8(-148)
 3616 12d0 8883      		st Y,r24
 3617 12d2 C459      		subi r28,lo8(148)
 3618 12d4 D040      		sbci r29,hi8(148)
 3619 12d6 CB56      		subi r28,lo8(-149)
 3620 12d8 DF4F      		sbci r29,hi8(-149)
 3621 12da 8883      		st Y,r24
 3622 12dc C559      		subi r28,lo8(149)
 3623 12de D040      		sbci r29,hi8(149)
 3624 12e0 CA56      		subi r28,lo8(-150)
 3625 12e2 DF4F      		sbci r29,hi8(-150)
 3626 12e4 8883      		st Y,r24
 3627 12e6 C659      		subi r28,lo8(150)
 3628 12e8 D040      		sbci r29,hi8(150)
 3629 12ea 0F2E      		mov __tmp_reg__,r31
 3630 12ec F4E3      		ldi r31,lo8(52)
 3631 12ee AF2E      		mov r10,r31
 3632 12f0 F02D      		mov r31,__tmp_reg__
 3633 12f2 6894      		set
 3634 12f4 BB24      		clr r11
 3635 12f6 B1F8      		bld r11,1
 3636 12f8 C12C      		mov r12,__zero_reg__
 3637 12fa D12C      		mov r13,__zero_reg__
 3638 12fc E12C      		mov r14,__zero_reg__
 3639 12fe F12C      		mov r15,__zero_reg__
 3640 1300 00E0      		ldi r16,0
 3641 1302 10E0      		ldi r17,0
 3642 1304 C157      		subi r28,lo8(-143)
 3643 1306 DF4F      		sbci r29,hi8(-143)
 3644 1308 2881      		ld r18,Y
 3645 130a CF58      		subi r28,lo8(143)
 3646 130c D040      		sbci r29,hi8(143)
 3647 130e C057      		subi r28,lo8(-144)
 3648 1310 DF4F      		sbci r29,hi8(-144)
 3649 1312 3881      		ld r19,Y
 3650 1314 C059      		subi r28,lo8(144)
 3651 1316 D040      		sbci r29,hi8(144)
 3652 1318 CF56      		subi r28,lo8(-145)
 3653 131a DF4F      		sbci r29,hi8(-145)
 3654 131c 4881      		ld r20,Y
 3655 131e C159      		subi r28,lo8(145)
 3656 1320 D040      		sbci r29,hi8(145)
 3657 1322 CE56      		subi r28,lo8(-146)
 3658 1324 DF4F      		sbci r29,hi8(-146)
 3659 1326 5881      		ld r21,Y
 3660 1328 C259      		subi r28,lo8(146)
 3661 132a D040      		sbci r29,hi8(146)
 3662 132c CD56      		subi r28,lo8(-147)
 3663 132e DF4F      		sbci r29,hi8(-147)
 3664 1330 6881      		ld r22,Y
 3665 1332 C359      		subi r28,lo8(147)
 3666 1334 D040      		sbci r29,hi8(147)
 3667 1336 CC56      		subi r28,lo8(-148)
 3668 1338 DF4F      		sbci r29,hi8(-148)
 3669 133a 7881      		ld r23,Y
 3670 133c C459      		subi r28,lo8(148)
 3671 133e D040      		sbci r29,hi8(148)
 3672 1340 CB56      		subi r28,lo8(-149)
 3673 1342 DF4F      		sbci r29,hi8(-149)
 3674 1344 8881      		ld r24,Y
 3675 1346 C559      		subi r28,lo8(149)
 3676 1348 D040      		sbci r29,hi8(149)
 3677 134a CA56      		subi r28,lo8(-150)
 3678 134c DF4F      		sbci r29,hi8(-150)
 3679 134e 9881      		ld r25,Y
 3680 1350 C659      		subi r28,lo8(150)
 3681 1352 D040      		sbci r29,hi8(150)
 3682 1354 0E94 0000 		call __muldi3
 3683 1358 222E      		mov r2,r18
 3684 135a 332E      		mov r3,r19
 3685 135c 442E      		mov r4,r20
 3686 135e 552E      		mov r5,r21
 3687 1360 662E      		mov r6,r22
 3688 1362 772E      		mov r7,r23
 3689 1364 882E      		mov r8,r24
 3690 1366 992E      		mov r9,r25
 3691 1368 A22C      		mov r10,r2
 3692 136a B32C      		mov r11,r3
 3693 136c C42C      		mov r12,r4
 3694 136e D52C      		mov r13,r5
 3695 1370 E62C      		mov r14,r6
 3696 1372 F72C      		mov r15,r7
 3697 1374 082D      		mov r16,r8
 3698 1376 192D      		mov r17,r9
 3699 1378 2A2D      		mov r18,r10
 3700 137a 3B2D      		mov r19,r11
 3701 137c 4C2D      		mov r20,r12
 3702 137e 5D2D      		mov r21,r13
 3703 1380 6E2D      		mov r22,r14
 3704 1382 7F2D      		mov r23,r15
 3705 1384 802F      		mov r24,r16
 3706 1386 912F      		mov r25,r17
 3707 1388 0CE0      		ldi r16,lo8(12)
 3708 138a 0E94 0000 		call __ashrdi3
 3709 138e A22E      		mov r10,r18
 3710 1390 B32E      		mov r11,r19
 3711 1392 C42E      		mov r12,r20
 3712 1394 D52E      		mov r13,r21
 3713 1396 E62E      		mov r14,r22
 3714 1398 F72E      		mov r15,r23
 3715 139a 082F      		mov r16,r24
 3716 139c 192F      		mov r17,r25
 3717 139e AB8E      		std Y+27,r10
 3718 13a0 BC8E      		std Y+28,r11
 3719 13a2 CD8E      		std Y+29,r12
 3720 13a4 DE8E      		std Y+30,r13
 432:adpcm.c       ****     if(my_abs(eh) > decis) ih--;     /* mih = 2 case */
 3721               		.loc 1 432 0
 3722 13a6 8091 0000 		lds r24,eh
 3723 13aa 9091 0000 		lds r25,eh+1
 3724 13ae A091 0000 		lds r26,eh+2
 3725 13b2 B091 0000 		lds r27,eh+3
 3726 13b6 BC01      		movw r22,r24
 3727 13b8 CD01      		movw r24,r26
 3728 13ba 0E94 0000 		call my_abs
 3729 13be 9B01      		movw r18,r22
 3730 13c0 AC01      		movw r20,r24
 3731 13c2 8B8D      		ldd r24,Y+27
 3732 13c4 9C8D      		ldd r25,Y+28
 3733 13c6 AD8D      		ldd r26,Y+29
 3734 13c8 BE8D      		ldd r27,Y+30
 3735 13ca 8217      		cp r24,r18
 3736 13cc 9307      		cpc r25,r19
 3737 13ce A407      		cpc r26,r20
 3738 13d0 B507      		cpc r27,r21
 3739 13d2 04F4      		brge .L26
 3740               		.loc 1 432 0 is_stmt 0 discriminator 1
 3741 13d4 8091 0000 		lds r24,ih
 3742 13d8 9091 0000 		lds r25,ih+1
 3743 13dc A091 0000 		lds r26,ih+2
 3744 13e0 B091 0000 		lds r27,ih+3
 3745 13e4 0197      		sbiw r24,1
 3746 13e6 A109      		sbc r26,__zero_reg__
 3747 13e8 B109      		sbc r27,__zero_reg__
 3748 13ea 8093 0000 		sts ih,r24
 3749 13ee 9093 0000 		sts ih+1,r25
 3750 13f2 A093 0000 		sts ih+2,r26
 3751 13f6 B093 0000 		sts ih+3,r27
 3752               	.L26:
 433:adpcm.c       **** 
 434:adpcm.c       **** /* invqah: compute the quantized difference signal, higher sub-band*/
 435:adpcm.c       ****     dh = ((int64_t)deth*qq2_code2_table[ih]) >> 15L ;
 3753               		.loc 1 435 0 is_stmt 1
 3754 13fa 8091 0000 		lds r24,deth
 3755 13fe 9091 0000 		lds r25,deth+1
 3756 1402 A091 0000 		lds r26,deth+2
 3757 1406 B091 0000 		lds r27,deth+3
 3758 140a C956      		subi r28,lo8(-151)
 3759 140c DF4F      		sbci r29,hi8(-151)
 3760 140e 8883      		st Y,r24
 3761 1410 9983      		std Y+1,r25
 3762 1412 AA83      		std Y+2,r26
 3763 1414 BB83      		std Y+3,r27
 3764 1416 C759      		subi r28,lo8(151)
 3765 1418 D040      		sbci r29,hi8(151)
 3766 141a BB0F      		lsl r27
 3767 141c 880B      		sbc r24,r24
 3768 141e 982F      		mov r25,r24
 3769 1420 DC01      		movw r26,r24
 3770 1422 C556      		subi r28,lo8(-155)
 3771 1424 DF4F      		sbci r29,hi8(-155)
 3772 1426 8883      		st Y,r24
 3773 1428 CB59      		subi r28,lo8(155)
 3774 142a D040      		sbci r29,hi8(155)
 3775 142c C456      		subi r28,lo8(-156)
 3776 142e DF4F      		sbci r29,hi8(-156)
 3777 1430 8883      		st Y,r24
 3778 1432 CC59      		subi r28,lo8(156)
 3779 1434 D040      		sbci r29,hi8(156)
 3780 1436 C356      		subi r28,lo8(-157)
 3781 1438 DF4F      		sbci r29,hi8(-157)
 3782 143a 8883      		st Y,r24
 3783 143c CD59      		subi r28,lo8(157)
 3784 143e D040      		sbci r29,hi8(157)
 3785 1440 C256      		subi r28,lo8(-158)
 3786 1442 DF4F      		sbci r29,hi8(-158)
 3787 1444 8883      		st Y,r24
 3788 1446 CE59      		subi r28,lo8(158)
 3789 1448 D040      		sbci r29,hi8(158)
 3790 144a 8091 0000 		lds r24,ih
 3791 144e 9091 0000 		lds r25,ih+1
 3792 1452 A091 0000 		lds r26,ih+2
 3793 1456 B091 0000 		lds r27,ih+3
 3794 145a 880F      		lsl r24
 3795 145c 991F      		rol r25
 3796 145e 880F      		lsl r24
 3797 1460 991F      		rol r25
 3798 1462 8050      		subi r24,lo8(-(qq2_code2_table))
 3799 1464 9040      		sbci r25,hi8(-(qq2_code2_table))
 3800 1466 FC01      		movw r30,r24
 3801 1468 8081      		ld r24,Z
 3802 146a 9181      		ldd r25,Z+1
 3803 146c A281      		ldd r26,Z+2
 3804 146e B381      		ldd r27,Z+3
 3805 1470 C156      		subi r28,lo8(-159)
 3806 1472 DF4F      		sbci r29,hi8(-159)
 3807 1474 8883      		st Y,r24
 3808 1476 9983      		std Y+1,r25
 3809 1478 AA83      		std Y+2,r26
 3810 147a BB83      		std Y+3,r27
 3811 147c CF59      		subi r28,lo8(159)
 3812 147e D040      		sbci r29,hi8(159)
 3813 1480 BB0F      		lsl r27
 3814 1482 880B      		sbc r24,r24
 3815 1484 982F      		mov r25,r24
 3816 1486 DC01      		movw r26,r24
 3817 1488 CD55      		subi r28,lo8(-163)
 3818 148a DF4F      		sbci r29,hi8(-163)
 3819 148c 8883      		st Y,r24
 3820 148e C35A      		subi r28,lo8(163)
 3821 1490 D040      		sbci r29,hi8(163)
 3822 1492 CC55      		subi r28,lo8(-164)
 3823 1494 DF4F      		sbci r29,hi8(-164)
 3824 1496 8883      		st Y,r24
 3825 1498 C45A      		subi r28,lo8(164)
 3826 149a D040      		sbci r29,hi8(164)
 3827 149c CB55      		subi r28,lo8(-165)
 3828 149e DF4F      		sbci r29,hi8(-165)
 3829 14a0 8883      		st Y,r24
 3830 14a2 C55A      		subi r28,lo8(165)
 3831 14a4 D040      		sbci r29,hi8(165)
 3832 14a6 CA55      		subi r28,lo8(-166)
 3833 14a8 DF4F      		sbci r29,hi8(-166)
 3834 14aa 8883      		st Y,r24
 3835 14ac C65A      		subi r28,lo8(166)
 3836 14ae D040      		sbci r29,hi8(166)
 3837 14b0 C156      		subi r28,lo8(-159)
 3838 14b2 DF4F      		sbci r29,hi8(-159)
 3839 14b4 A880      		ld r10,Y
 3840 14b6 CF59      		subi r28,lo8(159)
 3841 14b8 D040      		sbci r29,hi8(159)
 3842 14ba C056      		subi r28,lo8(-160)
 3843 14bc DF4F      		sbci r29,hi8(-160)
 3844 14be B880      		ld r11,Y
 3845 14c0 C05A      		subi r28,lo8(160)
 3846 14c2 D040      		sbci r29,hi8(160)
 3847 14c4 CF55      		subi r28,lo8(-161)
 3848 14c6 DF4F      		sbci r29,hi8(-161)
 3849 14c8 C880      		ld r12,Y
 3850 14ca C15A      		subi r28,lo8(161)
 3851 14cc D040      		sbci r29,hi8(161)
 3852 14ce CE55      		subi r28,lo8(-162)
 3853 14d0 DF4F      		sbci r29,hi8(-162)
 3854 14d2 D880      		ld r13,Y
 3855 14d4 C25A      		subi r28,lo8(162)
 3856 14d6 D040      		sbci r29,hi8(162)
 3857 14d8 CD55      		subi r28,lo8(-163)
 3858 14da DF4F      		sbci r29,hi8(-163)
 3859 14dc E880      		ld r14,Y
 3860 14de C35A      		subi r28,lo8(163)
 3861 14e0 D040      		sbci r29,hi8(163)
 3862 14e2 CC55      		subi r28,lo8(-164)
 3863 14e4 DF4F      		sbci r29,hi8(-164)
 3864 14e6 F880      		ld r15,Y
 3865 14e8 C45A      		subi r28,lo8(164)
 3866 14ea D040      		sbci r29,hi8(164)
 3867 14ec CB55      		subi r28,lo8(-165)
 3868 14ee DF4F      		sbci r29,hi8(-165)
 3869 14f0 0881      		ld r16,Y
 3870 14f2 C55A      		subi r28,lo8(165)
 3871 14f4 D040      		sbci r29,hi8(165)
 3872 14f6 CA55      		subi r28,lo8(-166)
 3873 14f8 DF4F      		sbci r29,hi8(-166)
 3874 14fa 1881      		ld r17,Y
 3875 14fc C65A      		subi r28,lo8(166)
 3876 14fe D040      		sbci r29,hi8(166)
 3877 1500 C956      		subi r28,lo8(-151)
 3878 1502 DF4F      		sbci r29,hi8(-151)
 3879 1504 2881      		ld r18,Y
 3880 1506 C759      		subi r28,lo8(151)
 3881 1508 D040      		sbci r29,hi8(151)
 3882 150a C856      		subi r28,lo8(-152)
 3883 150c DF4F      		sbci r29,hi8(-152)
 3884 150e 3881      		ld r19,Y
 3885 1510 C859      		subi r28,lo8(152)
 3886 1512 D040      		sbci r29,hi8(152)
 3887 1514 C756      		subi r28,lo8(-153)
 3888 1516 DF4F      		sbci r29,hi8(-153)
 3889 1518 4881      		ld r20,Y
 3890 151a C959      		subi r28,lo8(153)
 3891 151c D040      		sbci r29,hi8(153)
 3892 151e C656      		subi r28,lo8(-154)
 3893 1520 DF4F      		sbci r29,hi8(-154)
 3894 1522 5881      		ld r21,Y
 3895 1524 CA59      		subi r28,lo8(154)
 3896 1526 D040      		sbci r29,hi8(154)
 3897 1528 C556      		subi r28,lo8(-155)
 3898 152a DF4F      		sbci r29,hi8(-155)
 3899 152c 6881      		ld r22,Y
 3900 152e CB59      		subi r28,lo8(155)
 3901 1530 D040      		sbci r29,hi8(155)
 3902 1532 C456      		subi r28,lo8(-156)
 3903 1534 DF4F      		sbci r29,hi8(-156)
 3904 1536 7881      		ld r23,Y
 3905 1538 CC59      		subi r28,lo8(156)
 3906 153a D040      		sbci r29,hi8(156)
 3907 153c C356      		subi r28,lo8(-157)
 3908 153e DF4F      		sbci r29,hi8(-157)
 3909 1540 8881      		ld r24,Y
 3910 1542 CD59      		subi r28,lo8(157)
 3911 1544 D040      		sbci r29,hi8(157)
 3912 1546 C256      		subi r28,lo8(-158)
 3913 1548 DF4F      		sbci r29,hi8(-158)
 3914 154a 9881      		ld r25,Y
 3915 154c CE59      		subi r28,lo8(158)
 3916 154e D040      		sbci r29,hi8(158)
 3917 1550 0E94 0000 		call __muldi3
 3918 1554 222E      		mov r2,r18
 3919 1556 332E      		mov r3,r19
 3920 1558 442E      		mov r4,r20
 3921 155a 552E      		mov r5,r21
 3922 155c 662E      		mov r6,r22
 3923 155e 772E      		mov r7,r23
 3924 1560 882E      		mov r8,r24
 3925 1562 992E      		mov r9,r25
 3926 1564 A22C      		mov r10,r2
 3927 1566 B32C      		mov r11,r3
 3928 1568 C42C      		mov r12,r4
 3929 156a D52C      		mov r13,r5
 3930 156c E62C      		mov r14,r6
 3931 156e F72C      		mov r15,r7
 3932 1570 082D      		mov r16,r8
 3933 1572 192D      		mov r17,r9
 3934 1574 2A2D      		mov r18,r10
 3935 1576 3B2D      		mov r19,r11
 3936 1578 4C2D      		mov r20,r12
 3937 157a 5D2D      		mov r21,r13
 3938 157c 6E2D      		mov r22,r14
 3939 157e 7F2D      		mov r23,r15
 3940 1580 802F      		mov r24,r16
 3941 1582 912F      		mov r25,r17
 3942 1584 0FE0      		ldi r16,lo8(15)
 3943 1586 0E94 0000 		call __ashrdi3
 3944 158a A22E      		mov r10,r18
 3945 158c B32E      		mov r11,r19
 3946 158e C42E      		mov r12,r20
 3947 1590 D52E      		mov r13,r21
 3948 1592 E62E      		mov r14,r22
 3949 1594 F72E      		mov r15,r23
 3950 1596 082F      		mov r16,r24
 3951 1598 192F      		mov r17,r25
 3952 159a D601      		movw r26,r12
 3953 159c C501      		movw r24,r10
 3954 159e 8093 0000 		sts dh,r24
 3955 15a2 9093 0000 		sts dh+1,r25
 3956 15a6 A093 0000 		sts dh+2,r26
 3957 15aa B093 0000 		sts dh+3,r27
 436:adpcm.c       **** 
 437:adpcm.c       **** /* logsch: update logarithmic quantizer scale factor in hi sub-band*/
 438:adpcm.c       ****     nbh = logsch(ih,nbh);
 3958               		.loc 1 438 0
 3959 15ae 2091 0000 		lds r18,nbh
 3960 15b2 3091 0000 		lds r19,nbh+1
 3961 15b6 4091 0000 		lds r20,nbh+2
 3962 15ba 5091 0000 		lds r21,nbh+3
 3963 15be 8091 0000 		lds r24,ih
 3964 15c2 9091 0000 		lds r25,ih+1
 3965 15c6 A091 0000 		lds r26,ih+2
 3966 15ca B091 0000 		lds r27,ih+3
 3967 15ce BC01      		movw r22,r24
 3968 15d0 CD01      		movw r24,r26
 3969 15d2 0E94 0000 		call logsch
 3970 15d6 DC01      		movw r26,r24
 3971 15d8 CB01      		movw r24,r22
 3972 15da 8093 0000 		sts nbh,r24
 3973 15de 9093 0000 		sts nbh+1,r25
 3974 15e2 A093 0000 		sts nbh+2,r26
 3975 15e6 B093 0000 		sts nbh+3,r27
 439:adpcm.c       **** 
 440:adpcm.c       **** /* note : scalel and scaleh use same code, different parameters */
 441:adpcm.c       ****     deth = scalel(nbh,10);
 3976               		.loc 1 441 0
 3977 15ea 8091 0000 		lds r24,nbh
 3978 15ee 9091 0000 		lds r25,nbh+1
 3979 15f2 A091 0000 		lds r26,nbh+2
 3980 15f6 B091 0000 		lds r27,nbh+3
 3981 15fa 2AE0      		ldi r18,lo8(10)
 3982 15fc 30E0      		ldi r19,0
 3983 15fe 40E0      		ldi r20,0
 3984 1600 50E0      		ldi r21,0
 3985 1602 BC01      		movw r22,r24
 3986 1604 CD01      		movw r24,r26
 3987 1606 0E94 0000 		call scalel
 3988 160a DC01      		movw r26,r24
 3989 160c CB01      		movw r24,r22
 3990 160e 8093 0000 		sts deth,r24
 3991 1612 9093 0000 		sts deth+1,r25
 3992 1616 A093 0000 		sts deth+2,r26
 3993 161a B093 0000 		sts deth+3,r27
 442:adpcm.c       **** 
 443:adpcm.c       **** /* parrec - add pole predictor output to quantized diff. signal */
 444:adpcm.c       ****     ph = dh + szh;
 3994               		.loc 1 444 0
 3995 161e 2091 0000 		lds r18,dh
 3996 1622 3091 0000 		lds r19,dh+1
 3997 1626 4091 0000 		lds r20,dh+2
 3998 162a 5091 0000 		lds r21,dh+3
 3999 162e 8091 0000 		lds r24,szh
 4000 1632 9091 0000 		lds r25,szh+1
 4001 1636 A091 0000 		lds r26,szh+2
 4002 163a B091 0000 		lds r27,szh+3
 4003 163e 820F      		add r24,r18
 4004 1640 931F      		adc r25,r19
 4005 1642 A41F      		adc r26,r20
 4006 1644 B51F      		adc r27,r21
 4007 1646 8093 0000 		sts ph,r24
 4008 164a 9093 0000 		sts ph+1,r25
 4009 164e A093 0000 		sts ph+2,r26
 4010 1652 B093 0000 		sts ph+3,r27
 445:adpcm.c       **** 
 446:adpcm.c       **** /* upzero: update zero section predictor coefficients (sixth order) */
 447:adpcm.c       **** /* calling parameters: dh, dhi, bphi */
 448:adpcm.c       **** /* return params: updated bphi, delayed dhx */
 449:adpcm.c       ****     upzero(dh,delay_dhx,delay_bph);
 4011               		.loc 1 449 0
 4012 1656 8091 0000 		lds r24,dh
 4013 165a 9091 0000 		lds r25,dh+1
 4014 165e A091 0000 		lds r26,dh+2
 4015 1662 B091 0000 		lds r27,dh+3
 4016 1666 20E0      		ldi r18,lo8(delay_bph)
 4017 1668 30E0      		ldi r19,hi8(delay_bph)
 4018 166a 40E0      		ldi r20,lo8(delay_dhx)
 4019 166c 50E0      		ldi r21,hi8(delay_dhx)
 4020 166e BC01      		movw r22,r24
 4021 1670 CD01      		movw r24,r26
 4022 1672 0E94 0000 		call upzero
 450:adpcm.c       **** 
 451:adpcm.c       **** /* uppol2: update second predictor coef aph2 and delay as ah2 */
 452:adpcm.c       **** /* calling params: ah1, ah2, ph, ph1, ph2 */
 453:adpcm.c       ****     ah2 = uppol2(ah1,ah2,ph,ph1,ph2);
 4023               		.loc 1 453 0
 4024 1676 8091 0000 		lds r24,ph2
 4025 167a 9091 0000 		lds r25,ph2+1
 4026 167e A091 0000 		lds r26,ph2+2
 4027 1682 B091 0000 		lds r27,ph2+3
 4028 1686 A090 0000 		lds r10,ph1
 4029 168a B090 0000 		lds r11,ph1+1
 4030 168e C090 0000 		lds r12,ph1+2
 4031 1692 D090 0000 		lds r13,ph1+3
 4032 1696 E090 0000 		lds r14,ph
 4033 169a F090 0000 		lds r15,ph+1
 4034 169e 0091 0000 		lds r16,ph+2
 4035 16a2 1091 0000 		lds r17,ph+3
 4036 16a6 2091 0000 		lds r18,ah2
 4037 16aa 3091 0000 		lds r19,ah2+1
 4038 16ae 4091 0000 		lds r20,ah2+2
 4039 16b2 5091 0000 		lds r21,ah2+3
 4040 16b6 6090 0000 		lds r6,ah1
 4041 16ba 7090 0000 		lds r7,ah1+1
 4042 16be 8090 0000 		lds r8,ah1+2
 4043 16c2 9090 0000 		lds r9,ah1+3
 4044 16c6 6B2F      		mov r22,r27
 4045 16c8 6F93      		push r22
 4046 16ca 6A2F      		mov r22,r26
 4047 16cc 6F93      		push r22
 4048 16ce 692F      		mov r22,r25
 4049 16d0 6F93      		push r22
 4050 16d2 8F93      		push r24
 4051 16d4 C401      		movw r24,r8
 4052 16d6 B301      		movw r22,r6
 4053 16d8 0E94 0000 		call uppol2
 4054 16dc 0F90      		pop __tmp_reg__
 4055 16de 0F90      		pop __tmp_reg__
 4056 16e0 0F90      		pop __tmp_reg__
 4057 16e2 0F90      		pop __tmp_reg__
 4058 16e4 DC01      		movw r26,r24
 4059 16e6 CB01      		movw r24,r22
 4060 16e8 8093 0000 		sts ah2,r24
 4061 16ec 9093 0000 		sts ah2+1,r25
 4062 16f0 A093 0000 		sts ah2+2,r26
 4063 16f4 B093 0000 		sts ah2+3,r27
 454:adpcm.c       **** 
 455:adpcm.c       **** /* uppol1:  update first predictor coef. aph2 and delay it as ah1 */
 456:adpcm.c       ****     ah1 = uppol1(ah1,ah2,ph,ph1);
 4064               		.loc 1 456 0
 4065 16f8 A090 0000 		lds r10,ph1
 4066 16fc B090 0000 		lds r11,ph1+1
 4067 1700 C090 0000 		lds r12,ph1+2
 4068 1704 D090 0000 		lds r13,ph1+3
 4069 1708 E090 0000 		lds r14,ph
 4070 170c F090 0000 		lds r15,ph+1
 4071 1710 0091 0000 		lds r16,ph+2
 4072 1714 1091 0000 		lds r17,ph+3
 4073 1718 2091 0000 		lds r18,ah2
 4074 171c 3091 0000 		lds r19,ah2+1
 4075 1720 4091 0000 		lds r20,ah2+2
 4076 1724 5091 0000 		lds r21,ah2+3
 4077 1728 8091 0000 		lds r24,ah1
 4078 172c 9091 0000 		lds r25,ah1+1
 4079 1730 A091 0000 		lds r26,ah1+2
 4080 1734 B091 0000 		lds r27,ah1+3
 4081 1738 BC01      		movw r22,r24
 4082 173a CD01      		movw r24,r26
 4083 173c 0E94 0000 		call uppol1
 4084 1740 DC01      		movw r26,r24
 4085 1742 CB01      		movw r24,r22
 4086 1744 8093 0000 		sts ah1,r24
 4087 1748 9093 0000 		sts ah1+1,r25
 4088 174c A093 0000 		sts ah1+2,r26
 4089 1750 B093 0000 		sts ah1+3,r27
 457:adpcm.c       **** 
 458:adpcm.c       **** /* recons for higher sub-band */
 459:adpcm.c       ****     yh = sh + dh;
 4090               		.loc 1 459 0
 4091 1754 2091 0000 		lds r18,sh
 4092 1758 3091 0000 		lds r19,sh+1
 4093 175c 4091 0000 		lds r20,sh+2
 4094 1760 5091 0000 		lds r21,sh+3
 4095 1764 8091 0000 		lds r24,dh
 4096 1768 9091 0000 		lds r25,dh+1
 4097 176c A091 0000 		lds r26,dh+2
 4098 1770 B091 0000 		lds r27,dh+3
 4099 1774 820F      		add r24,r18
 4100 1776 931F      		adc r25,r19
 4101 1778 A41F      		adc r26,r20
 4102 177a B51F      		adc r27,r21
 4103 177c 8093 0000 		sts yh,r24
 4104 1780 9093 0000 		sts yh+1,r25
 4105 1784 A093 0000 		sts yh+2,r26
 4106 1788 B093 0000 		sts yh+3,r27
 460:adpcm.c       **** 
 461:adpcm.c       **** /* done with higher sub-band encoder, now Delay for next time */
 462:adpcm.c       ****     rh2 = rh1;
 4107               		.loc 1 462 0
 4108 178c 8091 0000 		lds r24,rh1
 4109 1790 9091 0000 		lds r25,rh1+1
 4110 1794 A091 0000 		lds r26,rh1+2
 4111 1798 B091 0000 		lds r27,rh1+3
 4112 179c 8093 0000 		sts rh2,r24
 4113 17a0 9093 0000 		sts rh2+1,r25
 4114 17a4 A093 0000 		sts rh2+2,r26
 4115 17a8 B093 0000 		sts rh2+3,r27
 463:adpcm.c       ****     rh1 = yh;
 4116               		.loc 1 463 0
 4117 17ac 8091 0000 		lds r24,yh
 4118 17b0 9091 0000 		lds r25,yh+1
 4119 17b4 A091 0000 		lds r26,yh+2
 4120 17b8 B091 0000 		lds r27,yh+3
 4121 17bc 8093 0000 		sts rh1,r24
 4122 17c0 9093 0000 		sts rh1+1,r25
 4123 17c4 A093 0000 		sts rh1+2,r26
 4124 17c8 B093 0000 		sts rh1+3,r27
 464:adpcm.c       ****     ph2 = ph1;
 4125               		.loc 1 464 0
 4126 17cc 8091 0000 		lds r24,ph1
 4127 17d0 9091 0000 		lds r25,ph1+1
 4128 17d4 A091 0000 		lds r26,ph1+2
 4129 17d8 B091 0000 		lds r27,ph1+3
 4130 17dc 8093 0000 		sts ph2,r24
 4131 17e0 9093 0000 		sts ph2+1,r25
 4132 17e4 A093 0000 		sts ph2+2,r26
 4133 17e8 B093 0000 		sts ph2+3,r27
 465:adpcm.c       ****     ph1 = ph;
 4134               		.loc 1 465 0
 4135 17ec 8091 0000 		lds r24,ph
 4136 17f0 9091 0000 		lds r25,ph+1
 4137 17f4 A091 0000 		lds r26,ph+2
 4138 17f8 B091 0000 		lds r27,ph+3
 4139 17fc 8093 0000 		sts ph1,r24
 4140 1800 9093 0000 		sts ph1+1,r25
 4141 1804 A093 0000 		sts ph1+2,r26
 4142 1808 B093 0000 		sts ph1+3,r27
 466:adpcm.c       **** 
 467:adpcm.c       **** /* multiplex ih and il to get signals together */
 468:adpcm.c       ****     return(il | (ih << 6));
 4143               		.loc 1 468 0
 4144 180c 8091 0000 		lds r24,ih
 4145 1810 9091 0000 		lds r25,ih+1
 4146 1814 A091 0000 		lds r26,ih+2
 4147 1818 B091 0000 		lds r27,ih+3
 4148 181c 880F      		add r24,r24
 4149 181e 991F      		adc r25,r25
 4150 1820 AA1F      		adc r26,r26
 4151 1822 BB1F      		adc r27,r27
 4152 1824 880F      		add r24,r24
 4153 1826 991F      		adc r25,r25
 4154 1828 AA1F      		adc r26,r26
 4155 182a BB1F      		adc r27,r27
 4156 182c 880F      		add r24,r24
 4157 182e 991F      		adc r25,r25
 4158 1830 AA1F      		adc r26,r26
 4159 1832 BB1F      		adc r27,r27
 4160 1834 880F      		add r24,r24
 4161 1836 991F      		adc r25,r25
 4162 1838 AA1F      		adc r26,r26
 4163 183a BB1F      		adc r27,r27
 4164 183c 880F      		add r24,r24
 4165 183e 991F      		adc r25,r25
 4166 1840 AA1F      		adc r26,r26
 4167 1842 BB1F      		adc r27,r27
 4168 1844 880F      		add r24,r24
 4169 1846 991F      		adc r25,r25
 4170 1848 AA1F      		adc r26,r26
 4171 184a BB1F      		adc r27,r27
 4172 184c 9C01      		movw r18,r24
 4173 184e AD01      		movw r20,r26
 4174 1850 8091 0000 		lds r24,il
 4175 1854 9091 0000 		lds r25,il+1
 4176 1858 A091 0000 		lds r26,il+2
 4177 185c B091 0000 		lds r27,il+3
 4178 1860 822B      		or r24,r18
 4179 1862 932B      		or r25,r19
 4180 1864 A42B      		or r26,r20
 4181 1866 B52B      		or r27,r21
 469:adpcm.c       **** }
 4182               		.loc 1 469 0
 4183 1868 BC01      		movw r22,r24
 4184 186a CD01      		movw r24,r26
 4185               	/* epilogue start */
 4186 186c CA55      		subi r28,90
 4187 186e DF4F      		sbci r29,-1
 4188 1870 0FB6      		in __tmp_reg__,__SREG__
 4189 1872 F894      		cli
 4190 1874 DEBF      		out __SP_H__,r29
 4191 1876 0FBE      		out __SREG__,__tmp_reg__
 4192 1878 CDBF      		out __SP_L__,r28
 4193 187a DF91      		pop r29
 4194 187c CF91      		pop r28
 4195 187e 1F91      		pop r17
 4196 1880 0F91      		pop r16
 4197 1882 FF90      		pop r15
 4198 1884 EF90      		pop r14
 4199 1886 DF90      		pop r13
 4200 1888 CF90      		pop r12
 4201 188a BF90      		pop r11
 4202 188c AF90      		pop r10
 4203 188e 9F90      		pop r9
 4204 1890 8F90      		pop r8
 4205 1892 7F90      		pop r7
 4206 1894 6F90      		pop r6
 4207 1896 5F90      		pop r5
 4208 1898 4F90      		pop r4
 4209 189a 3F90      		pop r3
 4210 189c 2F90      		pop r2
 4211 189e 0895      		ret
 4212               	.LFE5:
 4214               	.global	decode
 4216               	decode:
 4217               	.LFB6:
 470:adpcm.c       **** 
 471:adpcm.c       **** /* decode function, result in xout1 and xout2 */
 472:adpcm.c       **** 
 473:adpcm.c       **** void decode(int32_t input)
 474:adpcm.c       **** {
 4218               		.loc 1 474 0
 4219 18a0 2F92      		push r2
 4220               	.LCFI44:
 4221 18a2 3F92      		push r3
 4222               	.LCFI45:
 4223 18a4 4F92      		push r4
 4224               	.LCFI46:
 4225 18a6 5F92      		push r5
 4226               	.LCFI47:
 4227 18a8 6F92      		push r6
 4228               	.LCFI48:
 4229 18aa 7F92      		push r7
 4230               	.LCFI49:
 4231 18ac 8F92      		push r8
 4232               	.LCFI50:
 4233 18ae 9F92      		push r9
 4234               	.LCFI51:
 4235 18b0 AF92      		push r10
 4236               	.LCFI52:
 4237 18b2 BF92      		push r11
 4238               	.LCFI53:
 4239 18b4 CF92      		push r12
 4240               	.LCFI54:
 4241 18b6 DF92      		push r13
 4242               	.LCFI55:
 4243 18b8 EF92      		push r14
 4244               	.LCFI56:
 4245 18ba FF92      		push r15
 4246               	.LCFI57:
 4247 18bc 0F93      		push r16
 4248               	.LCFI58:
 4249 18be 1F93      		push r17
 4250               	.LCFI59:
 4251 18c0 CF93      		push r28
 4252               	.LCFI60:
 4253 18c2 DF93      		push r29
 4254               	.LCFI61:
 4255 18c4 CDB7      		in r28,__SP_L__
 4256 18c6 DEB7      		in r29,__SP_H__
 4257               	.LCFI62:
 4258 18c8 CA5A      		subi r28,-86
 4259 18ca D109      		sbc r29,__zero_reg__
 4260               	.LCFI63:
 4261 18cc 0FB6      		in __tmp_reg__,__SREG__
 4262 18ce F894      		cli
 4263 18d0 DEBF      		out __SP_H__,r29
 4264 18d2 0FBE      		out __SREG__,__tmp_reg__
 4265 18d4 CDBF      		out __SP_L__,r28
 4266               	/* prologue: function */
 4267               	/* frame size = 170 */
 4268               	/* stack size = 188 */
 4269               	.L__stack_usage = 188
 4270 18d6 6F8F      		std Y+31,r22
 4271 18d8 78A3      		std Y+32,r23
 4272 18da 89A3      		std Y+33,r24
 4273 18dc 9AA3      		std Y+34,r25
 475:adpcm.c       ****     int32_t i;
 476:adpcm.c       ****     int64_t  xa1,xa2;    /* qmf accumulators */
 477:adpcm.c       ****     int32_t *h_ptr,*ac_ptr,*ac_ptr1,*ad_ptr,*ad_ptr1;
 478:adpcm.c       **** 
 479:adpcm.c       **** /* split transmitted word from input into ilr and ih */
 480:adpcm.c       ****     ilr = input & 0x3f;
 4274               		.loc 1 480 0
 4275 18de 8F8D      		ldd r24,Y+31
 4276 18e0 98A1      		ldd r25,Y+32
 4277 18e2 A9A1      		ldd r26,Y+33
 4278 18e4 BAA1      		ldd r27,Y+34
 4279 18e6 8F73      		andi r24,63
 4280 18e8 9927      		clr r25
 4281 18ea AA27      		clr r26
 4282 18ec BB27      		clr r27
 4283 18ee 8093 0000 		sts ilr,r24
 4284 18f2 9093 0000 		sts ilr+1,r25
 4285 18f6 A093 0000 		sts ilr+2,r26
 4286 18fa B093 0000 		sts ilr+3,r27
 481:adpcm.c       ****     ih = input >> 6;
 4287               		.loc 1 481 0
 4288 18fe 8F8D      		ldd r24,Y+31
 4289 1900 98A1      		ldd r25,Y+32
 4290 1902 A9A1      		ldd r26,Y+33
 4291 1904 BAA1      		ldd r27,Y+34
 4292 1906 6894      		set
 4293 1908 15F8      		bld __zero_reg__,6-1
 4294               		1:
 4295 190a B595      		asr r27
 4296 190c A795      		ror r26
 4297 190e 9795      		ror r25
 4298 1910 8795      		ror r24
 4299 1912 1694      		lsr __zero_reg__
 4300 1914 01F4      		brne 1b
 4301 1916 8093 0000 		sts ih,r24
 4302 191a 9093 0000 		sts ih+1,r25
 4303 191e A093 0000 		sts ih+2,r26
 4304 1922 B093 0000 		sts ih+3,r27
 482:adpcm.c       **** 
 483:adpcm.c       **** /* LOWER SUB_BAND DECODER */
 484:adpcm.c       **** 
 485:adpcm.c       **** /* filtez: compute predictor output for zero section */
 486:adpcm.c       ****     dec_szl = filtez(dec_del_bpl,dec_del_dltx);
 4305               		.loc 1 486 0
 4306 1926 60E0      		ldi r22,lo8(dec_del_dltx)
 4307 1928 70E0      		ldi r23,hi8(dec_del_dltx)
 4308 192a 80E0      		ldi r24,lo8(dec_del_bpl)
 4309 192c 90E0      		ldi r25,hi8(dec_del_bpl)
 4310 192e 0E94 0000 		call filtez
 4311 1932 DC01      		movw r26,r24
 4312 1934 CB01      		movw r24,r22
 4313 1936 8093 0000 		sts dec_szl,r24
 4314 193a 9093 0000 		sts dec_szl+1,r25
 4315 193e A093 0000 		sts dec_szl+2,r26
 4316 1942 B093 0000 		sts dec_szl+3,r27
 487:adpcm.c       **** 
 488:adpcm.c       **** /* filtep: compute predictor output signal for pole section */
 489:adpcm.c       ****     dec_spl = filtep(dec_rlt1,dec_al1,dec_rlt2,dec_al2);
 4317               		.loc 1 489 0
 4318 1946 A090 0000 		lds r10,dec_al2
 4319 194a B090 0000 		lds r11,dec_al2+1
 4320 194e C090 0000 		lds r12,dec_al2+2
 4321 1952 D090 0000 		lds r13,dec_al2+3
 4322 1956 E090 0000 		lds r14,dec_rlt2
 4323 195a F090 0000 		lds r15,dec_rlt2+1
 4324 195e 0091 0000 		lds r16,dec_rlt2+2
 4325 1962 1091 0000 		lds r17,dec_rlt2+3
 4326 1966 2091 0000 		lds r18,dec_al1
 4327 196a 3091 0000 		lds r19,dec_al1+1
 4328 196e 4091 0000 		lds r20,dec_al1+2
 4329 1972 5091 0000 		lds r21,dec_al1+3
 4330 1976 8091 0000 		lds r24,dec_rlt1
 4331 197a 9091 0000 		lds r25,dec_rlt1+1
 4332 197e A091 0000 		lds r26,dec_rlt1+2
 4333 1982 B091 0000 		lds r27,dec_rlt1+3
 4334 1986 BC01      		movw r22,r24
 4335 1988 CD01      		movw r24,r26
 4336 198a 0E94 0000 		call filtep
 4337 198e DC01      		movw r26,r24
 4338 1990 CB01      		movw r24,r22
 4339 1992 8093 0000 		sts dec_spl,r24
 4340 1996 9093 0000 		sts dec_spl+1,r25
 4341 199a A093 0000 		sts dec_spl+2,r26
 4342 199e B093 0000 		sts dec_spl+3,r27
 490:adpcm.c       **** 
 491:adpcm.c       ****     dec_sl = dec_spl + dec_szl;
 4343               		.loc 1 491 0
 4344 19a2 2091 0000 		lds r18,dec_spl
 4345 19a6 3091 0000 		lds r19,dec_spl+1
 4346 19aa 4091 0000 		lds r20,dec_spl+2
 4347 19ae 5091 0000 		lds r21,dec_spl+3
 4348 19b2 8091 0000 		lds r24,dec_szl
 4349 19b6 9091 0000 		lds r25,dec_szl+1
 4350 19ba A091 0000 		lds r26,dec_szl+2
 4351 19be B091 0000 		lds r27,dec_szl+3
 4352 19c2 820F      		add r24,r18
 4353 19c4 931F      		adc r25,r19
 4354 19c6 A41F      		adc r26,r20
 4355 19c8 B51F      		adc r27,r21
 4356 19ca 8093 0000 		sts dec_sl,r24
 4357 19ce 9093 0000 		sts dec_sl+1,r25
 4358 19d2 A093 0000 		sts dec_sl+2,r26
 4359 19d6 B093 0000 		sts dec_sl+3,r27
 492:adpcm.c       **** 
 493:adpcm.c       **** /* invqxl: compute quantized difference signal for adaptive predic */
 494:adpcm.c       ****     dec_dlt = ((int64_t)dec_detl*qq4_code4_table[ilr >> 2]) >> 15;
 4360               		.loc 1 494 0
 4361 19da 8091 0000 		lds r24,dec_detl
 4362 19de 9091 0000 		lds r25,dec_detl+1
 4363 19e2 A091 0000 		lds r26,dec_detl+2
 4364 19e6 B091 0000 		lds r27,dec_detl+3
 4365 19ea 8BA3      		std Y+35,r24
 4366 19ec 9CA3      		std Y+36,r25
 4367 19ee ADA3      		std Y+37,r26
 4368 19f0 BEA3      		std Y+38,r27
 4369 19f2 BB0F      		lsl r27
 4370 19f4 880B      		sbc r24,r24
 4371 19f6 982F      		mov r25,r24
 4372 19f8 DC01      		movw r26,r24
 4373 19fa 8FA3      		std Y+39,r24
 4374 19fc 88A7      		std Y+40,r24
 4375 19fe 89A7      		std Y+41,r24
 4376 1a00 8AA7      		std Y+42,r24
 4377 1a02 8091 0000 		lds r24,ilr
 4378 1a06 9091 0000 		lds r25,ilr+1
 4379 1a0a A091 0000 		lds r26,ilr+2
 4380 1a0e B091 0000 		lds r27,ilr+3
 4381 1a12 B595      		asr r27
 4382 1a14 A795      		ror r26
 4383 1a16 9795      		ror r25
 4384 1a18 8795      		ror r24
 4385 1a1a B595      		asr r27
 4386 1a1c A795      		ror r26
 4387 1a1e 9795      		ror r25
 4388 1a20 8795      		ror r24
 4389 1a22 880F      		lsl r24
 4390 1a24 991F      		rol r25
 4391 1a26 880F      		lsl r24
 4392 1a28 991F      		rol r25
 4393 1a2a 8050      		subi r24,lo8(-(qq4_code4_table))
 4394 1a2c 9040      		sbci r25,hi8(-(qq4_code4_table))
 4395 1a2e FC01      		movw r30,r24
 4396 1a30 8081      		ld r24,Z
 4397 1a32 9181      		ldd r25,Z+1
 4398 1a34 A281      		ldd r26,Z+2
 4399 1a36 B381      		ldd r27,Z+3
 4400 1a38 1C01      		movw r2,r24
 4401 1a3a 2D01      		movw r4,r26
 4402 1a3c BB0F      		lsl r27
 4403 1a3e 880B      		sbc r24,r24
 4404 1a40 982F      		mov r25,r24
 4405 1a42 DC01      		movw r26,r24
 4406 1a44 682E      		mov r6,r24
 4407 1a46 782E      		mov r7,r24
 4408 1a48 882E      		mov r8,r24
 4409 1a4a 982E      		mov r9,r24
 4410 1a4c A22C      		mov r10,r2
 4411 1a4e B32C      		mov r11,r3
 4412 1a50 C42C      		mov r12,r4
 4413 1a52 D52C      		mov r13,r5
 4414 1a54 E62C      		mov r14,r6
 4415 1a56 F72C      		mov r15,r7
 4416 1a58 082D      		mov r16,r8
 4417 1a5a 192D      		mov r17,r9
 4418 1a5c 2BA1      		ldd r18,Y+35
 4419 1a5e 3CA1      		ldd r19,Y+36
 4420 1a60 4DA1      		ldd r20,Y+37
 4421 1a62 5EA1      		ldd r21,Y+38
 4422 1a64 6FA1      		ldd r22,Y+39
 4423 1a66 78A5      		ldd r23,Y+40
 4424 1a68 89A5      		ldd r24,Y+41
 4425 1a6a 9AA5      		ldd r25,Y+42
 4426 1a6c 0E94 0000 		call __muldi3
 4427 1a70 222E      		mov r2,r18
 4428 1a72 332E      		mov r3,r19
 4429 1a74 442E      		mov r4,r20
 4430 1a76 552E      		mov r5,r21
 4431 1a78 662E      		mov r6,r22
 4432 1a7a 772E      		mov r7,r23
 4433 1a7c 882E      		mov r8,r24
 4434 1a7e 992E      		mov r9,r25
 4435 1a80 A22C      		mov r10,r2
 4436 1a82 B32C      		mov r11,r3
 4437 1a84 C42C      		mov r12,r4
 4438 1a86 D52C      		mov r13,r5
 4439 1a88 E62C      		mov r14,r6
 4440 1a8a F72C      		mov r15,r7
 4441 1a8c 082D      		mov r16,r8
 4442 1a8e 192D      		mov r17,r9
 4443 1a90 2A2D      		mov r18,r10
 4444 1a92 3B2D      		mov r19,r11
 4445 1a94 4C2D      		mov r20,r12
 4446 1a96 5D2D      		mov r21,r13
 4447 1a98 6E2D      		mov r22,r14
 4448 1a9a 7F2D      		mov r23,r15
 4449 1a9c 802F      		mov r24,r16
 4450 1a9e 912F      		mov r25,r17
 4451 1aa0 0FE0      		ldi r16,lo8(15)
 4452 1aa2 0E94 0000 		call __ashrdi3
 4453 1aa6 A22E      		mov r10,r18
 4454 1aa8 B32E      		mov r11,r19
 4455 1aaa C42E      		mov r12,r20
 4456 1aac D52E      		mov r13,r21
 4457 1aae E62E      		mov r14,r22
 4458 1ab0 F72E      		mov r15,r23
 4459 1ab2 082F      		mov r16,r24
 4460 1ab4 192F      		mov r17,r25
 4461 1ab6 D601      		movw r26,r12
 4462 1ab8 C501      		movw r24,r10
 4463 1aba 8093 0000 		sts dec_dlt,r24
 4464 1abe 9093 0000 		sts dec_dlt+1,r25
 4465 1ac2 A093 0000 		sts dec_dlt+2,r26
 4466 1ac6 B093 0000 		sts dec_dlt+3,r27
 495:adpcm.c       **** 
 496:adpcm.c       **** /* invqxl: compute quantized difference signal for decoder output */
 497:adpcm.c       ****     dl = ((int64_t)dec_detl*qq6_code6_table[il]) >> 15;
 4467               		.loc 1 497 0
 4468 1aca 8091 0000 		lds r24,dec_detl
 4469 1ace 9091 0000 		lds r25,dec_detl+1
 4470 1ad2 A091 0000 		lds r26,dec_detl+2
 4471 1ad6 B091 0000 		lds r27,dec_detl+3
 4472 1ada 8BA7      		std Y+43,r24
 4473 1adc 9CA7      		std Y+44,r25
 4474 1ade ADA7      		std Y+45,r26
 4475 1ae0 BEA7      		std Y+46,r27
 4476 1ae2 BB0F      		lsl r27
 4477 1ae4 880B      		sbc r24,r24
 4478 1ae6 982F      		mov r25,r24
 4479 1ae8 DC01      		movw r26,r24
 4480 1aea 8FA7      		std Y+47,r24
 4481 1aec 88AB      		std Y+48,r24
 4482 1aee 89AB      		std Y+49,r24
 4483 1af0 8AAB      		std Y+50,r24
 4484 1af2 8091 0000 		lds r24,il
 4485 1af6 9091 0000 		lds r25,il+1
 4486 1afa A091 0000 		lds r26,il+2
 4487 1afe B091 0000 		lds r27,il+3
 4488 1b02 880F      		lsl r24
 4489 1b04 991F      		rol r25
 4490 1b06 880F      		lsl r24
 4491 1b08 991F      		rol r25
 4492 1b0a 8050      		subi r24,lo8(-(qq6_code6_table))
 4493 1b0c 9040      		sbci r25,hi8(-(qq6_code6_table))
 4494 1b0e FC01      		movw r30,r24
 4495 1b10 8081      		ld r24,Z
 4496 1b12 9181      		ldd r25,Z+1
 4497 1b14 A281      		ldd r26,Z+2
 4498 1b16 B381      		ldd r27,Z+3
 4499 1b18 8BAB      		std Y+51,r24
 4500 1b1a 9CAB      		std Y+52,r25
 4501 1b1c ADAB      		std Y+53,r26
 4502 1b1e BEAB      		std Y+54,r27
 4503 1b20 BB0F      		lsl r27
 4504 1b22 880B      		sbc r24,r24
 4505 1b24 982F      		mov r25,r24
 4506 1b26 DC01      		movw r26,r24
 4507 1b28 8FAB      		std Y+55,r24
 4508 1b2a 88AF      		std Y+56,r24
 4509 1b2c 89AF      		std Y+57,r24
 4510 1b2e 8AAF      		std Y+58,r24
 4511 1b30 ABA8      		ldd r10,Y+51
 4512 1b32 BCA8      		ldd r11,Y+52
 4513 1b34 CDA8      		ldd r12,Y+53
 4514 1b36 DEA8      		ldd r13,Y+54
 4515 1b38 EFA8      		ldd r14,Y+55
 4516 1b3a F8AC      		ldd r15,Y+56
 4517 1b3c 09AD      		ldd r16,Y+57
 4518 1b3e 1AAD      		ldd r17,Y+58
 4519 1b40 2BA5      		ldd r18,Y+43
 4520 1b42 3CA5      		ldd r19,Y+44
 4521 1b44 4DA5      		ldd r20,Y+45
 4522 1b46 5EA5      		ldd r21,Y+46
 4523 1b48 6FA5      		ldd r22,Y+47
 4524 1b4a 78A9      		ldd r23,Y+48
 4525 1b4c 89A9      		ldd r24,Y+49
 4526 1b4e 9AA9      		ldd r25,Y+50
 4527 1b50 0E94 0000 		call __muldi3
 4528 1b54 222E      		mov r2,r18
 4529 1b56 332E      		mov r3,r19
 4530 1b58 442E      		mov r4,r20
 4531 1b5a 552E      		mov r5,r21
 4532 1b5c 662E      		mov r6,r22
 4533 1b5e 772E      		mov r7,r23
 4534 1b60 882E      		mov r8,r24
 4535 1b62 992E      		mov r9,r25
 4536 1b64 A22C      		mov r10,r2
 4537 1b66 B32C      		mov r11,r3
 4538 1b68 C42C      		mov r12,r4
 4539 1b6a D52C      		mov r13,r5
 4540 1b6c E62C      		mov r14,r6
 4541 1b6e F72C      		mov r15,r7
 4542 1b70 082D      		mov r16,r8
 4543 1b72 192D      		mov r17,r9
 4544 1b74 2A2D      		mov r18,r10
 4545 1b76 3B2D      		mov r19,r11
 4546 1b78 4C2D      		mov r20,r12
 4547 1b7a 5D2D      		mov r21,r13
 4548 1b7c 6E2D      		mov r22,r14
 4549 1b7e 7F2D      		mov r23,r15
 4550 1b80 802F      		mov r24,r16
 4551 1b82 912F      		mov r25,r17
 4552 1b84 0FE0      		ldi r16,lo8(15)
 4553 1b86 0E94 0000 		call __ashrdi3
 4554 1b8a A22E      		mov r10,r18
 4555 1b8c B32E      		mov r11,r19
 4556 1b8e C42E      		mov r12,r20
 4557 1b90 D52E      		mov r13,r21
 4558 1b92 E62E      		mov r14,r22
 4559 1b94 F72E      		mov r15,r23
 4560 1b96 082F      		mov r16,r24
 4561 1b98 192F      		mov r17,r25
 4562 1b9a D601      		movw r26,r12
 4563 1b9c C501      		movw r24,r10
 4564 1b9e 8093 0000 		sts dl,r24
 4565 1ba2 9093 0000 		sts dl+1,r25
 4566 1ba6 A093 0000 		sts dl+2,r26
 4567 1baa B093 0000 		sts dl+3,r27
 498:adpcm.c       **** 
 499:adpcm.c       ****     rl = dl + dec_sl;
 4568               		.loc 1 499 0
 4569 1bae 2091 0000 		lds r18,dl
 4570 1bb2 3091 0000 		lds r19,dl+1
 4571 1bb6 4091 0000 		lds r20,dl+2
 4572 1bba 5091 0000 		lds r21,dl+3
 4573 1bbe 8091 0000 		lds r24,dec_sl
 4574 1bc2 9091 0000 		lds r25,dec_sl+1
 4575 1bc6 A091 0000 		lds r26,dec_sl+2
 4576 1bca B091 0000 		lds r27,dec_sl+3
 4577 1bce 820F      		add r24,r18
 4578 1bd0 931F      		adc r25,r19
 4579 1bd2 A41F      		adc r26,r20
 4580 1bd4 B51F      		adc r27,r21
 4581 1bd6 8093 0000 		sts rl,r24
 4582 1bda 9093 0000 		sts rl+1,r25
 4583 1bde A093 0000 		sts rl+2,r26
 4584 1be2 B093 0000 		sts rl+3,r27
 500:adpcm.c       **** 
 501:adpcm.c       **** /* logscl: quantizer scale factor adaptation in the lower sub-band */
 502:adpcm.c       ****     dec_nbl = logscl(ilr,dec_nbl);
 4585               		.loc 1 502 0
 4586 1be6 2091 0000 		lds r18,dec_nbl
 4587 1bea 3091 0000 		lds r19,dec_nbl+1
 4588 1bee 4091 0000 		lds r20,dec_nbl+2
 4589 1bf2 5091 0000 		lds r21,dec_nbl+3
 4590 1bf6 8091 0000 		lds r24,ilr
 4591 1bfa 9091 0000 		lds r25,ilr+1
 4592 1bfe A091 0000 		lds r26,ilr+2
 4593 1c02 B091 0000 		lds r27,ilr+3
 4594 1c06 BC01      		movw r22,r24
 4595 1c08 CD01      		movw r24,r26
 4596 1c0a 0E94 0000 		call logscl
 4597 1c0e DC01      		movw r26,r24
 4598 1c10 CB01      		movw r24,r22
 4599 1c12 8093 0000 		sts dec_nbl,r24
 4600 1c16 9093 0000 		sts dec_nbl+1,r25
 4601 1c1a A093 0000 		sts dec_nbl+2,r26
 4602 1c1e B093 0000 		sts dec_nbl+3,r27
 503:adpcm.c       **** 
 504:adpcm.c       **** /* scalel: computes quantizer scale factor in the lower sub band */
 505:adpcm.c       ****     dec_detl = scalel(dec_nbl,8);
 4603               		.loc 1 505 0
 4604 1c22 8091 0000 		lds r24,dec_nbl
 4605 1c26 9091 0000 		lds r25,dec_nbl+1
 4606 1c2a A091 0000 		lds r26,dec_nbl+2
 4607 1c2e B091 0000 		lds r27,dec_nbl+3
 4608 1c32 28E0      		ldi r18,lo8(8)
 4609 1c34 30E0      		ldi r19,0
 4610 1c36 40E0      		ldi r20,0
 4611 1c38 50E0      		ldi r21,0
 4612 1c3a BC01      		movw r22,r24
 4613 1c3c CD01      		movw r24,r26
 4614 1c3e 0E94 0000 		call scalel
 4615 1c42 DC01      		movw r26,r24
 4616 1c44 CB01      		movw r24,r22
 4617 1c46 8093 0000 		sts dec_detl,r24
 4618 1c4a 9093 0000 		sts dec_detl+1,r25
 4619 1c4e A093 0000 		sts dec_detl+2,r26
 4620 1c52 B093 0000 		sts dec_detl+3,r27
 506:adpcm.c       **** 
 507:adpcm.c       **** /* parrec - add pole predictor output to quantized diff. signal */
 508:adpcm.c       **** /* for partially reconstructed signal */
 509:adpcm.c       ****     dec_plt = dec_dlt + dec_szl;
 4621               		.loc 1 509 0
 4622 1c56 2091 0000 		lds r18,dec_dlt
 4623 1c5a 3091 0000 		lds r19,dec_dlt+1
 4624 1c5e 4091 0000 		lds r20,dec_dlt+2
 4625 1c62 5091 0000 		lds r21,dec_dlt+3
 4626 1c66 8091 0000 		lds r24,dec_szl
 4627 1c6a 9091 0000 		lds r25,dec_szl+1
 4628 1c6e A091 0000 		lds r26,dec_szl+2
 4629 1c72 B091 0000 		lds r27,dec_szl+3
 4630 1c76 820F      		add r24,r18
 4631 1c78 931F      		adc r25,r19
 4632 1c7a A41F      		adc r26,r20
 4633 1c7c B51F      		adc r27,r21
 4634 1c7e 8093 0000 		sts dec_plt,r24
 4635 1c82 9093 0000 		sts dec_plt+1,r25
 4636 1c86 A093 0000 		sts dec_plt+2,r26
 4637 1c8a B093 0000 		sts dec_plt+3,r27
 510:adpcm.c       **** 
 511:adpcm.c       **** /* upzero: update zero section predictor coefficients */
 512:adpcm.c       ****     upzero(dec_dlt,dec_del_dltx,dec_del_bpl);
 4638               		.loc 1 512 0
 4639 1c8e 8091 0000 		lds r24,dec_dlt
 4640 1c92 9091 0000 		lds r25,dec_dlt+1
 4641 1c96 A091 0000 		lds r26,dec_dlt+2
 4642 1c9a B091 0000 		lds r27,dec_dlt+3
 4643 1c9e 20E0      		ldi r18,lo8(dec_del_bpl)
 4644 1ca0 30E0      		ldi r19,hi8(dec_del_bpl)
 4645 1ca2 40E0      		ldi r20,lo8(dec_del_dltx)
 4646 1ca4 50E0      		ldi r21,hi8(dec_del_dltx)
 4647 1ca6 BC01      		movw r22,r24
 4648 1ca8 CD01      		movw r24,r26
 4649 1caa 0E94 0000 		call upzero
 513:adpcm.c       **** 
 514:adpcm.c       **** /* uppol2: update second predictor coefficient apl2 and delay it as al2 */
 515:adpcm.c       ****     dec_al2 = uppol2(dec_al1,dec_al2,dec_plt,dec_plt1,dec_plt2);
 4650               		.loc 1 515 0
 4651 1cae 8091 0000 		lds r24,dec_plt2
 4652 1cb2 9091 0000 		lds r25,dec_plt2+1
 4653 1cb6 A091 0000 		lds r26,dec_plt2+2
 4654 1cba B091 0000 		lds r27,dec_plt2+3
 4655 1cbe A090 0000 		lds r10,dec_plt1
 4656 1cc2 B090 0000 		lds r11,dec_plt1+1
 4657 1cc6 C090 0000 		lds r12,dec_plt1+2
 4658 1cca D090 0000 		lds r13,dec_plt1+3
 4659 1cce E090 0000 		lds r14,dec_plt
 4660 1cd2 F090 0000 		lds r15,dec_plt+1
 4661 1cd6 0091 0000 		lds r16,dec_plt+2
 4662 1cda 1091 0000 		lds r17,dec_plt+3
 4663 1cde 2091 0000 		lds r18,dec_al2
 4664 1ce2 3091 0000 		lds r19,dec_al2+1
 4665 1ce6 4091 0000 		lds r20,dec_al2+2
 4666 1cea 5091 0000 		lds r21,dec_al2+3
 4667 1cee 6090 0000 		lds r6,dec_al1
 4668 1cf2 7090 0000 		lds r7,dec_al1+1
 4669 1cf6 8090 0000 		lds r8,dec_al1+2
 4670 1cfa 9090 0000 		lds r9,dec_al1+3
 4671 1cfe 6B2F      		mov r22,r27
 4672 1d00 6F93      		push r22
 4673 1d02 6A2F      		mov r22,r26
 4674 1d04 6F93      		push r22
 4675 1d06 692F      		mov r22,r25
 4676 1d08 6F93      		push r22
 4677 1d0a 8F93      		push r24
 4678 1d0c C401      		movw r24,r8
 4679 1d0e B301      		movw r22,r6
 4680 1d10 0E94 0000 		call uppol2
 4681 1d14 0F90      		pop __tmp_reg__
 4682 1d16 0F90      		pop __tmp_reg__
 4683 1d18 0F90      		pop __tmp_reg__
 4684 1d1a 0F90      		pop __tmp_reg__
 4685 1d1c DC01      		movw r26,r24
 4686 1d1e CB01      		movw r24,r22
 4687 1d20 8093 0000 		sts dec_al2,r24
 4688 1d24 9093 0000 		sts dec_al2+1,r25
 4689 1d28 A093 0000 		sts dec_al2+2,r26
 4690 1d2c B093 0000 		sts dec_al2+3,r27
 516:adpcm.c       **** 
 517:adpcm.c       **** /* uppol1: update first predictor coef. (pole setion) */
 518:adpcm.c       ****     dec_al1 = uppol1(dec_al1,dec_al2,dec_plt,dec_plt1);
 4691               		.loc 1 518 0
 4692 1d30 A090 0000 		lds r10,dec_plt1
 4693 1d34 B090 0000 		lds r11,dec_plt1+1
 4694 1d38 C090 0000 		lds r12,dec_plt1+2
 4695 1d3c D090 0000 		lds r13,dec_plt1+3
 4696 1d40 E090 0000 		lds r14,dec_plt
 4697 1d44 F090 0000 		lds r15,dec_plt+1
 4698 1d48 0091 0000 		lds r16,dec_plt+2
 4699 1d4c 1091 0000 		lds r17,dec_plt+3
 4700 1d50 2091 0000 		lds r18,dec_al2
 4701 1d54 3091 0000 		lds r19,dec_al2+1
 4702 1d58 4091 0000 		lds r20,dec_al2+2
 4703 1d5c 5091 0000 		lds r21,dec_al2+3
 4704 1d60 8091 0000 		lds r24,dec_al1
 4705 1d64 9091 0000 		lds r25,dec_al1+1
 4706 1d68 A091 0000 		lds r26,dec_al1+2
 4707 1d6c B091 0000 		lds r27,dec_al1+3
 4708 1d70 BC01      		movw r22,r24
 4709 1d72 CD01      		movw r24,r26
 4710 1d74 0E94 0000 		call uppol1
 4711 1d78 DC01      		movw r26,r24
 4712 1d7a CB01      		movw r24,r22
 4713 1d7c 8093 0000 		sts dec_al1,r24
 4714 1d80 9093 0000 		sts dec_al1+1,r25
 4715 1d84 A093 0000 		sts dec_al1+2,r26
 4716 1d88 B093 0000 		sts dec_al1+3,r27
 519:adpcm.c       **** 
 520:adpcm.c       **** /* recons : compute recontructed signal for adaptive predictor */
 521:adpcm.c       ****     dec_rlt = dec_sl + dec_dlt;
 4717               		.loc 1 521 0
 4718 1d8c 2091 0000 		lds r18,dec_sl
 4719 1d90 3091 0000 		lds r19,dec_sl+1
 4720 1d94 4091 0000 		lds r20,dec_sl+2
 4721 1d98 5091 0000 		lds r21,dec_sl+3
 4722 1d9c 8091 0000 		lds r24,dec_dlt
 4723 1da0 9091 0000 		lds r25,dec_dlt+1
 4724 1da4 A091 0000 		lds r26,dec_dlt+2
 4725 1da8 B091 0000 		lds r27,dec_dlt+3
 4726 1dac 820F      		add r24,r18
 4727 1dae 931F      		adc r25,r19
 4728 1db0 A41F      		adc r26,r20
 4729 1db2 B51F      		adc r27,r21
 4730 1db4 8093 0000 		sts dec_rlt,r24
 4731 1db8 9093 0000 		sts dec_rlt+1,r25
 4732 1dbc A093 0000 		sts dec_rlt+2,r26
 4733 1dc0 B093 0000 		sts dec_rlt+3,r27
 522:adpcm.c       **** 
 523:adpcm.c       **** /* done with lower sub band decoder, implement delays for next time */
 524:adpcm.c       ****     dec_rlt2 = dec_rlt1;
 4734               		.loc 1 524 0
 4735 1dc4 8091 0000 		lds r24,dec_rlt1
 4736 1dc8 9091 0000 		lds r25,dec_rlt1+1
 4737 1dcc A091 0000 		lds r26,dec_rlt1+2
 4738 1dd0 B091 0000 		lds r27,dec_rlt1+3
 4739 1dd4 8093 0000 		sts dec_rlt2,r24
 4740 1dd8 9093 0000 		sts dec_rlt2+1,r25
 4741 1ddc A093 0000 		sts dec_rlt2+2,r26
 4742 1de0 B093 0000 		sts dec_rlt2+3,r27
 525:adpcm.c       ****     dec_rlt1 = dec_rlt;
 4743               		.loc 1 525 0
 4744 1de4 8091 0000 		lds r24,dec_rlt
 4745 1de8 9091 0000 		lds r25,dec_rlt+1
 4746 1dec A091 0000 		lds r26,dec_rlt+2
 4747 1df0 B091 0000 		lds r27,dec_rlt+3
 4748 1df4 8093 0000 		sts dec_rlt1,r24
 4749 1df8 9093 0000 		sts dec_rlt1+1,r25
 4750 1dfc A093 0000 		sts dec_rlt1+2,r26
 4751 1e00 B093 0000 		sts dec_rlt1+3,r27
 526:adpcm.c       ****     dec_plt2 = dec_plt1;
 4752               		.loc 1 526 0
 4753 1e04 8091 0000 		lds r24,dec_plt1
 4754 1e08 9091 0000 		lds r25,dec_plt1+1
 4755 1e0c A091 0000 		lds r26,dec_plt1+2
 4756 1e10 B091 0000 		lds r27,dec_plt1+3
 4757 1e14 8093 0000 		sts dec_plt2,r24
 4758 1e18 9093 0000 		sts dec_plt2+1,r25
 4759 1e1c A093 0000 		sts dec_plt2+2,r26
 4760 1e20 B093 0000 		sts dec_plt2+3,r27
 527:adpcm.c       ****     dec_plt1 = dec_plt;
 4761               		.loc 1 527 0
 4762 1e24 8091 0000 		lds r24,dec_plt
 4763 1e28 9091 0000 		lds r25,dec_plt+1
 4764 1e2c A091 0000 		lds r26,dec_plt+2
 4765 1e30 B091 0000 		lds r27,dec_plt+3
 4766 1e34 8093 0000 		sts dec_plt1,r24
 4767 1e38 9093 0000 		sts dec_plt1+1,r25
 4768 1e3c A093 0000 		sts dec_plt1+2,r26
 4769 1e40 B093 0000 		sts dec_plt1+3,r27
 528:adpcm.c       **** 
 529:adpcm.c       **** /* HIGH SUB-BAND DECODER */
 530:adpcm.c       **** 
 531:adpcm.c       **** /* filtez: compute predictor output for zero section */
 532:adpcm.c       ****     dec_szh = filtez(dec_del_bph,dec_del_dhx);
 4770               		.loc 1 532 0
 4771 1e44 60E0      		ldi r22,lo8(dec_del_dhx)
 4772 1e46 70E0      		ldi r23,hi8(dec_del_dhx)
 4773 1e48 80E0      		ldi r24,lo8(dec_del_bph)
 4774 1e4a 90E0      		ldi r25,hi8(dec_del_bph)
 4775 1e4c 0E94 0000 		call filtez
 4776 1e50 DC01      		movw r26,r24
 4777 1e52 CB01      		movw r24,r22
 4778 1e54 8093 0000 		sts dec_szh,r24
 4779 1e58 9093 0000 		sts dec_szh+1,r25
 4780 1e5c A093 0000 		sts dec_szh+2,r26
 4781 1e60 B093 0000 		sts dec_szh+3,r27
 533:adpcm.c       **** 
 534:adpcm.c       **** /* filtep: compute predictor output signal for pole section */
 535:adpcm.c       ****     dec_sph = filtep(dec_rh1,dec_ah1,dec_rh2,dec_ah2);
 4782               		.loc 1 535 0
 4783 1e64 A090 0000 		lds r10,dec_ah2
 4784 1e68 B090 0000 		lds r11,dec_ah2+1
 4785 1e6c C090 0000 		lds r12,dec_ah2+2
 4786 1e70 D090 0000 		lds r13,dec_ah2+3
 4787 1e74 E090 0000 		lds r14,dec_rh2
 4788 1e78 F090 0000 		lds r15,dec_rh2+1
 4789 1e7c 0091 0000 		lds r16,dec_rh2+2
 4790 1e80 1091 0000 		lds r17,dec_rh2+3
 4791 1e84 2091 0000 		lds r18,dec_ah1
 4792 1e88 3091 0000 		lds r19,dec_ah1+1
 4793 1e8c 4091 0000 		lds r20,dec_ah1+2
 4794 1e90 5091 0000 		lds r21,dec_ah1+3
 4795 1e94 8091 0000 		lds r24,dec_rh1
 4796 1e98 9091 0000 		lds r25,dec_rh1+1
 4797 1e9c A091 0000 		lds r26,dec_rh1+2
 4798 1ea0 B091 0000 		lds r27,dec_rh1+3
 4799 1ea4 BC01      		movw r22,r24
 4800 1ea6 CD01      		movw r24,r26
 4801 1ea8 0E94 0000 		call filtep
 4802 1eac DC01      		movw r26,r24
 4803 1eae CB01      		movw r24,r22
 4804 1eb0 8093 0000 		sts dec_sph,r24
 4805 1eb4 9093 0000 		sts dec_sph+1,r25
 4806 1eb8 A093 0000 		sts dec_sph+2,r26
 4807 1ebc B093 0000 		sts dec_sph+3,r27
 536:adpcm.c       **** 
 537:adpcm.c       **** /* predic:compute the predictor output value in the higher sub_band decoder */
 538:adpcm.c       ****     dec_sh = dec_sph + dec_szh;
 4808               		.loc 1 538 0
 4809 1ec0 2091 0000 		lds r18,dec_sph
 4810 1ec4 3091 0000 		lds r19,dec_sph+1
 4811 1ec8 4091 0000 		lds r20,dec_sph+2
 4812 1ecc 5091 0000 		lds r21,dec_sph+3
 4813 1ed0 8091 0000 		lds r24,dec_szh
 4814 1ed4 9091 0000 		lds r25,dec_szh+1
 4815 1ed8 A091 0000 		lds r26,dec_szh+2
 4816 1edc B091 0000 		lds r27,dec_szh+3
 4817 1ee0 820F      		add r24,r18
 4818 1ee2 931F      		adc r25,r19
 4819 1ee4 A41F      		adc r26,r20
 4820 1ee6 B51F      		adc r27,r21
 4821 1ee8 8093 0000 		sts dec_sh,r24
 4822 1eec 9093 0000 		sts dec_sh+1,r25
 4823 1ef0 A093 0000 		sts dec_sh+2,r26
 4824 1ef4 B093 0000 		sts dec_sh+3,r27
 539:adpcm.c       **** 
 540:adpcm.c       **** /* invqah: in-place compute the quantized difference signal */
 541:adpcm.c       ****     dec_dh = ((int64_t)dec_deth*qq2_code2_table[ih]) >> 15L ;
 4825               		.loc 1 541 0
 4826 1ef8 8091 0000 		lds r24,dec_deth
 4827 1efc 9091 0000 		lds r25,dec_deth+1
 4828 1f00 A091 0000 		lds r26,dec_deth+2
 4829 1f04 B091 0000 		lds r27,dec_deth+3
 4830 1f08 8BAF      		std Y+59,r24
 4831 1f0a 9CAF      		std Y+60,r25
 4832 1f0c ADAF      		std Y+61,r26
 4833 1f0e BEAF      		std Y+62,r27
 4834 1f10 BB0F      		lsl r27
 4835 1f12 880B      		sbc r24,r24
 4836 1f14 982F      		mov r25,r24
 4837 1f16 DC01      		movw r26,r24
 4838 1f18 8FAF      		std Y+63,r24
 4839 1f1a 2196      		adiw r28,64-63
 4840 1f1c 8FAF      		std Y+63,r24
 4841 1f1e 2197      		sbiw r28,64-63
 4842 1f20 2296      		adiw r28,65-63
 4843 1f22 8FAF      		std Y+63,r24
 4844 1f24 2297      		sbiw r28,65-63
 4845 1f26 2396      		adiw r28,66-63
 4846 1f28 8FAF      		std Y+63,r24
 4847 1f2a 2397      		sbiw r28,66-63
 4848 1f2c 8091 0000 		lds r24,ih
 4849 1f30 9091 0000 		lds r25,ih+1
 4850 1f34 A091 0000 		lds r26,ih+2
 4851 1f38 B091 0000 		lds r27,ih+3
 4852 1f3c 880F      		lsl r24
 4853 1f3e 991F      		rol r25
 4854 1f40 880F      		lsl r24
 4855 1f42 991F      		rol r25
 4856 1f44 8050      		subi r24,lo8(-(qq2_code2_table))
 4857 1f46 9040      		sbci r25,hi8(-(qq2_code2_table))
 4858 1f48 FC01      		movw r30,r24
 4859 1f4a 8081      		ld r24,Z
 4860 1f4c 9181      		ldd r25,Z+1
 4861 1f4e A281      		ldd r26,Z+2
 4862 1f50 B381      		ldd r27,Z+3
 4863 1f52 2796      		adiw r28,67-60
 4864 1f54 8CAF      		std Y+60,r24
 4865 1f56 9DAF      		std Y+61,r25
 4866 1f58 AEAF      		std Y+62,r26
 4867 1f5a BFAF      		std Y+63,r27
 4868 1f5c 2797      		sbiw r28,67-60
 4869 1f5e BB0F      		lsl r27
 4870 1f60 880B      		sbc r24,r24
 4871 1f62 982F      		mov r25,r24
 4872 1f64 DC01      		movw r26,r24
 4873 1f66 2896      		adiw r28,71-63
 4874 1f68 8FAF      		std Y+63,r24
 4875 1f6a 2897      		sbiw r28,71-63
 4876 1f6c 2996      		adiw r28,72-63
 4877 1f6e 8FAF      		std Y+63,r24
 4878 1f70 2997      		sbiw r28,72-63
 4879 1f72 2A96      		adiw r28,73-63
 4880 1f74 8FAF      		std Y+63,r24
 4881 1f76 2A97      		sbiw r28,73-63
 4882 1f78 2B96      		adiw r28,74-63
 4883 1f7a 8FAF      		std Y+63,r24
 4884 1f7c 2B97      		sbiw r28,74-63
 4885 1f7e 2496      		adiw r28,67-63
 4886 1f80 AFAC      		ldd r10,Y+63
 4887 1f82 2497      		sbiw r28,67-63
 4888 1f84 2596      		adiw r28,68-63
 4889 1f86 BFAC      		ldd r11,Y+63
 4890 1f88 2597      		sbiw r28,68-63
 4891 1f8a 2696      		adiw r28,69-63
 4892 1f8c CFAC      		ldd r12,Y+63
 4893 1f8e 2697      		sbiw r28,69-63
 4894 1f90 2796      		adiw r28,70-63
 4895 1f92 DFAC      		ldd r13,Y+63
 4896 1f94 2797      		sbiw r28,70-63
 4897 1f96 2896      		adiw r28,71-63
 4898 1f98 EFAC      		ldd r14,Y+63
 4899 1f9a 2897      		sbiw r28,71-63
 4900 1f9c 2996      		adiw r28,72-63
 4901 1f9e FFAC      		ldd r15,Y+63
 4902 1fa0 2997      		sbiw r28,72-63
 4903 1fa2 2A96      		adiw r28,73-63
 4904 1fa4 0FAD      		ldd r16,Y+63
 4905 1fa6 2A97      		sbiw r28,73-63
 4906 1fa8 2B96      		adiw r28,74-63
 4907 1faa 1FAD      		ldd r17,Y+63
 4908 1fac 2B97      		sbiw r28,74-63
 4909 1fae 2BAD      		ldd r18,Y+59
 4910 1fb0 3CAD      		ldd r19,Y+60
 4911 1fb2 4DAD      		ldd r20,Y+61
 4912 1fb4 5EAD      		ldd r21,Y+62
 4913 1fb6 6FAD      		ldd r22,Y+63
 4914 1fb8 2196      		adiw r28,64-63
 4915 1fba 7FAD      		ldd r23,Y+63
 4916 1fbc 2197      		sbiw r28,64-63
 4917 1fbe 2296      		adiw r28,65-63
 4918 1fc0 8FAD      		ldd r24,Y+63
 4919 1fc2 2297      		sbiw r28,65-63
 4920 1fc4 2396      		adiw r28,66-63
 4921 1fc6 9FAD      		ldd r25,Y+63
 4922 1fc8 2397      		sbiw r28,66-63
 4923 1fca 0E94 0000 		call __muldi3
 4924 1fce 222E      		mov r2,r18
 4925 1fd0 332E      		mov r3,r19
 4926 1fd2 442E      		mov r4,r20
 4927 1fd4 552E      		mov r5,r21
 4928 1fd6 662E      		mov r6,r22
 4929 1fd8 772E      		mov r7,r23
 4930 1fda 882E      		mov r8,r24
 4931 1fdc 992E      		mov r9,r25
 4932 1fde A22C      		mov r10,r2
 4933 1fe0 B32C      		mov r11,r3
 4934 1fe2 C42C      		mov r12,r4
 4935 1fe4 D52C      		mov r13,r5
 4936 1fe6 E62C      		mov r14,r6
 4937 1fe8 F72C      		mov r15,r7
 4938 1fea 082D      		mov r16,r8
 4939 1fec 192D      		mov r17,r9
 4940 1fee 2A2D      		mov r18,r10
 4941 1ff0 3B2D      		mov r19,r11
 4942 1ff2 4C2D      		mov r20,r12
 4943 1ff4 5D2D      		mov r21,r13
 4944 1ff6 6E2D      		mov r22,r14
 4945 1ff8 7F2D      		mov r23,r15
 4946 1ffa 802F      		mov r24,r16
 4947 1ffc 912F      		mov r25,r17
 4948 1ffe 0FE0      		ldi r16,lo8(15)
 4949 2000 0E94 0000 		call __ashrdi3
 4950 2004 A22E      		mov r10,r18
 4951 2006 B32E      		mov r11,r19
 4952 2008 C42E      		mov r12,r20
 4953 200a D52E      		mov r13,r21
 4954 200c E62E      		mov r14,r22
 4955 200e F72E      		mov r15,r23
 4956 2010 082F      		mov r16,r24
 4957 2012 192F      		mov r17,r25
 4958 2014 D601      		movw r26,r12
 4959 2016 C501      		movw r24,r10
 4960 2018 8093 0000 		sts dec_dh,r24
 4961 201c 9093 0000 		sts dec_dh+1,r25
 4962 2020 A093 0000 		sts dec_dh+2,r26
 4963 2024 B093 0000 		sts dec_dh+3,r27
 542:adpcm.c       **** 
 543:adpcm.c       **** /* logsch: update logarithmic quantizer scale factor in hi sub band */
 544:adpcm.c       ****     dec_nbh = logsch(ih,dec_nbh);
 4964               		.loc 1 544 0
 4965 2028 2091 0000 		lds r18,dec_nbh
 4966 202c 3091 0000 		lds r19,dec_nbh+1
 4967 2030 4091 0000 		lds r20,dec_nbh+2
 4968 2034 5091 0000 		lds r21,dec_nbh+3
 4969 2038 8091 0000 		lds r24,ih
 4970 203c 9091 0000 		lds r25,ih+1
 4971 2040 A091 0000 		lds r26,ih+2
 4972 2044 B091 0000 		lds r27,ih+3
 4973 2048 BC01      		movw r22,r24
 4974 204a CD01      		movw r24,r26
 4975 204c 0E94 0000 		call logsch
 4976 2050 DC01      		movw r26,r24
 4977 2052 CB01      		movw r24,r22
 4978 2054 8093 0000 		sts dec_nbh,r24
 4979 2058 9093 0000 		sts dec_nbh+1,r25
 4980 205c A093 0000 		sts dec_nbh+2,r26
 4981 2060 B093 0000 		sts dec_nbh+3,r27
 545:adpcm.c       **** 
 546:adpcm.c       **** /* scalel: compute the quantizer scale factor in the higher sub band */
 547:adpcm.c       ****     dec_deth = scalel(dec_nbh,10);
 4982               		.loc 1 547 0
 4983 2064 8091 0000 		lds r24,dec_nbh
 4984 2068 9091 0000 		lds r25,dec_nbh+1
 4985 206c A091 0000 		lds r26,dec_nbh+2
 4986 2070 B091 0000 		lds r27,dec_nbh+3
 4987 2074 2AE0      		ldi r18,lo8(10)
 4988 2076 30E0      		ldi r19,0
 4989 2078 40E0      		ldi r20,0
 4990 207a 50E0      		ldi r21,0
 4991 207c BC01      		movw r22,r24
 4992 207e CD01      		movw r24,r26
 4993 2080 0E94 0000 		call scalel
 4994 2084 DC01      		movw r26,r24
 4995 2086 CB01      		movw r24,r22
 4996 2088 8093 0000 		sts dec_deth,r24
 4997 208c 9093 0000 		sts dec_deth+1,r25
 4998 2090 A093 0000 		sts dec_deth+2,r26
 4999 2094 B093 0000 		sts dec_deth+3,r27
 548:adpcm.c       **** 
 549:adpcm.c       **** /* parrec: compute partially recontructed signal */
 550:adpcm.c       ****     dec_ph = dec_dh + dec_szh;
 5000               		.loc 1 550 0
 5001 2098 2091 0000 		lds r18,dec_dh
 5002 209c 3091 0000 		lds r19,dec_dh+1
 5003 20a0 4091 0000 		lds r20,dec_dh+2
 5004 20a4 5091 0000 		lds r21,dec_dh+3
 5005 20a8 8091 0000 		lds r24,dec_szh
 5006 20ac 9091 0000 		lds r25,dec_szh+1
 5007 20b0 A091 0000 		lds r26,dec_szh+2
 5008 20b4 B091 0000 		lds r27,dec_szh+3
 5009 20b8 820F      		add r24,r18
 5010 20ba 931F      		adc r25,r19
 5011 20bc A41F      		adc r26,r20
 5012 20be B51F      		adc r27,r21
 5013 20c0 8093 0000 		sts dec_ph,r24
 5014 20c4 9093 0000 		sts dec_ph+1,r25
 5015 20c8 A093 0000 		sts dec_ph+2,r26
 5016 20cc B093 0000 		sts dec_ph+3,r27
 551:adpcm.c       **** 
 552:adpcm.c       **** /* upzero: update zero section predictor coefficients */
 553:adpcm.c       ****     upzero(dec_dh,dec_del_dhx,dec_del_bph);
 5017               		.loc 1 553 0
 5018 20d0 8091 0000 		lds r24,dec_dh
 5019 20d4 9091 0000 		lds r25,dec_dh+1
 5020 20d8 A091 0000 		lds r26,dec_dh+2
 5021 20dc B091 0000 		lds r27,dec_dh+3
 5022 20e0 20E0      		ldi r18,lo8(dec_del_bph)
 5023 20e2 30E0      		ldi r19,hi8(dec_del_bph)
 5024 20e4 40E0      		ldi r20,lo8(dec_del_dhx)
 5025 20e6 50E0      		ldi r21,hi8(dec_del_dhx)
 5026 20e8 BC01      		movw r22,r24
 5027 20ea CD01      		movw r24,r26
 5028 20ec 0E94 0000 		call upzero
 554:adpcm.c       **** 
 555:adpcm.c       **** /* uppol2: update second predictor coefficient aph2 and delay it as ah2 */
 556:adpcm.c       ****     dec_ah2 = uppol2(dec_ah1,dec_ah2,dec_ph,dec_ph1,dec_ph2);
 5029               		.loc 1 556 0
 5030 20f0 8091 0000 		lds r24,dec_ph2
 5031 20f4 9091 0000 		lds r25,dec_ph2+1
 5032 20f8 A091 0000 		lds r26,dec_ph2+2
 5033 20fc B091 0000 		lds r27,dec_ph2+3
 5034 2100 A090 0000 		lds r10,dec_ph1
 5035 2104 B090 0000 		lds r11,dec_ph1+1
 5036 2108 C090 0000 		lds r12,dec_ph1+2
 5037 210c D090 0000 		lds r13,dec_ph1+3
 5038 2110 E090 0000 		lds r14,dec_ph
 5039 2114 F090 0000 		lds r15,dec_ph+1
 5040 2118 0091 0000 		lds r16,dec_ph+2
 5041 211c 1091 0000 		lds r17,dec_ph+3
 5042 2120 2091 0000 		lds r18,dec_ah2
 5043 2124 3091 0000 		lds r19,dec_ah2+1
 5044 2128 4091 0000 		lds r20,dec_ah2+2
 5045 212c 5091 0000 		lds r21,dec_ah2+3
 5046 2130 6090 0000 		lds r6,dec_ah1
 5047 2134 7090 0000 		lds r7,dec_ah1+1
 5048 2138 8090 0000 		lds r8,dec_ah1+2
 5049 213c 9090 0000 		lds r9,dec_ah1+3
 5050 2140 6B2F      		mov r22,r27
 5051 2142 6F93      		push r22
 5052 2144 6A2F      		mov r22,r26
 5053 2146 6F93      		push r22
 5054 2148 692F      		mov r22,r25
 5055 214a 6F93      		push r22
 5056 214c 8F93      		push r24
 5057 214e C401      		movw r24,r8
 5058 2150 B301      		movw r22,r6
 5059 2152 0E94 0000 		call uppol2
 5060 2156 0F90      		pop __tmp_reg__
 5061 2158 0F90      		pop __tmp_reg__
 5062 215a 0F90      		pop __tmp_reg__
 5063 215c 0F90      		pop __tmp_reg__
 5064 215e DC01      		movw r26,r24
 5065 2160 CB01      		movw r24,r22
 5066 2162 8093 0000 		sts dec_ah2,r24
 5067 2166 9093 0000 		sts dec_ah2+1,r25
 5068 216a A093 0000 		sts dec_ah2+2,r26
 5069 216e B093 0000 		sts dec_ah2+3,r27
 557:adpcm.c       **** 
 558:adpcm.c       **** /* uppol1: update first predictor coef. (pole setion) */
 559:adpcm.c       ****     dec_ah1 = uppol1(dec_ah1,dec_ah2,dec_ph,dec_ph1);
 5070               		.loc 1 559 0
 5071 2172 A090 0000 		lds r10,dec_ph1
 5072 2176 B090 0000 		lds r11,dec_ph1+1
 5073 217a C090 0000 		lds r12,dec_ph1+2
 5074 217e D090 0000 		lds r13,dec_ph1+3
 5075 2182 E090 0000 		lds r14,dec_ph
 5076 2186 F090 0000 		lds r15,dec_ph+1
 5077 218a 0091 0000 		lds r16,dec_ph+2
 5078 218e 1091 0000 		lds r17,dec_ph+3
 5079 2192 2091 0000 		lds r18,dec_ah2
 5080 2196 3091 0000 		lds r19,dec_ah2+1
 5081 219a 4091 0000 		lds r20,dec_ah2+2
 5082 219e 5091 0000 		lds r21,dec_ah2+3
 5083 21a2 8091 0000 		lds r24,dec_ah1
 5084 21a6 9091 0000 		lds r25,dec_ah1+1
 5085 21aa A091 0000 		lds r26,dec_ah1+2
 5086 21ae B091 0000 		lds r27,dec_ah1+3
 5087 21b2 BC01      		movw r22,r24
 5088 21b4 CD01      		movw r24,r26
 5089 21b6 0E94 0000 		call uppol1
 5090 21ba DC01      		movw r26,r24
 5091 21bc CB01      		movw r24,r22
 5092 21be 8093 0000 		sts dec_ah1,r24
 5093 21c2 9093 0000 		sts dec_ah1+1,r25
 5094 21c6 A093 0000 		sts dec_ah1+2,r26
 5095 21ca B093 0000 		sts dec_ah1+3,r27
 560:adpcm.c       **** 
 561:adpcm.c       **** /* recons : compute recontructed signal for adaptive predictor */
 562:adpcm.c       ****     rh = dec_sh + dec_dh;
 5096               		.loc 1 562 0
 5097 21ce 2091 0000 		lds r18,dec_sh
 5098 21d2 3091 0000 		lds r19,dec_sh+1
 5099 21d6 4091 0000 		lds r20,dec_sh+2
 5100 21da 5091 0000 		lds r21,dec_sh+3
 5101 21de 8091 0000 		lds r24,dec_dh
 5102 21e2 9091 0000 		lds r25,dec_dh+1
 5103 21e6 A091 0000 		lds r26,dec_dh+2
 5104 21ea B091 0000 		lds r27,dec_dh+3
 5105 21ee 820F      		add r24,r18
 5106 21f0 931F      		adc r25,r19
 5107 21f2 A41F      		adc r26,r20
 5108 21f4 B51F      		adc r27,r21
 5109 21f6 8093 0000 		sts rh,r24
 5110 21fa 9093 0000 		sts rh+1,r25
 5111 21fe A093 0000 		sts rh+2,r26
 5112 2202 B093 0000 		sts rh+3,r27
 563:adpcm.c       **** 
 564:adpcm.c       **** /* done with high band decode, implementing delays for next time here */
 565:adpcm.c       ****     dec_rh2 = dec_rh1;
 5113               		.loc 1 565 0
 5114 2206 8091 0000 		lds r24,dec_rh1
 5115 220a 9091 0000 		lds r25,dec_rh1+1
 5116 220e A091 0000 		lds r26,dec_rh1+2
 5117 2212 B091 0000 		lds r27,dec_rh1+3
 5118 2216 8093 0000 		sts dec_rh2,r24
 5119 221a 9093 0000 		sts dec_rh2+1,r25
 5120 221e A093 0000 		sts dec_rh2+2,r26
 5121 2222 B093 0000 		sts dec_rh2+3,r27
 566:adpcm.c       ****     dec_rh1 = rh;
 5122               		.loc 1 566 0
 5123 2226 8091 0000 		lds r24,rh
 5124 222a 9091 0000 		lds r25,rh+1
 5125 222e A091 0000 		lds r26,rh+2
 5126 2232 B091 0000 		lds r27,rh+3
 5127 2236 8093 0000 		sts dec_rh1,r24
 5128 223a 9093 0000 		sts dec_rh1+1,r25
 5129 223e A093 0000 		sts dec_rh1+2,r26
 5130 2242 B093 0000 		sts dec_rh1+3,r27
 567:adpcm.c       ****     dec_ph2 = dec_ph1;
 5131               		.loc 1 567 0
 5132 2246 8091 0000 		lds r24,dec_ph1
 5133 224a 9091 0000 		lds r25,dec_ph1+1
 5134 224e A091 0000 		lds r26,dec_ph1+2
 5135 2252 B091 0000 		lds r27,dec_ph1+3
 5136 2256 8093 0000 		sts dec_ph2,r24
 5137 225a 9093 0000 		sts dec_ph2+1,r25
 5138 225e A093 0000 		sts dec_ph2+2,r26
 5139 2262 B093 0000 		sts dec_ph2+3,r27
 568:adpcm.c       ****     dec_ph1 = dec_ph;
 5140               		.loc 1 568 0
 5141 2266 8091 0000 		lds r24,dec_ph
 5142 226a 9091 0000 		lds r25,dec_ph+1
 5143 226e A091 0000 		lds r26,dec_ph+2
 5144 2272 B091 0000 		lds r27,dec_ph+3
 5145 2276 8093 0000 		sts dec_ph1,r24
 5146 227a 9093 0000 		sts dec_ph1+1,r25
 5147 227e A093 0000 		sts dec_ph1+2,r26
 5148 2282 B093 0000 		sts dec_ph1+3,r27
 569:adpcm.c       **** 
 570:adpcm.c       **** /* end of higher sub_band decoder */
 571:adpcm.c       **** 
 572:adpcm.c       **** /* end with receive quadrature mirror filters */
 573:adpcm.c       ****     xd = rl - rh;
 5149               		.loc 1 573 0
 5150 2286 2091 0000 		lds r18,rl
 5151 228a 3091 0000 		lds r19,rl+1
 5152 228e 4091 0000 		lds r20,rl+2
 5153 2292 5091 0000 		lds r21,rl+3
 5154 2296 8091 0000 		lds r24,rh
 5155 229a 9091 0000 		lds r25,rh+1
 5156 229e A091 0000 		lds r26,rh+2
 5157 22a2 B091 0000 		lds r27,rh+3
 5158 22a6 7901      		movw r14,r18
 5159 22a8 8A01      		movw r16,r20
 5160 22aa E81A      		sub r14,r24
 5161 22ac F90A      		sbc r15,r25
 5162 22ae 0A0B      		sbc r16,r26
 5163 22b0 1B0B      		sbc r17,r27
 5164 22b2 D801      		movw r26,r16
 5165 22b4 C701      		movw r24,r14
 5166 22b6 8093 0000 		sts xd,r24
 5167 22ba 9093 0000 		sts xd+1,r25
 5168 22be A093 0000 		sts xd+2,r26
 5169 22c2 B093 0000 		sts xd+3,r27
 574:adpcm.c       ****     xs = rl + rh;
 5170               		.loc 1 574 0
 5171 22c6 2091 0000 		lds r18,rl
 5172 22ca 3091 0000 		lds r19,rl+1
 5173 22ce 4091 0000 		lds r20,rl+2
 5174 22d2 5091 0000 		lds r21,rl+3
 5175 22d6 8091 0000 		lds r24,rh
 5176 22da 9091 0000 		lds r25,rh+1
 5177 22de A091 0000 		lds r26,rh+2
 5178 22e2 B091 0000 		lds r27,rh+3
 5179 22e6 820F      		add r24,r18
 5180 22e8 931F      		adc r25,r19
 5181 22ea A41F      		adc r26,r20
 5182 22ec B51F      		adc r27,r21
 5183 22ee 8093 0000 		sts xs,r24
 5184 22f2 9093 0000 		sts xs+1,r25
 5185 22f6 A093 0000 		sts xs+2,r26
 5186 22fa B093 0000 		sts xs+3,r27
 575:adpcm.c       **** 
 576:adpcm.c       **** /* receive quadrature mirror filters implemented here */
 577:adpcm.c       ****     h_ptr = h;
 5187               		.loc 1 577 0
 5188 22fe 80E0      		ldi r24,lo8(h)
 5189 2300 90E0      		ldi r25,hi8(h)
 5190 2302 9E8B      		std Y+22,r25
 5191 2304 8D8B      		std Y+21,r24
 578:adpcm.c       ****     ac_ptr = accumc;
 5192               		.loc 1 578 0
 5193 2306 80E0      		ldi r24,lo8(accumc)
 5194 2308 90E0      		ldi r25,hi8(accumc)
 5195 230a 988F      		std Y+24,r25
 5196 230c 8F8B      		std Y+23,r24
 579:adpcm.c       ****     ad_ptr = accumd;
 5197               		.loc 1 579 0
 5198 230e 80E0      		ldi r24,lo8(accumd)
 5199 2310 90E0      		ldi r25,hi8(accumd)
 5200 2312 9C8F      		std Y+28,r25
 5201 2314 8B8F      		std Y+27,r24
 580:adpcm.c       ****     xa1 = (int64_t)xd * (*h_ptr++);
 5202               		.loc 1 580 0
 5203 2316 8091 0000 		lds r24,xd
 5204 231a 9091 0000 		lds r25,xd+1
 5205 231e A091 0000 		lds r26,xd+2
 5206 2322 B091 0000 		lds r27,xd+3
 5207 2326 2F96      		adiw r28,75-60
 5208 2328 8CAF      		std Y+60,r24
 5209 232a 9DAF      		std Y+61,r25
 5210 232c AEAF      		std Y+62,r26
 5211 232e BFAF      		std Y+63,r27
 5212 2330 2F97      		sbiw r28,75-60
 5213 2332 BB0F      		lsl r27
 5214 2334 880B      		sbc r24,r24
 5215 2336 982F      		mov r25,r24
 5216 2338 DC01      		movw r26,r24
 5217 233a 6096      		adiw r28,79-63
 5218 233c 8FAF      		std Y+63,r24
 5219 233e 6097      		sbiw r28,79-63
 5220 2340 6196      		adiw r28,80-63
 5221 2342 8FAF      		std Y+63,r24
 5222 2344 6197      		sbiw r28,80-63
 5223 2346 6296      		adiw r28,81-63
 5224 2348 8FAF      		std Y+63,r24
 5225 234a 6297      		sbiw r28,81-63
 5226 234c 6396      		adiw r28,82-63
 5227 234e 8FAF      		std Y+63,r24
 5228 2350 6397      		sbiw r28,82-63
 5229 2352 8D89      		ldd r24,Y+21
 5230 2354 9E89      		ldd r25,Y+22
 5231 2356 FC01      		movw r30,r24
 5232 2358 8081      		ld r24,Z
 5233 235a 9181      		ldd r25,Z+1
 5234 235c A281      		ldd r26,Z+2
 5235 235e B381      		ldd r27,Z+3
 5236 2360 6796      		adiw r28,83-60
 5237 2362 8CAF      		std Y+60,r24
 5238 2364 9DAF      		std Y+61,r25
 5239 2366 AEAF      		std Y+62,r26
 5240 2368 BFAF      		std Y+63,r27
 5241 236a 6797      		sbiw r28,83-60
 5242 236c BB0F      		lsl r27
 5243 236e 880B      		sbc r24,r24
 5244 2370 982F      		mov r25,r24
 5245 2372 DC01      		movw r26,r24
 5246 2374 6896      		adiw r28,87-63
 5247 2376 8FAF      		std Y+63,r24
 5248 2378 6897      		sbiw r28,87-63
 5249 237a 6996      		adiw r28,88-63
 5250 237c 8FAF      		std Y+63,r24
 5251 237e 6997      		sbiw r28,88-63
 5252 2380 6A96      		adiw r28,89-63
 5253 2382 8FAF      		std Y+63,r24
 5254 2384 6A97      		sbiw r28,89-63
 5255 2386 6B96      		adiw r28,90-63
 5256 2388 8FAF      		std Y+63,r24
 5257 238a 6B97      		sbiw r28,90-63
 5258 238c 6496      		adiw r28,83-63
 5259 238e AFAC      		ldd r10,Y+63
 5260 2390 6497      		sbiw r28,83-63
 5261 2392 6596      		adiw r28,84-63
 5262 2394 BFAC      		ldd r11,Y+63
 5263 2396 6597      		sbiw r28,84-63
 5264 2398 6696      		adiw r28,85-63
 5265 239a CFAC      		ldd r12,Y+63
 5266 239c 6697      		sbiw r28,85-63
 5267 239e 6796      		adiw r28,86-63
 5268 23a0 DFAC      		ldd r13,Y+63
 5269 23a2 6797      		sbiw r28,86-63
 5270 23a4 6896      		adiw r28,87-63
 5271 23a6 EFAC      		ldd r14,Y+63
 5272 23a8 6897      		sbiw r28,87-63
 5273 23aa 6996      		adiw r28,88-63
 5274 23ac FFAC      		ldd r15,Y+63
 5275 23ae 6997      		sbiw r28,88-63
 5276 23b0 6A96      		adiw r28,89-63
 5277 23b2 0FAD      		ldd r16,Y+63
 5278 23b4 6A97      		sbiw r28,89-63
 5279 23b6 6B96      		adiw r28,90-63
 5280 23b8 1FAD      		ldd r17,Y+63
 5281 23ba 6B97      		sbiw r28,90-63
 5282 23bc 2C96      		adiw r28,75-63
 5283 23be 2FAD      		ldd r18,Y+63
 5284 23c0 2C97      		sbiw r28,75-63
 5285 23c2 2D96      		adiw r28,76-63
 5286 23c4 3FAD      		ldd r19,Y+63
 5287 23c6 2D97      		sbiw r28,76-63
 5288 23c8 2E96      		adiw r28,77-63
 5289 23ca 4FAD      		ldd r20,Y+63
 5290 23cc 2E97      		sbiw r28,77-63
 5291 23ce 2F96      		adiw r28,78-63
 5292 23d0 5FAD      		ldd r21,Y+63
 5293 23d2 2F97      		sbiw r28,78-63
 5294 23d4 6096      		adiw r28,79-63
 5295 23d6 6FAD      		ldd r22,Y+63
 5296 23d8 6097      		sbiw r28,79-63
 5297 23da 6196      		adiw r28,80-63
 5298 23dc 7FAD      		ldd r23,Y+63
 5299 23de 6197      		sbiw r28,80-63
 5300 23e0 6296      		adiw r28,81-63
 5301 23e2 8FAD      		ldd r24,Y+63
 5302 23e4 6297      		sbiw r28,81-63
 5303 23e6 6396      		adiw r28,82-63
 5304 23e8 9FAD      		ldd r25,Y+63
 5305 23ea 6397      		sbiw r28,82-63
 5306 23ec 0E94 0000 		call __muldi3
 5307 23f0 A22E      		mov r10,r18
 5308 23f2 B32E      		mov r11,r19
 5309 23f4 C42E      		mov r12,r20
 5310 23f6 D52E      		mov r13,r21
 5311 23f8 E62E      		mov r14,r22
 5312 23fa F72E      		mov r15,r23
 5313 23fc 082F      		mov r16,r24
 5314 23fe 192F      		mov r17,r25
 5315 2400 AD82      		std Y+5,r10
 5316 2402 BE82      		std Y+6,r11
 5317 2404 CF82      		std Y+7,r12
 5318 2406 D886      		std Y+8,r13
 5319 2408 E986      		std Y+9,r14
 5320 240a FA86      		std Y+10,r15
 5321 240c 0B87      		std Y+11,r16
 5322 240e 1C87      		std Y+12,r17
 5323 2410 8D89      		ldd r24,Y+21
 5324 2412 9E89      		ldd r25,Y+22
 5325 2414 0496      		adiw r24,4
 5326 2416 9E8B      		std Y+22,r25
 5327 2418 8D8B      		std Y+21,r24
 581:adpcm.c       ****     xa2 = (int64_t)xs * (*h_ptr++);
 5328               		.loc 1 581 0
 5329 241a 8091 0000 		lds r24,xs
 5330 241e 9091 0000 		lds r25,xs+1
 5331 2422 A091 0000 		lds r26,xs+2
 5332 2426 B091 0000 		lds r27,xs+3
 5333 242a 6F96      		adiw r28,91-60
 5334 242c 8CAF      		std Y+60,r24
 5335 242e 9DAF      		std Y+61,r25
 5336 2430 AEAF      		std Y+62,r26
 5337 2432 BFAF      		std Y+63,r27
 5338 2434 6F97      		sbiw r28,91-60
 5339 2436 BB0F      		lsl r27
 5340 2438 880B      		sbc r24,r24
 5341 243a 982F      		mov r25,r24
 5342 243c DC01      		movw r26,r24
 5343 243e A096      		adiw r28,95-63
 5344 2440 8FAF      		std Y+63,r24
 5345 2442 A097      		sbiw r28,95-63
 5346 2444 A196      		adiw r28,96-63
 5347 2446 8FAF      		std Y+63,r24
 5348 2448 A197      		sbiw r28,96-63
 5349 244a A296      		adiw r28,97-63
 5350 244c 8FAF      		std Y+63,r24
 5351 244e A297      		sbiw r28,97-63
 5352 2450 A396      		adiw r28,98-63
 5353 2452 8FAF      		std Y+63,r24
 5354 2454 A397      		sbiw r28,98-63
 5355 2456 8D89      		ldd r24,Y+21
 5356 2458 9E89      		ldd r25,Y+22
 5357 245a FC01      		movw r30,r24
 5358 245c 8081      		ld r24,Z
 5359 245e 9181      		ldd r25,Z+1
 5360 2460 A281      		ldd r26,Z+2
 5361 2462 B381      		ldd r27,Z+3
 5362 2464 A796      		adiw r28,99-60
 5363 2466 8CAF      		std Y+60,r24
 5364 2468 9DAF      		std Y+61,r25
 5365 246a AEAF      		std Y+62,r26
 5366 246c BFAF      		std Y+63,r27
 5367 246e A797      		sbiw r28,99-60
 5368 2470 BB0F      		lsl r27
 5369 2472 880B      		sbc r24,r24
 5370 2474 982F      		mov r25,r24
 5371 2476 DC01      		movw r26,r24
 5372 2478 A896      		adiw r28,103-63
 5373 247a 8FAF      		std Y+63,r24
 5374 247c A897      		sbiw r28,103-63
 5375 247e A996      		adiw r28,104-63
 5376 2480 8FAF      		std Y+63,r24
 5377 2482 A997      		sbiw r28,104-63
 5378 2484 AA96      		adiw r28,105-63
 5379 2486 8FAF      		std Y+63,r24
 5380 2488 AA97      		sbiw r28,105-63
 5381 248a AB96      		adiw r28,106-63
 5382 248c 8FAF      		std Y+63,r24
 5383 248e AB97      		sbiw r28,106-63
 5384 2490 A496      		adiw r28,99-63
 5385 2492 AFAC      		ldd r10,Y+63
 5386 2494 A497      		sbiw r28,99-63
 5387 2496 A596      		adiw r28,100-63
 5388 2498 BFAC      		ldd r11,Y+63
 5389 249a A597      		sbiw r28,100-63
 5390 249c A696      		adiw r28,101-63
 5391 249e CFAC      		ldd r12,Y+63
 5392 24a0 A697      		sbiw r28,101-63
 5393 24a2 A796      		adiw r28,102-63
 5394 24a4 DFAC      		ldd r13,Y+63
 5395 24a6 A797      		sbiw r28,102-63
 5396 24a8 A896      		adiw r28,103-63
 5397 24aa EFAC      		ldd r14,Y+63
 5398 24ac A897      		sbiw r28,103-63
 5399 24ae A996      		adiw r28,104-63
 5400 24b0 FFAC      		ldd r15,Y+63
 5401 24b2 A997      		sbiw r28,104-63
 5402 24b4 AA96      		adiw r28,105-63
 5403 24b6 0FAD      		ldd r16,Y+63
 5404 24b8 AA97      		sbiw r28,105-63
 5405 24ba AB96      		adiw r28,106-63
 5406 24bc 1FAD      		ldd r17,Y+63
 5407 24be AB97      		sbiw r28,106-63
 5408 24c0 6C96      		adiw r28,91-63
 5409 24c2 2FAD      		ldd r18,Y+63
 5410 24c4 6C97      		sbiw r28,91-63
 5411 24c6 6D96      		adiw r28,92-63
 5412 24c8 3FAD      		ldd r19,Y+63
 5413 24ca 6D97      		sbiw r28,92-63
 5414 24cc 6E96      		adiw r28,93-63
 5415 24ce 4FAD      		ldd r20,Y+63
 5416 24d0 6E97      		sbiw r28,93-63
 5417 24d2 6F96      		adiw r28,94-63
 5418 24d4 5FAD      		ldd r21,Y+63
 5419 24d6 6F97      		sbiw r28,94-63
 5420 24d8 A096      		adiw r28,95-63
 5421 24da 6FAD      		ldd r22,Y+63
 5422 24dc A097      		sbiw r28,95-63
 5423 24de A196      		adiw r28,96-63
 5424 24e0 7FAD      		ldd r23,Y+63
 5425 24e2 A197      		sbiw r28,96-63
 5426 24e4 A296      		adiw r28,97-63
 5427 24e6 8FAD      		ldd r24,Y+63
 5428 24e8 A297      		sbiw r28,97-63
 5429 24ea A396      		adiw r28,98-63
 5430 24ec 9FAD      		ldd r25,Y+63
 5431 24ee A397      		sbiw r28,98-63
 5432 24f0 0E94 0000 		call __muldi3
 5433 24f4 A22E      		mov r10,r18
 5434 24f6 B32E      		mov r11,r19
 5435 24f8 C42E      		mov r12,r20
 5436 24fa D52E      		mov r13,r21
 5437 24fc E62E      		mov r14,r22
 5438 24fe F72E      		mov r15,r23
 5439 2500 082F      		mov r16,r24
 5440 2502 192F      		mov r17,r25
 5441 2504 AD86      		std Y+13,r10
 5442 2506 BE86      		std Y+14,r11
 5443 2508 CF86      		std Y+15,r12
 5444 250a D88A      		std Y+16,r13
 5445 250c E98A      		std Y+17,r14
 5446 250e FA8A      		std Y+18,r15
 5447 2510 0B8B      		std Y+19,r16
 5448 2512 1C8B      		std Y+20,r17
 5449 2514 8D89      		ldd r24,Y+21
 5450 2516 9E89      		ldd r25,Y+22
 5451 2518 0496      		adiw r24,4
 5452 251a 9E8B      		std Y+22,r25
 5453 251c 8D8B      		std Y+21,r24
 582:adpcm.c       **** /* main multiply accumulate loop for samples and coefficients */
 583:adpcm.c       ****     for(i = 0 ; i < 10 ; i++) {
 5454               		.loc 1 583 0
 5455 251e 1982      		std Y+1,__zero_reg__
 5456 2520 1A82      		std Y+2,__zero_reg__
 5457 2522 1B82      		std Y+3,__zero_reg__
 5458 2524 1C82      		std Y+4,__zero_reg__
 5459 2526 00C0      		rjmp .L29
 5460               	.L30:
 584:adpcm.c       ****         xa1 += (int64_t)(*ac_ptr++) * (*h_ptr++);
 5461               		.loc 1 584 0 discriminator 2
 5462 2528 8F89      		ldd r24,Y+23
 5463 252a 988D      		ldd r25,Y+24
 5464 252c FC01      		movw r30,r24
 5465 252e 8081      		ld r24,Z
 5466 2530 9181      		ldd r25,Z+1
 5467 2532 A281      		ldd r26,Z+2
 5468 2534 B381      		ldd r27,Z+3
 5469 2536 AF96      		adiw r28,107-60
 5470 2538 8CAF      		std Y+60,r24
 5471 253a 9DAF      		std Y+61,r25
 5472 253c AEAF      		std Y+62,r26
 5473 253e BFAF      		std Y+63,r27
 5474 2540 AF97      		sbiw r28,107-60
 5475 2542 BB0F      		lsl r27
 5476 2544 880B      		sbc r24,r24
 5477 2546 982F      		mov r25,r24
 5478 2548 DC01      		movw r26,r24
 5479 254a E096      		adiw r28,111-63
 5480 254c 8FAF      		std Y+63,r24
 5481 254e E097      		sbiw r28,111-63
 5482 2550 E196      		adiw r28,112-63
 5483 2552 8FAF      		std Y+63,r24
 5484 2554 E197      		sbiw r28,112-63
 5485 2556 E296      		adiw r28,113-63
 5486 2558 8FAF      		std Y+63,r24
 5487 255a E297      		sbiw r28,113-63
 5488 255c E396      		adiw r28,114-63
 5489 255e 8FAF      		std Y+63,r24
 5490 2560 E397      		sbiw r28,114-63
 5491 2562 8D89      		ldd r24,Y+21
 5492 2564 9E89      		ldd r25,Y+22
 5493 2566 FC01      		movw r30,r24
 5494 2568 8081      		ld r24,Z
 5495 256a 9181      		ldd r25,Z+1
 5496 256c A281      		ldd r26,Z+2
 5497 256e B381      		ldd r27,Z+3
 5498 2570 E796      		adiw r28,115-60
 5499 2572 8CAF      		std Y+60,r24
 5500 2574 9DAF      		std Y+61,r25
 5501 2576 AEAF      		std Y+62,r26
 5502 2578 BFAF      		std Y+63,r27
 5503 257a E797      		sbiw r28,115-60
 5504 257c BB0F      		lsl r27
 5505 257e 880B      		sbc r24,r24
 5506 2580 982F      		mov r25,r24
 5507 2582 DC01      		movw r26,r24
 5508 2584 E896      		adiw r28,119-63
 5509 2586 8FAF      		std Y+63,r24
 5510 2588 E897      		sbiw r28,119-63
 5511 258a E996      		adiw r28,120-63
 5512 258c 8FAF      		std Y+63,r24
 5513 258e E997      		sbiw r28,120-63
 5514 2590 EA96      		adiw r28,121-63
 5515 2592 8FAF      		std Y+63,r24
 5516 2594 EA97      		sbiw r28,121-63
 5517 2596 EB96      		adiw r28,122-63
 5518 2598 8FAF      		std Y+63,r24
 5519 259a EB97      		sbiw r28,122-63
 5520 259c E496      		adiw r28,115-63
 5521 259e AFAC      		ldd r10,Y+63
 5522 25a0 E497      		sbiw r28,115-63
 5523 25a2 E596      		adiw r28,116-63
 5524 25a4 BFAC      		ldd r11,Y+63
 5525 25a6 E597      		sbiw r28,116-63
 5526 25a8 E696      		adiw r28,117-63
 5527 25aa CFAC      		ldd r12,Y+63
 5528 25ac E697      		sbiw r28,117-63
 5529 25ae E796      		adiw r28,118-63
 5530 25b0 DFAC      		ldd r13,Y+63
 5531 25b2 E797      		sbiw r28,118-63
 5532 25b4 E896      		adiw r28,119-63
 5533 25b6 EFAC      		ldd r14,Y+63
 5534 25b8 E897      		sbiw r28,119-63
 5535 25ba E996      		adiw r28,120-63
 5536 25bc FFAC      		ldd r15,Y+63
 5537 25be E997      		sbiw r28,120-63
 5538 25c0 EA96      		adiw r28,121-63
 5539 25c2 0FAD      		ldd r16,Y+63
 5540 25c4 EA97      		sbiw r28,121-63
 5541 25c6 EB96      		adiw r28,122-63
 5542 25c8 1FAD      		ldd r17,Y+63
 5543 25ca EB97      		sbiw r28,122-63
 5544 25cc AC96      		adiw r28,107-63
 5545 25ce 2FAD      		ldd r18,Y+63
 5546 25d0 AC97      		sbiw r28,107-63
 5547 25d2 AD96      		adiw r28,108-63
 5548 25d4 3FAD      		ldd r19,Y+63
 5549 25d6 AD97      		sbiw r28,108-63
 5550 25d8 AE96      		adiw r28,109-63
 5551 25da 4FAD      		ldd r20,Y+63
 5552 25dc AE97      		sbiw r28,109-63
 5553 25de AF96      		adiw r28,110-63
 5554 25e0 5FAD      		ldd r21,Y+63
 5555 25e2 AF97      		sbiw r28,110-63
 5556 25e4 E096      		adiw r28,111-63
 5557 25e6 6FAD      		ldd r22,Y+63
 5558 25e8 E097      		sbiw r28,111-63
 5559 25ea E196      		adiw r28,112-63
 5560 25ec 7FAD      		ldd r23,Y+63
 5561 25ee E197      		sbiw r28,112-63
 5562 25f0 E296      		adiw r28,113-63
 5563 25f2 8FAD      		ldd r24,Y+63
 5564 25f4 E297      		sbiw r28,113-63
 5565 25f6 E396      		adiw r28,114-63
 5566 25f8 9FAD      		ldd r25,Y+63
 5567 25fa E397      		sbiw r28,114-63
 5568 25fc 0E94 0000 		call __muldi3
 5569 2600 A22E      		mov r10,r18
 5570 2602 B32E      		mov r11,r19
 5571 2604 C42E      		mov r12,r20
 5572 2606 D52E      		mov r13,r21
 5573 2608 E62E      		mov r14,r22
 5574 260a F72E      		mov r15,r23
 5575 260c 082F      		mov r16,r24
 5576 260e 192F      		mov r17,r25
 5577 2610 2A2C      		mov r2,r10
 5578 2612 3B2C      		mov r3,r11
 5579 2614 4C2C      		mov r4,r12
 5580 2616 5D2C      		mov r5,r13
 5581 2618 6E2C      		mov r6,r14
 5582 261a 7F2C      		mov r7,r15
 5583 261c 802E      		mov r8,r16
 5584 261e 912E      		mov r9,r17
 5585 2620 2D81      		ldd r18,Y+5
 5586 2622 3E81      		ldd r19,Y+6
 5587 2624 4F81      		ldd r20,Y+7
 5588 2626 5885      		ldd r21,Y+8
 5589 2628 6985      		ldd r22,Y+9
 5590 262a 7A85      		ldd r23,Y+10
 5591 262c 8B85      		ldd r24,Y+11
 5592 262e 9C85      		ldd r25,Y+12
 5593 2630 A22C      		mov r10,r2
 5594 2632 B32C      		mov r11,r3
 5595 2634 C42C      		mov r12,r4
 5596 2636 D52C      		mov r13,r5
 5597 2638 E62C      		mov r14,r6
 5598 263a F72C      		mov r15,r7
 5599 263c 082D      		mov r16,r8
 5600 263e 192D      		mov r17,r9
 5601 2640 0E94 0000 		call __adddi3
 5602 2644 2D83      		std Y+5,r18
 5603 2646 3E83      		std Y+6,r19
 5604 2648 4F83      		std Y+7,r20
 5605 264a 5887      		std Y+8,r21
 5606 264c 6987      		std Y+9,r22
 5607 264e 7A87      		std Y+10,r23
 5608 2650 8B87      		std Y+11,r24
 5609 2652 9C87      		std Y+12,r25
 5610 2654 8F89      		ldd r24,Y+23
 5611 2656 988D      		ldd r25,Y+24
 5612 2658 0496      		adiw r24,4
 5613 265a 988F      		std Y+24,r25
 5614 265c 8F8B      		std Y+23,r24
 5615 265e 8D89      		ldd r24,Y+21
 5616 2660 9E89      		ldd r25,Y+22
 5617 2662 0496      		adiw r24,4
 5618 2664 9E8B      		std Y+22,r25
 5619 2666 8D8B      		std Y+21,r24
 585:adpcm.c       ****         xa2 += (int64_t)(*ad_ptr++) * (*h_ptr++);
 5620               		.loc 1 585 0 discriminator 2
 5621 2668 8B8D      		ldd r24,Y+27
 5622 266a 9C8D      		ldd r25,Y+28
 5623 266c FC01      		movw r30,r24
 5624 266e 8081      		ld r24,Z
 5625 2670 9181      		ldd r25,Z+1
 5626 2672 A281      		ldd r26,Z+2
 5627 2674 B381      		ldd r27,Z+3
 5628 2676 EF96      		adiw r28,123-60
 5629 2678 8CAF      		std Y+60,r24
 5630 267a 9DAF      		std Y+61,r25
 5631 267c AEAF      		std Y+62,r26
 5632 267e BFAF      		std Y+63,r27
 5633 2680 EF97      		sbiw r28,123-60
 5634 2682 BB0F      		lsl r27
 5635 2684 880B      		sbc r24,r24
 5636 2686 982F      		mov r25,r24
 5637 2688 DC01      		movw r26,r24
 5638 268a C158      		subi r28,lo8(-127)
 5639 268c DF4F      		sbci r29,hi8(-127)
 5640 268e 8883      		st Y,r24
 5641 2690 CF57      		subi r28,lo8(127)
 5642 2692 D040      		sbci r29,hi8(127)
 5643 2694 C058      		subi r28,lo8(-128)
 5644 2696 DF4F      		sbci r29,hi8(-128)
 5645 2698 8883      		st Y,r24
 5646 269a C058      		subi r28,lo8(128)
 5647 269c D040      		sbci r29,hi8(128)
 5648 269e CF57      		subi r28,lo8(-129)
 5649 26a0 DF4F      		sbci r29,hi8(-129)
 5650 26a2 8883      		st Y,r24
 5651 26a4 C158      		subi r28,lo8(129)
 5652 26a6 D040      		sbci r29,hi8(129)
 5653 26a8 CE57      		subi r28,lo8(-130)
 5654 26aa DF4F      		sbci r29,hi8(-130)
 5655 26ac 8883      		st Y,r24
 5656 26ae C258      		subi r28,lo8(130)
 5657 26b0 D040      		sbci r29,hi8(130)
 5658 26b2 8D89      		ldd r24,Y+21
 5659 26b4 9E89      		ldd r25,Y+22
 5660 26b6 FC01      		movw r30,r24
 5661 26b8 8081      		ld r24,Z
 5662 26ba 9181      		ldd r25,Z+1
 5663 26bc A281      		ldd r26,Z+2
 5664 26be B381      		ldd r27,Z+3
 5665 26c0 CD57      		subi r28,lo8(-131)
 5666 26c2 DF4F      		sbci r29,hi8(-131)
 5667 26c4 8883      		st Y,r24
 5668 26c6 9983      		std Y+1,r25
 5669 26c8 AA83      		std Y+2,r26
 5670 26ca BB83      		std Y+3,r27
 5671 26cc C358      		subi r28,lo8(131)
 5672 26ce D040      		sbci r29,hi8(131)
 5673 26d0 BB0F      		lsl r27
 5674 26d2 880B      		sbc r24,r24
 5675 26d4 982F      		mov r25,r24
 5676 26d6 DC01      		movw r26,r24
 5677 26d8 C957      		subi r28,lo8(-135)
 5678 26da DF4F      		sbci r29,hi8(-135)
 5679 26dc 8883      		st Y,r24
 5680 26de C758      		subi r28,lo8(135)
 5681 26e0 D040      		sbci r29,hi8(135)
 5682 26e2 C857      		subi r28,lo8(-136)
 5683 26e4 DF4F      		sbci r29,hi8(-136)
 5684 26e6 8883      		st Y,r24
 5685 26e8 C858      		subi r28,lo8(136)
 5686 26ea D040      		sbci r29,hi8(136)
 5687 26ec C757      		subi r28,lo8(-137)
 5688 26ee DF4F      		sbci r29,hi8(-137)
 5689 26f0 8883      		st Y,r24
 5690 26f2 C958      		subi r28,lo8(137)
 5691 26f4 D040      		sbci r29,hi8(137)
 5692 26f6 C657      		subi r28,lo8(-138)
 5693 26f8 DF4F      		sbci r29,hi8(-138)
 5694 26fa 8883      		st Y,r24
 5695 26fc CA58      		subi r28,lo8(138)
 5696 26fe D040      		sbci r29,hi8(138)
 5697 2700 CD57      		subi r28,lo8(-131)
 5698 2702 DF4F      		sbci r29,hi8(-131)
 5699 2704 A880      		ld r10,Y
 5700 2706 C358      		subi r28,lo8(131)
 5701 2708 D040      		sbci r29,hi8(131)
 5702 270a CC57      		subi r28,lo8(-132)
 5703 270c DF4F      		sbci r29,hi8(-132)
 5704 270e B880      		ld r11,Y
 5705 2710 C458      		subi r28,lo8(132)
 5706 2712 D040      		sbci r29,hi8(132)
 5707 2714 CB57      		subi r28,lo8(-133)
 5708 2716 DF4F      		sbci r29,hi8(-133)
 5709 2718 C880      		ld r12,Y
 5710 271a C558      		subi r28,lo8(133)
 5711 271c D040      		sbci r29,hi8(133)
 5712 271e CA57      		subi r28,lo8(-134)
 5713 2720 DF4F      		sbci r29,hi8(-134)
 5714 2722 D880      		ld r13,Y
 5715 2724 C658      		subi r28,lo8(134)
 5716 2726 D040      		sbci r29,hi8(134)
 5717 2728 C957      		subi r28,lo8(-135)
 5718 272a DF4F      		sbci r29,hi8(-135)
 5719 272c E880      		ld r14,Y
 5720 272e C758      		subi r28,lo8(135)
 5721 2730 D040      		sbci r29,hi8(135)
 5722 2732 C857      		subi r28,lo8(-136)
 5723 2734 DF4F      		sbci r29,hi8(-136)
 5724 2736 F880      		ld r15,Y
 5725 2738 C858      		subi r28,lo8(136)
 5726 273a D040      		sbci r29,hi8(136)
 5727 273c C757      		subi r28,lo8(-137)
 5728 273e DF4F      		sbci r29,hi8(-137)
 5729 2740 0881      		ld r16,Y
 5730 2742 C958      		subi r28,lo8(137)
 5731 2744 D040      		sbci r29,hi8(137)
 5732 2746 C657      		subi r28,lo8(-138)
 5733 2748 DF4F      		sbci r29,hi8(-138)
 5734 274a 1881      		ld r17,Y
 5735 274c CA58      		subi r28,lo8(138)
 5736 274e D040      		sbci r29,hi8(138)
 5737 2750 EC96      		adiw r28,123-63
 5738 2752 2FAD      		ldd r18,Y+63
 5739 2754 EC97      		sbiw r28,123-63
 5740 2756 ED96      		adiw r28,124-63
 5741 2758 3FAD      		ldd r19,Y+63
 5742 275a ED97      		sbiw r28,124-63
 5743 275c EE96      		adiw r28,125-63
 5744 275e 4FAD      		ldd r20,Y+63
 5745 2760 EE97      		sbiw r28,125-63
 5746 2762 EF96      		adiw r28,126-63
 5747 2764 5FAD      		ldd r21,Y+63
 5748 2766 EF97      		sbiw r28,126-63
 5749 2768 C158      		subi r28,lo8(-127)
 5750 276a DF4F      		sbci r29,hi8(-127)
 5751 276c 6881      		ld r22,Y
 5752 276e CF57      		subi r28,lo8(127)
 5753 2770 D040      		sbci r29,hi8(127)
 5754 2772 C058      		subi r28,lo8(-128)
 5755 2774 DF4F      		sbci r29,hi8(-128)
 5756 2776 7881      		ld r23,Y
 5757 2778 C058      		subi r28,lo8(128)
 5758 277a D040      		sbci r29,hi8(128)
 5759 277c CF57      		subi r28,lo8(-129)
 5760 277e DF4F      		sbci r29,hi8(-129)
 5761 2780 8881      		ld r24,Y
 5762 2782 C158      		subi r28,lo8(129)
 5763 2784 D040      		sbci r29,hi8(129)
 5764 2786 CE57      		subi r28,lo8(-130)
 5765 2788 DF4F      		sbci r29,hi8(-130)
 5766 278a 9881      		ld r25,Y
 5767 278c C258      		subi r28,lo8(130)
 5768 278e D040      		sbci r29,hi8(130)
 5769 2790 0E94 0000 		call __muldi3
 5770 2794 A22E      		mov r10,r18
 5771 2796 B32E      		mov r11,r19
 5772 2798 C42E      		mov r12,r20
 5773 279a D52E      		mov r13,r21
 5774 279c E62E      		mov r14,r22
 5775 279e F72E      		mov r15,r23
 5776 27a0 082F      		mov r16,r24
 5777 27a2 192F      		mov r17,r25
 5778 27a4 2A2C      		mov r2,r10
 5779 27a6 3B2C      		mov r3,r11
 5780 27a8 4C2C      		mov r4,r12
 5781 27aa 5D2C      		mov r5,r13
 5782 27ac 6E2C      		mov r6,r14
 5783 27ae 7F2C      		mov r7,r15
 5784 27b0 802E      		mov r8,r16
 5785 27b2 912E      		mov r9,r17
 5786 27b4 2D85      		ldd r18,Y+13
 5787 27b6 3E85      		ldd r19,Y+14
 5788 27b8 4F85      		ldd r20,Y+15
 5789 27ba 5889      		ldd r21,Y+16
 5790 27bc 6989      		ldd r22,Y+17
 5791 27be 7A89      		ldd r23,Y+18
 5792 27c0 8B89      		ldd r24,Y+19
 5793 27c2 9C89      		ldd r25,Y+20
 5794 27c4 A22C      		mov r10,r2
 5795 27c6 B32C      		mov r11,r3
 5796 27c8 C42C      		mov r12,r4
 5797 27ca D52C      		mov r13,r5
 5798 27cc E62C      		mov r14,r6
 5799 27ce F72C      		mov r15,r7
 5800 27d0 082D      		mov r16,r8
 5801 27d2 192D      		mov r17,r9
 5802 27d4 0E94 0000 		call __adddi3
 5803 27d8 2D87      		std Y+13,r18
 5804 27da 3E87      		std Y+14,r19
 5805 27dc 4F87      		std Y+15,r20
 5806 27de 588B      		std Y+16,r21
 5807 27e0 698B      		std Y+17,r22
 5808 27e2 7A8B      		std Y+18,r23
 5809 27e4 8B8B      		std Y+19,r24
 5810 27e6 9C8B      		std Y+20,r25
 5811 27e8 8B8D      		ldd r24,Y+27
 5812 27ea 9C8D      		ldd r25,Y+28
 5813 27ec 0496      		adiw r24,4
 5814 27ee 9C8F      		std Y+28,r25
 5815 27f0 8B8F      		std Y+27,r24
 5816 27f2 8D89      		ldd r24,Y+21
 5817 27f4 9E89      		ldd r25,Y+22
 5818 27f6 0496      		adiw r24,4
 5819 27f8 9E8B      		std Y+22,r25
 5820 27fa 8D8B      		std Y+21,r24
 583:adpcm.c       ****     for(i = 0 ; i < 10 ; i++) {
 5821               		.loc 1 583 0 discriminator 2
 5822 27fc 8981      		ldd r24,Y+1
 5823 27fe 9A81      		ldd r25,Y+2
 5824 2800 AB81      		ldd r26,Y+3
 5825 2802 BC81      		ldd r27,Y+4
 5826 2804 0196      		adiw r24,1
 5827 2806 A11D      		adc r26,__zero_reg__
 5828 2808 B11D      		adc r27,__zero_reg__
 5829 280a 8983      		std Y+1,r24
 5830 280c 9A83      		std Y+2,r25
 5831 280e AB83      		std Y+3,r26
 5832 2810 BC83      		std Y+4,r27
 5833               	.L29:
 583:adpcm.c       ****     for(i = 0 ; i < 10 ; i++) {
 5834               		.loc 1 583 0 is_stmt 0 discriminator 1
 5835 2812 8981      		ldd r24,Y+1
 5836 2814 9A81      		ldd r25,Y+2
 5837 2816 AB81      		ldd r26,Y+3
 5838 2818 BC81      		ldd r27,Y+4
 5839 281a 8A30      		cpi r24,10
 5840 281c 9105      		cpc r25,__zero_reg__
 5841 281e A105      		cpc r26,__zero_reg__
 5842 2820 B105      		cpc r27,__zero_reg__
 5843 2822 04F4      		brge .+2
 5844 2824 00C0      		rjmp .L30
 586:adpcm.c       ****     }
 587:adpcm.c       **** /* final mult/accumulate */
 588:adpcm.c       ****     xa1 += (int64_t)(*ac_ptr) * (*h_ptr++);
 5845               		.loc 1 588 0 is_stmt 1
 5846 2826 8F89      		ldd r24,Y+23
 5847 2828 988D      		ldd r25,Y+24
 5848 282a FC01      		movw r30,r24
 5849 282c 8081      		ld r24,Z
 5850 282e 9181      		ldd r25,Z+1
 5851 2830 A281      		ldd r26,Z+2
 5852 2832 B381      		ldd r27,Z+3
 5853 2834 C557      		subi r28,lo8(-139)
 5854 2836 DF4F      		sbci r29,hi8(-139)
 5855 2838 8883      		st Y,r24
 5856 283a 9983      		std Y+1,r25
 5857 283c AA83      		std Y+2,r26
 5858 283e BB83      		std Y+3,r27
 5859 2840 CB58      		subi r28,lo8(139)
 5860 2842 D040      		sbci r29,hi8(139)
 5861 2844 BB0F      		lsl r27
 5862 2846 880B      		sbc r24,r24
 5863 2848 982F      		mov r25,r24
 5864 284a DC01      		movw r26,r24
 5865 284c C157      		subi r28,lo8(-143)
 5866 284e DF4F      		sbci r29,hi8(-143)
 5867 2850 8883      		st Y,r24
 5868 2852 CF58      		subi r28,lo8(143)
 5869 2854 D040      		sbci r29,hi8(143)
 5870 2856 C057      		subi r28,lo8(-144)
 5871 2858 DF4F      		sbci r29,hi8(-144)
 5872 285a 8883      		st Y,r24
 5873 285c C059      		subi r28,lo8(144)
 5874 285e D040      		sbci r29,hi8(144)
 5875 2860 CF56      		subi r28,lo8(-145)
 5876 2862 DF4F      		sbci r29,hi8(-145)
 5877 2864 8883      		st Y,r24
 5878 2866 C159      		subi r28,lo8(145)
 5879 2868 D040      		sbci r29,hi8(145)
 5880 286a CE56      		subi r28,lo8(-146)
 5881 286c DF4F      		sbci r29,hi8(-146)
 5882 286e 8883      		st Y,r24
 5883 2870 C259      		subi r28,lo8(146)
 5884 2872 D040      		sbci r29,hi8(146)
 5885 2874 8D89      		ldd r24,Y+21
 5886 2876 9E89      		ldd r25,Y+22
 5887 2878 FC01      		movw r30,r24
 5888 287a 8081      		ld r24,Z
 5889 287c 9181      		ldd r25,Z+1
 5890 287e A281      		ldd r26,Z+2
 5891 2880 B381      		ldd r27,Z+3
 5892 2882 CD56      		subi r28,lo8(-147)
 5893 2884 DF4F      		sbci r29,hi8(-147)
 5894 2886 8883      		st Y,r24
 5895 2888 9983      		std Y+1,r25
 5896 288a AA83      		std Y+2,r26
 5897 288c BB83      		std Y+3,r27
 5898 288e C359      		subi r28,lo8(147)
 5899 2890 D040      		sbci r29,hi8(147)
 5900 2892 BB0F      		lsl r27
 5901 2894 880B      		sbc r24,r24
 5902 2896 982F      		mov r25,r24
 5903 2898 DC01      		movw r26,r24
 5904 289a C956      		subi r28,lo8(-151)
 5905 289c DF4F      		sbci r29,hi8(-151)
 5906 289e 8883      		st Y,r24
 5907 28a0 C759      		subi r28,lo8(151)
 5908 28a2 D040      		sbci r29,hi8(151)
 5909 28a4 C856      		subi r28,lo8(-152)
 5910 28a6 DF4F      		sbci r29,hi8(-152)
 5911 28a8 8883      		st Y,r24
 5912 28aa C859      		subi r28,lo8(152)
 5913 28ac D040      		sbci r29,hi8(152)
 5914 28ae C756      		subi r28,lo8(-153)
 5915 28b0 DF4F      		sbci r29,hi8(-153)
 5916 28b2 8883      		st Y,r24
 5917 28b4 C959      		subi r28,lo8(153)
 5918 28b6 D040      		sbci r29,hi8(153)
 5919 28b8 C656      		subi r28,lo8(-154)
 5920 28ba DF4F      		sbci r29,hi8(-154)
 5921 28bc 8883      		st Y,r24
 5922 28be CA59      		subi r28,lo8(154)
 5923 28c0 D040      		sbci r29,hi8(154)
 5924 28c2 CD56      		subi r28,lo8(-147)
 5925 28c4 DF4F      		sbci r29,hi8(-147)
 5926 28c6 A880      		ld r10,Y
 5927 28c8 C359      		subi r28,lo8(147)
 5928 28ca D040      		sbci r29,hi8(147)
 5929 28cc CC56      		subi r28,lo8(-148)
 5930 28ce DF4F      		sbci r29,hi8(-148)
 5931 28d0 B880      		ld r11,Y
 5932 28d2 C459      		subi r28,lo8(148)
 5933 28d4 D040      		sbci r29,hi8(148)
 5934 28d6 CB56      		subi r28,lo8(-149)
 5935 28d8 DF4F      		sbci r29,hi8(-149)
 5936 28da C880      		ld r12,Y
 5937 28dc C559      		subi r28,lo8(149)
 5938 28de D040      		sbci r29,hi8(149)
 5939 28e0 CA56      		subi r28,lo8(-150)
 5940 28e2 DF4F      		sbci r29,hi8(-150)
 5941 28e4 D880      		ld r13,Y
 5942 28e6 C659      		subi r28,lo8(150)
 5943 28e8 D040      		sbci r29,hi8(150)
 5944 28ea C956      		subi r28,lo8(-151)
 5945 28ec DF4F      		sbci r29,hi8(-151)
 5946 28ee E880      		ld r14,Y
 5947 28f0 C759      		subi r28,lo8(151)
 5948 28f2 D040      		sbci r29,hi8(151)
 5949 28f4 C856      		subi r28,lo8(-152)
 5950 28f6 DF4F      		sbci r29,hi8(-152)
 5951 28f8 F880      		ld r15,Y
 5952 28fa C859      		subi r28,lo8(152)
 5953 28fc D040      		sbci r29,hi8(152)
 5954 28fe C756      		subi r28,lo8(-153)
 5955 2900 DF4F      		sbci r29,hi8(-153)
 5956 2902 0881      		ld r16,Y
 5957 2904 C959      		subi r28,lo8(153)
 5958 2906 D040      		sbci r29,hi8(153)
 5959 2908 C656      		subi r28,lo8(-154)
 5960 290a DF4F      		sbci r29,hi8(-154)
 5961 290c 1881      		ld r17,Y
 5962 290e CA59      		subi r28,lo8(154)
 5963 2910 D040      		sbci r29,hi8(154)
 5964 2912 C557      		subi r28,lo8(-139)
 5965 2914 DF4F      		sbci r29,hi8(-139)
 5966 2916 2881      		ld r18,Y
 5967 2918 CB58      		subi r28,lo8(139)
 5968 291a D040      		sbci r29,hi8(139)
 5969 291c C457      		subi r28,lo8(-140)
 5970 291e DF4F      		sbci r29,hi8(-140)
 5971 2920 3881      		ld r19,Y
 5972 2922 CC58      		subi r28,lo8(140)
 5973 2924 D040      		sbci r29,hi8(140)
 5974 2926 C357      		subi r28,lo8(-141)
 5975 2928 DF4F      		sbci r29,hi8(-141)
 5976 292a 4881      		ld r20,Y
 5977 292c CD58      		subi r28,lo8(141)
 5978 292e D040      		sbci r29,hi8(141)
 5979 2930 C257      		subi r28,lo8(-142)
 5980 2932 DF4F      		sbci r29,hi8(-142)
 5981 2934 5881      		ld r21,Y
 5982 2936 CE58      		subi r28,lo8(142)
 5983 2938 D040      		sbci r29,hi8(142)
 5984 293a C157      		subi r28,lo8(-143)
 5985 293c DF4F      		sbci r29,hi8(-143)
 5986 293e 6881      		ld r22,Y
 5987 2940 CF58      		subi r28,lo8(143)
 5988 2942 D040      		sbci r29,hi8(143)
 5989 2944 C057      		subi r28,lo8(-144)
 5990 2946 DF4F      		sbci r29,hi8(-144)
 5991 2948 7881      		ld r23,Y
 5992 294a C059      		subi r28,lo8(144)
 5993 294c D040      		sbci r29,hi8(144)
 5994 294e CF56      		subi r28,lo8(-145)
 5995 2950 DF4F      		sbci r29,hi8(-145)
 5996 2952 8881      		ld r24,Y
 5997 2954 C159      		subi r28,lo8(145)
 5998 2956 D040      		sbci r29,hi8(145)
 5999 2958 CE56      		subi r28,lo8(-146)
 6000 295a DF4F      		sbci r29,hi8(-146)
 6001 295c 9881      		ld r25,Y
 6002 295e C259      		subi r28,lo8(146)
 6003 2960 D040      		sbci r29,hi8(146)
 6004 2962 0E94 0000 		call __muldi3
 6005 2966 A22E      		mov r10,r18
 6006 2968 B32E      		mov r11,r19
 6007 296a C42E      		mov r12,r20
 6008 296c D52E      		mov r13,r21
 6009 296e E62E      		mov r14,r22
 6010 2970 F72E      		mov r15,r23
 6011 2972 082F      		mov r16,r24
 6012 2974 192F      		mov r17,r25
 6013 2976 2A2C      		mov r2,r10
 6014 2978 3B2C      		mov r3,r11
 6015 297a 4C2C      		mov r4,r12
 6016 297c 5D2C      		mov r5,r13
 6017 297e 6E2C      		mov r6,r14
 6018 2980 7F2C      		mov r7,r15
 6019 2982 802E      		mov r8,r16
 6020 2984 912E      		mov r9,r17
 6021 2986 2D81      		ldd r18,Y+5
 6022 2988 3E81      		ldd r19,Y+6
 6023 298a 4F81      		ldd r20,Y+7
 6024 298c 5885      		ldd r21,Y+8
 6025 298e 6985      		ldd r22,Y+9
 6026 2990 7A85      		ldd r23,Y+10
 6027 2992 8B85      		ldd r24,Y+11
 6028 2994 9C85      		ldd r25,Y+12
 6029 2996 A22C      		mov r10,r2
 6030 2998 B32C      		mov r11,r3
 6031 299a C42C      		mov r12,r4
 6032 299c D52C      		mov r13,r5
 6033 299e E62C      		mov r14,r6
 6034 29a0 F72C      		mov r15,r7
 6035 29a2 082D      		mov r16,r8
 6036 29a4 192D      		mov r17,r9
 6037 29a6 0E94 0000 		call __adddi3
 6038 29aa 2D83      		std Y+5,r18
 6039 29ac 3E83      		std Y+6,r19
 6040 29ae 4F83      		std Y+7,r20
 6041 29b0 5887      		std Y+8,r21
 6042 29b2 6987      		std Y+9,r22
 6043 29b4 7A87      		std Y+10,r23
 6044 29b6 8B87      		std Y+11,r24
 6045 29b8 9C87      		std Y+12,r25
 6046 29ba 8D89      		ldd r24,Y+21
 6047 29bc 9E89      		ldd r25,Y+22
 6048 29be 0496      		adiw r24,4
 6049 29c0 9E8B      		std Y+22,r25
 6050 29c2 8D8B      		std Y+21,r24
 589:adpcm.c       ****     xa2 += (int64_t)(*ad_ptr) * (*h_ptr++);
 6051               		.loc 1 589 0
 6052 29c4 8B8D      		ldd r24,Y+27
 6053 29c6 9C8D      		ldd r25,Y+28
 6054 29c8 FC01      		movw r30,r24
 6055 29ca 8081      		ld r24,Z
 6056 29cc 9181      		ldd r25,Z+1
 6057 29ce A281      		ldd r26,Z+2
 6058 29d0 B381      		ldd r27,Z+3
 6059 29d2 C556      		subi r28,lo8(-155)
 6060 29d4 DF4F      		sbci r29,hi8(-155)
 6061 29d6 8883      		st Y,r24
 6062 29d8 9983      		std Y+1,r25
 6063 29da AA83      		std Y+2,r26
 6064 29dc BB83      		std Y+3,r27
 6065 29de CB59      		subi r28,lo8(155)
 6066 29e0 D040      		sbci r29,hi8(155)
 6067 29e2 BB0F      		lsl r27
 6068 29e4 880B      		sbc r24,r24
 6069 29e6 982F      		mov r25,r24
 6070 29e8 DC01      		movw r26,r24
 6071 29ea C156      		subi r28,lo8(-159)
 6072 29ec DF4F      		sbci r29,hi8(-159)
 6073 29ee 8883      		st Y,r24
 6074 29f0 CF59      		subi r28,lo8(159)
 6075 29f2 D040      		sbci r29,hi8(159)
 6076 29f4 C056      		subi r28,lo8(-160)
 6077 29f6 DF4F      		sbci r29,hi8(-160)
 6078 29f8 8883      		st Y,r24
 6079 29fa C05A      		subi r28,lo8(160)
 6080 29fc D040      		sbci r29,hi8(160)
 6081 29fe CF55      		subi r28,lo8(-161)
 6082 2a00 DF4F      		sbci r29,hi8(-161)
 6083 2a02 8883      		st Y,r24
 6084 2a04 C15A      		subi r28,lo8(161)
 6085 2a06 D040      		sbci r29,hi8(161)
 6086 2a08 CE55      		subi r28,lo8(-162)
 6087 2a0a DF4F      		sbci r29,hi8(-162)
 6088 2a0c 8883      		st Y,r24
 6089 2a0e C25A      		subi r28,lo8(162)
 6090 2a10 D040      		sbci r29,hi8(162)
 6091 2a12 8D89      		ldd r24,Y+21
 6092 2a14 9E89      		ldd r25,Y+22
 6093 2a16 FC01      		movw r30,r24
 6094 2a18 8081      		ld r24,Z
 6095 2a1a 9181      		ldd r25,Z+1
 6096 2a1c A281      		ldd r26,Z+2
 6097 2a1e B381      		ldd r27,Z+3
 6098 2a20 CD55      		subi r28,lo8(-163)
 6099 2a22 DF4F      		sbci r29,hi8(-163)
 6100 2a24 8883      		st Y,r24
 6101 2a26 9983      		std Y+1,r25
 6102 2a28 AA83      		std Y+2,r26
 6103 2a2a BB83      		std Y+3,r27
 6104 2a2c C35A      		subi r28,lo8(163)
 6105 2a2e D040      		sbci r29,hi8(163)
 6106 2a30 BB0F      		lsl r27
 6107 2a32 880B      		sbc r24,r24
 6108 2a34 982F      		mov r25,r24
 6109 2a36 DC01      		movw r26,r24
 6110 2a38 C955      		subi r28,lo8(-167)
 6111 2a3a DF4F      		sbci r29,hi8(-167)
 6112 2a3c 8883      		st Y,r24
 6113 2a3e C75A      		subi r28,lo8(167)
 6114 2a40 D040      		sbci r29,hi8(167)
 6115 2a42 C855      		subi r28,lo8(-168)
 6116 2a44 DF4F      		sbci r29,hi8(-168)
 6117 2a46 8883      		st Y,r24
 6118 2a48 C85A      		subi r28,lo8(168)
 6119 2a4a D040      		sbci r29,hi8(168)
 6120 2a4c C755      		subi r28,lo8(-169)
 6121 2a4e DF4F      		sbci r29,hi8(-169)
 6122 2a50 8883      		st Y,r24
 6123 2a52 C95A      		subi r28,lo8(169)
 6124 2a54 D040      		sbci r29,hi8(169)
 6125 2a56 C655      		subi r28,lo8(-170)
 6126 2a58 DF4F      		sbci r29,hi8(-170)
 6127 2a5a 8883      		st Y,r24
 6128 2a5c CA5A      		subi r28,lo8(170)
 6129 2a5e D040      		sbci r29,hi8(170)
 6130 2a60 CD55      		subi r28,lo8(-163)
 6131 2a62 DF4F      		sbci r29,hi8(-163)
 6132 2a64 A880      		ld r10,Y
 6133 2a66 C35A      		subi r28,lo8(163)
 6134 2a68 D040      		sbci r29,hi8(163)
 6135 2a6a CC55      		subi r28,lo8(-164)
 6136 2a6c DF4F      		sbci r29,hi8(-164)
 6137 2a6e B880      		ld r11,Y
 6138 2a70 C45A      		subi r28,lo8(164)
 6139 2a72 D040      		sbci r29,hi8(164)
 6140 2a74 CB55      		subi r28,lo8(-165)
 6141 2a76 DF4F      		sbci r29,hi8(-165)
 6142 2a78 C880      		ld r12,Y
 6143 2a7a C55A      		subi r28,lo8(165)
 6144 2a7c D040      		sbci r29,hi8(165)
 6145 2a7e CA55      		subi r28,lo8(-166)
 6146 2a80 DF4F      		sbci r29,hi8(-166)
 6147 2a82 D880      		ld r13,Y
 6148 2a84 C65A      		subi r28,lo8(166)
 6149 2a86 D040      		sbci r29,hi8(166)
 6150 2a88 C955      		subi r28,lo8(-167)
 6151 2a8a DF4F      		sbci r29,hi8(-167)
 6152 2a8c E880      		ld r14,Y
 6153 2a8e C75A      		subi r28,lo8(167)
 6154 2a90 D040      		sbci r29,hi8(167)
 6155 2a92 C855      		subi r28,lo8(-168)
 6156 2a94 DF4F      		sbci r29,hi8(-168)
 6157 2a96 F880      		ld r15,Y
 6158 2a98 C85A      		subi r28,lo8(168)
 6159 2a9a D040      		sbci r29,hi8(168)
 6160 2a9c C755      		subi r28,lo8(-169)
 6161 2a9e DF4F      		sbci r29,hi8(-169)
 6162 2aa0 0881      		ld r16,Y
 6163 2aa2 C95A      		subi r28,lo8(169)
 6164 2aa4 D040      		sbci r29,hi8(169)
 6165 2aa6 C655      		subi r28,lo8(-170)
 6166 2aa8 DF4F      		sbci r29,hi8(-170)
 6167 2aaa 1881      		ld r17,Y
 6168 2aac CA5A      		subi r28,lo8(170)
 6169 2aae D040      		sbci r29,hi8(170)
 6170 2ab0 C556      		subi r28,lo8(-155)
 6171 2ab2 DF4F      		sbci r29,hi8(-155)
 6172 2ab4 2881      		ld r18,Y
 6173 2ab6 CB59      		subi r28,lo8(155)
 6174 2ab8 D040      		sbci r29,hi8(155)
 6175 2aba C456      		subi r28,lo8(-156)
 6176 2abc DF4F      		sbci r29,hi8(-156)
 6177 2abe 3881      		ld r19,Y
 6178 2ac0 CC59      		subi r28,lo8(156)
 6179 2ac2 D040      		sbci r29,hi8(156)
 6180 2ac4 C356      		subi r28,lo8(-157)
 6181 2ac6 DF4F      		sbci r29,hi8(-157)
 6182 2ac8 4881      		ld r20,Y
 6183 2aca CD59      		subi r28,lo8(157)
 6184 2acc D040      		sbci r29,hi8(157)
 6185 2ace C256      		subi r28,lo8(-158)
 6186 2ad0 DF4F      		sbci r29,hi8(-158)
 6187 2ad2 5881      		ld r21,Y
 6188 2ad4 CE59      		subi r28,lo8(158)
 6189 2ad6 D040      		sbci r29,hi8(158)
 6190 2ad8 C156      		subi r28,lo8(-159)
 6191 2ada DF4F      		sbci r29,hi8(-159)
 6192 2adc 6881      		ld r22,Y
 6193 2ade CF59      		subi r28,lo8(159)
 6194 2ae0 D040      		sbci r29,hi8(159)
 6195 2ae2 C056      		subi r28,lo8(-160)
 6196 2ae4 DF4F      		sbci r29,hi8(-160)
 6197 2ae6 7881      		ld r23,Y
 6198 2ae8 C05A      		subi r28,lo8(160)
 6199 2aea D040      		sbci r29,hi8(160)
 6200 2aec CF55      		subi r28,lo8(-161)
 6201 2aee DF4F      		sbci r29,hi8(-161)
 6202 2af0 8881      		ld r24,Y
 6203 2af2 C15A      		subi r28,lo8(161)
 6204 2af4 D040      		sbci r29,hi8(161)
 6205 2af6 CE55      		subi r28,lo8(-162)
 6206 2af8 DF4F      		sbci r29,hi8(-162)
 6207 2afa 9881      		ld r25,Y
 6208 2afc C25A      		subi r28,lo8(162)
 6209 2afe D040      		sbci r29,hi8(162)
 6210 2b00 0E94 0000 		call __muldi3
 6211 2b04 A22E      		mov r10,r18
 6212 2b06 B32E      		mov r11,r19
 6213 2b08 C42E      		mov r12,r20
 6214 2b0a D52E      		mov r13,r21
 6215 2b0c E62E      		mov r14,r22
 6216 2b0e F72E      		mov r15,r23
 6217 2b10 082F      		mov r16,r24
 6218 2b12 192F      		mov r17,r25
 6219 2b14 2A2C      		mov r2,r10
 6220 2b16 3B2C      		mov r3,r11
 6221 2b18 4C2C      		mov r4,r12
 6222 2b1a 5D2C      		mov r5,r13
 6223 2b1c 6E2C      		mov r6,r14
 6224 2b1e 7F2C      		mov r7,r15
 6225 2b20 802E      		mov r8,r16
 6226 2b22 912E      		mov r9,r17
 6227 2b24 2D85      		ldd r18,Y+13
 6228 2b26 3E85      		ldd r19,Y+14
 6229 2b28 4F85      		ldd r20,Y+15
 6230 2b2a 5889      		ldd r21,Y+16
 6231 2b2c 6989      		ldd r22,Y+17
 6232 2b2e 7A89      		ldd r23,Y+18
 6233 2b30 8B89      		ldd r24,Y+19
 6234 2b32 9C89      		ldd r25,Y+20
 6235 2b34 A22C      		mov r10,r2
 6236 2b36 B32C      		mov r11,r3
 6237 2b38 C42C      		mov r12,r4
 6238 2b3a D52C      		mov r13,r5
 6239 2b3c E62C      		mov r14,r6
 6240 2b3e F72C      		mov r15,r7
 6241 2b40 082D      		mov r16,r8
 6242 2b42 192D      		mov r17,r9
 6243 2b44 0E94 0000 		call __adddi3
 6244 2b48 2D87      		std Y+13,r18
 6245 2b4a 3E87      		std Y+14,r19
 6246 2b4c 4F87      		std Y+15,r20
 6247 2b4e 588B      		std Y+16,r21
 6248 2b50 698B      		std Y+17,r22
 6249 2b52 7A8B      		std Y+18,r23
 6250 2b54 8B8B      		std Y+19,r24
 6251 2b56 9C8B      		std Y+20,r25
 6252 2b58 8D89      		ldd r24,Y+21
 6253 2b5a 9E89      		ldd r25,Y+22
 6254 2b5c 0496      		adiw r24,4
 6255 2b5e 9E8B      		std Y+22,r25
 6256 2b60 8D8B      		std Y+21,r24
 590:adpcm.c       **** 
 591:adpcm.c       **** /* scale by 2^14 */
 592:adpcm.c       ****     xout1 = xa1 >> 14;
 6257               		.loc 1 592 0
 6258 2b62 2D81      		ldd r18,Y+5
 6259 2b64 3E81      		ldd r19,Y+6
 6260 2b66 4F81      		ldd r20,Y+7
 6261 2b68 5885      		ldd r21,Y+8
 6262 2b6a 6985      		ldd r22,Y+9
 6263 2b6c 7A85      		ldd r23,Y+10
 6264 2b6e 8B85      		ldd r24,Y+11
 6265 2b70 9C85      		ldd r25,Y+12
 6266 2b72 0EE0      		ldi r16,lo8(14)
 6267 2b74 0E94 0000 		call __ashrdi3
 6268 2b78 A22E      		mov r10,r18
 6269 2b7a B32E      		mov r11,r19
 6270 2b7c C42E      		mov r12,r20
 6271 2b7e D52E      		mov r13,r21
 6272 2b80 E62E      		mov r14,r22
 6273 2b82 F72E      		mov r15,r23
 6274 2b84 082F      		mov r16,r24
 6275 2b86 192F      		mov r17,r25
 6276 2b88 D601      		movw r26,r12
 6277 2b8a C501      		movw r24,r10
 6278 2b8c 8093 0000 		sts xout1,r24
 6279 2b90 9093 0000 		sts xout1+1,r25
 6280 2b94 A093 0000 		sts xout1+2,r26
 6281 2b98 B093 0000 		sts xout1+3,r27
 593:adpcm.c       ****     xout2 = xa2 >> 14;
 6282               		.loc 1 593 0
 6283 2b9c 2D85      		ldd r18,Y+13
 6284 2b9e 3E85      		ldd r19,Y+14
 6285 2ba0 4F85      		ldd r20,Y+15
 6286 2ba2 5889      		ldd r21,Y+16
 6287 2ba4 6989      		ldd r22,Y+17
 6288 2ba6 7A89      		ldd r23,Y+18
 6289 2ba8 8B89      		ldd r24,Y+19
 6290 2baa 9C89      		ldd r25,Y+20
 6291 2bac 0EE0      		ldi r16,lo8(14)
 6292 2bae 0E94 0000 		call __ashrdi3
 6293 2bb2 A22E      		mov r10,r18
 6294 2bb4 B32E      		mov r11,r19
 6295 2bb6 C42E      		mov r12,r20
 6296 2bb8 D52E      		mov r13,r21
 6297 2bba E62E      		mov r14,r22
 6298 2bbc F72E      		mov r15,r23
 6299 2bbe 082F      		mov r16,r24
 6300 2bc0 192F      		mov r17,r25
 6301 2bc2 D601      		movw r26,r12
 6302 2bc4 C501      		movw r24,r10
 6303 2bc6 8093 0000 		sts xout2,r24
 6304 2bca 9093 0000 		sts xout2+1,r25
 6305 2bce A093 0000 		sts xout2+2,r26
 6306 2bd2 B093 0000 		sts xout2+3,r27
 594:adpcm.c       **** 
 595:adpcm.c       **** /* update delay lines */
 596:adpcm.c       ****     ac_ptr1 = ac_ptr - 1;
 6307               		.loc 1 596 0
 6308 2bd6 8F89      		ldd r24,Y+23
 6309 2bd8 988D      		ldd r25,Y+24
 6310 2bda 0497      		sbiw r24,4
 6311 2bdc 9A8F      		std Y+26,r25
 6312 2bde 898F      		std Y+25,r24
 597:adpcm.c       ****     ad_ptr1 = ad_ptr - 1;
 6313               		.loc 1 597 0
 6314 2be0 8B8D      		ldd r24,Y+27
 6315 2be2 9C8D      		ldd r25,Y+28
 6316 2be4 0497      		sbiw r24,4
 6317 2be6 9E8F      		std Y+30,r25
 6318 2be8 8D8F      		std Y+29,r24
 598:adpcm.c       ****     for(i = 0 ; i < 10 ; i++) {
 6319               		.loc 1 598 0
 6320 2bea 1982      		std Y+1,__zero_reg__
 6321 2bec 1A82      		std Y+2,__zero_reg__
 6322 2bee 1B82      		std Y+3,__zero_reg__
 6323 2bf0 1C82      		std Y+4,__zero_reg__
 6324 2bf2 00C0      		rjmp .L31
 6325               	.L32:
 599:adpcm.c       ****         *ac_ptr-- = *ac_ptr1--;
 6326               		.loc 1 599 0 discriminator 2
 6327 2bf4 898D      		ldd r24,Y+25
 6328 2bf6 9A8D      		ldd r25,Y+26
 6329 2bf8 FC01      		movw r30,r24
 6330 2bfa 8081      		ld r24,Z
 6331 2bfc 9181      		ldd r25,Z+1
 6332 2bfe A281      		ldd r26,Z+2
 6333 2c00 B381      		ldd r27,Z+3
 6334 2c02 2F89      		ldd r18,Y+23
 6335 2c04 388D      		ldd r19,Y+24
 6336 2c06 F901      		movw r30,r18
 6337 2c08 8083      		st Z,r24
 6338 2c0a 9183      		std Z+1,r25
 6339 2c0c A283      		std Z+2,r26
 6340 2c0e B383      		std Z+3,r27
 6341 2c10 8F89      		ldd r24,Y+23
 6342 2c12 988D      		ldd r25,Y+24
 6343 2c14 0497      		sbiw r24,4
 6344 2c16 988F      		std Y+24,r25
 6345 2c18 8F8B      		std Y+23,r24
 6346 2c1a 898D      		ldd r24,Y+25
 6347 2c1c 9A8D      		ldd r25,Y+26
 6348 2c1e 0497      		sbiw r24,4
 6349 2c20 9A8F      		std Y+26,r25
 6350 2c22 898F      		std Y+25,r24
 600:adpcm.c       ****         *ad_ptr-- = *ad_ptr1--;
 6351               		.loc 1 600 0 discriminator 2
 6352 2c24 8D8D      		ldd r24,Y+29
 6353 2c26 9E8D      		ldd r25,Y+30
 6354 2c28 FC01      		movw r30,r24
 6355 2c2a 8081      		ld r24,Z
 6356 2c2c 9181      		ldd r25,Z+1
 6357 2c2e A281      		ldd r26,Z+2
 6358 2c30 B381      		ldd r27,Z+3
 6359 2c32 2B8D      		ldd r18,Y+27
 6360 2c34 3C8D      		ldd r19,Y+28
 6361 2c36 F901      		movw r30,r18
 6362 2c38 8083      		st Z,r24
 6363 2c3a 9183      		std Z+1,r25
 6364 2c3c A283      		std Z+2,r26
 6365 2c3e B383      		std Z+3,r27
 6366 2c40 8B8D      		ldd r24,Y+27
 6367 2c42 9C8D      		ldd r25,Y+28
 6368 2c44 0497      		sbiw r24,4
 6369 2c46 9C8F      		std Y+28,r25
 6370 2c48 8B8F      		std Y+27,r24
 6371 2c4a 8D8D      		ldd r24,Y+29
 6372 2c4c 9E8D      		ldd r25,Y+30
 6373 2c4e 0497      		sbiw r24,4
 6374 2c50 9E8F      		std Y+30,r25
 6375 2c52 8D8F      		std Y+29,r24
 598:adpcm.c       ****     for(i = 0 ; i < 10 ; i++) {
 6376               		.loc 1 598 0 discriminator 2
 6377 2c54 8981      		ldd r24,Y+1
 6378 2c56 9A81      		ldd r25,Y+2
 6379 2c58 AB81      		ldd r26,Y+3
 6380 2c5a BC81      		ldd r27,Y+4
 6381 2c5c 0196      		adiw r24,1
 6382 2c5e A11D      		adc r26,__zero_reg__
 6383 2c60 B11D      		adc r27,__zero_reg__
 6384 2c62 8983      		std Y+1,r24
 6385 2c64 9A83      		std Y+2,r25
 6386 2c66 AB83      		std Y+3,r26
 6387 2c68 BC83      		std Y+4,r27
 6388               	.L31:
 598:adpcm.c       ****     for(i = 0 ; i < 10 ; i++) {
 6389               		.loc 1 598 0 is_stmt 0 discriminator 1
 6390 2c6a 8981      		ldd r24,Y+1
 6391 2c6c 9A81      		ldd r25,Y+2
 6392 2c6e AB81      		ldd r26,Y+3
 6393 2c70 BC81      		ldd r27,Y+4
 6394 2c72 8A30      		cpi r24,10
 6395 2c74 9105      		cpc r25,__zero_reg__
 6396 2c76 A105      		cpc r26,__zero_reg__
 6397 2c78 B105      		cpc r27,__zero_reg__
 6398 2c7a 04F4      		brge .+2
 6399 2c7c 00C0      		rjmp .L32
 601:adpcm.c       ****     }
 602:adpcm.c       ****     *ac_ptr = xd;
 6400               		.loc 1 602 0 is_stmt 1
 6401 2c7e 8091 0000 		lds r24,xd
 6402 2c82 9091 0000 		lds r25,xd+1
 6403 2c86 A091 0000 		lds r26,xd+2
 6404 2c8a B091 0000 		lds r27,xd+3
 6405 2c8e 2F89      		ldd r18,Y+23
 6406 2c90 388D      		ldd r19,Y+24
 6407 2c92 F901      		movw r30,r18
 6408 2c94 8083      		st Z,r24
 6409 2c96 9183      		std Z+1,r25
 6410 2c98 A283      		std Z+2,r26
 6411 2c9a B383      		std Z+3,r27
 603:adpcm.c       ****     *ad_ptr = xs;
 6412               		.loc 1 603 0
 6413 2c9c 8091 0000 		lds r24,xs
 6414 2ca0 9091 0000 		lds r25,xs+1
 6415 2ca4 A091 0000 		lds r26,xs+2
 6416 2ca8 B091 0000 		lds r27,xs+3
 6417 2cac 2B8D      		ldd r18,Y+27
 6418 2cae 3C8D      		ldd r19,Y+28
 6419 2cb0 F901      		movw r30,r18
 6420 2cb2 8083      		st Z,r24
 6421 2cb4 9183      		std Z+1,r25
 6422 2cb6 A283      		std Z+2,r26
 6423 2cb8 B383      		std Z+3,r27
 604:adpcm.c       **** 
 605:adpcm.c       ****     return;
 6424               		.loc 1 605 0
 6425 2cba 0000      		nop
 6426               	/* epilogue start */
 606:adpcm.c       **** }
 6427               		.loc 1 606 0
 6428 2cbc C655      		subi r28,86
 6429 2cbe DF4F      		sbci r29,-1
 6430 2cc0 0FB6      		in __tmp_reg__,__SREG__
 6431 2cc2 F894      		cli
 6432 2cc4 DEBF      		out __SP_H__,r29
 6433 2cc6 0FBE      		out __SREG__,__tmp_reg__
 6434 2cc8 CDBF      		out __SP_L__,r28
 6435 2cca DF91      		pop r29
 6436 2ccc CF91      		pop r28
 6437 2cce 1F91      		pop r17
 6438 2cd0 0F91      		pop r16
 6439 2cd2 FF90      		pop r15
 6440 2cd4 EF90      		pop r14
 6441 2cd6 DF90      		pop r13
 6442 2cd8 CF90      		pop r12
 6443 2cda BF90      		pop r11
 6444 2cdc AF90      		pop r10
 6445 2cde 9F90      		pop r9
 6446 2ce0 8F90      		pop r8
 6447 2ce2 7F90      		pop r7
 6448 2ce4 6F90      		pop r6
 6449 2ce6 5F90      		pop r5
 6450 2ce8 4F90      		pop r4
 6451 2cea 3F90      		pop r3
 6452 2cec 2F90      		pop r2
 6453 2cee 0895      		ret
 6454               	.LFE6:
 6456               	.global	reset
 6458               	reset:
 6459               	.LFB7:
 607:adpcm.c       **** 
 608:adpcm.c       **** /* clear all storage locations */
 609:adpcm.c       **** 
 610:adpcm.c       **** void reset()
 611:adpcm.c       **** {
 6460               		.loc 1 611 0
 6461 2cf0 CF93      		push r28
 6462               	.LCFI64:
 6463 2cf2 DF93      		push r29
 6464               	.LCFI65:
 6465 2cf4 00D0      		rcall .
 6466 2cf6 00D0      		rcall .
 6467               	.LCFI66:
 6468 2cf8 CDB7      		in r28,__SP_L__
 6469 2cfa DEB7      		in r29,__SP_H__
 6470               	.LCFI67:
 6471               	/* prologue: function */
 6472               	/* frame size = 4 */
 6473               	/* stack size = 6 */
 6474               	.L__stack_usage = 6
 612:adpcm.c       ****     int32_t i;
 613:adpcm.c       **** 
 614:adpcm.c       ****     detl = dec_detl = 32;   /* reset to min scale factor */
 6475               		.loc 1 614 0
 6476 2cfc 80E2      		ldi r24,lo8(32)
 6477 2cfe 90E0      		ldi r25,0
 6478 2d00 A0E0      		ldi r26,0
 6479 2d02 B0E0      		ldi r27,0
 6480 2d04 8093 0000 		sts dec_detl,r24
 6481 2d08 9093 0000 		sts dec_detl+1,r25
 6482 2d0c A093 0000 		sts dec_detl+2,r26
 6483 2d10 B093 0000 		sts dec_detl+3,r27
 6484 2d14 8091 0000 		lds r24,dec_detl
 6485 2d18 9091 0000 		lds r25,dec_detl+1
 6486 2d1c A091 0000 		lds r26,dec_detl+2
 6487 2d20 B091 0000 		lds r27,dec_detl+3
 6488 2d24 8093 0000 		sts detl,r24
 6489 2d28 9093 0000 		sts detl+1,r25
 6490 2d2c A093 0000 		sts detl+2,r26
 6491 2d30 B093 0000 		sts detl+3,r27
 615:adpcm.c       ****     deth = dec_deth = 8;
 6492               		.loc 1 615 0
 6493 2d34 88E0      		ldi r24,lo8(8)
 6494 2d36 90E0      		ldi r25,0
 6495 2d38 A0E0      		ldi r26,0
 6496 2d3a B0E0      		ldi r27,0
 6497 2d3c 8093 0000 		sts dec_deth,r24
 6498 2d40 9093 0000 		sts dec_deth+1,r25
 6499 2d44 A093 0000 		sts dec_deth+2,r26
 6500 2d48 B093 0000 		sts dec_deth+3,r27
 6501 2d4c 8091 0000 		lds r24,dec_deth
 6502 2d50 9091 0000 		lds r25,dec_deth+1
 6503 2d54 A091 0000 		lds r26,dec_deth+2
 6504 2d58 B091 0000 		lds r27,dec_deth+3
 6505 2d5c 8093 0000 		sts deth,r24
 6506 2d60 9093 0000 		sts deth+1,r25
 6507 2d64 A093 0000 		sts deth+2,r26
 6508 2d68 B093 0000 		sts deth+3,r27
 616:adpcm.c       ****     nbl = al1 = al2 = plt1 = plt2 = rlt1 = rlt2 = 0;
 6509               		.loc 1 616 0
 6510 2d6c 1092 0000 		sts rlt2,__zero_reg__
 6511 2d70 1092 0000 		sts rlt2+1,__zero_reg__
 6512 2d74 1092 0000 		sts rlt2+2,__zero_reg__
 6513 2d78 1092 0000 		sts rlt2+3,__zero_reg__
 6514 2d7c 8091 0000 		lds r24,rlt2
 6515 2d80 9091 0000 		lds r25,rlt2+1
 6516 2d84 A091 0000 		lds r26,rlt2+2
 6517 2d88 B091 0000 		lds r27,rlt2+3
 6518 2d8c 8093 0000 		sts rlt1,r24
 6519 2d90 9093 0000 		sts rlt1+1,r25
 6520 2d94 A093 0000 		sts rlt1+2,r26
 6521 2d98 B093 0000 		sts rlt1+3,r27
 6522 2d9c 8091 0000 		lds r24,rlt1
 6523 2da0 9091 0000 		lds r25,rlt1+1
 6524 2da4 A091 0000 		lds r26,rlt1+2
 6525 2da8 B091 0000 		lds r27,rlt1+3
 6526 2dac 8093 0000 		sts plt2,r24
 6527 2db0 9093 0000 		sts plt2+1,r25
 6528 2db4 A093 0000 		sts plt2+2,r26
 6529 2db8 B093 0000 		sts plt2+3,r27
 6530 2dbc 8091 0000 		lds r24,plt2
 6531 2dc0 9091 0000 		lds r25,plt2+1
 6532 2dc4 A091 0000 		lds r26,plt2+2
 6533 2dc8 B091 0000 		lds r27,plt2+3
 6534 2dcc 8093 0000 		sts plt1,r24
 6535 2dd0 9093 0000 		sts plt1+1,r25
 6536 2dd4 A093 0000 		sts plt1+2,r26
 6537 2dd8 B093 0000 		sts plt1+3,r27
 6538 2ddc 8091 0000 		lds r24,plt1
 6539 2de0 9091 0000 		lds r25,plt1+1
 6540 2de4 A091 0000 		lds r26,plt1+2
 6541 2de8 B091 0000 		lds r27,plt1+3
 6542 2dec 8093 0000 		sts al2,r24
 6543 2df0 9093 0000 		sts al2+1,r25
 6544 2df4 A093 0000 		sts al2+2,r26
 6545 2df8 B093 0000 		sts al2+3,r27
 6546 2dfc 8091 0000 		lds r24,al2
 6547 2e00 9091 0000 		lds r25,al2+1
 6548 2e04 A091 0000 		lds r26,al2+2
 6549 2e08 B091 0000 		lds r27,al2+3
 6550 2e0c 8093 0000 		sts al1,r24
 6551 2e10 9093 0000 		sts al1+1,r25
 6552 2e14 A093 0000 		sts al1+2,r26
 6553 2e18 B093 0000 		sts al1+3,r27
 6554 2e1c 8091 0000 		lds r24,al1
 6555 2e20 9091 0000 		lds r25,al1+1
 6556 2e24 A091 0000 		lds r26,al1+2
 6557 2e28 B091 0000 		lds r27,al1+3
 6558 2e2c 8093 0000 		sts nbl,r24
 6559 2e30 9093 0000 		sts nbl+1,r25
 6560 2e34 A093 0000 		sts nbl+2,r26
 6561 2e38 B093 0000 		sts nbl+3,r27
 617:adpcm.c       ****     nbh = ah1 = ah2 = ph1 = ph2 = rh1 = rh2 = 0;
 6562               		.loc 1 617 0
 6563 2e3c 1092 0000 		sts rh2,__zero_reg__
 6564 2e40 1092 0000 		sts rh2+1,__zero_reg__
 6565 2e44 1092 0000 		sts rh2+2,__zero_reg__
 6566 2e48 1092 0000 		sts rh2+3,__zero_reg__
 6567 2e4c 8091 0000 		lds r24,rh2
 6568 2e50 9091 0000 		lds r25,rh2+1
 6569 2e54 A091 0000 		lds r26,rh2+2
 6570 2e58 B091 0000 		lds r27,rh2+3
 6571 2e5c 8093 0000 		sts rh1,r24
 6572 2e60 9093 0000 		sts rh1+1,r25
 6573 2e64 A093 0000 		sts rh1+2,r26
 6574 2e68 B093 0000 		sts rh1+3,r27
 6575 2e6c 8091 0000 		lds r24,rh1
 6576 2e70 9091 0000 		lds r25,rh1+1
 6577 2e74 A091 0000 		lds r26,rh1+2
 6578 2e78 B091 0000 		lds r27,rh1+3
 6579 2e7c 8093 0000 		sts ph2,r24
 6580 2e80 9093 0000 		sts ph2+1,r25
 6581 2e84 A093 0000 		sts ph2+2,r26
 6582 2e88 B093 0000 		sts ph2+3,r27
 6583 2e8c 8091 0000 		lds r24,ph2
 6584 2e90 9091 0000 		lds r25,ph2+1
 6585 2e94 A091 0000 		lds r26,ph2+2
 6586 2e98 B091 0000 		lds r27,ph2+3
 6587 2e9c 8093 0000 		sts ph1,r24
 6588 2ea0 9093 0000 		sts ph1+1,r25
 6589 2ea4 A093 0000 		sts ph1+2,r26
 6590 2ea8 B093 0000 		sts ph1+3,r27
 6591 2eac 8091 0000 		lds r24,ph1
 6592 2eb0 9091 0000 		lds r25,ph1+1
 6593 2eb4 A091 0000 		lds r26,ph1+2
 6594 2eb8 B091 0000 		lds r27,ph1+3
 6595 2ebc 8093 0000 		sts ah2,r24
 6596 2ec0 9093 0000 		sts ah2+1,r25
 6597 2ec4 A093 0000 		sts ah2+2,r26
 6598 2ec8 B093 0000 		sts ah2+3,r27
 6599 2ecc 8091 0000 		lds r24,ah2
 6600 2ed0 9091 0000 		lds r25,ah2+1
 6601 2ed4 A091 0000 		lds r26,ah2+2
 6602 2ed8 B091 0000 		lds r27,ah2+3
 6603 2edc 8093 0000 		sts ah1,r24
 6604 2ee0 9093 0000 		sts ah1+1,r25
 6605 2ee4 A093 0000 		sts ah1+2,r26
 6606 2ee8 B093 0000 		sts ah1+3,r27
 6607 2eec 8091 0000 		lds r24,ah1
 6608 2ef0 9091 0000 		lds r25,ah1+1
 6609 2ef4 A091 0000 		lds r26,ah1+2
 6610 2ef8 B091 0000 		lds r27,ah1+3
 6611 2efc 8093 0000 		sts nbh,r24
 6612 2f00 9093 0000 		sts nbh+1,r25
 6613 2f04 A093 0000 		sts nbh+2,r26
 6614 2f08 B093 0000 		sts nbh+3,r27
 618:adpcm.c       ****     dec_nbl = dec_al1 = dec_al2 = dec_plt1 = dec_plt2 = dec_rlt1 = dec_rlt2 = 0;
 6615               		.loc 1 618 0
 6616 2f0c 1092 0000 		sts dec_rlt2,__zero_reg__
 6617 2f10 1092 0000 		sts dec_rlt2+1,__zero_reg__
 6618 2f14 1092 0000 		sts dec_rlt2+2,__zero_reg__
 6619 2f18 1092 0000 		sts dec_rlt2+3,__zero_reg__
 6620 2f1c 8091 0000 		lds r24,dec_rlt2
 6621 2f20 9091 0000 		lds r25,dec_rlt2+1
 6622 2f24 A091 0000 		lds r26,dec_rlt2+2
 6623 2f28 B091 0000 		lds r27,dec_rlt2+3
 6624 2f2c 8093 0000 		sts dec_rlt1,r24
 6625 2f30 9093 0000 		sts dec_rlt1+1,r25
 6626 2f34 A093 0000 		sts dec_rlt1+2,r26
 6627 2f38 B093 0000 		sts dec_rlt1+3,r27
 6628 2f3c 8091 0000 		lds r24,dec_rlt1
 6629 2f40 9091 0000 		lds r25,dec_rlt1+1
 6630 2f44 A091 0000 		lds r26,dec_rlt1+2
 6631 2f48 B091 0000 		lds r27,dec_rlt1+3
 6632 2f4c 8093 0000 		sts dec_plt2,r24
 6633 2f50 9093 0000 		sts dec_plt2+1,r25
 6634 2f54 A093 0000 		sts dec_plt2+2,r26
 6635 2f58 B093 0000 		sts dec_plt2+3,r27
 6636 2f5c 8091 0000 		lds r24,dec_plt2
 6637 2f60 9091 0000 		lds r25,dec_plt2+1
 6638 2f64 A091 0000 		lds r26,dec_plt2+2
 6639 2f68 B091 0000 		lds r27,dec_plt2+3
 6640 2f6c 8093 0000 		sts dec_plt1,r24
 6641 2f70 9093 0000 		sts dec_plt1+1,r25
 6642 2f74 A093 0000 		sts dec_plt1+2,r26
 6643 2f78 B093 0000 		sts dec_plt1+3,r27
 6644 2f7c 8091 0000 		lds r24,dec_plt1
 6645 2f80 9091 0000 		lds r25,dec_plt1+1
 6646 2f84 A091 0000 		lds r26,dec_plt1+2
 6647 2f88 B091 0000 		lds r27,dec_plt1+3
 6648 2f8c 8093 0000 		sts dec_al2,r24
 6649 2f90 9093 0000 		sts dec_al2+1,r25
 6650 2f94 A093 0000 		sts dec_al2+2,r26
 6651 2f98 B093 0000 		sts dec_al2+3,r27
 6652 2f9c 8091 0000 		lds r24,dec_al2
 6653 2fa0 9091 0000 		lds r25,dec_al2+1
 6654 2fa4 A091 0000 		lds r26,dec_al2+2
 6655 2fa8 B091 0000 		lds r27,dec_al2+3
 6656 2fac 8093 0000 		sts dec_al1,r24
 6657 2fb0 9093 0000 		sts dec_al1+1,r25
 6658 2fb4 A093 0000 		sts dec_al1+2,r26
 6659 2fb8 B093 0000 		sts dec_al1+3,r27
 6660 2fbc 8091 0000 		lds r24,dec_al1
 6661 2fc0 9091 0000 		lds r25,dec_al1+1
 6662 2fc4 A091 0000 		lds r26,dec_al1+2
 6663 2fc8 B091 0000 		lds r27,dec_al1+3
 6664 2fcc 8093 0000 		sts dec_nbl,r24
 6665 2fd0 9093 0000 		sts dec_nbl+1,r25
 6666 2fd4 A093 0000 		sts dec_nbl+2,r26
 6667 2fd8 B093 0000 		sts dec_nbl+3,r27
 619:adpcm.c       ****     dec_nbh = dec_ah1 = dec_ah2 = dec_ph1 = dec_ph2 = dec_rh1 = dec_rh2 = 0;
 6668               		.loc 1 619 0
 6669 2fdc 1092 0000 		sts dec_rh2,__zero_reg__
 6670 2fe0 1092 0000 		sts dec_rh2+1,__zero_reg__
 6671 2fe4 1092 0000 		sts dec_rh2+2,__zero_reg__
 6672 2fe8 1092 0000 		sts dec_rh2+3,__zero_reg__
 6673 2fec 8091 0000 		lds r24,dec_rh2
 6674 2ff0 9091 0000 		lds r25,dec_rh2+1
 6675 2ff4 A091 0000 		lds r26,dec_rh2+2
 6676 2ff8 B091 0000 		lds r27,dec_rh2+3
 6677 2ffc 8093 0000 		sts dec_rh1,r24
 6678 3000 9093 0000 		sts dec_rh1+1,r25
 6679 3004 A093 0000 		sts dec_rh1+2,r26
 6680 3008 B093 0000 		sts dec_rh1+3,r27
 6681 300c 8091 0000 		lds r24,dec_rh1
 6682 3010 9091 0000 		lds r25,dec_rh1+1
 6683 3014 A091 0000 		lds r26,dec_rh1+2
 6684 3018 B091 0000 		lds r27,dec_rh1+3
 6685 301c 8093 0000 		sts dec_ph2,r24
 6686 3020 9093 0000 		sts dec_ph2+1,r25
 6687 3024 A093 0000 		sts dec_ph2+2,r26
 6688 3028 B093 0000 		sts dec_ph2+3,r27
 6689 302c 8091 0000 		lds r24,dec_ph2
 6690 3030 9091 0000 		lds r25,dec_ph2+1
 6691 3034 A091 0000 		lds r26,dec_ph2+2
 6692 3038 B091 0000 		lds r27,dec_ph2+3
 6693 303c 8093 0000 		sts dec_ph1,r24
 6694 3040 9093 0000 		sts dec_ph1+1,r25
 6695 3044 A093 0000 		sts dec_ph1+2,r26
 6696 3048 B093 0000 		sts dec_ph1+3,r27
 6697 304c 8091 0000 		lds r24,dec_ph1
 6698 3050 9091 0000 		lds r25,dec_ph1+1
 6699 3054 A091 0000 		lds r26,dec_ph1+2
 6700 3058 B091 0000 		lds r27,dec_ph1+3
 6701 305c 8093 0000 		sts dec_ah2,r24
 6702 3060 9093 0000 		sts dec_ah2+1,r25
 6703 3064 A093 0000 		sts dec_ah2+2,r26
 6704 3068 B093 0000 		sts dec_ah2+3,r27
 6705 306c 8091 0000 		lds r24,dec_ah2
 6706 3070 9091 0000 		lds r25,dec_ah2+1
 6707 3074 A091 0000 		lds r26,dec_ah2+2
 6708 3078 B091 0000 		lds r27,dec_ah2+3
 6709 307c 8093 0000 		sts dec_ah1,r24
 6710 3080 9093 0000 		sts dec_ah1+1,r25
 6711 3084 A093 0000 		sts dec_ah1+2,r26
 6712 3088 B093 0000 		sts dec_ah1+3,r27
 6713 308c 8091 0000 		lds r24,dec_ah1
 6714 3090 9091 0000 		lds r25,dec_ah1+1
 6715 3094 A091 0000 		lds r26,dec_ah1+2
 6716 3098 B091 0000 		lds r27,dec_ah1+3
 6717 309c 8093 0000 		sts dec_nbh,r24
 6718 30a0 9093 0000 		sts dec_nbh+1,r25
 6719 30a4 A093 0000 		sts dec_nbh+2,r26
 6720 30a8 B093 0000 		sts dec_nbh+3,r27
 620:adpcm.c       **** 
 621:adpcm.c       ****     for(i = 0 ; i < 6 ; i++) {
 6721               		.loc 1 621 0
 6722 30ac 1982      		std Y+1,__zero_reg__
 6723 30ae 1A82      		std Y+2,__zero_reg__
 6724 30b0 1B82      		std Y+3,__zero_reg__
 6725 30b2 1C82      		std Y+4,__zero_reg__
 6726 30b4 00C0      		rjmp .L35
 6727               	.L36:
 622:adpcm.c       ****         delay_dltx[i] = 0;
 6728               		.loc 1 622 0 discriminator 2
 6729 30b6 8981      		ldd r24,Y+1
 6730 30b8 9A81      		ldd r25,Y+2
 6731 30ba 880F      		lsl r24
 6732 30bc 991F      		rol r25
 6733 30be 880F      		lsl r24
 6734 30c0 991F      		rol r25
 6735 30c2 8050      		subi r24,lo8(-(delay_dltx))
 6736 30c4 9040      		sbci r25,hi8(-(delay_dltx))
 6737 30c6 FC01      		movw r30,r24
 6738 30c8 1082      		st Z,__zero_reg__
 6739 30ca 1182      		std Z+1,__zero_reg__
 6740 30cc 1282      		std Z+2,__zero_reg__
 6741 30ce 1382      		std Z+3,__zero_reg__
 623:adpcm.c       ****         delay_dhx[i] = 0;
 6742               		.loc 1 623 0 discriminator 2
 6743 30d0 8981      		ldd r24,Y+1
 6744 30d2 9A81      		ldd r25,Y+2
 6745 30d4 880F      		lsl r24
 6746 30d6 991F      		rol r25
 6747 30d8 880F      		lsl r24
 6748 30da 991F      		rol r25
 6749 30dc 8050      		subi r24,lo8(-(delay_dhx))
 6750 30de 9040      		sbci r25,hi8(-(delay_dhx))
 6751 30e0 FC01      		movw r30,r24
 6752 30e2 1082      		st Z,__zero_reg__
 6753 30e4 1182      		std Z+1,__zero_reg__
 6754 30e6 1282      		std Z+2,__zero_reg__
 6755 30e8 1382      		std Z+3,__zero_reg__
 624:adpcm.c       ****         dec_del_dltx[i] = 0;
 6756               		.loc 1 624 0 discriminator 2
 6757 30ea 8981      		ldd r24,Y+1
 6758 30ec 9A81      		ldd r25,Y+2
 6759 30ee 880F      		lsl r24
 6760 30f0 991F      		rol r25
 6761 30f2 880F      		lsl r24
 6762 30f4 991F      		rol r25
 6763 30f6 8050      		subi r24,lo8(-(dec_del_dltx))
 6764 30f8 9040      		sbci r25,hi8(-(dec_del_dltx))
 6765 30fa FC01      		movw r30,r24
 6766 30fc 1082      		st Z,__zero_reg__
 6767 30fe 1182      		std Z+1,__zero_reg__
 6768 3100 1282      		std Z+2,__zero_reg__
 6769 3102 1382      		std Z+3,__zero_reg__
 625:adpcm.c       ****         dec_del_dhx[i] = 0;
 6770               		.loc 1 625 0 discriminator 2
 6771 3104 8981      		ldd r24,Y+1
 6772 3106 9A81      		ldd r25,Y+2
 6773 3108 880F      		lsl r24
 6774 310a 991F      		rol r25
 6775 310c 880F      		lsl r24
 6776 310e 991F      		rol r25
 6777 3110 8050      		subi r24,lo8(-(dec_del_dhx))
 6778 3112 9040      		sbci r25,hi8(-(dec_del_dhx))
 6779 3114 FC01      		movw r30,r24
 6780 3116 1082      		st Z,__zero_reg__
 6781 3118 1182      		std Z+1,__zero_reg__
 6782 311a 1282      		std Z+2,__zero_reg__
 6783 311c 1382      		std Z+3,__zero_reg__
 621:adpcm.c       ****     for(i = 0 ; i < 6 ; i++) {
 6784               		.loc 1 621 0 discriminator 2
 6785 311e 8981      		ldd r24,Y+1
 6786 3120 9A81      		ldd r25,Y+2
 6787 3122 AB81      		ldd r26,Y+3
 6788 3124 BC81      		ldd r27,Y+4
 6789 3126 0196      		adiw r24,1
 6790 3128 A11D      		adc r26,__zero_reg__
 6791 312a B11D      		adc r27,__zero_reg__
 6792 312c 8983      		std Y+1,r24
 6793 312e 9A83      		std Y+2,r25
 6794 3130 AB83      		std Y+3,r26
 6795 3132 BC83      		std Y+4,r27
 6796               	.L35:
 621:adpcm.c       ****     for(i = 0 ; i < 6 ; i++) {
 6797               		.loc 1 621 0 is_stmt 0 discriminator 1
 6798 3134 8981      		ldd r24,Y+1
 6799 3136 9A81      		ldd r25,Y+2
 6800 3138 AB81      		ldd r26,Y+3
 6801 313a BC81      		ldd r27,Y+4
 6802 313c 8630      		cpi r24,6
 6803 313e 9105      		cpc r25,__zero_reg__
 6804 3140 A105      		cpc r26,__zero_reg__
 6805 3142 B105      		cpc r27,__zero_reg__
 6806 3144 04F4      		brge .+2
 6807 3146 00C0      		rjmp .L36
 626:adpcm.c       ****     }
 627:adpcm.c       **** 
 628:adpcm.c       ****     for(i = 0 ; i < 6 ; i++) {
 6808               		.loc 1 628 0 is_stmt 1
 6809 3148 1982      		std Y+1,__zero_reg__
 6810 314a 1A82      		std Y+2,__zero_reg__
 6811 314c 1B82      		std Y+3,__zero_reg__
 6812 314e 1C82      		std Y+4,__zero_reg__
 6813 3150 00C0      		rjmp .L37
 6814               	.L38:
 629:adpcm.c       ****         delay_bpl[i] = 0;
 6815               		.loc 1 629 0 discriminator 2
 6816 3152 8981      		ldd r24,Y+1
 6817 3154 9A81      		ldd r25,Y+2
 6818 3156 880F      		lsl r24
 6819 3158 991F      		rol r25
 6820 315a 880F      		lsl r24
 6821 315c 991F      		rol r25
 6822 315e 8050      		subi r24,lo8(-(delay_bpl))
 6823 3160 9040      		sbci r25,hi8(-(delay_bpl))
 6824 3162 FC01      		movw r30,r24
 6825 3164 1082      		st Z,__zero_reg__
 6826 3166 1182      		std Z+1,__zero_reg__
 6827 3168 1282      		std Z+2,__zero_reg__
 6828 316a 1382      		std Z+3,__zero_reg__
 630:adpcm.c       ****         delay_bph[i] = 0;
 6829               		.loc 1 630 0 discriminator 2
 6830 316c 8981      		ldd r24,Y+1
 6831 316e 9A81      		ldd r25,Y+2
 6832 3170 880F      		lsl r24
 6833 3172 991F      		rol r25
 6834 3174 880F      		lsl r24
 6835 3176 991F      		rol r25
 6836 3178 8050      		subi r24,lo8(-(delay_bph))
 6837 317a 9040      		sbci r25,hi8(-(delay_bph))
 6838 317c FC01      		movw r30,r24
 6839 317e 1082      		st Z,__zero_reg__
 6840 3180 1182      		std Z+1,__zero_reg__
 6841 3182 1282      		std Z+2,__zero_reg__
 6842 3184 1382      		std Z+3,__zero_reg__
 631:adpcm.c       ****         dec_del_bpl[i] = 0;
 6843               		.loc 1 631 0 discriminator 2
 6844 3186 8981      		ldd r24,Y+1
 6845 3188 9A81      		ldd r25,Y+2
 6846 318a 880F      		lsl r24
 6847 318c 991F      		rol r25
 6848 318e 880F      		lsl r24
 6849 3190 991F      		rol r25
 6850 3192 8050      		subi r24,lo8(-(dec_del_bpl))
 6851 3194 9040      		sbci r25,hi8(-(dec_del_bpl))
 6852 3196 FC01      		movw r30,r24
 6853 3198 1082      		st Z,__zero_reg__
 6854 319a 1182      		std Z+1,__zero_reg__
 6855 319c 1282      		std Z+2,__zero_reg__
 6856 319e 1382      		std Z+3,__zero_reg__
 632:adpcm.c       ****         dec_del_bph[i] = 0;
 6857               		.loc 1 632 0 discriminator 2
 6858 31a0 8981      		ldd r24,Y+1
 6859 31a2 9A81      		ldd r25,Y+2
 6860 31a4 880F      		lsl r24
 6861 31a6 991F      		rol r25
 6862 31a8 880F      		lsl r24
 6863 31aa 991F      		rol r25
 6864 31ac 8050      		subi r24,lo8(-(dec_del_bph))
 6865 31ae 9040      		sbci r25,hi8(-(dec_del_bph))
 6866 31b0 FC01      		movw r30,r24
 6867 31b2 1082      		st Z,__zero_reg__
 6868 31b4 1182      		std Z+1,__zero_reg__
 6869 31b6 1282      		std Z+2,__zero_reg__
 6870 31b8 1382      		std Z+3,__zero_reg__
 628:adpcm.c       ****     for(i = 0 ; i < 6 ; i++) {
 6871               		.loc 1 628 0 discriminator 2
 6872 31ba 8981      		ldd r24,Y+1
 6873 31bc 9A81      		ldd r25,Y+2
 6874 31be AB81      		ldd r26,Y+3
 6875 31c0 BC81      		ldd r27,Y+4
 6876 31c2 0196      		adiw r24,1
 6877 31c4 A11D      		adc r26,__zero_reg__
 6878 31c6 B11D      		adc r27,__zero_reg__
 6879 31c8 8983      		std Y+1,r24
 6880 31ca 9A83      		std Y+2,r25
 6881 31cc AB83      		std Y+3,r26
 6882 31ce BC83      		std Y+4,r27
 6883               	.L37:
 628:adpcm.c       ****     for(i = 0 ; i < 6 ; i++) {
 6884               		.loc 1 628 0 is_stmt 0 discriminator 1
 6885 31d0 8981      		ldd r24,Y+1
 6886 31d2 9A81      		ldd r25,Y+2
 6887 31d4 AB81      		ldd r26,Y+3
 6888 31d6 BC81      		ldd r27,Y+4
 6889 31d8 8630      		cpi r24,6
 6890 31da 9105      		cpc r25,__zero_reg__
 6891 31dc A105      		cpc r26,__zero_reg__
 6892 31de B105      		cpc r27,__zero_reg__
 6893 31e0 04F4      		brge .+2
 6894 31e2 00C0      		rjmp .L38
 633:adpcm.c       ****     }
 634:adpcm.c       **** 
 635:adpcm.c       ****     for(i = 0 ; i < 23 ; i++) tqmf[i] = 0;
 6895               		.loc 1 635 0 is_stmt 1
 6896 31e4 1982      		std Y+1,__zero_reg__
 6897 31e6 1A82      		std Y+2,__zero_reg__
 6898 31e8 1B82      		std Y+3,__zero_reg__
 6899 31ea 1C82      		std Y+4,__zero_reg__
 6900 31ec 00C0      		rjmp .L39
 6901               	.L40:
 6902               		.loc 1 635 0 is_stmt 0 discriminator 2
 6903 31ee 8981      		ldd r24,Y+1
 6904 31f0 9A81      		ldd r25,Y+2
 6905 31f2 880F      		lsl r24
 6906 31f4 991F      		rol r25
 6907 31f6 880F      		lsl r24
 6908 31f8 991F      		rol r25
 6909 31fa 8050      		subi r24,lo8(-(tqmf))
 6910 31fc 9040      		sbci r25,hi8(-(tqmf))
 6911 31fe FC01      		movw r30,r24
 6912 3200 1082      		st Z,__zero_reg__
 6913 3202 1182      		std Z+1,__zero_reg__
 6914 3204 1282      		std Z+2,__zero_reg__
 6915 3206 1382      		std Z+3,__zero_reg__
 6916 3208 8981      		ldd r24,Y+1
 6917 320a 9A81      		ldd r25,Y+2
 6918 320c AB81      		ldd r26,Y+3
 6919 320e BC81      		ldd r27,Y+4
 6920 3210 0196      		adiw r24,1
 6921 3212 A11D      		adc r26,__zero_reg__
 6922 3214 B11D      		adc r27,__zero_reg__
 6923 3216 8983      		std Y+1,r24
 6924 3218 9A83      		std Y+2,r25
 6925 321a AB83      		std Y+3,r26
 6926 321c BC83      		std Y+4,r27
 6927               	.L39:
 6928               		.loc 1 635 0 discriminator 1
 6929 321e 8981      		ldd r24,Y+1
 6930 3220 9A81      		ldd r25,Y+2
 6931 3222 AB81      		ldd r26,Y+3
 6932 3224 BC81      		ldd r27,Y+4
 6933 3226 8731      		cpi r24,23
 6934 3228 9105      		cpc r25,__zero_reg__
 6935 322a A105      		cpc r26,__zero_reg__
 6936 322c B105      		cpc r27,__zero_reg__
 6937 322e 04F0      		brlt .L40
 636:adpcm.c       **** 
 637:adpcm.c       ****     for(i = 0 ; i < 11 ; i++) {
 6938               		.loc 1 637 0 is_stmt 1
 6939 3230 1982      		std Y+1,__zero_reg__
 6940 3232 1A82      		std Y+2,__zero_reg__
 6941 3234 1B82      		std Y+3,__zero_reg__
 6942 3236 1C82      		std Y+4,__zero_reg__
 6943 3238 00C0      		rjmp .L41
 6944               	.L42:
 638:adpcm.c       ****         accumc[i] = 0;
 6945               		.loc 1 638 0 discriminator 2
 6946 323a 8981      		ldd r24,Y+1
 6947 323c 9A81      		ldd r25,Y+2
 6948 323e 880F      		lsl r24
 6949 3240 991F      		rol r25
 6950 3242 880F      		lsl r24
 6951 3244 991F      		rol r25
 6952 3246 8050      		subi r24,lo8(-(accumc))
 6953 3248 9040      		sbci r25,hi8(-(accumc))
 6954 324a FC01      		movw r30,r24
 6955 324c 1082      		st Z,__zero_reg__
 6956 324e 1182      		std Z+1,__zero_reg__
 6957 3250 1282      		std Z+2,__zero_reg__
 6958 3252 1382      		std Z+3,__zero_reg__
 639:adpcm.c       ****         accumd[i] = 0;
 6959               		.loc 1 639 0 discriminator 2
 6960 3254 8981      		ldd r24,Y+1
 6961 3256 9A81      		ldd r25,Y+2
 6962 3258 880F      		lsl r24
 6963 325a 991F      		rol r25
 6964 325c 880F      		lsl r24
 6965 325e 991F      		rol r25
 6966 3260 8050      		subi r24,lo8(-(accumd))
 6967 3262 9040      		sbci r25,hi8(-(accumd))
 6968 3264 FC01      		movw r30,r24
 6969 3266 1082      		st Z,__zero_reg__
 6970 3268 1182      		std Z+1,__zero_reg__
 6971 326a 1282      		std Z+2,__zero_reg__
 6972 326c 1382      		std Z+3,__zero_reg__
 637:adpcm.c       ****     for(i = 0 ; i < 11 ; i++) {
 6973               		.loc 1 637 0 discriminator 2
 6974 326e 8981      		ldd r24,Y+1
 6975 3270 9A81      		ldd r25,Y+2
 6976 3272 AB81      		ldd r26,Y+3
 6977 3274 BC81      		ldd r27,Y+4
 6978 3276 0196      		adiw r24,1
 6979 3278 A11D      		adc r26,__zero_reg__
 6980 327a B11D      		adc r27,__zero_reg__
 6981 327c 8983      		std Y+1,r24
 6982 327e 9A83      		std Y+2,r25
 6983 3280 AB83      		std Y+3,r26
 6984 3282 BC83      		std Y+4,r27
 6985               	.L41:
 637:adpcm.c       ****     for(i = 0 ; i < 11 ; i++) {
 6986               		.loc 1 637 0 is_stmt 0 discriminator 1
 6987 3284 8981      		ldd r24,Y+1
 6988 3286 9A81      		ldd r25,Y+2
 6989 3288 AB81      		ldd r26,Y+3
 6990 328a BC81      		ldd r27,Y+4
 6991 328c 8B30      		cpi r24,11
 6992 328e 9105      		cpc r25,__zero_reg__
 6993 3290 A105      		cpc r26,__zero_reg__
 6994 3292 B105      		cpc r27,__zero_reg__
 6995 3294 04F0      		brlt .L42
 640:adpcm.c       ****     }
 641:adpcm.c       ****     return;
 6996               		.loc 1 641 0 is_stmt 1
 6997 3296 0000      		nop
 6998               	/* epilogue start */
 642:adpcm.c       **** }
 6999               		.loc 1 642 0
 7000 3298 0F90      		pop __tmp_reg__
 7001 329a 0F90      		pop __tmp_reg__
 7002 329c 0F90      		pop __tmp_reg__
 7003 329e 0F90      		pop __tmp_reg__
 7004 32a0 DF91      		pop r29
 7005 32a2 CF91      		pop r28
 7006 32a4 0895      		ret
 7007               	.LFE7:
 7009               	.global	filtez
 7011               	filtez:
 7012               	.LFB8:
 643:adpcm.c       **** 
 644:adpcm.c       **** /* filtez - compute predictor output signal (zero section) */
 645:adpcm.c       **** /* input: bpl1-6 and dlt1-6, output: szl */
 646:adpcm.c       **** 
 647:adpcm.c       **** int32_t filtez(int32_t *bpl,int32_t *dlt)
 648:adpcm.c       **** {
 7013               		.loc 1 648 0
 7014 32a6 2F92      		push r2
 7015               	.LCFI68:
 7016 32a8 3F92      		push r3
 7017               	.LCFI69:
 7018 32aa 4F92      		push r4
 7019               	.LCFI70:
 7020 32ac 5F92      		push r5
 7021               	.LCFI71:
 7022 32ae 6F92      		push r6
 7023               	.LCFI72:
 7024 32b0 7F92      		push r7
 7025               	.LCFI73:
 7026 32b2 8F92      		push r8
 7027               	.LCFI74:
 7028 32b4 9F92      		push r9
 7029               	.LCFI75:
 7030 32b6 AF92      		push r10
 7031               	.LCFI76:
 7032 32b8 BF92      		push r11
 7033               	.LCFI77:
 7034 32ba CF92      		push r12
 7035               	.LCFI78:
 7036 32bc DF92      		push r13
 7037               	.LCFI79:
 7038 32be EF92      		push r14
 7039               	.LCFI80:
 7040 32c0 FF92      		push r15
 7041               	.LCFI81:
 7042 32c2 0F93      		push r16
 7043               	.LCFI82:
 7044 32c4 1F93      		push r17
 7045               	.LCFI83:
 7046 32c6 CF93      		push r28
 7047               	.LCFI84:
 7048 32c8 DF93      		push r29
 7049               	.LCFI85:
 7050 32ca CDB7      		in r28,__SP_L__
 7051 32cc DEB7      		in r29,__SP_H__
 7052               	.LCFI86:
 7053 32ce A897      		sbiw r28,40
 7054               	.LCFI87:
 7055 32d0 0FB6      		in __tmp_reg__,__SREG__
 7056 32d2 F894      		cli
 7057 32d4 DEBF      		out __SP_H__,r29
 7058 32d6 0FBE      		out __SREG__,__tmp_reg__
 7059 32d8 CDBF      		out __SP_L__,r28
 7060               	/* prologue: function */
 7061               	/* frame size = 40 */
 7062               	/* stack size = 58 */
 7063               	.L__stack_usage = 58
 7064 32da 9E87      		std Y+14,r25
 7065 32dc 8D87      		std Y+13,r24
 7066 32de 788B      		std Y+16,r23
 7067 32e0 6F87      		std Y+15,r22
 649:adpcm.c       ****     int32_t i;
 650:adpcm.c       ****     int64_t  zl;
 651:adpcm.c       ****     zl = (int64_t)(*bpl++) * (*dlt++);
 7068               		.loc 1 651 0
 7069 32e2 8D85      		ldd r24,Y+13
 7070 32e4 9E85      		ldd r25,Y+14
 7071 32e6 FC01      		movw r30,r24
 7072 32e8 8081      		ld r24,Z
 7073 32ea 9181      		ldd r25,Z+1
 7074 32ec A281      		ldd r26,Z+2
 7075 32ee B381      		ldd r27,Z+3
 7076 32f0 898B      		std Y+17,r24
 7077 32f2 9A8B      		std Y+18,r25
 7078 32f4 AB8B      		std Y+19,r26
 7079 32f6 BC8B      		std Y+20,r27
 7080 32f8 BB0F      		lsl r27
 7081 32fa 880B      		sbc r24,r24
 7082 32fc 982F      		mov r25,r24
 7083 32fe DC01      		movw r26,r24
 7084 3300 8D8B      		std Y+21,r24
 7085 3302 8E8B      		std Y+22,r24
 7086 3304 8F8B      		std Y+23,r24
 7087 3306 888F      		std Y+24,r24
 7088 3308 8F85      		ldd r24,Y+15
 7089 330a 9889      		ldd r25,Y+16
 7090 330c FC01      		movw r30,r24
 7091 330e 8081      		ld r24,Z
 7092 3310 9181      		ldd r25,Z+1
 7093 3312 A281      		ldd r26,Z+2
 7094 3314 B381      		ldd r27,Z+3
 7095 3316 1C01      		movw r2,r24
 7096 3318 2D01      		movw r4,r26
 7097 331a BB0F      		lsl r27
 7098 331c 880B      		sbc r24,r24
 7099 331e 982F      		mov r25,r24
 7100 3320 DC01      		movw r26,r24
 7101 3322 682E      		mov r6,r24
 7102 3324 782E      		mov r7,r24
 7103 3326 882E      		mov r8,r24
 7104 3328 982E      		mov r9,r24
 7105 332a A22C      		mov r10,r2
 7106 332c B32C      		mov r11,r3
 7107 332e C42C      		mov r12,r4
 7108 3330 D52C      		mov r13,r5
 7109 3332 E62C      		mov r14,r6
 7110 3334 F72C      		mov r15,r7
 7111 3336 082D      		mov r16,r8
 7112 3338 192D      		mov r17,r9
 7113 333a 2989      		ldd r18,Y+17
 7114 333c 3A89      		ldd r19,Y+18
 7115 333e 4B89      		ldd r20,Y+19
 7116 3340 5C89      		ldd r21,Y+20
 7117 3342 6D89      		ldd r22,Y+21
 7118 3344 7E89      		ldd r23,Y+22
 7119 3346 8F89      		ldd r24,Y+23
 7120 3348 988D      		ldd r25,Y+24
 7121 334a 0E94 0000 		call __muldi3
 7122 334e A22E      		mov r10,r18
 7123 3350 B32E      		mov r11,r19
 7124 3352 C42E      		mov r12,r20
 7125 3354 D52E      		mov r13,r21
 7126 3356 E62E      		mov r14,r22
 7127 3358 F72E      		mov r15,r23
 7128 335a 082F      		mov r16,r24
 7129 335c 192F      		mov r17,r25
 7130 335e AD82      		std Y+5,r10
 7131 3360 BE82      		std Y+6,r11
 7132 3362 CF82      		std Y+7,r12
 7133 3364 D886      		std Y+8,r13
 7134 3366 E986      		std Y+9,r14
 7135 3368 FA86      		std Y+10,r15
 7136 336a 0B87      		std Y+11,r16
 7137 336c 1C87      		std Y+12,r17
 7138 336e 8D85      		ldd r24,Y+13
 7139 3370 9E85      		ldd r25,Y+14
 7140 3372 0496      		adiw r24,4
 7141 3374 9E87      		std Y+14,r25
 7142 3376 8D87      		std Y+13,r24
 7143 3378 8F85      		ldd r24,Y+15
 7144 337a 9889      		ldd r25,Y+16
 7145 337c 0496      		adiw r24,4
 7146 337e 988B      		std Y+16,r25
 7147 3380 8F87      		std Y+15,r24
 652:adpcm.c       ****     /* MAX: 6 */
 653:adpcm.c       ****     for(i = 1 ; i < 6 ; i++)
 7148               		.loc 1 653 0
 7149 3382 81E0      		ldi r24,lo8(1)
 7150 3384 90E0      		ldi r25,0
 7151 3386 A0E0      		ldi r26,0
 7152 3388 B0E0      		ldi r27,0
 7153 338a 8983      		std Y+1,r24
 7154 338c 9A83      		std Y+2,r25
 7155 338e AB83      		std Y+3,r26
 7156 3390 BC83      		std Y+4,r27
 7157 3392 00C0      		rjmp .L45
 7158               	.L46:
 654:adpcm.c       ****         zl += (int64_t)(*bpl++) * (*dlt++);
 7159               		.loc 1 654 0 discriminator 2
 7160 3394 8D85      		ldd r24,Y+13
 7161 3396 9E85      		ldd r25,Y+14
 7162 3398 FC01      		movw r30,r24
 7163 339a 8081      		ld r24,Z
 7164 339c 9181      		ldd r25,Z+1
 7165 339e A281      		ldd r26,Z+2
 7166 33a0 B381      		ldd r27,Z+3
 7167 33a2 898F      		std Y+25,r24
 7168 33a4 9A8F      		std Y+26,r25
 7169 33a6 AB8F      		std Y+27,r26
 7170 33a8 BC8F      		std Y+28,r27
 7171 33aa BB0F      		lsl r27
 7172 33ac 880B      		sbc r24,r24
 7173 33ae 982F      		mov r25,r24
 7174 33b0 DC01      		movw r26,r24
 7175 33b2 8D8F      		std Y+29,r24
 7176 33b4 8E8F      		std Y+30,r24
 7177 33b6 8F8F      		std Y+31,r24
 7178 33b8 88A3      		std Y+32,r24
 7179 33ba 8F85      		ldd r24,Y+15
 7180 33bc 9889      		ldd r25,Y+16
 7181 33be FC01      		movw r30,r24
 7182 33c0 8081      		ld r24,Z
 7183 33c2 9181      		ldd r25,Z+1
 7184 33c4 A281      		ldd r26,Z+2
 7185 33c6 B381      		ldd r27,Z+3
 7186 33c8 89A3      		std Y+33,r24
 7187 33ca 9AA3      		std Y+34,r25
 7188 33cc ABA3      		std Y+35,r26
 7189 33ce BCA3      		std Y+36,r27
 7190 33d0 BB0F      		lsl r27
 7191 33d2 880B      		sbc r24,r24
 7192 33d4 982F      		mov r25,r24
 7193 33d6 DC01      		movw r26,r24
 7194 33d8 8DA3      		std Y+37,r24
 7195 33da 8EA3      		std Y+38,r24
 7196 33dc 8FA3      		std Y+39,r24
 7197 33de 88A7      		std Y+40,r24
 7198 33e0 A9A0      		ldd r10,Y+33
 7199 33e2 BAA0      		ldd r11,Y+34
 7200 33e4 CBA0      		ldd r12,Y+35
 7201 33e6 DCA0      		ldd r13,Y+36
 7202 33e8 EDA0      		ldd r14,Y+37
 7203 33ea FEA0      		ldd r15,Y+38
 7204 33ec 0FA1      		ldd r16,Y+39
 7205 33ee 18A5      		ldd r17,Y+40
 7206 33f0 298D      		ldd r18,Y+25
 7207 33f2 3A8D      		ldd r19,Y+26
 7208 33f4 4B8D      		ldd r20,Y+27
 7209 33f6 5C8D      		ldd r21,Y+28
 7210 33f8 6D8D      		ldd r22,Y+29
 7211 33fa 7E8D      		ldd r23,Y+30
 7212 33fc 8F8D      		ldd r24,Y+31
 7213 33fe 98A1      		ldd r25,Y+32
 7214 3400 0E94 0000 		call __muldi3
 7215 3404 A22E      		mov r10,r18
 7216 3406 B32E      		mov r11,r19
 7217 3408 C42E      		mov r12,r20
 7218 340a D52E      		mov r13,r21
 7219 340c E62E      		mov r14,r22
 7220 340e F72E      		mov r15,r23
 7221 3410 082F      		mov r16,r24
 7222 3412 192F      		mov r17,r25
 7223 3414 2A2C      		mov r2,r10
 7224 3416 3B2C      		mov r3,r11
 7225 3418 4C2C      		mov r4,r12
 7226 341a 5D2C      		mov r5,r13
 7227 341c 6E2C      		mov r6,r14
 7228 341e 7F2C      		mov r7,r15
 7229 3420 802E      		mov r8,r16
 7230 3422 912E      		mov r9,r17
 7231 3424 2D81      		ldd r18,Y+5
 7232 3426 3E81      		ldd r19,Y+6
 7233 3428 4F81      		ldd r20,Y+7
 7234 342a 5885      		ldd r21,Y+8
 7235 342c 6985      		ldd r22,Y+9
 7236 342e 7A85      		ldd r23,Y+10
 7237 3430 8B85      		ldd r24,Y+11
 7238 3432 9C85      		ldd r25,Y+12
 7239 3434 A22C      		mov r10,r2
 7240 3436 B32C      		mov r11,r3
 7241 3438 C42C      		mov r12,r4
 7242 343a D52C      		mov r13,r5
 7243 343c E62C      		mov r14,r6
 7244 343e F72C      		mov r15,r7
 7245 3440 082D      		mov r16,r8
 7246 3442 192D      		mov r17,r9
 7247 3444 0E94 0000 		call __adddi3
 7248 3448 2D83      		std Y+5,r18
 7249 344a 3E83      		std Y+6,r19
 7250 344c 4F83      		std Y+7,r20
 7251 344e 5887      		std Y+8,r21
 7252 3450 6987      		std Y+9,r22
 7253 3452 7A87      		std Y+10,r23
 7254 3454 8B87      		std Y+11,r24
 7255 3456 9C87      		std Y+12,r25
 7256 3458 8D85      		ldd r24,Y+13
 7257 345a 9E85      		ldd r25,Y+14
 7258 345c 0496      		adiw r24,4
 7259 345e 9E87      		std Y+14,r25
 7260 3460 8D87      		std Y+13,r24
 7261 3462 8F85      		ldd r24,Y+15
 7262 3464 9889      		ldd r25,Y+16
 7263 3466 0496      		adiw r24,4
 7264 3468 988B      		std Y+16,r25
 7265 346a 8F87      		std Y+15,r24
 653:adpcm.c       ****     for(i = 1 ; i < 6 ; i++)
 7266               		.loc 1 653 0 discriminator 2
 7267 346c 8981      		ldd r24,Y+1
 7268 346e 9A81      		ldd r25,Y+2
 7269 3470 AB81      		ldd r26,Y+3
 7270 3472 BC81      		ldd r27,Y+4
 7271 3474 0196      		adiw r24,1
 7272 3476 A11D      		adc r26,__zero_reg__
 7273 3478 B11D      		adc r27,__zero_reg__
 7274 347a 8983      		std Y+1,r24
 7275 347c 9A83      		std Y+2,r25
 7276 347e AB83      		std Y+3,r26
 7277 3480 BC83      		std Y+4,r27
 7278               	.L45:
 653:adpcm.c       ****     for(i = 1 ; i < 6 ; i++)
 7279               		.loc 1 653 0 is_stmt 0 discriminator 1
 7280 3482 8981      		ldd r24,Y+1
 7281 3484 9A81      		ldd r25,Y+2
 7282 3486 AB81      		ldd r26,Y+3
 7283 3488 BC81      		ldd r27,Y+4
 7284 348a 8630      		cpi r24,6
 7285 348c 9105      		cpc r25,__zero_reg__
 7286 348e A105      		cpc r26,__zero_reg__
 7287 3490 B105      		cpc r27,__zero_reg__
 7288 3492 04F4      		brge .+2
 7289 3494 00C0      		rjmp .L46
 655:adpcm.c       **** 
 656:adpcm.c       ****     return((int32_t)(zl >> 14));   /* x2 here */
 7290               		.loc 1 656 0 is_stmt 1
 7291 3496 2D81      		ldd r18,Y+5
 7292 3498 3E81      		ldd r19,Y+6
 7293 349a 4F81      		ldd r20,Y+7
 7294 349c 5885      		ldd r21,Y+8
 7295 349e 6985      		ldd r22,Y+9
 7296 34a0 7A85      		ldd r23,Y+10
 7297 34a2 8B85      		ldd r24,Y+11
 7298 34a4 9C85      		ldd r25,Y+12
 7299 34a6 0EE0      		ldi r16,lo8(14)
 7300 34a8 0E94 0000 		call __ashrdi3
 7301 34ac A22E      		mov r10,r18
 7302 34ae B32E      		mov r11,r19
 7303 34b0 C42E      		mov r12,r20
 7304 34b2 D52E      		mov r13,r21
 7305 34b4 E62E      		mov r14,r22
 7306 34b6 F72E      		mov r15,r23
 7307 34b8 082F      		mov r16,r24
 7308 34ba 192F      		mov r17,r25
 7309 34bc D601      		movw r26,r12
 7310 34be C501      		movw r24,r10
 657:adpcm.c       **** }
 7311               		.loc 1 657 0
 7312 34c0 BC01      		movw r22,r24
 7313 34c2 CD01      		movw r24,r26
 7314               	/* epilogue start */
 7315 34c4 A896      		adiw r28,40
 7316 34c6 0FB6      		in __tmp_reg__,__SREG__
 7317 34c8 F894      		cli
 7318 34ca DEBF      		out __SP_H__,r29
 7319 34cc 0FBE      		out __SREG__,__tmp_reg__
 7320 34ce CDBF      		out __SP_L__,r28
 7321 34d0 DF91      		pop r29
 7322 34d2 CF91      		pop r28
 7323 34d4 1F91      		pop r17
 7324 34d6 0F91      		pop r16
 7325 34d8 FF90      		pop r15
 7326 34da EF90      		pop r14
 7327 34dc DF90      		pop r13
 7328 34de CF90      		pop r12
 7329 34e0 BF90      		pop r11
 7330 34e2 AF90      		pop r10
 7331 34e4 9F90      		pop r9
 7332 34e6 8F90      		pop r8
 7333 34e8 7F90      		pop r7
 7334 34ea 6F90      		pop r6
 7335 34ec 5F90      		pop r5
 7336 34ee 4F90      		pop r4
 7337 34f0 3F90      		pop r3
 7338 34f2 2F90      		pop r2
 7339 34f4 0895      		ret
 7340               	.LFE8:
 7342               	.global	filtep
 7344               	filtep:
 7345               	.LFB9:
 658:adpcm.c       **** 
 659:adpcm.c       **** /* filtep - compute predictor output signal (pole section) */
 660:adpcm.c       **** /* input rlt1-2 and al1-2, output spl */
 661:adpcm.c       **** 
 662:adpcm.c       **** int32_t filtep(int32_t rlt1,int32_t al1,int32_t rlt2,int32_t al2)
 663:adpcm.c       **** {
 7346               		.loc 1 663 0
 7347 34f6 2F92      		push r2
 7348               	.LCFI88:
 7349 34f8 3F92      		push r3
 7350               	.LCFI89:
 7351 34fa 4F92      		push r4
 7352               	.LCFI90:
 7353 34fc 5F92      		push r5
 7354               	.LCFI91:
 7355 34fe 6F92      		push r6
 7356               	.LCFI92:
 7357 3500 7F92      		push r7
 7358               	.LCFI93:
 7359 3502 8F92      		push r8
 7360               	.LCFI94:
 7361 3504 9F92      		push r9
 7362               	.LCFI95:
 7363 3506 AF92      		push r10
 7364               	.LCFI96:
 7365 3508 BF92      		push r11
 7366               	.LCFI97:
 7367 350a CF92      		push r12
 7368               	.LCFI98:
 7369 350c DF92      		push r13
 7370               	.LCFI99:
 7371 350e EF92      		push r14
 7372               	.LCFI100:
 7373 3510 FF92      		push r15
 7374               	.LCFI101:
 7375 3512 0F93      		push r16
 7376               	.LCFI102:
 7377 3514 1F93      		push r17
 7378               	.LCFI103:
 7379 3516 CF93      		push r28
 7380               	.LCFI104:
 7381 3518 DF93      		push r29
 7382               	.LCFI105:
 7383 351a CDB7      		in r28,__SP_L__
 7384 351c DEB7      		in r29,__SP_H__
 7385               	.LCFI106:
 7386 351e A897      		sbiw r28,40
 7387               	.LCFI107:
 7388 3520 0FB6      		in __tmp_reg__,__SREG__
 7389 3522 F894      		cli
 7390 3524 DEBF      		out __SP_H__,r29
 7391 3526 0FBE      		out __SREG__,__tmp_reg__
 7392 3528 CDBF      		out __SP_L__,r28
 7393               	/* prologue: function */
 7394               	/* frame size = 40 */
 7395               	/* stack size = 58 */
 7396               	.L__stack_usage = 58
 7397 352a 698B      		std Y+17,r22
 7398 352c 7A8B      		std Y+18,r23
 7399 352e 8B8B      		std Y+19,r24
 7400 3530 9C8B      		std Y+20,r25
 7401 3532 2D8B      		std Y+21,r18
 7402 3534 3E8B      		std Y+22,r19
 7403 3536 4F8B      		std Y+23,r20
 7404 3538 588F      		std Y+24,r21
 7405 353a E98E      		std Y+25,r14
 7406 353c FA8E      		std Y+26,r15
 7407 353e 0B8F      		std Y+27,r16
 7408 3540 1C8F      		std Y+28,r17
 7409 3542 AD8E      		std Y+29,r10
 7410 3544 BE8E      		std Y+30,r11
 7411 3546 CF8E      		std Y+31,r12
 7412 3548 D8A2      		std Y+32,r13
 664:adpcm.c       ****     int64_t  pl,pl2;
 665:adpcm.c       ****     pl = 2*rlt1;
 7413               		.loc 1 665 0
 7414 354a 8989      		ldd r24,Y+17
 7415 354c 9A89      		ldd r25,Y+18
 7416 354e AB89      		ldd r26,Y+19
 7417 3550 BC89      		ldd r27,Y+20
 7418 3552 880F      		lsl r24
 7419 3554 991F      		rol r25
 7420 3556 AA1F      		rol r26
 7421 3558 BB1F      		rol r27
 7422 355a 8983      		std Y+1,r24
 7423 355c 9A83      		std Y+2,r25
 7424 355e AB83      		std Y+3,r26
 7425 3560 BC83      		std Y+4,r27
 7426 3562 BB0F      		lsl r27
 7427 3564 880B      		sbc r24,r24
 7428 3566 982F      		mov r25,r24
 7429 3568 DC01      		movw r26,r24
 7430 356a 8D83      		std Y+5,r24
 7431 356c 8E83      		std Y+6,r24
 7432 356e 8F83      		std Y+7,r24
 7433 3570 8887      		std Y+8,r24
 666:adpcm.c       ****     pl = (int64_t)al1*pl;
 7434               		.loc 1 666 0
 7435 3572 8D89      		ldd r24,Y+21
 7436 3574 9E89      		ldd r25,Y+22
 7437 3576 AF89      		ldd r26,Y+23
 7438 3578 B88D      		ldd r27,Y+24
 7439 357a 89A3      		std Y+33,r24
 7440 357c 9AA3      		std Y+34,r25
 7441 357e ABA3      		std Y+35,r26
 7442 3580 BCA3      		std Y+36,r27
 7443 3582 8D89      		ldd r24,Y+21
 7444 3584 9E89      		ldd r25,Y+22
 7445 3586 AF89      		ldd r26,Y+23
 7446 3588 B88D      		ldd r27,Y+24
 7447 358a BB0F      		lsl r27
 7448 358c 880B      		sbc r24,r24
 7449 358e 982F      		mov r25,r24
 7450 3590 DC01      		movw r26,r24
 7451 3592 8DA3      		std Y+37,r24
 7452 3594 8EA3      		std Y+38,r24
 7453 3596 8FA3      		std Y+39,r24
 7454 3598 88A7      		std Y+40,r24
 7455 359a A9A0      		ldd r10,Y+33
 7456 359c BAA0      		ldd r11,Y+34
 7457 359e CBA0      		ldd r12,Y+35
 7458 35a0 DCA0      		ldd r13,Y+36
 7459 35a2 EDA0      		ldd r14,Y+37
 7460 35a4 FEA0      		ldd r15,Y+38
 7461 35a6 0FA1      		ldd r16,Y+39
 7462 35a8 18A5      		ldd r17,Y+40
 7463 35aa 2981      		ldd r18,Y+1
 7464 35ac 3A81      		ldd r19,Y+2
 7465 35ae 4B81      		ldd r20,Y+3
 7466 35b0 5C81      		ldd r21,Y+4
 7467 35b2 6D81      		ldd r22,Y+5
 7468 35b4 7E81      		ldd r23,Y+6
 7469 35b6 8F81      		ldd r24,Y+7
 7470 35b8 9885      		ldd r25,Y+8
 7471 35ba 0E94 0000 		call __muldi3
 7472 35be A22E      		mov r10,r18
 7473 35c0 B32E      		mov r11,r19
 7474 35c2 C42E      		mov r12,r20
 7475 35c4 D52E      		mov r13,r21
 7476 35c6 E62E      		mov r14,r22
 7477 35c8 F72E      		mov r15,r23
 7478 35ca 082F      		mov r16,r24
 7479 35cc 192F      		mov r17,r25
 7480 35ce A982      		std Y+1,r10
 7481 35d0 BA82      		std Y+2,r11
 7482 35d2 CB82      		std Y+3,r12
 7483 35d4 DC82      		std Y+4,r13
 7484 35d6 ED82      		std Y+5,r14
 7485 35d8 FE82      		std Y+6,r15
 7486 35da 0F83      		std Y+7,r16
 7487 35dc 1887      		std Y+8,r17
 667:adpcm.c       ****     pl2 = 2*rlt2;
 7488               		.loc 1 667 0
 7489 35de 898D      		ldd r24,Y+25
 7490 35e0 9A8D      		ldd r25,Y+26
 7491 35e2 AB8D      		ldd r26,Y+27
 7492 35e4 BC8D      		ldd r27,Y+28
 7493 35e6 880F      		lsl r24
 7494 35e8 991F      		rol r25
 7495 35ea AA1F      		rol r26
 7496 35ec BB1F      		rol r27
 7497 35ee 8987      		std Y+9,r24
 7498 35f0 9A87      		std Y+10,r25
 7499 35f2 AB87      		std Y+11,r26
 7500 35f4 BC87      		std Y+12,r27
 7501 35f6 BB0F      		lsl r27
 7502 35f8 880B      		sbc r24,r24
 7503 35fa 982F      		mov r25,r24
 7504 35fc DC01      		movw r26,r24
 7505 35fe 8D87      		std Y+13,r24
 7506 3600 8E87      		std Y+14,r24
 7507 3602 8F87      		std Y+15,r24
 7508 3604 888B      		std Y+16,r24
 668:adpcm.c       ****     pl += (int64_t)al2*pl2;
 7509               		.loc 1 668 0
 7510 3606 2D8C      		ldd r2,Y+29
 7511 3608 3E8C      		ldd r3,Y+30
 7512 360a 4F8C      		ldd r4,Y+31
 7513 360c 58A0      		ldd r5,Y+32
 7514 360e 8D8D      		ldd r24,Y+29
 7515 3610 9E8D      		ldd r25,Y+30
 7516 3612 AF8D      		ldd r26,Y+31
 7517 3614 B8A1      		ldd r27,Y+32
 7518 3616 BB0F      		lsl r27
 7519 3618 880B      		sbc r24,r24
 7520 361a 982F      		mov r25,r24
 7521 361c DC01      		movw r26,r24
 7522 361e 682E      		mov r6,r24
 7523 3620 782E      		mov r7,r24
 7524 3622 882E      		mov r8,r24
 7525 3624 982E      		mov r9,r24
 7526 3626 A984      		ldd r10,Y+9
 7527 3628 BA84      		ldd r11,Y+10
 7528 362a CB84      		ldd r12,Y+11
 7529 362c DC84      		ldd r13,Y+12
 7530 362e ED84      		ldd r14,Y+13
 7531 3630 FE84      		ldd r15,Y+14
 7532 3632 0F85      		ldd r16,Y+15
 7533 3634 1889      		ldd r17,Y+16
 7534 3636 222D      		mov r18,r2
 7535 3638 332D      		mov r19,r3
 7536 363a 442D      		mov r20,r4
 7537 363c 552D      		mov r21,r5
 7538 363e 662D      		mov r22,r6
 7539 3640 772D      		mov r23,r7
 7540 3642 882D      		mov r24,r8
 7541 3644 992D      		mov r25,r9
 7542 3646 0E94 0000 		call __muldi3
 7543 364a A22E      		mov r10,r18
 7544 364c B32E      		mov r11,r19
 7545 364e C42E      		mov r12,r20
 7546 3650 D52E      		mov r13,r21
 7547 3652 E62E      		mov r14,r22
 7548 3654 F72E      		mov r15,r23
 7549 3656 082F      		mov r16,r24
 7550 3658 192F      		mov r17,r25
 7551 365a 2A2C      		mov r2,r10
 7552 365c 3B2C      		mov r3,r11
 7553 365e 4C2C      		mov r4,r12
 7554 3660 5D2C      		mov r5,r13
 7555 3662 6E2C      		mov r6,r14
 7556 3664 7F2C      		mov r7,r15
 7557 3666 802E      		mov r8,r16
 7558 3668 912E      		mov r9,r17
 7559 366a 2981      		ldd r18,Y+1
 7560 366c 3A81      		ldd r19,Y+2
 7561 366e 4B81      		ldd r20,Y+3
 7562 3670 5C81      		ldd r21,Y+4
 7563 3672 6D81      		ldd r22,Y+5
 7564 3674 7E81      		ldd r23,Y+6
 7565 3676 8F81      		ldd r24,Y+7
 7566 3678 9885      		ldd r25,Y+8
 7567 367a A22C      		mov r10,r2
 7568 367c B32C      		mov r11,r3
 7569 367e C42C      		mov r12,r4
 7570 3680 D52C      		mov r13,r5
 7571 3682 E62C      		mov r14,r6
 7572 3684 F72C      		mov r15,r7
 7573 3686 082D      		mov r16,r8
 7574 3688 192D      		mov r17,r9
 7575 368a 0E94 0000 		call __adddi3
 7576 368e 2983      		std Y+1,r18
 7577 3690 3A83      		std Y+2,r19
 7578 3692 4B83      		std Y+3,r20
 7579 3694 5C83      		std Y+4,r21
 7580 3696 6D83      		std Y+5,r22
 7581 3698 7E83      		std Y+6,r23
 7582 369a 8F83      		std Y+7,r24
 7583 369c 9887      		std Y+8,r25
 669:adpcm.c       ****     return((int32_t)(pl >> 15));
 7584               		.loc 1 669 0
 7585 369e 2981      		ldd r18,Y+1
 7586 36a0 3A81      		ldd r19,Y+2
 7587 36a2 4B81      		ldd r20,Y+3
 7588 36a4 5C81      		ldd r21,Y+4
 7589 36a6 6D81      		ldd r22,Y+5
 7590 36a8 7E81      		ldd r23,Y+6
 7591 36aa 8F81      		ldd r24,Y+7
 7592 36ac 9885      		ldd r25,Y+8
 7593 36ae 0FE0      		ldi r16,lo8(15)
 7594 36b0 0E94 0000 		call __ashrdi3
 7595 36b4 A22E      		mov r10,r18
 7596 36b6 B32E      		mov r11,r19
 7597 36b8 C42E      		mov r12,r20
 7598 36ba D52E      		mov r13,r21
 7599 36bc E62E      		mov r14,r22
 7600 36be F72E      		mov r15,r23
 7601 36c0 082F      		mov r16,r24
 7602 36c2 192F      		mov r17,r25
 7603 36c4 D601      		movw r26,r12
 7604 36c6 C501      		movw r24,r10
 670:adpcm.c       **** }
 7605               		.loc 1 670 0
 7606 36c8 BC01      		movw r22,r24
 7607 36ca CD01      		movw r24,r26
 7608               	/* epilogue start */
 7609 36cc A896      		adiw r28,40
 7610 36ce 0FB6      		in __tmp_reg__,__SREG__
 7611 36d0 F894      		cli
 7612 36d2 DEBF      		out __SP_H__,r29
 7613 36d4 0FBE      		out __SREG__,__tmp_reg__
 7614 36d6 CDBF      		out __SP_L__,r28
 7615 36d8 DF91      		pop r29
 7616 36da CF91      		pop r28
 7617 36dc 1F91      		pop r17
 7618 36de 0F91      		pop r16
 7619 36e0 FF90      		pop r15
 7620 36e2 EF90      		pop r14
 7621 36e4 DF90      		pop r13
 7622 36e6 CF90      		pop r12
 7623 36e8 BF90      		pop r11
 7624 36ea AF90      		pop r10
 7625 36ec 9F90      		pop r9
 7626 36ee 8F90      		pop r8
 7627 36f0 7F90      		pop r7
 7628 36f2 6F90      		pop r6
 7629 36f4 5F90      		pop r5
 7630 36f6 4F90      		pop r4
 7631 36f8 3F90      		pop r3
 7632 36fa 2F90      		pop r2
 7633 36fc 0895      		ret
 7634               	.LFE9:
 7636               	.global	quantl
 7638               	quantl:
 7639               	.LFB10:
 671:adpcm.c       **** 
 672:adpcm.c       **** /* quantl - quantize the difference signal in the lower sub-band */
 673:adpcm.c       **** int32_t quantl(int32_t el,int32_t detl)
 674:adpcm.c       **** {
 7640               		.loc 1 674 0
 7641 36fe 2F92      		push r2
 7642               	.LCFI108:
 7643 3700 3F92      		push r3
 7644               	.LCFI109:
 7645 3702 4F92      		push r4
 7646               	.LCFI110:
 7647 3704 5F92      		push r5
 7648               	.LCFI111:
 7649 3706 6F92      		push r6
 7650               	.LCFI112:
 7651 3708 7F92      		push r7
 7652               	.LCFI113:
 7653 370a 8F92      		push r8
 7654               	.LCFI114:
 7655 370c 9F92      		push r9
 7656               	.LCFI115:
 7657 370e AF92      		push r10
 7658               	.LCFI116:
 7659 3710 BF92      		push r11
 7660               	.LCFI117:
 7661 3712 CF92      		push r12
 7662               	.LCFI118:
 7663 3714 DF92      		push r13
 7664               	.LCFI119:
 7665 3716 EF92      		push r14
 7666               	.LCFI120:
 7667 3718 FF92      		push r15
 7668               	.LCFI121:
 7669 371a 0F93      		push r16
 7670               	.LCFI122:
 7671 371c 1F93      		push r17
 7672               	.LCFI123:
 7673 371e CF93      		push r28
 7674               	.LCFI124:
 7675 3720 DF93      		push r29
 7676               	.LCFI125:
 7677 3722 CDB7      		in r28,__SP_L__
 7678 3724 DEB7      		in r29,__SP_H__
 7679               	.LCFI126:
 7680 3726 E097      		sbiw r28,48
 7681               	.LCFI127:
 7682 3728 0FB6      		in __tmp_reg__,__SREG__
 7683 372a F894      		cli
 7684 372c DEBF      		out __SP_H__,r29
 7685 372e 0FBE      		out __SREG__,__tmp_reg__
 7686 3730 CDBF      		out __SP_L__,r28
 7687               	/* prologue: function */
 7688               	/* frame size = 48 */
 7689               	/* stack size = 66 */
 7690               	.L__stack_usage = 66
 7691 3732 698F      		std Y+25,r22
 7692 3734 7A8F      		std Y+26,r23
 7693 3736 8B8F      		std Y+27,r24
 7694 3738 9C8F      		std Y+28,r25
 7695 373a 2D8F      		std Y+29,r18
 7696 373c 3E8F      		std Y+30,r19
 7697 373e 4F8F      		std Y+31,r20
 7698 3740 58A3      		std Y+32,r21
 675:adpcm.c       ****     int32_t ril,mil;
 676:adpcm.c       ****     int64_t  wd,decis;
 677:adpcm.c       **** 
 678:adpcm.c       **** /* abs of difference signal */
 679:adpcm.c       ****     wd = my_abs(el);
 7699               		.loc 1 679 0
 7700 3742 898D      		ldd r24,Y+25
 7701 3744 9A8D      		ldd r25,Y+26
 7702 3746 AB8D      		ldd r26,Y+27
 7703 3748 BC8D      		ldd r27,Y+28
 7704 374a BC01      		movw r22,r24
 7705 374c CD01      		movw r24,r26
 7706 374e 0E94 0000 		call my_abs
 7707 3752 DC01      		movw r26,r24
 7708 3754 CB01      		movw r24,r22
 7709 3756 8987      		std Y+9,r24
 7710 3758 9A87      		std Y+10,r25
 7711 375a AB87      		std Y+11,r26
 7712 375c BC87      		std Y+12,r27
 7713 375e BB0F      		lsl r27
 7714 3760 880B      		sbc r24,r24
 7715 3762 982F      		mov r25,r24
 7716 3764 DC01      		movw r26,r24
 7717 3766 8D87      		std Y+13,r24
 7718 3768 8E87      		std Y+14,r24
 7719 376a 8F87      		std Y+15,r24
 7720 376c 888B      		std Y+16,r24
 680:adpcm.c       **** /* determine mil based on decision levels and detl gain */
 681:adpcm.c       ****     /* MAX: 30 */
 682:adpcm.c       ****     for(mil = 0 ; mil < 30 ; mil++) {
 7721               		.loc 1 682 0
 7722 376e 1D82      		std Y+5,__zero_reg__
 7723 3770 1E82      		std Y+6,__zero_reg__
 7724 3772 1F82      		std Y+7,__zero_reg__
 7725 3774 1886      		std Y+8,__zero_reg__
 7726 3776 00C0      		rjmp .L51
 7727               	.L54:
 683:adpcm.c       ****         decis = (decis_levl[mil]*(int64_t)detl) >> 15L;
 7728               		.loc 1 683 0
 7729 3778 8D81      		ldd r24,Y+5
 7730 377a 9E81      		ldd r25,Y+6
 7731 377c 880F      		lsl r24
 7732 377e 991F      		rol r25
 7733 3780 880F      		lsl r24
 7734 3782 991F      		rol r25
 7735 3784 8050      		subi r24,lo8(-(decis_levl))
 7736 3786 9040      		sbci r25,hi8(-(decis_levl))
 7737 3788 FC01      		movw r30,r24
 7738 378a 8081      		ld r24,Z
 7739 378c 9181      		ldd r25,Z+1
 7740 378e A281      		ldd r26,Z+2
 7741 3790 B381      		ldd r27,Z+3
 7742 3792 89A3      		std Y+33,r24
 7743 3794 9AA3      		std Y+34,r25
 7744 3796 ABA3      		std Y+35,r26
 7745 3798 BCA3      		std Y+36,r27
 7746 379a BB0F      		lsl r27
 7747 379c 880B      		sbc r24,r24
 7748 379e 982F      		mov r25,r24
 7749 37a0 DC01      		movw r26,r24
 7750 37a2 8DA3      		std Y+37,r24
 7751 37a4 8EA3      		std Y+38,r24
 7752 37a6 8FA3      		std Y+39,r24
 7753 37a8 88A7      		std Y+40,r24
 7754 37aa 8D8D      		ldd r24,Y+29
 7755 37ac 9E8D      		ldd r25,Y+30
 7756 37ae AF8D      		ldd r26,Y+31
 7757 37b0 B8A1      		ldd r27,Y+32
 7758 37b2 89A7      		std Y+41,r24
 7759 37b4 9AA7      		std Y+42,r25
 7760 37b6 ABA7      		std Y+43,r26
 7761 37b8 BCA7      		std Y+44,r27
 7762 37ba 8D8D      		ldd r24,Y+29
 7763 37bc 9E8D      		ldd r25,Y+30
 7764 37be AF8D      		ldd r26,Y+31
 7765 37c0 B8A1      		ldd r27,Y+32
 7766 37c2 BB0F      		lsl r27
 7767 37c4 880B      		sbc r24,r24
 7768 37c6 982F      		mov r25,r24
 7769 37c8 DC01      		movw r26,r24
 7770 37ca 8DA7      		std Y+45,r24
 7771 37cc 8EA7      		std Y+46,r24
 7772 37ce 8FA7      		std Y+47,r24
 7773 37d0 88AB      		std Y+48,r24
 7774 37d2 A9A4      		ldd r10,Y+41
 7775 37d4 BAA4      		ldd r11,Y+42
 7776 37d6 CBA4      		ldd r12,Y+43
 7777 37d8 DCA4      		ldd r13,Y+44
 7778 37da EDA4      		ldd r14,Y+45
 7779 37dc FEA4      		ldd r15,Y+46
 7780 37de 0FA5      		ldd r16,Y+47
 7781 37e0 18A9      		ldd r17,Y+48
 7782 37e2 29A1      		ldd r18,Y+33
 7783 37e4 3AA1      		ldd r19,Y+34
 7784 37e6 4BA1      		ldd r20,Y+35
 7785 37e8 5CA1      		ldd r21,Y+36
 7786 37ea 6DA1      		ldd r22,Y+37
 7787 37ec 7EA1      		ldd r23,Y+38
 7788 37ee 8FA1      		ldd r24,Y+39
 7789 37f0 98A5      		ldd r25,Y+40
 7790 37f2 0E94 0000 		call __muldi3
 7791 37f6 222E      		mov r2,r18
 7792 37f8 332E      		mov r3,r19
 7793 37fa 442E      		mov r4,r20
 7794 37fc 552E      		mov r5,r21
 7795 37fe 662E      		mov r6,r22
 7796 3800 772E      		mov r7,r23
 7797 3802 882E      		mov r8,r24
 7798 3804 992E      		mov r9,r25
 7799 3806 A22C      		mov r10,r2
 7800 3808 B32C      		mov r11,r3
 7801 380a C42C      		mov r12,r4
 7802 380c D52C      		mov r13,r5
 7803 380e E62C      		mov r14,r6
 7804 3810 F72C      		mov r15,r7
 7805 3812 082D      		mov r16,r8
 7806 3814 192D      		mov r17,r9
 7807 3816 2A2D      		mov r18,r10
 7808 3818 3B2D      		mov r19,r11
 7809 381a 4C2D      		mov r20,r12
 7810 381c 5D2D      		mov r21,r13
 7811 381e 6E2D      		mov r22,r14
 7812 3820 7F2D      		mov r23,r15
 7813 3822 802F      		mov r24,r16
 7814 3824 912F      		mov r25,r17
 7815 3826 0FE0      		ldi r16,lo8(15)
 7816 3828 0E94 0000 		call __ashrdi3
 7817 382c 298B      		std Y+17,r18
 7818 382e 3A8B      		std Y+18,r19
 7819 3830 4B8B      		std Y+19,r20
 7820 3832 5C8B      		std Y+20,r21
 7821 3834 6D8B      		std Y+21,r22
 7822 3836 7E8B      		std Y+22,r23
 7823 3838 8F8B      		std Y+23,r24
 7824 383a 988F      		std Y+24,r25
 684:adpcm.c       ****         if(wd <= decis) break;
 7825               		.loc 1 684 0
 7826 383c A984      		ldd r10,Y+9
 7827 383e BA84      		ldd r11,Y+10
 7828 3840 CB84      		ldd r12,Y+11
 7829 3842 DC84      		ldd r13,Y+12
 7830 3844 ED84      		ldd r14,Y+13
 7831 3846 FE84      		ldd r15,Y+14
 7832 3848 0F85      		ldd r16,Y+15
 7833 384a 1889      		ldd r17,Y+16
 7834 384c 2988      		ldd r2,Y+17
 7835 384e 3A88      		ldd r3,Y+18
 7836 3850 4B88      		ldd r4,Y+19
 7837 3852 5C88      		ldd r5,Y+20
 7838 3854 6D88      		ldd r6,Y+21
 7839 3856 7E88      		ldd r7,Y+22
 7840 3858 8F88      		ldd r8,Y+23
 7841 385a 988C      		ldd r9,Y+24
 7842 385c 2A2D      		mov r18,r10
 7843 385e 3B2D      		mov r19,r11
 7844 3860 4C2D      		mov r20,r12
 7845 3862 5D2D      		mov r21,r13
 7846 3864 6E2D      		mov r22,r14
 7847 3866 7F2D      		mov r23,r15
 7848 3868 802F      		mov r24,r16
 7849 386a 912F      		mov r25,r17
 7850 386c A22C      		mov r10,r2
 7851 386e B32C      		mov r11,r3
 7852 3870 C42C      		mov r12,r4
 7853 3872 D52C      		mov r13,r5
 7854 3874 E62C      		mov r14,r6
 7855 3876 F72C      		mov r15,r7
 7856 3878 082D      		mov r16,r8
 7857 387a 192D      		mov r17,r9
 7858 387c 0E94 0000 		call __cmpdi2
 7859 3880 01F0      		breq .L58
 7860 3882 04F0      		brlt .L58
 7861               	.L52:
 682:adpcm.c       ****     for(mil = 0 ; mil < 30 ; mil++) {
 7862               		.loc 1 682 0
 7863 3884 8D81      		ldd r24,Y+5
 7864 3886 9E81      		ldd r25,Y+6
 7865 3888 AF81      		ldd r26,Y+7
 7866 388a B885      		ldd r27,Y+8
 7867 388c 0196      		adiw r24,1
 7868 388e A11D      		adc r26,__zero_reg__
 7869 3890 B11D      		adc r27,__zero_reg__
 7870 3892 8D83      		std Y+5,r24
 7871 3894 9E83      		std Y+6,r25
 7872 3896 AF83      		std Y+7,r26
 7873 3898 B887      		std Y+8,r27
 7874               	.L51:
 682:adpcm.c       ****     for(mil = 0 ; mil < 30 ; mil++) {
 7875               		.loc 1 682 0 is_stmt 0 discriminator 1
 7876 389a 8D81      		ldd r24,Y+5
 7877 389c 9E81      		ldd r25,Y+6
 7878 389e AF81      		ldd r26,Y+7
 7879 38a0 B885      		ldd r27,Y+8
 7880 38a2 8E31      		cpi r24,30
 7881 38a4 9105      		cpc r25,__zero_reg__
 7882 38a6 A105      		cpc r26,__zero_reg__
 7883 38a8 B105      		cpc r27,__zero_reg__
 7884 38aa 04F4      		brge .+2
 7885 38ac 00C0      		rjmp .L54
 7886 38ae 00C0      		rjmp .L53
 7887               	.L58:
 7888               		.loc 1 684 0 is_stmt 1
 7889 38b0 0000      		nop
 7890               	.L53:
 685:adpcm.c       ****     }
 686:adpcm.c       **** /* if mil=30 then wd is less than all decision levels */
 687:adpcm.c       ****     if(el >= 0) ril = quant26bt_pos[mil];
 7891               		.loc 1 687 0
 7892 38b2 898D      		ldd r24,Y+25
 7893 38b4 9A8D      		ldd r25,Y+26
 7894 38b6 AB8D      		ldd r26,Y+27
 7895 38b8 BC8D      		ldd r27,Y+28
 7896 38ba BB23      		tst r27
 7897 38bc 04F0      		brlt .L55
 7898               		.loc 1 687 0 is_stmt 0 discriminator 1
 7899 38be 8D81      		ldd r24,Y+5
 7900 38c0 9E81      		ldd r25,Y+6
 7901 38c2 880F      		lsl r24
 7902 38c4 991F      		rol r25
 7903 38c6 880F      		lsl r24
 7904 38c8 991F      		rol r25
 7905 38ca 8050      		subi r24,lo8(-(quant26bt_pos))
 7906 38cc 9040      		sbci r25,hi8(-(quant26bt_pos))
 7907 38ce FC01      		movw r30,r24
 7908 38d0 8081      		ld r24,Z
 7909 38d2 9181      		ldd r25,Z+1
 7910 38d4 A281      		ldd r26,Z+2
 7911 38d6 B381      		ldd r27,Z+3
 7912 38d8 8983      		std Y+1,r24
 7913 38da 9A83      		std Y+2,r25
 7914 38dc AB83      		std Y+3,r26
 7915 38de BC83      		std Y+4,r27
 7916 38e0 00C0      		rjmp .L56
 7917               	.L55:
 688:adpcm.c       ****     else ril = quant26bt_neg[mil];
 7918               		.loc 1 688 0 is_stmt 1
 7919 38e2 8D81      		ldd r24,Y+5
 7920 38e4 9E81      		ldd r25,Y+6
 7921 38e6 880F      		lsl r24
 7922 38e8 991F      		rol r25
 7923 38ea 880F      		lsl r24
 7924 38ec 991F      		rol r25
 7925 38ee 8050      		subi r24,lo8(-(quant26bt_neg))
 7926 38f0 9040      		sbci r25,hi8(-(quant26bt_neg))
 7927 38f2 FC01      		movw r30,r24
 7928 38f4 8081      		ld r24,Z
 7929 38f6 9181      		ldd r25,Z+1
 7930 38f8 A281      		ldd r26,Z+2
 7931 38fa B381      		ldd r27,Z+3
 7932 38fc 8983      		std Y+1,r24
 7933 38fe 9A83      		std Y+2,r25
 7934 3900 AB83      		std Y+3,r26
 7935 3902 BC83      		std Y+4,r27
 7936               	.L56:
 689:adpcm.c       ****     return(ril);
 7937               		.loc 1 689 0
 7938 3904 8981      		ldd r24,Y+1
 7939 3906 9A81      		ldd r25,Y+2
 7940 3908 AB81      		ldd r26,Y+3
 7941 390a BC81      		ldd r27,Y+4
 690:adpcm.c       **** }
 7942               		.loc 1 690 0
 7943 390c BC01      		movw r22,r24
 7944 390e CD01      		movw r24,r26
 7945               	/* epilogue start */
 7946 3910 E096      		adiw r28,48
 7947 3912 0FB6      		in __tmp_reg__,__SREG__
 7948 3914 F894      		cli
 7949 3916 DEBF      		out __SP_H__,r29
 7950 3918 0FBE      		out __SREG__,__tmp_reg__
 7951 391a CDBF      		out __SP_L__,r28
 7952 391c DF91      		pop r29
 7953 391e CF91      		pop r28
 7954 3920 1F91      		pop r17
 7955 3922 0F91      		pop r16
 7956 3924 FF90      		pop r15
 7957 3926 EF90      		pop r14
 7958 3928 DF90      		pop r13
 7959 392a CF90      		pop r12
 7960 392c BF90      		pop r11
 7961 392e AF90      		pop r10
 7962 3930 9F90      		pop r9
 7963 3932 8F90      		pop r8
 7964 3934 7F90      		pop r7
 7965 3936 6F90      		pop r6
 7966 3938 5F90      		pop r5
 7967 393a 4F90      		pop r4
 7968 393c 3F90      		pop r3
 7969 393e 2F90      		pop r2
 7970 3940 0895      		ret
 7971               	.LFE10:
 7973               	.global	logscl
 7975               	logscl:
 7976               	.LFB11:
 691:adpcm.c       **** 
 692:adpcm.c       **** /* invqxl is either invqbl or invqal depending on parameters passed */
 693:adpcm.c       **** /* returns dlt, code table is pre-multiplied by 8 */
 694:adpcm.c       **** 
 695:adpcm.c       **** /*    int32_t invqxl(int32_t il,int32_t detl,int32_t *code_table,int32_t mode) */
 696:adpcm.c       **** /*    { */
 697:adpcm.c       **** /*        int64_t  dlt; */
 698:adpcm.c       **** /*       dlt = (int64_t)detl*code_table[il >> (mode-1)]; */
 699:adpcm.c       **** /*        return((int32_t)(dlt >> 15)); */
 700:adpcm.c       **** /*    } */
 701:adpcm.c       **** 
 702:adpcm.c       **** /* logscl - update log quantizer scale factor in lower sub-band */
 703:adpcm.c       **** /* note that nbl is passed and returned */
 704:adpcm.c       **** 
 705:adpcm.c       **** int32_t logscl(int32_t il,int32_t nbl)
 706:adpcm.c       **** {
 7977               		.loc 1 706 0
 7978 3942 2F92      		push r2
 7979               	.LCFI128:
 7980 3944 3F92      		push r3
 7981               	.LCFI129:
 7982 3946 4F92      		push r4
 7983               	.LCFI130:
 7984 3948 5F92      		push r5
 7985               	.LCFI131:
 7986 394a 6F92      		push r6
 7987               	.LCFI132:
 7988 394c 7F92      		push r7
 7989               	.LCFI133:
 7990 394e 8F92      		push r8
 7991               	.LCFI134:
 7992 3950 9F92      		push r9
 7993               	.LCFI135:
 7994 3952 AF92      		push r10
 7995               	.LCFI136:
 7996 3954 BF92      		push r11
 7997               	.LCFI137:
 7998 3956 CF92      		push r12
 7999               	.LCFI138:
 8000 3958 DF92      		push r13
 8001               	.LCFI139:
 8002 395a EF92      		push r14
 8003               	.LCFI140:
 8004 395c FF92      		push r15
 8005               	.LCFI141:
 8006 395e 0F93      		push r16
 8007               	.LCFI142:
 8008 3960 1F93      		push r17
 8009               	.LCFI143:
 8010 3962 CF93      		push r28
 8011               	.LCFI144:
 8012 3964 DF93      		push r29
 8013               	.LCFI145:
 8014 3966 CDB7      		in r28,__SP_L__
 8015 3968 DEB7      		in r29,__SP_H__
 8016               	.LCFI146:
 8017 396a 6897      		sbiw r28,24
 8018               	.LCFI147:
 8019 396c 0FB6      		in __tmp_reg__,__SREG__
 8020 396e F894      		cli
 8021 3970 DEBF      		out __SP_H__,r29
 8022 3972 0FBE      		out __SREG__,__tmp_reg__
 8023 3974 CDBF      		out __SP_L__,r28
 8024               	/* prologue: function */
 8025               	/* frame size = 24 */
 8026               	/* stack size = 42 */
 8027               	.L__stack_usage = 42
 8028 3976 6987      		std Y+9,r22
 8029 3978 7A87      		std Y+10,r23
 8030 397a 8B87      		std Y+11,r24
 8031 397c 9C87      		std Y+12,r25
 8032 397e 2D87      		std Y+13,r18
 8033 3980 3E87      		std Y+14,r19
 8034 3982 4F87      		std Y+15,r20
 8035 3984 588B      		std Y+16,r21
 707:adpcm.c       ****     int64_t  wd;
 708:adpcm.c       ****     wd = ((int64_t)nbl * 127L) >> 7L;   /* line 706*/
 8036               		.loc 1 708 0
 8037 3986 2D84      		ldd r2,Y+13
 8038 3988 3E84      		ldd r3,Y+14
 8039 398a 4F84      		ldd r4,Y+15
 8040 398c 5888      		ldd r5,Y+16
 8041 398e 8D85      		ldd r24,Y+13
 8042 3990 9E85      		ldd r25,Y+14
 8043 3992 AF85      		ldd r26,Y+15
 8044 3994 B889      		ldd r27,Y+16
 8045 3996 BB0F      		lsl r27
 8046 3998 880B      		sbc r24,r24
 8047 399a 982F      		mov r25,r24
 8048 399c DC01      		movw r26,r24
 8049 399e 682E      		mov r6,r24
 8050 39a0 782E      		mov r7,r24
 8051 39a2 882E      		mov r8,r24
 8052 39a4 982E      		mov r9,r24
 8053 39a6 A22C      		mov r10,r2
 8054 39a8 B32C      		mov r11,r3
 8055 39aa C42C      		mov r12,r4
 8056 39ac D52C      		mov r13,r5
 8057 39ae E62C      		mov r14,r6
 8058 39b0 F72C      		mov r15,r7
 8059 39b2 082D      		mov r16,r8
 8060 39b4 192D      		mov r17,r9
 8061 39b6 2A2D      		mov r18,r10
 8062 39b8 3B2D      		mov r19,r11
 8063 39ba 4C2D      		mov r20,r12
 8064 39bc 5D2D      		mov r21,r13
 8065 39be 6E2D      		mov r22,r14
 8066 39c0 7F2D      		mov r23,r15
 8067 39c2 802F      		mov r24,r16
 8068 39c4 912F      		mov r25,r17
 8069 39c6 07E0      		ldi r16,lo8(7)
 8070 39c8 0E94 0000 		call __ashldi3
 8071 39cc 298B      		std Y+17,r18
 8072 39ce 3A8B      		std Y+18,r19
 8073 39d0 4B8B      		std Y+19,r20
 8074 39d2 5C8B      		std Y+20,r21
 8075 39d4 6D8B      		std Y+21,r22
 8076 39d6 7E8B      		std Y+22,r23
 8077 39d8 8F8B      		std Y+23,r24
 8078 39da 988F      		std Y+24,r25
 8079 39dc A988      		ldd r10,Y+17
 8080 39de BA88      		ldd r11,Y+18
 8081 39e0 CB88      		ldd r12,Y+19
 8082 39e2 DC88      		ldd r13,Y+20
 8083 39e4 ED88      		ldd r14,Y+21
 8084 39e6 FE88      		ldd r15,Y+22
 8085 39e8 0F89      		ldd r16,Y+23
 8086 39ea 188D      		ldd r17,Y+24
 8087 39ec 2A2D      		mov r18,r10
 8088 39ee 3B2D      		mov r19,r11
 8089 39f0 4C2D      		mov r20,r12
 8090 39f2 5D2D      		mov r21,r13
 8091 39f4 6E2D      		mov r22,r14
 8092 39f6 7F2D      		mov r23,r15
 8093 39f8 802F      		mov r24,r16
 8094 39fa 912F      		mov r25,r17
 8095 39fc A22C      		mov r10,r2
 8096 39fe B32C      		mov r11,r3
 8097 3a00 C42C      		mov r12,r4
 8098 3a02 D52C      		mov r13,r5
 8099 3a04 E62C      		mov r14,r6
 8100 3a06 F72C      		mov r15,r7
 8101 3a08 082D      		mov r16,r8
 8102 3a0a 192D      		mov r17,r9
 8103 3a0c 0E94 0000 		call __subdi3
 8104 3a10 A22E      		mov r10,r18
 8105 3a12 B32E      		mov r11,r19
 8106 3a14 C42E      		mov r12,r20
 8107 3a16 D52E      		mov r13,r21
 8108 3a18 E62E      		mov r14,r22
 8109 3a1a F72E      		mov r15,r23
 8110 3a1c 082F      		mov r16,r24
 8111 3a1e 192F      		mov r17,r25
 8112 3a20 2A2D      		mov r18,r10
 8113 3a22 3B2D      		mov r19,r11
 8114 3a24 4C2D      		mov r20,r12
 8115 3a26 5D2D      		mov r21,r13
 8116 3a28 6E2D      		mov r22,r14
 8117 3a2a 7F2D      		mov r23,r15
 8118 3a2c 802F      		mov r24,r16
 8119 3a2e 912F      		mov r25,r17
 8120 3a30 07E0      		ldi r16,lo8(7)
 8121 3a32 0E94 0000 		call __ashrdi3
 8122 3a36 2983      		std Y+1,r18
 8123 3a38 3A83      		std Y+2,r19
 8124 3a3a 4B83      		std Y+3,r20
 8125 3a3c 5C83      		std Y+4,r21
 8126 3a3e 6D83      		std Y+5,r22
 8127 3a40 7E83      		std Y+6,r23
 8128 3a42 8F83      		std Y+7,r24
 8129 3a44 9887      		std Y+8,r25
 709:adpcm.c       ****     nbl = (int32_t)wd + wl_code_table[il >> 2];
 8130               		.loc 1 709 0
 8131 3a46 2981      		ldd r18,Y+1
 8132 3a48 3A81      		ldd r19,Y+2
 8133 3a4a 4B81      		ldd r20,Y+3
 8134 3a4c 5C81      		ldd r21,Y+4
 8135 3a4e 8985      		ldd r24,Y+9
 8136 3a50 9A85      		ldd r25,Y+10
 8137 3a52 AB85      		ldd r26,Y+11
 8138 3a54 BC85      		ldd r27,Y+12
 8139 3a56 B595      		asr r27
 8140 3a58 A795      		ror r26
 8141 3a5a 9795      		ror r25
 8142 3a5c 8795      		ror r24
 8143 3a5e B595      		asr r27
 8144 3a60 A795      		ror r26
 8145 3a62 9795      		ror r25
 8146 3a64 8795      		ror r24
 8147 3a66 880F      		lsl r24
 8148 3a68 991F      		rol r25
 8149 3a6a 880F      		lsl r24
 8150 3a6c 991F      		rol r25
 8151 3a6e 8050      		subi r24,lo8(-(wl_code_table))
 8152 3a70 9040      		sbci r25,hi8(-(wl_code_table))
 8153 3a72 FC01      		movw r30,r24
 8154 3a74 8081      		ld r24,Z
 8155 3a76 9181      		ldd r25,Z+1
 8156 3a78 A281      		ldd r26,Z+2
 8157 3a7a B381      		ldd r27,Z+3
 8158 3a7c 820F      		add r24,r18
 8159 3a7e 931F      		adc r25,r19
 8160 3a80 A41F      		adc r26,r20
 8161 3a82 B51F      		adc r27,r21
 8162 3a84 8D87      		std Y+13,r24
 8163 3a86 9E87      		std Y+14,r25
 8164 3a88 AF87      		std Y+15,r26
 8165 3a8a B88B      		std Y+16,r27
 710:adpcm.c       ****     if(nbl < 0) nbl = 0;
 8166               		.loc 1 710 0
 8167 3a8c 8D85      		ldd r24,Y+13
 8168 3a8e 9E85      		ldd r25,Y+14
 8169 3a90 AF85      		ldd r26,Y+15
 8170 3a92 B889      		ldd r27,Y+16
 8171 3a94 BB23      		tst r27
 8172 3a96 04F4      		brge .L60
 8173               		.loc 1 710 0 is_stmt 0 discriminator 1
 8174 3a98 1D86      		std Y+13,__zero_reg__
 8175 3a9a 1E86      		std Y+14,__zero_reg__
 8176 3a9c 1F86      		std Y+15,__zero_reg__
 8177 3a9e 188A      		std Y+16,__zero_reg__
 8178               	.L60:
 711:adpcm.c       ****     if(nbl > 18432) nbl = 18432;
 8179               		.loc 1 711 0 is_stmt 1
 8180 3aa0 8D85      		ldd r24,Y+13
 8181 3aa2 9E85      		ldd r25,Y+14
 8182 3aa4 AF85      		ldd r26,Y+15
 8183 3aa6 B889      		ldd r27,Y+16
 8184 3aa8 8130      		cpi r24,1
 8185 3aaa F8E4      		ldi r31,72
 8186 3aac 9F07      		cpc r25,r31
 8187 3aae A105      		cpc r26,__zero_reg__
 8188 3ab0 B105      		cpc r27,__zero_reg__
 8189 3ab2 04F0      		brlt .L61
 8190               		.loc 1 711 0 is_stmt 0 discriminator 1
 8191 3ab4 80E0      		ldi r24,0
 8192 3ab6 98E4      		ldi r25,lo8(72)
 8193 3ab8 A0E0      		ldi r26,0
 8194 3aba B0E0      		ldi r27,0
 8195 3abc 8D87      		std Y+13,r24
 8196 3abe 9E87      		std Y+14,r25
 8197 3ac0 AF87      		std Y+15,r26
 8198 3ac2 B88B      		std Y+16,r27
 8199               	.L61:
 712:adpcm.c       ****     return(nbl);
 8200               		.loc 1 712 0 is_stmt 1
 8201 3ac4 8D85      		ldd r24,Y+13
 8202 3ac6 9E85      		ldd r25,Y+14
 8203 3ac8 AF85      		ldd r26,Y+15
 8204 3aca B889      		ldd r27,Y+16
 713:adpcm.c       **** }
 8205               		.loc 1 713 0
 8206 3acc BC01      		movw r22,r24
 8207 3ace CD01      		movw r24,r26
 8208               	/* epilogue start */
 8209 3ad0 6896      		adiw r28,24
 8210 3ad2 0FB6      		in __tmp_reg__,__SREG__
 8211 3ad4 F894      		cli
 8212 3ad6 DEBF      		out __SP_H__,r29
 8213 3ad8 0FBE      		out __SREG__,__tmp_reg__
 8214 3ada CDBF      		out __SP_L__,r28
 8215 3adc DF91      		pop r29
 8216 3ade CF91      		pop r28
 8217 3ae0 1F91      		pop r17
 8218 3ae2 0F91      		pop r16
 8219 3ae4 FF90      		pop r15
 8220 3ae6 EF90      		pop r14
 8221 3ae8 DF90      		pop r13
 8222 3aea CF90      		pop r12
 8223 3aec BF90      		pop r11
 8224 3aee AF90      		pop r10
 8225 3af0 9F90      		pop r9
 8226 3af2 8F90      		pop r8
 8227 3af4 7F90      		pop r7
 8228 3af6 6F90      		pop r6
 8229 3af8 5F90      		pop r5
 8230 3afa 4F90      		pop r4
 8231 3afc 3F90      		pop r3
 8232 3afe 2F90      		pop r2
 8233 3b00 0895      		ret
 8234               	.LFE11:
 8236               	.global	scalel
 8238               	scalel:
 8239               	.LFB12:
 714:adpcm.c       **** 
 715:adpcm.c       **** /* scalel: compute quantizer scale factor in lower or upper sub-band*/
 716:adpcm.c       **** 
 717:adpcm.c       **** int32_t scalel(int32_t nbl,int32_t shift_constant)
 718:adpcm.c       **** {
 8240               		.loc 1 718 0
 8241 3b02 CF93      		push r28
 8242               	.LCFI148:
 8243 3b04 DF93      		push r29
 8244               	.LCFI149:
 8245 3b06 CDB7      		in r28,__SP_L__
 8246 3b08 DEB7      		in r29,__SP_H__
 8247               	.LCFI150:
 8248 3b0a 6497      		sbiw r28,20
 8249               	.LCFI151:
 8250 3b0c 0FB6      		in __tmp_reg__,__SREG__
 8251 3b0e F894      		cli
 8252 3b10 DEBF      		out __SP_H__,r29
 8253 3b12 0FBE      		out __SREG__,__tmp_reg__
 8254 3b14 CDBF      		out __SP_L__,r28
 8255               	/* prologue: function */
 8256               	/* frame size = 20 */
 8257               	/* stack size = 22 */
 8258               	.L__stack_usage = 22
 8259 3b16 6D87      		std Y+13,r22
 8260 3b18 7E87      		std Y+14,r23
 8261 3b1a 8F87      		std Y+15,r24
 8262 3b1c 988B      		std Y+16,r25
 8263 3b1e 298B      		std Y+17,r18
 8264 3b20 3A8B      		std Y+18,r19
 8265 3b22 4B8B      		std Y+19,r20
 8266 3b24 5C8B      		std Y+20,r21
 719:adpcm.c       ****     int32_t wd1,wd2,wd3;
 720:adpcm.c       ****     wd1 = (nbl >> 6) & 31;
 8267               		.loc 1 720 0
 8268 3b26 8D85      		ldd r24,Y+13
 8269 3b28 9E85      		ldd r25,Y+14
 8270 3b2a AF85      		ldd r26,Y+15
 8271 3b2c B889      		ldd r27,Y+16
 8272 3b2e 6894      		set
 8273 3b30 15F8      		bld __zero_reg__,6-1
 8274               		1:
 8275 3b32 B595      		asr r27
 8276 3b34 A795      		ror r26
 8277 3b36 9795      		ror r25
 8278 3b38 8795      		ror r24
 8279 3b3a 1694      		lsr __zero_reg__
 8280 3b3c 01F4      		brne 1b
 8281 3b3e 8F71      		andi r24,31
 8282 3b40 9927      		clr r25
 8283 3b42 AA27      		clr r26
 8284 3b44 BB27      		clr r27
 8285 3b46 8983      		std Y+1,r24
 8286 3b48 9A83      		std Y+2,r25
 8287 3b4a AB83      		std Y+3,r26
 8288 3b4c BC83      		std Y+4,r27
 721:adpcm.c       ****     wd2 = nbl >> 11;
 8289               		.loc 1 721 0
 8290 3b4e 8D85      		ldd r24,Y+13
 8291 3b50 9E85      		ldd r25,Y+14
 8292 3b52 AF85      		ldd r26,Y+15
 8293 3b54 B889      		ldd r27,Y+16
 8294 3b56 072E      		mov r0,r23
 8295 3b58 7BE0      		ldi r23,11
 8296               		1:
 8297 3b5a B595      		asr r27
 8298 3b5c A795      		ror r26
 8299 3b5e 9795      		ror r25
 8300 3b60 8795      		ror r24
 8301 3b62 7A95      		dec r23
 8302 3b64 01F4      		brne 1b
 8303 3b66 702D      		mov r23,r0
 8304 3b68 8D83      		std Y+5,r24
 8305 3b6a 9E83      		std Y+6,r25
 8306 3b6c AF83      		std Y+7,r26
 8307 3b6e B887      		std Y+8,r27
 722:adpcm.c       ****     wd3 = ilb_table[wd1] >> (shift_constant + 1 - wd2);
 8308               		.loc 1 722 0
 8309 3b70 8981      		ldd r24,Y+1
 8310 3b72 9A81      		ldd r25,Y+2
 8311 3b74 880F      		lsl r24
 8312 3b76 991F      		rol r25
 8313 3b78 880F      		lsl r24
 8314 3b7a 991F      		rol r25
 8315 3b7c 8050      		subi r24,lo8(-(ilb_table))
 8316 3b7e 9040      		sbci r25,hi8(-(ilb_table))
 8317 3b80 FC01      		movw r30,r24
 8318 3b82 8081      		ld r24,Z
 8319 3b84 9181      		ldd r25,Z+1
 8320 3b86 A281      		ldd r26,Z+2
 8321 3b88 B381      		ldd r27,Z+3
 8322 3b8a 4989      		ldd r20,Y+17
 8323 3b8c 5A89      		ldd r21,Y+18
 8324 3b8e 2D81      		ldd r18,Y+5
 8325 3b90 3E81      		ldd r19,Y+6
 8326 3b92 BA01      		movw r22,r20
 8327 3b94 621B      		sub r22,r18
 8328 3b96 730B      		sbc r23,r19
 8329 3b98 9B01      		movw r18,r22
 8330 3b9a 2F5F      		subi r18,-1
 8331 3b9c 3F4F      		sbci r19,-1
 8332 3b9e 022E      		mov r0,r18
 8333 3ba0 00C0      		rjmp 2f
 8334               		1:
 8335 3ba2 B595      		asr r27
 8336 3ba4 A795      		ror r26
 8337 3ba6 9795      		ror r25
 8338 3ba8 8795      		ror r24
 8339               		2:
 8340 3baa 0A94      		dec r0
 8341 3bac 02F4      		brpl 1b
 8342 3bae 8987      		std Y+9,r24
 8343 3bb0 9A87      		std Y+10,r25
 8344 3bb2 AB87      		std Y+11,r26
 8345 3bb4 BC87      		std Y+12,r27
 723:adpcm.c       ****     return(wd3 << 3);
 8346               		.loc 1 723 0
 8347 3bb6 8985      		ldd r24,Y+9
 8348 3bb8 9A85      		ldd r25,Y+10
 8349 3bba AB85      		ldd r26,Y+11
 8350 3bbc BC85      		ldd r27,Y+12
 8351 3bbe 880F      		add r24,r24
 8352 3bc0 991F      		adc r25,r25
 8353 3bc2 AA1F      		adc r26,r26
 8354 3bc4 BB1F      		adc r27,r27
 8355 3bc6 880F      		add r24,r24
 8356 3bc8 991F      		adc r25,r25
 8357 3bca AA1F      		adc r26,r26
 8358 3bcc BB1F      		adc r27,r27
 8359 3bce 880F      		add r24,r24
 8360 3bd0 991F      		adc r25,r25
 8361 3bd2 AA1F      		adc r26,r26
 8362 3bd4 BB1F      		adc r27,r27
 724:adpcm.c       **** }
 8363               		.loc 1 724 0
 8364 3bd6 BC01      		movw r22,r24
 8365 3bd8 CD01      		movw r24,r26
 8366               	/* epilogue start */
 8367 3bda 6496      		adiw r28,20
 8368 3bdc 0FB6      		in __tmp_reg__,__SREG__
 8369 3bde F894      		cli
 8370 3be0 DEBF      		out __SP_H__,r29
 8371 3be2 0FBE      		out __SREG__,__tmp_reg__
 8372 3be4 CDBF      		out __SP_L__,r28
 8373 3be6 DF91      		pop r29
 8374 3be8 CF91      		pop r28
 8375 3bea 0895      		ret
 8376               	.LFE12:
 8378               	.global	upzero
 8380               	upzero:
 8381               	.LFB13:
 725:adpcm.c       **** 
 726:adpcm.c       **** /* upzero - inputs: dlt, dlti[0-5], bli[0-5], outputs: updated bli[0-5] */
 727:adpcm.c       **** /* also implements delay of bli and update of dlti from dlt */
 728:adpcm.c       **** 
 729:adpcm.c       **** void upzero(int32_t dlt,int32_t *dlti,int32_t *bli)
 730:adpcm.c       **** {
 8382               		.loc 1 730 0
 8383 3bec 2F92      		push r2
 8384               	.LCFI152:
 8385 3bee 3F92      		push r3
 8386               	.LCFI153:
 8387 3bf0 4F92      		push r4
 8388               	.LCFI154:
 8389 3bf2 5F92      		push r5
 8390               	.LCFI155:
 8391 3bf4 6F92      		push r6
 8392               	.LCFI156:
 8393 3bf6 7F92      		push r7
 8394               	.LCFI157:
 8395 3bf8 8F92      		push r8
 8396               	.LCFI158:
 8397 3bfa 9F92      		push r9
 8398               	.LCFI159:
 8399 3bfc AF92      		push r10
 8400               	.LCFI160:
 8401 3bfe BF92      		push r11
 8402               	.LCFI161:
 8403 3c00 CF92      		push r12
 8404               	.LCFI162:
 8405 3c02 DF92      		push r13
 8406               	.LCFI163:
 8407 3c04 EF92      		push r14
 8408               	.LCFI164:
 8409 3c06 FF92      		push r15
 8410               	.LCFI165:
 8411 3c08 0F93      		push r16
 8412               	.LCFI166:
 8413 3c0a 1F93      		push r17
 8414               	.LCFI167:
 8415 3c0c CF93      		push r28
 8416               	.LCFI168:
 8417 3c0e DF93      		push r29
 8418               	.LCFI169:
 8419 3c10 CDB7      		in r28,__SP_L__
 8420 3c12 DEB7      		in r29,__SP_H__
 8421               	.LCFI170:
 8422 3c14 A497      		sbiw r28,36
 8423               	.LCFI171:
 8424 3c16 0FB6      		in __tmp_reg__,__SREG__
 8425 3c18 F894      		cli
 8426 3c1a DEBF      		out __SP_H__,r29
 8427 3c1c 0FBE      		out __SREG__,__tmp_reg__
 8428 3c1e CDBF      		out __SP_L__,r28
 8429               	/* prologue: function */
 8430               	/* frame size = 36 */
 8431               	/* stack size = 54 */
 8432               	.L__stack_usage = 54
 8433 3c20 6D87      		std Y+13,r22
 8434 3c22 7E87      		std Y+14,r23
 8435 3c24 8F87      		std Y+15,r24
 8436 3c26 988B      		std Y+16,r25
 8437 3c28 5A8B      		std Y+18,r21
 8438 3c2a 498B      		std Y+17,r20
 8439 3c2c 3C8B      		std Y+20,r19
 8440 3c2e 2B8B      		std Y+19,r18
 731:adpcm.c       ****     int32_t i,wd2,wd3;
 732:adpcm.c       **** /*if dlt is zero, then no sum into bli */
 733:adpcm.c       ****     if(dlt == 0) {
 8441               		.loc 1 733 0
 8442 3c30 8D85      		ldd r24,Y+13
 8443 3c32 9E85      		ldd r25,Y+14
 8444 3c34 AF85      		ldd r26,Y+15
 8445 3c36 B889      		ldd r27,Y+16
 8446 3c38 0097      		sbiw r24,0
 8447 3c3a A105      		cpc r26,__zero_reg__
 8448 3c3c B105      		cpc r27,__zero_reg__
 8449 3c3e 01F0      		breq .+2
 8450 3c40 00C0      		rjmp .L66
 734:adpcm.c       ****       for(i = 0 ; i < 6 ; i++) {
 8451               		.loc 1 734 0
 8452 3c42 1982      		std Y+1,__zero_reg__
 8453 3c44 1A82      		std Y+2,__zero_reg__
 8454 3c46 1B82      		std Y+3,__zero_reg__
 8455 3c48 1C82      		std Y+4,__zero_reg__
 8456 3c4a 00C0      		rjmp .L67
 8457               	.L68:
 735:adpcm.c       ****         bli[i] = (int32_t)((255L*bli[i]) >> 8L); /* leak factor of 255/256 */
 8458               		.loc 1 735 0 discriminator 2
 8459 3c4c 8981      		ldd r24,Y+1
 8460 3c4e 9A81      		ldd r25,Y+2
 8461 3c50 880F      		lsl r24
 8462 3c52 991F      		rol r25
 8463 3c54 880F      		lsl r24
 8464 3c56 991F      		rol r25
 8465 3c58 2B89      		ldd r18,Y+19
 8466 3c5a 3C89      		ldd r19,Y+20
 8467 3c5c F901      		movw r30,r18
 8468 3c5e E80F      		add r30,r24
 8469 3c60 F91F      		adc r31,r25
 8470 3c62 8981      		ldd r24,Y+1
 8471 3c64 9A81      		ldd r25,Y+2
 8472 3c66 880F      		lsl r24
 8473 3c68 991F      		rol r25
 8474 3c6a 880F      		lsl r24
 8475 3c6c 991F      		rol r25
 8476 3c6e 2B89      		ldd r18,Y+19
 8477 3c70 3C89      		ldd r19,Y+20
 8478 3c72 820F      		add r24,r18
 8479 3c74 931F      		adc r25,r19
 8480 3c76 DC01      		movw r26,r24
 8481 3c78 2D91      		ld r18,X+
 8482 3c7a 3D91      		ld r19,X+
 8483 3c7c 4D91      		ld r20,X+
 8484 3c7e 5C91      		ld r21,X
 8485 3c80 8FEF      		ldi r24,lo8(-1)
 8486 3c82 90E0      		ldi r25,0
 8487 3c84 DC01      		movw r26,r24
 8488 3c86 0E94 0000 		call __muluhisi3
 8489 3c8a DC01      		movw r26,r24
 8490 3c8c CB01      		movw r24,r22
 8491 3c8e 892F      		mov r24,r25
 8492 3c90 9A2F      		mov r25,r26
 8493 3c92 AB2F      		mov r26,r27
 8494 3c94 BB27      		clr r27
 8495 3c96 A7FD      		sbrc r26,7
 8496 3c98 BA95      		dec r27
 8497 3c9a 8083      		st Z,r24
 8498 3c9c 9183      		std Z+1,r25
 8499 3c9e A283      		std Z+2,r26
 8500 3ca0 B383      		std Z+3,r27
 734:adpcm.c       ****       for(i = 0 ; i < 6 ; i++) {
 8501               		.loc 1 734 0 discriminator 2
 8502 3ca2 8981      		ldd r24,Y+1
 8503 3ca4 9A81      		ldd r25,Y+2
 8504 3ca6 AB81      		ldd r26,Y+3
 8505 3ca8 BC81      		ldd r27,Y+4
 8506 3caa 0196      		adiw r24,1
 8507 3cac A11D      		adc r26,__zero_reg__
 8508 3cae B11D      		adc r27,__zero_reg__
 8509 3cb0 8983      		std Y+1,r24
 8510 3cb2 9A83      		std Y+2,r25
 8511 3cb4 AB83      		std Y+3,r26
 8512 3cb6 BC83      		std Y+4,r27
 8513               	.L67:
 734:adpcm.c       ****       for(i = 0 ; i < 6 ; i++) {
 8514               		.loc 1 734 0 is_stmt 0 discriminator 1
 8515 3cb8 8981      		ldd r24,Y+1
 8516 3cba 9A81      		ldd r25,Y+2
 8517 3cbc AB81      		ldd r26,Y+3
 8518 3cbe BC81      		ldd r27,Y+4
 8519 3cc0 8630      		cpi r24,6
 8520 3cc2 9105      		cpc r25,__zero_reg__
 8521 3cc4 A105      		cpc r26,__zero_reg__
 8522 3cc6 B105      		cpc r27,__zero_reg__
 8523 3cc8 04F0      		brlt .L68
 734:adpcm.c       ****       for(i = 0 ; i < 6 ; i++) {
 8524               		.loc 1 734 0
 8525 3cca 00C0      		rjmp .L69
 8526               	.L66:
 736:adpcm.c       ****       }
 737:adpcm.c       ****     }
 738:adpcm.c       ****     else {
 739:adpcm.c       ****       for(i = 0 ; i < 6 ; i++) {
 8527               		.loc 1 739 0 is_stmt 1
 8528 3ccc 1982      		std Y+1,__zero_reg__
 8529 3cce 1A82      		std Y+2,__zero_reg__
 8530 3cd0 1B82      		std Y+3,__zero_reg__
 8531 3cd2 1C82      		std Y+4,__zero_reg__
 8532 3cd4 00C0      		rjmp .L70
 8533               	.L73:
 740:adpcm.c       ****         if((int64_t)dlt*dlti[i] >= 0) wd2 = 128; else wd2 = -128;
 8534               		.loc 1 740 0
 8535 3cd6 8D85      		ldd r24,Y+13
 8536 3cd8 9E85      		ldd r25,Y+14
 8537 3cda AF85      		ldd r26,Y+15
 8538 3cdc B889      		ldd r27,Y+16
 8539 3cde 8D8B      		std Y+21,r24
 8540 3ce0 9E8B      		std Y+22,r25
 8541 3ce2 AF8B      		std Y+23,r26
 8542 3ce4 B88F      		std Y+24,r27
 8543 3ce6 8D85      		ldd r24,Y+13
 8544 3ce8 9E85      		ldd r25,Y+14
 8545 3cea AF85      		ldd r26,Y+15
 8546 3cec B889      		ldd r27,Y+16
 8547 3cee BB0F      		lsl r27
 8548 3cf0 880B      		sbc r24,r24
 8549 3cf2 982F      		mov r25,r24
 8550 3cf4 DC01      		movw r26,r24
 8551 3cf6 898F      		std Y+25,r24
 8552 3cf8 8A8F      		std Y+26,r24
 8553 3cfa 8B8F      		std Y+27,r24
 8554 3cfc 8C8F      		std Y+28,r24
 8555 3cfe 8981      		ldd r24,Y+1
 8556 3d00 9A81      		ldd r25,Y+2
 8557 3d02 880F      		lsl r24
 8558 3d04 991F      		rol r25
 8559 3d06 880F      		lsl r24
 8560 3d08 991F      		rol r25
 8561 3d0a 2989      		ldd r18,Y+17
 8562 3d0c 3A89      		ldd r19,Y+18
 8563 3d0e 820F      		add r24,r18
 8564 3d10 931F      		adc r25,r19
 8565 3d12 FC01      		movw r30,r24
 8566 3d14 8081      		ld r24,Z
 8567 3d16 9181      		ldd r25,Z+1
 8568 3d18 A281      		ldd r26,Z+2
 8569 3d1a B381      		ldd r27,Z+3
 8570 3d1c 8D8F      		std Y+29,r24
 8571 3d1e 9E8F      		std Y+30,r25
 8572 3d20 AF8F      		std Y+31,r26
 8573 3d22 B8A3      		std Y+32,r27
 8574 3d24 BB0F      		lsl r27
 8575 3d26 880B      		sbc r24,r24
 8576 3d28 982F      		mov r25,r24
 8577 3d2a DC01      		movw r26,r24
 8578 3d2c 89A3      		std Y+33,r24
 8579 3d2e 8AA3      		std Y+34,r24
 8580 3d30 8BA3      		std Y+35,r24
 8581 3d32 8CA3      		std Y+36,r24
 8582 3d34 AD8C      		ldd r10,Y+29
 8583 3d36 BE8C      		ldd r11,Y+30
 8584 3d38 CF8C      		ldd r12,Y+31
 8585 3d3a D8A0      		ldd r13,Y+32
 8586 3d3c E9A0      		ldd r14,Y+33
 8587 3d3e FAA0      		ldd r15,Y+34
 8588 3d40 0BA1      		ldd r16,Y+35
 8589 3d42 1CA1      		ldd r17,Y+36
 8590 3d44 2D89      		ldd r18,Y+21
 8591 3d46 3E89      		ldd r19,Y+22
 8592 3d48 4F89      		ldd r20,Y+23
 8593 3d4a 588D      		ldd r21,Y+24
 8594 3d4c 698D      		ldd r22,Y+25
 8595 3d4e 7A8D      		ldd r23,Y+26
 8596 3d50 8B8D      		ldd r24,Y+27
 8597 3d52 9C8D      		ldd r25,Y+28
 8598 3d54 0E94 0000 		call __muldi3
 8599 3d58 222E      		mov r2,r18
 8600 3d5a 332E      		mov r3,r19
 8601 3d5c 442E      		mov r4,r20
 8602 3d5e 552E      		mov r5,r21
 8603 3d60 662E      		mov r6,r22
 8604 3d62 772E      		mov r7,r23
 8605 3d64 882E      		mov r8,r24
 8606 3d66 992E      		mov r9,r25
 8607 3d68 A22C      		mov r10,r2
 8608 3d6a B32C      		mov r11,r3
 8609 3d6c C42C      		mov r12,r4
 8610 3d6e D52C      		mov r13,r5
 8611 3d70 E62C      		mov r14,r6
 8612 3d72 F72C      		mov r15,r7
 8613 3d74 082D      		mov r16,r8
 8614 3d76 192D      		mov r17,r9
 8615 3d78 2A2D      		mov r18,r10
 8616 3d7a 3B2D      		mov r19,r11
 8617 3d7c 4C2D      		mov r20,r12
 8618 3d7e 5D2D      		mov r21,r13
 8619 3d80 6E2D      		mov r22,r14
 8620 3d82 7F2D      		mov r23,r15
 8621 3d84 802F      		mov r24,r16
 8622 3d86 912F      		mov r25,r17
 8623 3d88 A0E0      		ldi r26,0
 8624 3d8a 0E94 0000 		call __cmpdi2_s8
 8625 3d8e 04F0      		brlt .L71
 8626               		.loc 1 740 0 is_stmt 0 discriminator 1
 8627 3d90 80E8      		ldi r24,lo8(-128)
 8628 3d92 90E0      		ldi r25,0
 8629 3d94 A0E0      		ldi r26,0
 8630 3d96 B0E0      		ldi r27,0
 8631 3d98 8D83      		std Y+5,r24
 8632 3d9a 9E83      		std Y+6,r25
 8633 3d9c AF83      		std Y+7,r26
 8634 3d9e B887      		std Y+8,r27
 8635 3da0 00C0      		rjmp .L72
 8636               	.L71:
 8637               		.loc 1 740 0 discriminator 2
 8638 3da2 80E8      		ldi r24,lo8(-128)
 8639 3da4 9FEF      		ldi r25,lo8(-1)
 8640 3da6 AFEF      		ldi r26,lo8(-1)
 8641 3da8 BFEF      		ldi r27,lo8(-1)
 8642 3daa 8D83      		std Y+5,r24
 8643 3dac 9E83      		std Y+6,r25
 8644 3dae AF83      		std Y+7,r26
 8645 3db0 B887      		std Y+8,r27
 8646               	.L72:
 741:adpcm.c       ****         wd3 = (int32_t)((255L*bli[i]) >> 8L);    /* leak factor of 255/256 */
 8647               		.loc 1 741 0 is_stmt 1
 8648 3db2 8981      		ldd r24,Y+1
 8649 3db4 9A81      		ldd r25,Y+2
 8650 3db6 880F      		lsl r24
 8651 3db8 991F      		rol r25
 8652 3dba 880F      		lsl r24
 8653 3dbc 991F      		rol r25
 8654 3dbe 2B89      		ldd r18,Y+19
 8655 3dc0 3C89      		ldd r19,Y+20
 8656 3dc2 820F      		add r24,r18
 8657 3dc4 931F      		adc r25,r19
 8658 3dc6 DC01      		movw r26,r24
 8659 3dc8 2D91      		ld r18,X+
 8660 3dca 3D91      		ld r19,X+
 8661 3dcc 4D91      		ld r20,X+
 8662 3dce 5C91      		ld r21,X
 8663 3dd0 8FEF      		ldi r24,lo8(-1)
 8664 3dd2 90E0      		ldi r25,0
 8665 3dd4 DC01      		movw r26,r24
 8666 3dd6 0E94 0000 		call __muluhisi3
 8667 3dda DC01      		movw r26,r24
 8668 3ddc CB01      		movw r24,r22
 8669 3dde 892F      		mov r24,r25
 8670 3de0 9A2F      		mov r25,r26
 8671 3de2 AB2F      		mov r26,r27
 8672 3de4 BB27      		clr r27
 8673 3de6 A7FD      		sbrc r26,7
 8674 3de8 BA95      		dec r27
 8675 3dea 8987      		std Y+9,r24
 8676 3dec 9A87      		std Y+10,r25
 8677 3dee AB87      		std Y+11,r26
 8678 3df0 BC87      		std Y+12,r27
 742:adpcm.c       ****         bli[i] = wd2 + wd3;
 8679               		.loc 1 742 0
 8680 3df2 8981      		ldd r24,Y+1
 8681 3df4 9A81      		ldd r25,Y+2
 8682 3df6 880F      		lsl r24
 8683 3df8 991F      		rol r25
 8684 3dfa 880F      		lsl r24
 8685 3dfc 991F      		rol r25
 8686 3dfe 2B89      		ldd r18,Y+19
 8687 3e00 3C89      		ldd r19,Y+20
 8688 3e02 B901      		movw r22,r18
 8689 3e04 680F      		add r22,r24
 8690 3e06 791F      		adc r23,r25
 8691 3e08 2D81      		ldd r18,Y+5
 8692 3e0a 3E81      		ldd r19,Y+6
 8693 3e0c 4F81      		ldd r20,Y+7
 8694 3e0e 5885      		ldd r21,Y+8
 8695 3e10 8985      		ldd r24,Y+9
 8696 3e12 9A85      		ldd r25,Y+10
 8697 3e14 AB85      		ldd r26,Y+11
 8698 3e16 BC85      		ldd r27,Y+12
 8699 3e18 820F      		add r24,r18
 8700 3e1a 931F      		adc r25,r19
 8701 3e1c A41F      		adc r26,r20
 8702 3e1e B51F      		adc r27,r21
 8703 3e20 FB01      		movw r30,r22
 8704 3e22 8083      		st Z,r24
 8705 3e24 9183      		std Z+1,r25
 8706 3e26 A283      		std Z+2,r26
 8707 3e28 B383      		std Z+3,r27
 739:adpcm.c       ****       for(i = 0 ; i < 6 ; i++) {
 8708               		.loc 1 739 0
 8709 3e2a 8981      		ldd r24,Y+1
 8710 3e2c 9A81      		ldd r25,Y+2
 8711 3e2e AB81      		ldd r26,Y+3
 8712 3e30 BC81      		ldd r27,Y+4
 8713 3e32 0196      		adiw r24,1
 8714 3e34 A11D      		adc r26,__zero_reg__
 8715 3e36 B11D      		adc r27,__zero_reg__
 8716 3e38 8983      		std Y+1,r24
 8717 3e3a 9A83      		std Y+2,r25
 8718 3e3c AB83      		std Y+3,r26
 8719 3e3e BC83      		std Y+4,r27
 8720               	.L70:
 739:adpcm.c       ****       for(i = 0 ; i < 6 ; i++) {
 8721               		.loc 1 739 0 is_stmt 0 discriminator 1
 8722 3e40 8981      		ldd r24,Y+1
 8723 3e42 9A81      		ldd r25,Y+2
 8724 3e44 AB81      		ldd r26,Y+3
 8725 3e46 BC81      		ldd r27,Y+4
 8726 3e48 8630      		cpi r24,6
 8727 3e4a 9105      		cpc r25,__zero_reg__
 8728 3e4c A105      		cpc r26,__zero_reg__
 8729 3e4e B105      		cpc r27,__zero_reg__
 8730 3e50 04F4      		brge .+2
 8731 3e52 00C0      		rjmp .L73
 8732               	.L69:
 743:adpcm.c       ****       }
 744:adpcm.c       ****     }
 745:adpcm.c       **** /* implement delay line for dlt */
 746:adpcm.c       ****     dlti[5] = dlti[4];
 8733               		.loc 1 746 0 is_stmt 1
 8734 3e54 8989      		ldd r24,Y+17
 8735 3e56 9A89      		ldd r25,Y+18
 8736 3e58 9C01      		movw r18,r24
 8737 3e5a 2C5E      		subi r18,-20
 8738 3e5c 3F4F      		sbci r19,-1
 8739 3e5e 8989      		ldd r24,Y+17
 8740 3e60 9A89      		ldd r25,Y+18
 8741 3e62 FC01      		movw r30,r24
 8742 3e64 8089      		ldd r24,Z+16
 8743 3e66 9189      		ldd r25,Z+17
 8744 3e68 A289      		ldd r26,Z+18
 8745 3e6a B389      		ldd r27,Z+19
 8746 3e6c F901      		movw r30,r18
 8747 3e6e 8083      		st Z,r24
 8748 3e70 9183      		std Z+1,r25
 8749 3e72 A283      		std Z+2,r26
 8750 3e74 B383      		std Z+3,r27
 747:adpcm.c       ****     dlti[4] = dlti[3];
 8751               		.loc 1 747 0
 8752 3e76 8989      		ldd r24,Y+17
 8753 3e78 9A89      		ldd r25,Y+18
 8754 3e7a 9C01      		movw r18,r24
 8755 3e7c 205F      		subi r18,-16
 8756 3e7e 3F4F      		sbci r19,-1
 8757 3e80 8989      		ldd r24,Y+17
 8758 3e82 9A89      		ldd r25,Y+18
 8759 3e84 FC01      		movw r30,r24
 8760 3e86 8485      		ldd r24,Z+12
 8761 3e88 9585      		ldd r25,Z+13
 8762 3e8a A685      		ldd r26,Z+14
 8763 3e8c B785      		ldd r27,Z+15
 8764 3e8e F901      		movw r30,r18
 8765 3e90 8083      		st Z,r24
 8766 3e92 9183      		std Z+1,r25
 8767 3e94 A283      		std Z+2,r26
 8768 3e96 B383      		std Z+3,r27
 748:adpcm.c       ****     dlti[3] = dlti[2];
 8769               		.loc 1 748 0
 8770 3e98 8989      		ldd r24,Y+17
 8771 3e9a 9A89      		ldd r25,Y+18
 8772 3e9c 9C01      		movw r18,r24
 8773 3e9e 245F      		subi r18,-12
 8774 3ea0 3F4F      		sbci r19,-1
 8775 3ea2 8989      		ldd r24,Y+17
 8776 3ea4 9A89      		ldd r25,Y+18
 8777 3ea6 FC01      		movw r30,r24
 8778 3ea8 8085      		ldd r24,Z+8
 8779 3eaa 9185      		ldd r25,Z+9
 8780 3eac A285      		ldd r26,Z+10
 8781 3eae B385      		ldd r27,Z+11
 8782 3eb0 F901      		movw r30,r18
 8783 3eb2 8083      		st Z,r24
 8784 3eb4 9183      		std Z+1,r25
 8785 3eb6 A283      		std Z+2,r26
 8786 3eb8 B383      		std Z+3,r27
 749:adpcm.c       ****     dlti[1] = dlti[0];
 8787               		.loc 1 749 0
 8788 3eba 8989      		ldd r24,Y+17
 8789 3ebc 9A89      		ldd r25,Y+18
 8790 3ebe 9C01      		movw r18,r24
 8791 3ec0 2C5F      		subi r18,-4
 8792 3ec2 3F4F      		sbci r19,-1
 8793 3ec4 8989      		ldd r24,Y+17
 8794 3ec6 9A89      		ldd r25,Y+18
 8795 3ec8 FC01      		movw r30,r24
 8796 3eca 8081      		ld r24,Z
 8797 3ecc 9181      		ldd r25,Z+1
 8798 3ece A281      		ldd r26,Z+2
 8799 3ed0 B381      		ldd r27,Z+3
 8800 3ed2 F901      		movw r30,r18
 8801 3ed4 8083      		st Z,r24
 8802 3ed6 9183      		std Z+1,r25
 8803 3ed8 A283      		std Z+2,r26
 8804 3eda B383      		std Z+3,r27
 750:adpcm.c       ****     dlti[0] = dlt;
 8805               		.loc 1 750 0
 8806 3edc 2989      		ldd r18,Y+17
 8807 3ede 3A89      		ldd r19,Y+18
 8808 3ee0 8D85      		ldd r24,Y+13
 8809 3ee2 9E85      		ldd r25,Y+14
 8810 3ee4 AF85      		ldd r26,Y+15
 8811 3ee6 B889      		ldd r27,Y+16
 8812 3ee8 F901      		movw r30,r18
 8813 3eea 8083      		st Z,r24
 8814 3eec 9183      		std Z+1,r25
 8815 3eee A283      		std Z+2,r26
 8816 3ef0 B383      		std Z+3,r27
 751:adpcm.c       ****     return;
 8817               		.loc 1 751 0
 8818 3ef2 0000      		nop
 8819               	/* epilogue start */
 752:adpcm.c       **** }
 8820               		.loc 1 752 0
 8821 3ef4 A496      		adiw r28,36
 8822 3ef6 0FB6      		in __tmp_reg__,__SREG__
 8823 3ef8 F894      		cli
 8824 3efa DEBF      		out __SP_H__,r29
 8825 3efc 0FBE      		out __SREG__,__tmp_reg__
 8826 3efe CDBF      		out __SP_L__,r28
 8827 3f00 DF91      		pop r29
 8828 3f02 CF91      		pop r28
 8829 3f04 1F91      		pop r17
 8830 3f06 0F91      		pop r16
 8831 3f08 FF90      		pop r15
 8832 3f0a EF90      		pop r14
 8833 3f0c DF90      		pop r13
 8834 3f0e CF90      		pop r12
 8835 3f10 BF90      		pop r11
 8836 3f12 AF90      		pop r10
 8837 3f14 9F90      		pop r9
 8838 3f16 8F90      		pop r8
 8839 3f18 7F90      		pop r7
 8840 3f1a 6F90      		pop r6
 8841 3f1c 5F90      		pop r5
 8842 3f1e 4F90      		pop r4
 8843 3f20 3F90      		pop r3
 8844 3f22 2F90      		pop r2
 8845 3f24 0895      		ret
 8846               	.LFE13:
 8848               	.global	uppol2
 8850               	uppol2:
 8851               	.LFB14:
 753:adpcm.c       **** 
 754:adpcm.c       **** /* uppol2 - update second predictor coefficient (pole section) */
 755:adpcm.c       **** /* inputs: al1, al2, plt, plt1, plt2. outputs: apl2 */
 756:adpcm.c       **** 
 757:adpcm.c       **** int32_t uppol2(int32_t al1,int32_t al2,int32_t plt,int32_t plt1,int32_t plt2)
 758:adpcm.c       **** {
 8852               		.loc 1 758 0
 8853 3f26 2F92      		push r2
 8854               	.LCFI172:
 8855 3f28 3F92      		push r3
 8856               	.LCFI173:
 8857 3f2a 4F92      		push r4
 8858               	.LCFI174:
 8859 3f2c 5F92      		push r5
 8860               	.LCFI175:
 8861 3f2e 6F92      		push r6
 8862               	.LCFI176:
 8863 3f30 7F92      		push r7
 8864               	.LCFI177:
 8865 3f32 8F92      		push r8
 8866               	.LCFI178:
 8867 3f34 9F92      		push r9
 8868               	.LCFI179:
 8869 3f36 AF92      		push r10
 8870               	.LCFI180:
 8871 3f38 BF92      		push r11
 8872               	.LCFI181:
 8873 3f3a CF92      		push r12
 8874               	.LCFI182:
 8875 3f3c DF92      		push r13
 8876               	.LCFI183:
 8877 3f3e EF92      		push r14
 8878               	.LCFI184:
 8879 3f40 FF92      		push r15
 8880               	.LCFI185:
 8881 3f42 0F93      		push r16
 8882               	.LCFI186:
 8883 3f44 1F93      		push r17
 8884               	.LCFI187:
 8885 3f46 CF93      		push r28
 8886               	.LCFI188:
 8887 3f48 DF93      		push r29
 8888               	.LCFI189:
 8889 3f4a CDB7      		in r28,__SP_L__
 8890 3f4c DEB7      		in r29,__SP_H__
 8891               	.LCFI190:
 8892 3f4e CC54      		subi r28,76
 8893 3f50 D109      		sbc r29,__zero_reg__
 8894               	.LCFI191:
 8895 3f52 0FB6      		in __tmp_reg__,__SREG__
 8896 3f54 F894      		cli
 8897 3f56 DEBF      		out __SP_H__,r29
 8898 3f58 0FBE      		out __SREG__,__tmp_reg__
 8899 3f5a CDBF      		out __SP_L__,r28
 8900               	/* prologue: function */
 8901               	/* frame size = 76 */
 8902               	/* stack size = 94 */
 8903               	.L__stack_usage = 94
 8904 3f5c 6D8B      		std Y+21,r22
 8905 3f5e 7E8B      		std Y+22,r23
 8906 3f60 8F8B      		std Y+23,r24
 8907 3f62 988F      		std Y+24,r25
 8908 3f64 298F      		std Y+25,r18
 8909 3f66 3A8F      		std Y+26,r19
 8910 3f68 4B8F      		std Y+27,r20
 8911 3f6a 5C8F      		std Y+28,r21
 8912 3f6c ED8E      		std Y+29,r14
 8913 3f6e FE8E      		std Y+30,r15
 8914 3f70 0F8F      		std Y+31,r16
 8915 3f72 18A3      		std Y+32,r17
 8916 3f74 A9A2      		std Y+33,r10
 8917 3f76 BAA2      		std Y+34,r11
 8918 3f78 CBA2      		std Y+35,r12
 8919 3f7a DCA2      		std Y+36,r13
 759:adpcm.c       ****     int64_t  wd2,wd4;
 760:adpcm.c       ****     int32_t apl2;
 761:adpcm.c       ****     wd2 = 4L*(int64_t)al1;
 8920               		.loc 1 761 0
 8921 3f7c 2D88      		ldd r2,Y+21
 8922 3f7e 3E88      		ldd r3,Y+22
 8923 3f80 4F88      		ldd r4,Y+23
 8924 3f82 588C      		ldd r5,Y+24
 8925 3f84 8D89      		ldd r24,Y+21
 8926 3f86 9E89      		ldd r25,Y+22
 8927 3f88 AF89      		ldd r26,Y+23
 8928 3f8a B88D      		ldd r27,Y+24
 8929 3f8c BB0F      		lsl r27
 8930 3f8e 880B      		sbc r24,r24
 8931 3f90 982F      		mov r25,r24
 8932 3f92 DC01      		movw r26,r24
 8933 3f94 682E      		mov r6,r24
 8934 3f96 782E      		mov r7,r24
 8935 3f98 882E      		mov r8,r24
 8936 3f9a 982E      		mov r9,r24
 8937 3f9c 222D      		mov r18,r2
 8938 3f9e 332D      		mov r19,r3
 8939 3fa0 442D      		mov r20,r4
 8940 3fa2 552D      		mov r21,r5
 8941 3fa4 662D      		mov r22,r6
 8942 3fa6 772D      		mov r23,r7
 8943 3fa8 882D      		mov r24,r8
 8944 3faa 992D      		mov r25,r9
 8945 3fac 02E0      		ldi r16,lo8(2)
 8946 3fae 0E94 0000 		call __ashldi3
 8947 3fb2 2983      		std Y+1,r18
 8948 3fb4 3A83      		std Y+2,r19
 8949 3fb6 4B83      		std Y+3,r20
 8950 3fb8 5C83      		std Y+4,r21
 8951 3fba 6D83      		std Y+5,r22
 8952 3fbc 7E83      		std Y+6,r23
 8953 3fbe 8F83      		std Y+7,r24
 8954 3fc0 9887      		std Y+8,r25
 762:adpcm.c       ****     if((int64_t)plt*plt1 >= 0L) wd2 = -wd2;    /* check same sign */
 8955               		.loc 1 762 0
 8956 3fc2 8D8D      		ldd r24,Y+29
 8957 3fc4 9E8D      		ldd r25,Y+30
 8958 3fc6 AF8D      		ldd r26,Y+31
 8959 3fc8 B8A1      		ldd r27,Y+32
 8960 3fca 8DA3      		std Y+37,r24
 8961 3fcc 9EA3      		std Y+38,r25
 8962 3fce AFA3      		std Y+39,r26
 8963 3fd0 B8A7      		std Y+40,r27
 8964 3fd2 8D8D      		ldd r24,Y+29
 8965 3fd4 9E8D      		ldd r25,Y+30
 8966 3fd6 AF8D      		ldd r26,Y+31
 8967 3fd8 B8A1      		ldd r27,Y+32
 8968 3fda BB0F      		lsl r27
 8969 3fdc 880B      		sbc r24,r24
 8970 3fde 982F      		mov r25,r24
 8971 3fe0 DC01      		movw r26,r24
 8972 3fe2 89A7      		std Y+41,r24
 8973 3fe4 8AA7      		std Y+42,r24
 8974 3fe6 8BA7      		std Y+43,r24
 8975 3fe8 8CA7      		std Y+44,r24
 8976 3fea 89A1      		ldd r24,Y+33
 8977 3fec 9AA1      		ldd r25,Y+34
 8978 3fee ABA1      		ldd r26,Y+35
 8979 3ff0 BCA1      		ldd r27,Y+36
 8980 3ff2 8DA7      		std Y+45,r24
 8981 3ff4 9EA7      		std Y+46,r25
 8982 3ff6 AFA7      		std Y+47,r26
 8983 3ff8 B8AB      		std Y+48,r27
 8984 3ffa 89A1      		ldd r24,Y+33
 8985 3ffc 9AA1      		ldd r25,Y+34
 8986 3ffe ABA1      		ldd r26,Y+35
 8987 4000 BCA1      		ldd r27,Y+36
 8988 4002 BB0F      		lsl r27
 8989 4004 880B      		sbc r24,r24
 8990 4006 982F      		mov r25,r24
 8991 4008 DC01      		movw r26,r24
 8992 400a 89AB      		std Y+49,r24
 8993 400c 8AAB      		std Y+50,r24
 8994 400e 8BAB      		std Y+51,r24
 8995 4010 8CAB      		std Y+52,r24
 8996 4012 ADA4      		ldd r10,Y+45
 8997 4014 BEA4      		ldd r11,Y+46
 8998 4016 CFA4      		ldd r12,Y+47
 8999 4018 D8A8      		ldd r13,Y+48
 9000 401a E9A8      		ldd r14,Y+49
 9001 401c FAA8      		ldd r15,Y+50
 9002 401e 0BA9      		ldd r16,Y+51
 9003 4020 1CA9      		ldd r17,Y+52
 9004 4022 2DA1      		ldd r18,Y+37
 9005 4024 3EA1      		ldd r19,Y+38
 9006 4026 4FA1      		ldd r20,Y+39
 9007 4028 58A5      		ldd r21,Y+40
 9008 402a 69A5      		ldd r22,Y+41
 9009 402c 7AA5      		ldd r23,Y+42
 9010 402e 8BA5      		ldd r24,Y+43
 9011 4030 9CA5      		ldd r25,Y+44
 9012 4032 0E94 0000 		call __muldi3
 9013 4036 222E      		mov r2,r18
 9014 4038 332E      		mov r3,r19
 9015 403a 442E      		mov r4,r20
 9016 403c 552E      		mov r5,r21
 9017 403e 662E      		mov r6,r22
 9018 4040 772E      		mov r7,r23
 9019 4042 882E      		mov r8,r24
 9020 4044 992E      		mov r9,r25
 9021 4046 A22C      		mov r10,r2
 9022 4048 B32C      		mov r11,r3
 9023 404a C42C      		mov r12,r4
 9024 404c D52C      		mov r13,r5
 9025 404e E62C      		mov r14,r6
 9026 4050 F72C      		mov r15,r7
 9027 4052 082D      		mov r16,r8
 9028 4054 192D      		mov r17,r9
 9029 4056 2A2D      		mov r18,r10
 9030 4058 3B2D      		mov r19,r11
 9031 405a 4C2D      		mov r20,r12
 9032 405c 5D2D      		mov r21,r13
 9033 405e 6E2D      		mov r22,r14
 9034 4060 7F2D      		mov r23,r15
 9035 4062 802F      		mov r24,r16
 9036 4064 912F      		mov r25,r17
 9037 4066 A0E0      		ldi r26,0
 9038 4068 0E94 0000 		call __cmpdi2_s8
 9039 406c 04F0      		brlt .L76
 9040               		.loc 1 762 0 is_stmt 0 discriminator 1
 9041 406e 2981      		ldd r18,Y+1
 9042 4070 3A81      		ldd r19,Y+2
 9043 4072 4B81      		ldd r20,Y+3
 9044 4074 5C81      		ldd r21,Y+4
 9045 4076 6D81      		ldd r22,Y+5
 9046 4078 7E81      		ldd r23,Y+6
 9047 407a 8F81      		ldd r24,Y+7
 9048 407c 9885      		ldd r25,Y+8
 9049 407e 0E94 0000 		call __negdi2
 9050 4082 2983      		std Y+1,r18
 9051 4084 3A83      		std Y+2,r19
 9052 4086 4B83      		std Y+3,r20
 9053 4088 5C83      		std Y+4,r21
 9054 408a 6D83      		std Y+5,r22
 9055 408c 7E83      		std Y+6,r23
 9056 408e 8F83      		std Y+7,r24
 9057 4090 9887      		std Y+8,r25
 9058               	.L76:
 763:adpcm.c       ****     wd2 = wd2 >> 7;                  /* gain of 1/128 */
 9059               		.loc 1 763 0 is_stmt 1
 9060 4092 2981      		ldd r18,Y+1
 9061 4094 3A81      		ldd r19,Y+2
 9062 4096 4B81      		ldd r20,Y+3
 9063 4098 5C81      		ldd r21,Y+4
 9064 409a 6D81      		ldd r22,Y+5
 9065 409c 7E81      		ldd r23,Y+6
 9066 409e 8F81      		ldd r24,Y+7
 9067 40a0 9885      		ldd r25,Y+8
 9068 40a2 07E0      		ldi r16,lo8(7)
 9069 40a4 0E94 0000 		call __ashrdi3
 9070 40a8 2983      		std Y+1,r18
 9071 40aa 3A83      		std Y+2,r19
 9072 40ac 4B83      		std Y+3,r20
 9073 40ae 5C83      		std Y+4,r21
 9074 40b0 6D83      		std Y+5,r22
 9075 40b2 7E83      		std Y+6,r23
 9076 40b4 8F83      		std Y+7,r24
 9077 40b6 9887      		std Y+8,r25
 764:adpcm.c       ****     if((int64_t)plt*plt2 >= 0L) {
 9078               		.loc 1 764 0
 9079 40b8 8D8D      		ldd r24,Y+29
 9080 40ba 9E8D      		ldd r25,Y+30
 9081 40bc AF8D      		ldd r26,Y+31
 9082 40be B8A1      		ldd r27,Y+32
 9083 40c0 8DAB      		std Y+53,r24
 9084 40c2 9EAB      		std Y+54,r25
 9085 40c4 AFAB      		std Y+55,r26
 9086 40c6 B8AF      		std Y+56,r27
 9087 40c8 8D8D      		ldd r24,Y+29
 9088 40ca 9E8D      		ldd r25,Y+30
 9089 40cc AF8D      		ldd r26,Y+31
 9090 40ce B8A1      		ldd r27,Y+32
 9091 40d0 BB0F      		lsl r27
 9092 40d2 880B      		sbc r24,r24
 9093 40d4 982F      		mov r25,r24
 9094 40d6 DC01      		movw r26,r24
 9095 40d8 89AF      		std Y+57,r24
 9096 40da 8AAF      		std Y+58,r24
 9097 40dc 8BAF      		std Y+59,r24
 9098 40de 8CAF      		std Y+60,r24
 9099 40e0 A596      		adiw r28,97-60
 9100 40e2 8CAD      		ldd r24,Y+60
 9101 40e4 9DAD      		ldd r25,Y+61
 9102 40e6 AEAD      		ldd r26,Y+62
 9103 40e8 BFAD      		ldd r27,Y+63
 9104 40ea A597      		sbiw r28,97-60
 9105 40ec 2196      		adiw r28,61-60
 9106 40ee 8CAF      		std Y+60,r24
 9107 40f0 9DAF      		std Y+61,r25
 9108 40f2 AEAF      		std Y+62,r26
 9109 40f4 BFAF      		std Y+63,r27
 9110 40f6 2197      		sbiw r28,61-60
 9111 40f8 A596      		adiw r28,97-60
 9112 40fa 8CAD      		ldd r24,Y+60
 9113 40fc 9DAD      		ldd r25,Y+61
 9114 40fe AEAD      		ldd r26,Y+62
 9115 4100 BFAD      		ldd r27,Y+63
 9116 4102 A597      		sbiw r28,97-60
 9117 4104 BB0F      		lsl r27
 9118 4106 880B      		sbc r24,r24
 9119 4108 982F      		mov r25,r24
 9120 410a DC01      		movw r26,r24
 9121 410c 2296      		adiw r28,65-63
 9122 410e 8FAF      		std Y+63,r24
 9123 4110 2297      		sbiw r28,65-63
 9124 4112 2396      		adiw r28,66-63
 9125 4114 8FAF      		std Y+63,r24
 9126 4116 2397      		sbiw r28,66-63
 9127 4118 2496      		adiw r28,67-63
 9128 411a 8FAF      		std Y+63,r24
 9129 411c 2497      		sbiw r28,67-63
 9130 411e 2596      		adiw r28,68-63
 9131 4120 8FAF      		std Y+63,r24
 9132 4122 2597      		sbiw r28,68-63
 9133 4124 ADAC      		ldd r10,Y+61
 9134 4126 BEAC      		ldd r11,Y+62
 9135 4128 CFAC      		ldd r12,Y+63
 9136 412a 2196      		adiw r28,64-63
 9137 412c DFAC      		ldd r13,Y+63
 9138 412e 2197      		sbiw r28,64-63
 9139 4130 2296      		adiw r28,65-63
 9140 4132 EFAC      		ldd r14,Y+63
 9141 4134 2297      		sbiw r28,65-63
 9142 4136 2396      		adiw r28,66-63
 9143 4138 FFAC      		ldd r15,Y+63
 9144 413a 2397      		sbiw r28,66-63
 9145 413c 2496      		adiw r28,67-63
 9146 413e 0FAD      		ldd r16,Y+63
 9147 4140 2497      		sbiw r28,67-63
 9148 4142 2596      		adiw r28,68-63
 9149 4144 1FAD      		ldd r17,Y+63
 9150 4146 2597      		sbiw r28,68-63
 9151 4148 2DA9      		ldd r18,Y+53
 9152 414a 3EA9      		ldd r19,Y+54
 9153 414c 4FA9      		ldd r20,Y+55
 9154 414e 58AD      		ldd r21,Y+56
 9155 4150 69AD      		ldd r22,Y+57
 9156 4152 7AAD      		ldd r23,Y+58
 9157 4154 8BAD      		ldd r24,Y+59
 9158 4156 9CAD      		ldd r25,Y+60
 9159 4158 0E94 0000 		call __muldi3
 9160 415c 222E      		mov r2,r18
 9161 415e 332E      		mov r3,r19
 9162 4160 442E      		mov r4,r20
 9163 4162 552E      		mov r5,r21
 9164 4164 662E      		mov r6,r22
 9165 4166 772E      		mov r7,r23
 9166 4168 882E      		mov r8,r24
 9167 416a 992E      		mov r9,r25
 9168 416c A22C      		mov r10,r2
 9169 416e B32C      		mov r11,r3
 9170 4170 C42C      		mov r12,r4
 9171 4172 D52C      		mov r13,r5
 9172 4174 E62C      		mov r14,r6
 9173 4176 F72C      		mov r15,r7
 9174 4178 082D      		mov r16,r8
 9175 417a 192D      		mov r17,r9
 9176 417c 2A2D      		mov r18,r10
 9177 417e 3B2D      		mov r19,r11
 9178 4180 4C2D      		mov r20,r12
 9179 4182 5D2D      		mov r21,r13
 9180 4184 6E2D      		mov r22,r14
 9181 4186 7F2D      		mov r23,r15
 9182 4188 802F      		mov r24,r16
 9183 418a 912F      		mov r25,r17
 9184 418c A0E0      		ldi r26,0
 9185 418e 0E94 0000 		call __cmpdi2_s8
 9186 4192 04F0      		brlt .L77
 765:adpcm.c       ****         wd4 = wd2 + 128;             /* same sign case */
 9187               		.loc 1 765 0
 9188 4194 2981      		ldd r18,Y+1
 9189 4196 3A81      		ldd r19,Y+2
 9190 4198 4B81      		ldd r20,Y+3
 9191 419a 5C81      		ldd r21,Y+4
 9192 419c 6D81      		ldd r22,Y+5
 9193 419e 7E81      		ldd r23,Y+6
 9194 41a0 8F81      		ldd r24,Y+7
 9195 41a2 9885      		ldd r25,Y+8
 9196 41a4 2058      		subi r18,-128
 9197 41a6 3F4F      		sbci r19,-1
 9198 41a8 4F4F      		sbci r20,-1
 9199 41aa 5F4F      		sbci r21,-1
 9200 41ac 6F4F      		sbci r22,-1
 9201 41ae 7F4F      		sbci r23,-1
 9202 41b0 8F4F      		sbci r24,-1
 9203 41b2 9F4F      		sbci r25,-1
 9204 41b4 2987      		std Y+9,r18
 9205 41b6 3A87      		std Y+10,r19
 9206 41b8 4B87      		std Y+11,r20
 9207 41ba 5C87      		std Y+12,r21
 9208 41bc 6D87      		std Y+13,r22
 9209 41be 7E87      		std Y+14,r23
 9210 41c0 8F87      		std Y+15,r24
 9211 41c2 988B      		std Y+16,r25
 9212 41c4 00C0      		rjmp .L78
 9213               	.L77:
 766:adpcm.c       ****     }
 767:adpcm.c       ****     else {
 768:adpcm.c       ****         wd4 = wd2 - 128;
 9214               		.loc 1 768 0
 9215 41c6 2981      		ldd r18,Y+1
 9216 41c8 3A81      		ldd r19,Y+2
 9217 41ca 4B81      		ldd r20,Y+3
 9218 41cc 5C81      		ldd r21,Y+4
 9219 41ce 6D81      		ldd r22,Y+5
 9220 41d0 7E81      		ldd r23,Y+6
 9221 41d2 8F81      		ldd r24,Y+7
 9222 41d4 9885      		ldd r25,Y+8
 9223 41d6 A0E8      		ldi r26,lo8(-128)
 9224 41d8 0E94 0000 		call __adddi3_s8
 9225 41dc 2987      		std Y+9,r18
 9226 41de 3A87      		std Y+10,r19
 9227 41e0 4B87      		std Y+11,r20
 9228 41e2 5C87      		std Y+12,r21
 9229 41e4 6D87      		std Y+13,r22
 9230 41e6 7E87      		std Y+14,r23
 9231 41e8 8F87      		std Y+15,r24
 9232 41ea 988B      		std Y+16,r25
 9233               	.L78:
 769:adpcm.c       ****     }
 770:adpcm.c       ****     apl2 = wd4 + (127L*(int64_t)al2 >> 7L);  /* leak factor of 127/128 */
 9234               		.loc 1 770 0
 9235 41ec 898D      		ldd r24,Y+25
 9236 41ee 9A8D      		ldd r25,Y+26
 9237 41f0 AB8D      		ldd r26,Y+27
 9238 41f2 BC8D      		ldd r27,Y+28
 9239 41f4 2996      		adiw r28,69-60
 9240 41f6 8CAF      		std Y+60,r24
 9241 41f8 9DAF      		std Y+61,r25
 9242 41fa AEAF      		std Y+62,r26
 9243 41fc BFAF      		std Y+63,r27
 9244 41fe 2997      		sbiw r28,69-60
 9245 4200 898D      		ldd r24,Y+25
 9246 4202 9A8D      		ldd r25,Y+26
 9247 4204 AB8D      		ldd r26,Y+27
 9248 4206 BC8D      		ldd r27,Y+28
 9249 4208 BB0F      		lsl r27
 9250 420a 880B      		sbc r24,r24
 9251 420c 982F      		mov r25,r24
 9252 420e DC01      		movw r26,r24
 9253 4210 2A96      		adiw r28,73-63
 9254 4212 8FAF      		std Y+63,r24
 9255 4214 2A97      		sbiw r28,73-63
 9256 4216 2B96      		adiw r28,74-63
 9257 4218 8FAF      		std Y+63,r24
 9258 421a 2B97      		sbiw r28,74-63
 9259 421c 2C96      		adiw r28,75-63
 9260 421e 8FAF      		std Y+63,r24
 9261 4220 2C97      		sbiw r28,75-63
 9262 4222 2D96      		adiw r28,76-63
 9263 4224 8FAF      		std Y+63,r24
 9264 4226 2D97      		sbiw r28,76-63
 9265 4228 2696      		adiw r28,69-63
 9266 422a AFAC      		ldd r10,Y+63
 9267 422c 2697      		sbiw r28,69-63
 9268 422e 2796      		adiw r28,70-63
 9269 4230 BFAC      		ldd r11,Y+63
 9270 4232 2797      		sbiw r28,70-63
 9271 4234 2896      		adiw r28,71-63
 9272 4236 CFAC      		ldd r12,Y+63
 9273 4238 2897      		sbiw r28,71-63
 9274 423a 2996      		adiw r28,72-63
 9275 423c DFAC      		ldd r13,Y+63
 9276 423e 2997      		sbiw r28,72-63
 9277 4240 2A96      		adiw r28,73-63
 9278 4242 EFAC      		ldd r14,Y+63
 9279 4244 2A97      		sbiw r28,73-63
 9280 4246 2B96      		adiw r28,74-63
 9281 4248 FFAC      		ldd r15,Y+63
 9282 424a 2B97      		sbiw r28,74-63
 9283 424c 2C96      		adiw r28,75-63
 9284 424e 0FAD      		ldd r16,Y+63
 9285 4250 2C97      		sbiw r28,75-63
 9286 4252 2D96      		adiw r28,76-63
 9287 4254 1FAD      		ldd r17,Y+63
 9288 4256 2D97      		sbiw r28,76-63
 9289 4258 2A2D      		mov r18,r10
 9290 425a 3B2D      		mov r19,r11
 9291 425c 4C2D      		mov r20,r12
 9292 425e 5D2D      		mov r21,r13
 9293 4260 6E2D      		mov r22,r14
 9294 4262 7F2D      		mov r23,r15
 9295 4264 802F      		mov r24,r16
 9296 4266 912F      		mov r25,r17
 9297 4268 07E0      		ldi r16,lo8(7)
 9298 426a 0E94 0000 		call __ashldi3
 9299 426e 222E      		mov r2,r18
 9300 4270 332E      		mov r3,r19
 9301 4272 442E      		mov r4,r20
 9302 4274 552E      		mov r5,r21
 9303 4276 662E      		mov r6,r22
 9304 4278 772E      		mov r7,r23
 9305 427a 882E      		mov r8,r24
 9306 427c 992E      		mov r9,r25
 9307 427e A22C      		mov r10,r2
 9308 4280 B32C      		mov r11,r3
 9309 4282 C42C      		mov r12,r4
 9310 4284 D52C      		mov r13,r5
 9311 4286 E62C      		mov r14,r6
 9312 4288 F72C      		mov r15,r7
 9313 428a 082D      		mov r16,r8
 9314 428c 192D      		mov r17,r9
 9315 428e 2A2D      		mov r18,r10
 9316 4290 3B2D      		mov r19,r11
 9317 4292 4C2D      		mov r20,r12
 9318 4294 5D2D      		mov r21,r13
 9319 4296 6E2D      		mov r22,r14
 9320 4298 7F2D      		mov r23,r15
 9321 429a 802F      		mov r24,r16
 9322 429c 912F      		mov r25,r17
 9323 429e 2696      		adiw r28,69-63
 9324 42a0 AFAC      		ldd r10,Y+63
 9325 42a2 2697      		sbiw r28,69-63
 9326 42a4 2796      		adiw r28,70-63
 9327 42a6 BFAC      		ldd r11,Y+63
 9328 42a8 2797      		sbiw r28,70-63
 9329 42aa 2896      		adiw r28,71-63
 9330 42ac CFAC      		ldd r12,Y+63
 9331 42ae 2897      		sbiw r28,71-63
 9332 42b0 2996      		adiw r28,72-63
 9333 42b2 DFAC      		ldd r13,Y+63
 9334 42b4 2997      		sbiw r28,72-63
 9335 42b6 2A96      		adiw r28,73-63
 9336 42b8 EFAC      		ldd r14,Y+63
 9337 42ba 2A97      		sbiw r28,73-63
 9338 42bc 2B96      		adiw r28,74-63
 9339 42be FFAC      		ldd r15,Y+63
 9340 42c0 2B97      		sbiw r28,74-63
 9341 42c2 2C96      		adiw r28,75-63
 9342 42c4 0FAD      		ldd r16,Y+63
 9343 42c6 2C97      		sbiw r28,75-63
 9344 42c8 2D96      		adiw r28,76-63
 9345 42ca 1FAD      		ldd r17,Y+63
 9346 42cc 2D97      		sbiw r28,76-63
 9347 42ce 0E94 0000 		call __subdi3
 9348 42d2 A22E      		mov r10,r18
 9349 42d4 B32E      		mov r11,r19
 9350 42d6 C42E      		mov r12,r20
 9351 42d8 D52E      		mov r13,r21
 9352 42da E62E      		mov r14,r22
 9353 42dc F72E      		mov r15,r23
 9354 42de 082F      		mov r16,r24
 9355 42e0 192F      		mov r17,r25
 9356 42e2 2A2D      		mov r18,r10
 9357 42e4 3B2D      		mov r19,r11
 9358 42e6 4C2D      		mov r20,r12
 9359 42e8 5D2D      		mov r21,r13
 9360 42ea 6E2D      		mov r22,r14
 9361 42ec 7F2D      		mov r23,r15
 9362 42ee 802F      		mov r24,r16
 9363 42f0 912F      		mov r25,r17
 9364 42f2 07E0      		ldi r16,lo8(7)
 9365 42f4 0E94 0000 		call __ashrdi3
 9366 42f8 A22E      		mov r10,r18
 9367 42fa B32E      		mov r11,r19
 9368 42fc C42E      		mov r12,r20
 9369 42fe D52E      		mov r13,r21
 9370 4300 E62E      		mov r14,r22
 9371 4302 F72E      		mov r15,r23
 9372 4304 082F      		mov r16,r24
 9373 4306 192F      		mov r17,r25
 9374 4308 A601      		movw r20,r12
 9375 430a 9501      		movw r18,r10
 9376 430c 8985      		ldd r24,Y+9
 9377 430e 9A85      		ldd r25,Y+10
 9378 4310 AB85      		ldd r26,Y+11
 9379 4312 BC85      		ldd r27,Y+12
 9380 4314 820F      		add r24,r18
 9381 4316 931F      		adc r25,r19
 9382 4318 A41F      		adc r26,r20
 9383 431a B51F      		adc r27,r21
 9384 431c 898B      		std Y+17,r24
 9385 431e 9A8B      		std Y+18,r25
 9386 4320 AB8B      		std Y+19,r26
 9387 4322 BC8B      		std Y+20,r27
 771:adpcm.c       **** 
 772:adpcm.c       **** /* apl2 is limited to +-.75 */
 773:adpcm.c       ****     if(apl2 > 12288) apl2 = 12288;
 9388               		.loc 1 773 0
 9389 4324 8989      		ldd r24,Y+17
 9390 4326 9A89      		ldd r25,Y+18
 9391 4328 AB89      		ldd r26,Y+19
 9392 432a BC89      		ldd r27,Y+20
 9393 432c 8130      		cpi r24,1
 9394 432e 20E3      		ldi r18,48
 9395 4330 9207      		cpc r25,r18
 9396 4332 A105      		cpc r26,__zero_reg__
 9397 4334 B105      		cpc r27,__zero_reg__
 9398 4336 04F0      		brlt .L79
 9399               		.loc 1 773 0 is_stmt 0 discriminator 1
 9400 4338 80E0      		ldi r24,0
 9401 433a 90E3      		ldi r25,lo8(48)
 9402 433c A0E0      		ldi r26,0
 9403 433e B0E0      		ldi r27,0
 9404 4340 898B      		std Y+17,r24
 9405 4342 9A8B      		std Y+18,r25
 9406 4344 AB8B      		std Y+19,r26
 9407 4346 BC8B      		std Y+20,r27
 9408               	.L79:
 774:adpcm.c       ****     if(apl2 < -12288) apl2 = -12288;
 9409               		.loc 1 774 0 is_stmt 1
 9410 4348 8989      		ldd r24,Y+17
 9411 434a 9A89      		ldd r25,Y+18
 9412 434c AB89      		ldd r26,Y+19
 9413 434e BC89      		ldd r27,Y+20
 9414 4350 8115      		cp r24,__zero_reg__
 9415 4352 20ED      		ldi r18,-48
 9416 4354 9207      		cpc r25,r18
 9417 4356 2FEF      		ldi r18,-1
 9418 4358 A207      		cpc r26,r18
 9419 435a B207      		cpc r27,r18
 9420 435c 04F4      		brge .L80
 9421               		.loc 1 774 0 is_stmt 0 discriminator 1
 9422 435e 80E0      		ldi r24,0
 9423 4360 90ED      		ldi r25,lo8(-48)
 9424 4362 AFEF      		ldi r26,lo8(-1)
 9425 4364 BFEF      		ldi r27,lo8(-1)
 9426 4366 898B      		std Y+17,r24
 9427 4368 9A8B      		std Y+18,r25
 9428 436a AB8B      		std Y+19,r26
 9429 436c BC8B      		std Y+20,r27
 9430               	.L80:
 775:adpcm.c       ****     return(apl2);
 9431               		.loc 1 775 0 is_stmt 1
 9432 436e 8989      		ldd r24,Y+17
 9433 4370 9A89      		ldd r25,Y+18
 9434 4372 AB89      		ldd r26,Y+19
 9435 4374 BC89      		ldd r27,Y+20
 776:adpcm.c       **** }
 9436               		.loc 1 776 0
 9437 4376 BC01      		movw r22,r24
 9438 4378 CD01      		movw r24,r26
 9439               	/* epilogue start */
 9440 437a C45B      		subi r28,-76
 9441 437c DF4F      		sbci r29,-1
 9442 437e 0FB6      		in __tmp_reg__,__SREG__
 9443 4380 F894      		cli
 9444 4382 DEBF      		out __SP_H__,r29
 9445 4384 0FBE      		out __SREG__,__tmp_reg__
 9446 4386 CDBF      		out __SP_L__,r28
 9447 4388 DF91      		pop r29
 9448 438a CF91      		pop r28
 9449 438c 1F91      		pop r17
 9450 438e 0F91      		pop r16
 9451 4390 FF90      		pop r15
 9452 4392 EF90      		pop r14
 9453 4394 DF90      		pop r13
 9454 4396 CF90      		pop r12
 9455 4398 BF90      		pop r11
 9456 439a AF90      		pop r10
 9457 439c 9F90      		pop r9
 9458 439e 8F90      		pop r8
 9459 43a0 7F90      		pop r7
 9460 43a2 6F90      		pop r6
 9461 43a4 5F90      		pop r5
 9462 43a6 4F90      		pop r4
 9463 43a8 3F90      		pop r3
 9464 43aa 2F90      		pop r2
 9465 43ac 0895      		ret
 9466               	.LFE14:
 9468               	.global	uppol1
 9470               	uppol1:
 9471               	.LFB15:
 777:adpcm.c       **** 
 778:adpcm.c       **** /* uppol1 - update first predictor coefficient (pole section) */
 779:adpcm.c       **** /* inputs: al1, apl2, plt, plt1. outputs: apl1 */
 780:adpcm.c       **** 
 781:adpcm.c       **** int32_t uppol1(int32_t al1,int32_t apl2,int32_t plt,int32_t plt1)
 782:adpcm.c       **** {
 9472               		.loc 1 782 0
 9473 43ae 2F92      		push r2
 9474               	.LCFI192:
 9475 43b0 3F92      		push r3
 9476               	.LCFI193:
 9477 43b2 4F92      		push r4
 9478               	.LCFI194:
 9479 43b4 5F92      		push r5
 9480               	.LCFI195:
 9481 43b6 6F92      		push r6
 9482               	.LCFI196:
 9483 43b8 7F92      		push r7
 9484               	.LCFI197:
 9485 43ba 8F92      		push r8
 9486               	.LCFI198:
 9487 43bc 9F92      		push r9
 9488               	.LCFI199:
 9489 43be AF92      		push r10
 9490               	.LCFI200:
 9491 43c0 BF92      		push r11
 9492               	.LCFI201:
 9493 43c2 CF92      		push r12
 9494               	.LCFI202:
 9495 43c4 DF92      		push r13
 9496               	.LCFI203:
 9497 43c6 EF92      		push r14
 9498               	.LCFI204:
 9499 43c8 FF92      		push r15
 9500               	.LCFI205:
 9501 43ca 0F93      		push r16
 9502               	.LCFI206:
 9503 43cc 1F93      		push r17
 9504               	.LCFI207:
 9505 43ce CF93      		push r28
 9506               	.LCFI208:
 9507 43d0 DF93      		push r29
 9508               	.LCFI209:
 9509 43d2 CDB7      		in r28,__SP_L__
 9510 43d4 DEB7      		in r29,__SP_H__
 9511               	.LCFI210:
 9512 43d6 C854      		subi r28,72
 9513 43d8 D109      		sbc r29,__zero_reg__
 9514               	.LCFI211:
 9515 43da 0FB6      		in __tmp_reg__,__SREG__
 9516 43dc F894      		cli
 9517 43de DEBF      		out __SP_H__,r29
 9518 43e0 0FBE      		out __SREG__,__tmp_reg__
 9519 43e2 CDBF      		out __SP_L__,r28
 9520               	/* prologue: function */
 9521               	/* frame size = 72 */
 9522               	/* stack size = 90 */
 9523               	.L__stack_usage = 90
 9524 43e4 698B      		std Y+17,r22
 9525 43e6 7A8B      		std Y+18,r23
 9526 43e8 8B8B      		std Y+19,r24
 9527 43ea 9C8B      		std Y+20,r25
 9528 43ec 2D8B      		std Y+21,r18
 9529 43ee 3E8B      		std Y+22,r19
 9530 43f0 4F8B      		std Y+23,r20
 9531 43f2 588F      		std Y+24,r21
 9532 43f4 E98E      		std Y+25,r14
 9533 43f6 FA8E      		std Y+26,r15
 9534 43f8 0B8F      		std Y+27,r16
 9535 43fa 1C8F      		std Y+28,r17
 9536 43fc AD8E      		std Y+29,r10
 9537 43fe BE8E      		std Y+30,r11
 9538 4400 CF8E      		std Y+31,r12
 9539 4402 D8A2      		std Y+32,r13
 783:adpcm.c       ****     int64_t  wd2;
 784:adpcm.c       ****     int32_t wd3,apl1;
 785:adpcm.c       ****     wd2 = ((int64_t)al1*255L) >> 8L;   /* leak factor of 255/256 */
 9540               		.loc 1 785 0
 9541 4404 E988      		ldd r14,Y+17
 9542 4406 FA88      		ldd r15,Y+18
 9543 4408 0B89      		ldd r16,Y+19
 9544 440a 1C89      		ldd r17,Y+20
 9545 440c E9A2      		std Y+33,r14
 9546 440e FAA2      		std Y+34,r15
 9547 4410 0BA3      		std Y+35,r16
 9548 4412 1CA3      		std Y+36,r17
 9549 4414 8989      		ldd r24,Y+17
 9550 4416 9A89      		ldd r25,Y+18
 9551 4418 AB89      		ldd r26,Y+19
 9552 441a BC89      		ldd r27,Y+20
 9553 441c BB0F      		lsl r27
 9554 441e 880B      		sbc r24,r24
 9555 4420 982F      		mov r25,r24
 9556 4422 DC01      		movw r26,r24
 9557 4424 8DA3      		std Y+37,r24
 9558 4426 8EA3      		std Y+38,r24
 9559 4428 8FA3      		std Y+39,r24
 9560 442a 88A7      		std Y+40,r24
 9561 442c 89A0      		ldd r8,Y+33
 9562 442e 9AA0      		ldd r9,Y+34
 9563 4430 ABA0      		ldd r10,Y+35
 9564 4432 BCA0      		ldd r11,Y+36
 9565 4434 CDA0      		ldd r12,Y+37
 9566 4436 DEA0      		ldd r13,Y+38
 9567 4438 EFA0      		ldd r14,Y+39
 9568 443a F8A4      		ldd r15,Y+40
 9569 443c 282D      		mov r18,r8
 9570 443e 392D      		mov r19,r9
 9571 4440 4A2D      		mov r20,r10
 9572 4442 5B2D      		mov r21,r11
 9573 4444 6C2D      		mov r22,r12
 9574 4446 7D2D      		mov r23,r13
 9575 4448 8E2D      		mov r24,r14
 9576 444a 9F2D      		mov r25,r15
 9577 444c 04E0      		ldi r16,lo8(4)
 9578 444e 0E94 0000 		call __ashldi3
 9579 4452 29AF      		std Y+57,r18
 9580 4454 3AAF      		std Y+58,r19
 9581 4456 4BAF      		std Y+59,r20
 9582 4458 5CAF      		std Y+60,r21
 9583 445a 6DAF      		std Y+61,r22
 9584 445c 7EAF      		std Y+62,r23
 9585 445e 8FAF      		std Y+63,r24
 9586 4460 2196      		adiw r28,64-63
 9587 4462 9FAF      		std Y+63,r25
 9588 4464 2197      		sbiw r28,64-63
 9589 4466 89AC      		ldd r8,Y+57
 9590 4468 9AAC      		ldd r9,Y+58
 9591 446a ABAC      		ldd r10,Y+59
 9592 446c BCAC      		ldd r11,Y+60
 9593 446e CDAC      		ldd r12,Y+61
 9594 4470 DEAC      		ldd r13,Y+62
 9595 4472 EFAC      		ldd r14,Y+63
 9596 4474 2196      		adiw r28,64-63
 9597 4476 FFAC      		ldd r15,Y+63
 9598 4478 2197      		sbiw r28,64-63
 9599 447a 282D      		mov r18,r8
 9600 447c 392D      		mov r19,r9
 9601 447e 4A2D      		mov r20,r10
 9602 4480 5B2D      		mov r21,r11
 9603 4482 6C2D      		mov r22,r12
 9604 4484 7D2D      		mov r23,r13
 9605 4486 8E2D      		mov r24,r14
 9606 4488 9F2D      		mov r25,r15
 9607 448a A9A0      		ldd r10,Y+33
 9608 448c BAA0      		ldd r11,Y+34
 9609 448e CBA0      		ldd r12,Y+35
 9610 4490 DCA0      		ldd r13,Y+36
 9611 4492 EDA0      		ldd r14,Y+37
 9612 4494 FEA0      		ldd r15,Y+38
 9613 4496 0FA1      		ldd r16,Y+39
 9614 4498 18A5      		ldd r17,Y+40
 9615 449a 0E94 0000 		call __subdi3
 9616 449e 822E      		mov r8,r18
 9617 44a0 932E      		mov r9,r19
 9618 44a2 A42E      		mov r10,r20
 9619 44a4 B52E      		mov r11,r21
 9620 44a6 C62E      		mov r12,r22
 9621 44a8 D72E      		mov r13,r23
 9622 44aa E82E      		mov r14,r24
 9623 44ac F92E      		mov r15,r25
 9624 44ae 282D      		mov r18,r8
 9625 44b0 392D      		mov r19,r9
 9626 44b2 4A2D      		mov r20,r10
 9627 44b4 5B2D      		mov r21,r11
 9628 44b6 6C2D      		mov r22,r12
 9629 44b8 7D2D      		mov r23,r13
 9630 44ba 8E2D      		mov r24,r14
 9631 44bc 9F2D      		mov r25,r15
 9632 44be 04E0      		ldi r16,lo8(4)
 9633 44c0 0E94 0000 		call __ashldi3
 9634 44c4 2296      		adiw r28,65-63
 9635 44c6 2FAF      		std Y+63,r18
 9636 44c8 2297      		sbiw r28,65-63
 9637 44ca 2396      		adiw r28,66-63
 9638 44cc 3FAF      		std Y+63,r19
 9639 44ce 2397      		sbiw r28,66-63
 9640 44d0 2496      		adiw r28,67-63
 9641 44d2 4FAF      		std Y+63,r20
 9642 44d4 2497      		sbiw r28,67-63
 9643 44d6 2596      		adiw r28,68-63
 9644 44d8 5FAF      		std Y+63,r21
 9645 44da 2597      		sbiw r28,68-63
 9646 44dc 2696      		adiw r28,69-63
 9647 44de 6FAF      		std Y+63,r22
 9648 44e0 2697      		sbiw r28,69-63
 9649 44e2 2796      		adiw r28,70-63
 9650 44e4 7FAF      		std Y+63,r23
 9651 44e6 2797      		sbiw r28,70-63
 9652 44e8 2896      		adiw r28,71-63
 9653 44ea 8FAF      		std Y+63,r24
 9654 44ec 2897      		sbiw r28,71-63
 9655 44ee 2996      		adiw r28,72-63
 9656 44f0 9FAF      		std Y+63,r25
 9657 44f2 2997      		sbiw r28,72-63
 9658 44f4 282D      		mov r18,r8
 9659 44f6 392D      		mov r19,r9
 9660 44f8 4A2D      		mov r20,r10
 9661 44fa 5B2D      		mov r21,r11
 9662 44fc 6C2D      		mov r22,r12
 9663 44fe 7D2D      		mov r23,r13
 9664 4500 8E2D      		mov r24,r14
 9665 4502 9F2D      		mov r25,r15
 9666 4504 2296      		adiw r28,65-63
 9667 4506 AFAC      		ldd r10,Y+63
 9668 4508 2297      		sbiw r28,65-63
 9669 450a 2396      		adiw r28,66-63
 9670 450c BFAC      		ldd r11,Y+63
 9671 450e 2397      		sbiw r28,66-63
 9672 4510 2496      		adiw r28,67-63
 9673 4512 CFAC      		ldd r12,Y+63
 9674 4514 2497      		sbiw r28,67-63
 9675 4516 2596      		adiw r28,68-63
 9676 4518 DFAC      		ldd r13,Y+63
 9677 451a 2597      		sbiw r28,68-63
 9678 451c 2696      		adiw r28,69-63
 9679 451e EFAC      		ldd r14,Y+63
 9680 4520 2697      		sbiw r28,69-63
 9681 4522 2796      		adiw r28,70-63
 9682 4524 FFAC      		ldd r15,Y+63
 9683 4526 2797      		sbiw r28,70-63
 9684 4528 2896      		adiw r28,71-63
 9685 452a 0FAD      		ldd r16,Y+63
 9686 452c 2897      		sbiw r28,71-63
 9687 452e 2996      		adiw r28,72-63
 9688 4530 1FAD      		ldd r17,Y+63
 9689 4532 2997      		sbiw r28,72-63
 9690 4534 0E94 0000 		call __adddi3
 9691 4538 A22E      		mov r10,r18
 9692 453a B32E      		mov r11,r19
 9693 453c C42E      		mov r12,r20
 9694 453e D52E      		mov r13,r21
 9695 4540 E62E      		mov r14,r22
 9696 4542 F72E      		mov r15,r23
 9697 4544 082F      		mov r16,r24
 9698 4546 192F      		mov r17,r25
 9699 4548 2A2D      		mov r18,r10
 9700 454a 3B2D      		mov r19,r11
 9701 454c 4C2D      		mov r20,r12
 9702 454e 5D2D      		mov r21,r13
 9703 4550 6E2D      		mov r22,r14
 9704 4552 7F2D      		mov r23,r15
 9705 4554 802F      		mov r24,r16
 9706 4556 912F      		mov r25,r17
 9707 4558 08E0      		ldi r16,lo8(8)
 9708 455a 0E94 0000 		call __ashrdi3
 9709 455e 2D83      		std Y+5,r18
 9710 4560 3E83      		std Y+6,r19
 9711 4562 4F83      		std Y+7,r20
 9712 4564 5887      		std Y+8,r21
 9713 4566 6987      		std Y+9,r22
 9714 4568 7A87      		std Y+10,r23
 9715 456a 8B87      		std Y+11,r24
 9716 456c 9C87      		std Y+12,r25
 786:adpcm.c       ****     if((int64_t)plt*plt1 >= 0L) {
 9717               		.loc 1 786 0
 9718 456e 898D      		ldd r24,Y+25
 9719 4570 9A8D      		ldd r25,Y+26
 9720 4572 AB8D      		ldd r26,Y+27
 9721 4574 BC8D      		ldd r27,Y+28
 9722 4576 89A7      		std Y+41,r24
 9723 4578 9AA7      		std Y+42,r25
 9724 457a ABA7      		std Y+43,r26
 9725 457c BCA7      		std Y+44,r27
 9726 457e 898D      		ldd r24,Y+25
 9727 4580 9A8D      		ldd r25,Y+26
 9728 4582 AB8D      		ldd r26,Y+27
 9729 4584 BC8D      		ldd r27,Y+28
 9730 4586 BB0F      		lsl r27
 9731 4588 880B      		sbc r24,r24
 9732 458a 982F      		mov r25,r24
 9733 458c DC01      		movw r26,r24
 9734 458e 8DA7      		std Y+45,r24
 9735 4590 8EA7      		std Y+46,r24
 9736 4592 8FA7      		std Y+47,r24
 9737 4594 88AB      		std Y+48,r24
 9738 4596 ED8C      		ldd r14,Y+29
 9739 4598 FE8C      		ldd r15,Y+30
 9740 459a 0F8D      		ldd r16,Y+31
 9741 459c 18A1      		ldd r17,Y+32
 9742 459e E9AA      		std Y+49,r14
 9743 45a0 FAAA      		std Y+50,r15
 9744 45a2 0BAB      		std Y+51,r16
 9745 45a4 1CAB      		std Y+52,r17
 9746 45a6 8D8D      		ldd r24,Y+29
 9747 45a8 9E8D      		ldd r25,Y+30
 9748 45aa AF8D      		ldd r26,Y+31
 9749 45ac B8A1      		ldd r27,Y+32
 9750 45ae BB0F      		lsl r27
 9751 45b0 880B      		sbc r24,r24
 9752 45b2 982F      		mov r25,r24
 9753 45b4 DC01      		movw r26,r24
 9754 45b6 8DAB      		std Y+53,r24
 9755 45b8 8EAB      		std Y+54,r24
 9756 45ba 8FAB      		std Y+55,r24
 9757 45bc 88AF      		std Y+56,r24
 9758 45be A9A8      		ldd r10,Y+49
 9759 45c0 BAA8      		ldd r11,Y+50
 9760 45c2 CBA8      		ldd r12,Y+51
 9761 45c4 DCA8      		ldd r13,Y+52
 9762 45c6 EDA8      		ldd r14,Y+53
 9763 45c8 FEA8      		ldd r15,Y+54
 9764 45ca 0FA9      		ldd r16,Y+55
 9765 45cc 18AD      		ldd r17,Y+56
 9766 45ce 29A5      		ldd r18,Y+41
 9767 45d0 3AA5      		ldd r19,Y+42
 9768 45d2 4BA5      		ldd r20,Y+43
 9769 45d4 5CA5      		ldd r21,Y+44
 9770 45d6 6DA5      		ldd r22,Y+45
 9771 45d8 7EA5      		ldd r23,Y+46
 9772 45da 8FA5      		ldd r24,Y+47
 9773 45dc 98A9      		ldd r25,Y+48
 9774 45de 0E94 0000 		call __muldi3
 9775 45e2 222E      		mov r2,r18
 9776 45e4 332E      		mov r3,r19
 9777 45e6 442E      		mov r4,r20
 9778 45e8 552E      		mov r5,r21
 9779 45ea 662E      		mov r6,r22
 9780 45ec 772E      		mov r7,r23
 9781 45ee 882E      		mov r8,r24
 9782 45f0 992E      		mov r9,r25
 9783 45f2 A22C      		mov r10,r2
 9784 45f4 B32C      		mov r11,r3
 9785 45f6 C42C      		mov r12,r4
 9786 45f8 D52C      		mov r13,r5
 9787 45fa E62C      		mov r14,r6
 9788 45fc F72C      		mov r15,r7
 9789 45fe 082D      		mov r16,r8
 9790 4600 192D      		mov r17,r9
 9791 4602 2A2D      		mov r18,r10
 9792 4604 3B2D      		mov r19,r11
 9793 4606 4C2D      		mov r20,r12
 9794 4608 5D2D      		mov r21,r13
 9795 460a 6E2D      		mov r22,r14
 9796 460c 7F2D      		mov r23,r15
 9797 460e 802F      		mov r24,r16
 9798 4610 912F      		mov r25,r17
 9799 4612 A0E0      		ldi r26,0
 9800 4614 0E94 0000 		call __cmpdi2_s8
 9801 4618 04F0      		brlt .L83
 787:adpcm.c       ****         apl1 = (int32_t)wd2 + 192;      /* same sign case */
 9802               		.loc 1 787 0
 9803 461a 8D81      		ldd r24,Y+5
 9804 461c 9E81      		ldd r25,Y+6
 9805 461e AF81      		ldd r26,Y+7
 9806 4620 B885      		ldd r27,Y+8
 9807 4622 8054      		subi r24,64
 9808 4624 9F4F      		sbci r25,-1
 9809 4626 AF4F      		sbci r26,-1
 9810 4628 BF4F      		sbci r27,-1
 9811 462a 8983      		std Y+1,r24
 9812 462c 9A83      		std Y+2,r25
 9813 462e AB83      		std Y+3,r26
 9814 4630 BC83      		std Y+4,r27
 9815 4632 00C0      		rjmp .L84
 9816               	.L83:
 788:adpcm.c       ****     }
 789:adpcm.c       ****     else {
 790:adpcm.c       ****         apl1 = (int32_t)wd2 - 192;
 9817               		.loc 1 790 0
 9818 4634 8D81      		ldd r24,Y+5
 9819 4636 9E81      		ldd r25,Y+6
 9820 4638 AF81      		ldd r26,Y+7
 9821 463a B885      		ldd r27,Y+8
 9822 463c 805C      		subi r24,-64
 9823 463e 9109      		sbc r25,__zero_reg__
 9824 4640 A109      		sbc r26,__zero_reg__
 9825 4642 B109      		sbc r27,__zero_reg__
 9826 4644 8983      		std Y+1,r24
 9827 4646 9A83      		std Y+2,r25
 9828 4648 AB83      		std Y+3,r26
 9829 464a BC83      		std Y+4,r27
 9830               	.L84:
 791:adpcm.c       ****     }
 792:adpcm.c       **** /* note: wd3= .9375-.75 is always positive */
 793:adpcm.c       ****     wd3 = 15360 - apl2;             /* limit value */
 9831               		.loc 1 793 0
 9832 464c 20E0      		ldi r18,0
 9833 464e 3CE3      		ldi r19,lo8(60)
 9834 4650 40E0      		ldi r20,0
 9835 4652 50E0      		ldi r21,0
 9836 4654 8D89      		ldd r24,Y+21
 9837 4656 9E89      		ldd r25,Y+22
 9838 4658 AF89      		ldd r26,Y+23
 9839 465a B88D      		ldd r27,Y+24
 9840 465c 7901      		movw r14,r18
 9841 465e 8A01      		movw r16,r20
 9842 4660 E81A      		sub r14,r24
 9843 4662 F90A      		sbc r15,r25
 9844 4664 0A0B      		sbc r16,r26
 9845 4666 1B0B      		sbc r17,r27
 9846 4668 D801      		movw r26,r16
 9847 466a C701      		movw r24,r14
 9848 466c 8D87      		std Y+13,r24
 9849 466e 9E87      		std Y+14,r25
 9850 4670 AF87      		std Y+15,r26
 9851 4672 B88B      		std Y+16,r27
 794:adpcm.c       ****     if(apl1 > wd3) apl1 = wd3;
 9852               		.loc 1 794 0
 9853 4674 2981      		ldd r18,Y+1
 9854 4676 3A81      		ldd r19,Y+2
 9855 4678 4B81      		ldd r20,Y+3
 9856 467a 5C81      		ldd r21,Y+4
 9857 467c 8D85      		ldd r24,Y+13
 9858 467e 9E85      		ldd r25,Y+14
 9859 4680 AF85      		ldd r26,Y+15
 9860 4682 B889      		ldd r27,Y+16
 9861 4684 8217      		cp r24,r18
 9862 4686 9307      		cpc r25,r19
 9863 4688 A407      		cpc r26,r20
 9864 468a B507      		cpc r27,r21
 9865 468c 04F4      		brge .L85
 9866               		.loc 1 794 0 is_stmt 0 discriminator 1
 9867 468e 8D85      		ldd r24,Y+13
 9868 4690 9E85      		ldd r25,Y+14
 9869 4692 AF85      		ldd r26,Y+15
 9870 4694 B889      		ldd r27,Y+16
 9871 4696 8983      		std Y+1,r24
 9872 4698 9A83      		std Y+2,r25
 9873 469a AB83      		std Y+3,r26
 9874 469c BC83      		std Y+4,r27
 9875               	.L85:
 795:adpcm.c       ****     if(apl1 < -wd3) apl1 = -wd3;
 9876               		.loc 1 795 0 is_stmt 1
 9877 469e 8D85      		ldd r24,Y+13
 9878 46a0 9E85      		ldd r25,Y+14
 9879 46a2 AF85      		ldd r26,Y+15
 9880 46a4 B889      		ldd r27,Y+16
 9881 46a6 2227      		clr r18
 9882 46a8 3327      		clr r19
 9883 46aa A901      		movw r20,r18
 9884 46ac 281B      		sub r18,r24
 9885 46ae 390B      		sbc r19,r25
 9886 46b0 4A0B      		sbc r20,r26
 9887 46b2 5B0B      		sbc r21,r27
 9888 46b4 8981      		ldd r24,Y+1
 9889 46b6 9A81      		ldd r25,Y+2
 9890 46b8 AB81      		ldd r26,Y+3
 9891 46ba BC81      		ldd r27,Y+4
 9892 46bc 8217      		cp r24,r18
 9893 46be 9307      		cpc r25,r19
 9894 46c0 A407      		cpc r26,r20
 9895 46c2 B507      		cpc r27,r21
 9896 46c4 04F4      		brge .L86
 9897               		.loc 1 795 0 is_stmt 0 discriminator 1
 9898 46c6 8D85      		ldd r24,Y+13
 9899 46c8 9E85      		ldd r25,Y+14
 9900 46ca AF85      		ldd r26,Y+15
 9901 46cc B889      		ldd r27,Y+16
 9902 46ce B095      		com r27
 9903 46d0 A095      		com r26
 9904 46d2 9095      		com r25
 9905 46d4 8195      		neg r24
 9906 46d6 9F4F      		sbci r25,lo8(-1)
 9907 46d8 AF4F      		sbci r26,lo8(-1)
 9908 46da BF4F      		sbci r27,lo8(-1)
 9909 46dc 8983      		std Y+1,r24
 9910 46de 9A83      		std Y+2,r25
 9911 46e0 AB83      		std Y+3,r26
 9912 46e2 BC83      		std Y+4,r27
 9913               	.L86:
 796:adpcm.c       ****     return(apl1);
 9914               		.loc 1 796 0 is_stmt 1
 9915 46e4 8981      		ldd r24,Y+1
 9916 46e6 9A81      		ldd r25,Y+2
 9917 46e8 AB81      		ldd r26,Y+3
 9918 46ea BC81      		ldd r27,Y+4
 797:adpcm.c       **** }
 9919               		.loc 1 797 0
 9920 46ec BC01      		movw r22,r24
 9921 46ee CD01      		movw r24,r26
 9922               	/* epilogue start */
 9923 46f0 C85B      		subi r28,-72
 9924 46f2 DF4F      		sbci r29,-1
 9925 46f4 0FB6      		in __tmp_reg__,__SREG__
 9926 46f6 F894      		cli
 9927 46f8 DEBF      		out __SP_H__,r29
 9928 46fa 0FBE      		out __SREG__,__tmp_reg__
 9929 46fc CDBF      		out __SP_L__,r28
 9930 46fe DF91      		pop r29
 9931 4700 CF91      		pop r28
 9932 4702 1F91      		pop r17
 9933 4704 0F91      		pop r16
 9934 4706 FF90      		pop r15
 9935 4708 EF90      		pop r14
 9936 470a DF90      		pop r13
 9937 470c CF90      		pop r12
 9938 470e BF90      		pop r11
 9939 4710 AF90      		pop r10
 9940 4712 9F90      		pop r9
 9941 4714 8F90      		pop r8
 9942 4716 7F90      		pop r7
 9943 4718 6F90      		pop r6
 9944 471a 5F90      		pop r5
 9945 471c 4F90      		pop r4
 9946 471e 3F90      		pop r3
 9947 4720 2F90      		pop r2
 9948 4722 0895      		ret
 9949               	.LFE15:
 9951               	.global	logsch
 9953               	logsch:
 9954               	.LFB16:
 798:adpcm.c       **** /* INVQAH: inverse adaptive quantizer for the higher sub-band */
 799:adpcm.c       **** /* returns dh, code table is pre-multiplied by 8 */
 800:adpcm.c       **** 
 801:adpcm.c       **** /*  int32_t invqah(int32_t ih,int32_t deth) */
 802:adpcm.c       **** /*  { */
 803:adpcm.c       **** /*        int64_t  rdh; */
 804:adpcm.c       **** /*        rdh = ((int64_t)deth*qq2_code2_table[ih]) >> 15L ; */
 805:adpcm.c       **** /*        return((int32_t)(rdh )); */
 806:adpcm.c       **** /*  } */
 807:adpcm.c       **** 
 808:adpcm.c       **** int32_t logsch(int32_t ih,int32_t nbh)
 809:adpcm.c       **** {
 9955               		.loc 1 809 0
 9956 4724 2F92      		push r2
 9957               	.LCFI212:
 9958 4726 3F92      		push r3
 9959               	.LCFI213:
 9960 4728 4F92      		push r4
 9961               	.LCFI214:
 9962 472a 5F92      		push r5
 9963               	.LCFI215:
 9964 472c 6F92      		push r6
 9965               	.LCFI216:
 9966 472e 7F92      		push r7
 9967               	.LCFI217:
 9968 4730 8F92      		push r8
 9969               	.LCFI218:
 9970 4732 9F92      		push r9
 9971               	.LCFI219:
 9972 4734 AF92      		push r10
 9973               	.LCFI220:
 9974 4736 BF92      		push r11
 9975               	.LCFI221:
 9976 4738 CF92      		push r12
 9977               	.LCFI222:
 9978 473a DF92      		push r13
 9979               	.LCFI223:
 9980 473c EF92      		push r14
 9981               	.LCFI224:
 9982 473e FF92      		push r15
 9983               	.LCFI225:
 9984 4740 0F93      		push r16
 9985               	.LCFI226:
 9986 4742 1F93      		push r17
 9987               	.LCFI227:
 9988 4744 CF93      		push r28
 9989               	.LCFI228:
 9990 4746 DF93      		push r29
 9991               	.LCFI229:
 9992 4748 CDB7      		in r28,__SP_L__
 9993 474a DEB7      		in r29,__SP_H__
 9994               	.LCFI230:
 9995 474c 6497      		sbiw r28,20
 9996               	.LCFI231:
 9997 474e 0FB6      		in __tmp_reg__,__SREG__
 9998 4750 F894      		cli
 9999 4752 DEBF      		out __SP_H__,r29
 10000 4754 0FBE      		out __SREG__,__tmp_reg__
 10001 4756 CDBF      		out __SP_L__,r28
 10002               	/* prologue: function */
 10003               	/* frame size = 20 */
 10004               	/* stack size = 38 */
 10005               	.L__stack_usage = 38
 10006 4758 6D83      		std Y+5,r22
 10007 475a 7E83      		std Y+6,r23
 10008 475c 8F83      		std Y+7,r24
 10009 475e 9887      		std Y+8,r25
 10010 4760 2987      		std Y+9,r18
 10011 4762 3A87      		std Y+10,r19
 10012 4764 4B87      		std Y+11,r20
 10013 4766 5C87      		std Y+12,r21
 810:adpcm.c       ****     int32_t wd;
 811:adpcm.c       ****     wd = ((int64_t)nbh * 127L) >> 7L;       /* leak factor 127/128 */
 10014               		.loc 1 811 0
 10015 4768 2984      		ldd r2,Y+9
 10016 476a 3A84      		ldd r3,Y+10
 10017 476c 4B84      		ldd r4,Y+11
 10018 476e 5C84      		ldd r5,Y+12
 10019 4770 8985      		ldd r24,Y+9
 10020 4772 9A85      		ldd r25,Y+10
 10021 4774 AB85      		ldd r26,Y+11
 10022 4776 BC85      		ldd r27,Y+12
 10023 4778 BB0F      		lsl r27
 10024 477a 880B      		sbc r24,r24
 10025 477c 982F      		mov r25,r24
 10026 477e DC01      		movw r26,r24
 10027 4780 682E      		mov r6,r24
 10028 4782 782E      		mov r7,r24
 10029 4784 882E      		mov r8,r24
 10030 4786 982E      		mov r9,r24
 10031 4788 A22C      		mov r10,r2
 10032 478a B32C      		mov r11,r3
 10033 478c C42C      		mov r12,r4
 10034 478e D52C      		mov r13,r5
 10035 4790 E62C      		mov r14,r6
 10036 4792 F72C      		mov r15,r7
 10037 4794 082D      		mov r16,r8
 10038 4796 192D      		mov r17,r9
 10039 4798 2A2D      		mov r18,r10
 10040 479a 3B2D      		mov r19,r11
 10041 479c 4C2D      		mov r20,r12
 10042 479e 5D2D      		mov r21,r13
 10043 47a0 6E2D      		mov r22,r14
 10044 47a2 7F2D      		mov r23,r15
 10045 47a4 802F      		mov r24,r16
 10046 47a6 912F      		mov r25,r17
 10047 47a8 07E0      		ldi r16,lo8(7)
 10048 47aa 0E94 0000 		call __ashldi3
 10049 47ae 2D87      		std Y+13,r18
 10050 47b0 3E87      		std Y+14,r19
 10051 47b2 4F87      		std Y+15,r20
 10052 47b4 588B      		std Y+16,r21
 10053 47b6 698B      		std Y+17,r22
 10054 47b8 7A8B      		std Y+18,r23
 10055 47ba 8B8B      		std Y+19,r24
 10056 47bc 9C8B      		std Y+20,r25
 10057 47be AD84      		ldd r10,Y+13
 10058 47c0 BE84      		ldd r11,Y+14
 10059 47c2 CF84      		ldd r12,Y+15
 10060 47c4 D888      		ldd r13,Y+16
 10061 47c6 E988      		ldd r14,Y+17
 10062 47c8 FA88      		ldd r15,Y+18
 10063 47ca 0B89      		ldd r16,Y+19
 10064 47cc 1C89      		ldd r17,Y+20
 10065 47ce 2A2D      		mov r18,r10
 10066 47d0 3B2D      		mov r19,r11
 10067 47d2 4C2D      		mov r20,r12
 10068 47d4 5D2D      		mov r21,r13
 10069 47d6 6E2D      		mov r22,r14
 10070 47d8 7F2D      		mov r23,r15
 10071 47da 802F      		mov r24,r16
 10072 47dc 912F      		mov r25,r17
 10073 47de A22C      		mov r10,r2
 10074 47e0 B32C      		mov r11,r3
 10075 47e2 C42C      		mov r12,r4
 10076 47e4 D52C      		mov r13,r5
 10077 47e6 E62C      		mov r14,r6
 10078 47e8 F72C      		mov r15,r7
 10079 47ea 082D      		mov r16,r8
 10080 47ec 192D      		mov r17,r9
 10081 47ee 0E94 0000 		call __subdi3
 10082 47f2 A22E      		mov r10,r18
 10083 47f4 B32E      		mov r11,r19
 10084 47f6 C42E      		mov r12,r20
 10085 47f8 D52E      		mov r13,r21
 10086 47fa E62E      		mov r14,r22
 10087 47fc F72E      		mov r15,r23
 10088 47fe 082F      		mov r16,r24
 10089 4800 192F      		mov r17,r25
 10090 4802 2A2D      		mov r18,r10
 10091 4804 3B2D      		mov r19,r11
 10092 4806 4C2D      		mov r20,r12
 10093 4808 5D2D      		mov r21,r13
 10094 480a 6E2D      		mov r22,r14
 10095 480c 7F2D      		mov r23,r15
 10096 480e 802F      		mov r24,r16
 10097 4810 912F      		mov r25,r17
 10098 4812 07E0      		ldi r16,lo8(7)
 10099 4814 0E94 0000 		call __ashrdi3
 10100 4818 A22E      		mov r10,r18
 10101 481a B32E      		mov r11,r19
 10102 481c C42E      		mov r12,r20
 10103 481e D52E      		mov r13,r21
 10104 4820 E62E      		mov r14,r22
 10105 4822 F72E      		mov r15,r23
 10106 4824 082F      		mov r16,r24
 10107 4826 192F      		mov r17,r25
 10108 4828 A982      		std Y+1,r10
 10109 482a BA82      		std Y+2,r11
 10110 482c CB82      		std Y+3,r12
 10111 482e DC82      		std Y+4,r13
 812:adpcm.c       ****     nbh = wd + wh_code_table[ih];
 10112               		.loc 1 812 0
 10113 4830 8D81      		ldd r24,Y+5
 10114 4832 9E81      		ldd r25,Y+6
 10115 4834 880F      		lsl r24
 10116 4836 991F      		rol r25
 10117 4838 880F      		lsl r24
 10118 483a 991F      		rol r25
 10119 483c 8050      		subi r24,lo8(-(wh_code_table))
 10120 483e 9040      		sbci r25,hi8(-(wh_code_table))
 10121 4840 FC01      		movw r30,r24
 10122 4842 2081      		ld r18,Z
 10123 4844 3181      		ldd r19,Z+1
 10124 4846 4281      		ldd r20,Z+2
 10125 4848 5381      		ldd r21,Z+3
 10126 484a 8981      		ldd r24,Y+1
 10127 484c 9A81      		ldd r25,Y+2
 10128 484e AB81      		ldd r26,Y+3
 10129 4850 BC81      		ldd r27,Y+4
 10130 4852 820F      		add r24,r18
 10131 4854 931F      		adc r25,r19
 10132 4856 A41F      		adc r26,r20
 10133 4858 B51F      		adc r27,r21
 10134 485a 8987      		std Y+9,r24
 10135 485c 9A87      		std Y+10,r25
 10136 485e AB87      		std Y+11,r26
 10137 4860 BC87      		std Y+12,r27
 813:adpcm.c       ****     if(nbh < 0) nbh = 0;
 10138               		.loc 1 813 0
 10139 4862 8985      		ldd r24,Y+9
 10140 4864 9A85      		ldd r25,Y+10
 10141 4866 AB85      		ldd r26,Y+11
 10142 4868 BC85      		ldd r27,Y+12
 10143 486a BB23      		tst r27
 10144 486c 04F4      		brge .L89
 10145               		.loc 1 813 0 is_stmt 0 discriminator 1
 10146 486e 1986      		std Y+9,__zero_reg__
 10147 4870 1A86      		std Y+10,__zero_reg__
 10148 4872 1B86      		std Y+11,__zero_reg__
 10149 4874 1C86      		std Y+12,__zero_reg__
 10150               	.L89:
 814:adpcm.c       ****     if(nbh > 22528) nbh = 22528;
 10151               		.loc 1 814 0 is_stmt 1
 10152 4876 8985      		ldd r24,Y+9
 10153 4878 9A85      		ldd r25,Y+10
 10154 487a AB85      		ldd r26,Y+11
 10155 487c BC85      		ldd r27,Y+12
 10156 487e 8130      		cpi r24,1
 10157 4880 F8E5      		ldi r31,88
 10158 4882 9F07      		cpc r25,r31
 10159 4884 A105      		cpc r26,__zero_reg__
 10160 4886 B105      		cpc r27,__zero_reg__
 10161 4888 04F0      		brlt .L90
 10162               		.loc 1 814 0 is_stmt 0 discriminator 1
 10163 488a 80E0      		ldi r24,0
 10164 488c 98E5      		ldi r25,lo8(88)
 10165 488e A0E0      		ldi r26,0
 10166 4890 B0E0      		ldi r27,0
 10167 4892 8987      		std Y+9,r24
 10168 4894 9A87      		std Y+10,r25
 10169 4896 AB87      		std Y+11,r26
 10170 4898 BC87      		std Y+12,r27
 10171               	.L90:
 815:adpcm.c       ****     return(nbh);
 10172               		.loc 1 815 0 is_stmt 1
 10173 489a 8985      		ldd r24,Y+9
 10174 489c 9A85      		ldd r25,Y+10
 10175 489e AB85      		ldd r26,Y+11
 10176 48a0 BC85      		ldd r27,Y+12
 816:adpcm.c       **** }
 10177               		.loc 1 816 0
 10178 48a2 BC01      		movw r22,r24
 10179 48a4 CD01      		movw r24,r26
 10180               	/* epilogue start */
 10181 48a6 6496      		adiw r28,20
 10182 48a8 0FB6      		in __tmp_reg__,__SREG__
 10183 48aa F894      		cli
 10184 48ac DEBF      		out __SP_H__,r29
 10185 48ae 0FBE      		out __SREG__,__tmp_reg__
 10186 48b0 CDBF      		out __SP_L__,r28
 10187 48b2 DF91      		pop r29
 10188 48b4 CF91      		pop r28
 10189 48b6 1F91      		pop r17
 10190 48b8 0F91      		pop r16
 10191 48ba FF90      		pop r15
 10192 48bc EF90      		pop r14
 10193 48be DF90      		pop r13
 10194 48c0 CF90      		pop r12
 10195 48c2 BF90      		pop r11
 10196 48c4 AF90      		pop r10
 10197 48c6 9F90      		pop r9
 10198 48c8 8F90      		pop r8
 10199 48ca 7F90      		pop r7
 10200 48cc 6F90      		pop r6
 10201 48ce 5F90      		pop r5
 10202 48d0 4F90      		pop r4
 10203 48d2 3F90      		pop r3
 10204 48d4 2F90      		pop r2
 10205 48d6 0895      		ret
 10206               	.LFE16:
 10208               		.section	.rodata
 10211               	test_data:
 10212 0000 0A        		.byte	10
 10213 0001 F2        		.byte	-14
 10214 0002 EB        		.byte	-21
 10215 0003 67        		.byte	103
 10216 0004 74        		.byte	116
 10217 0005 33        		.byte	51
 10218 0006 55        		.byte	85
 10219 0007 8B        		.byte	-117
 10220 0008 6C        		.byte	108
 10221 0009 1C        		.byte	28
 10222 000a F3        		.byte	-13
 10223 000b C6        		.byte	-58
 10224 000c FF        		.byte	-1
 10225 000d 22        		.byte	34
 10226 000e C0        		.byte	-64
 10227 000f A8        		.byte	-88
 10228 0010 22        		.byte	34
 10229 0011 66        		.byte	102
 10230 0012 76        		.byte	118
 10231 0013 39        		.byte	57
 10232 0014 F6        		.byte	-10
 10233 0015 DD        		.byte	-35
 10234 0016 F0        		.byte	-16
 10235 0017 84        		.byte	-124
 10236 0018 E9        		.byte	-23
 10237 0019 14        		.byte	20
 10238 001a 46        		.byte	70
 10239 001b 7F        		.byte	127
 10240 001c 84        		.byte	-124
 10241 001d 94        		.byte	-108
 10242 001e 6E        		.byte	110
 10243 001f F6        		.byte	-10
 10244 0020 7B        		.byte	123
 10245 0021 64        		.byte	100
 10246 0022 1B        		.byte	27
 10247 0023 F8        		.byte	-8
 10248 0024 E4        		.byte	-28
 10249 0025 BA        		.byte	-70
 10250 0026 09        		.byte	9
 10251 0027 C5        		.byte	-59
 10252 0028 31        		.byte	49
 10253 0029 2B        		.byte	43
 10254 002a 4E        		.byte	78
 10255 002b B0        		.byte	-80
 10256 002c A2        		.byte	-94
 10257 002d 1D        		.byte	29
 10258 002e C6        		.byte	-58
 10259 002f D1        		.byte	-47
 10260 0030 7E        		.byte	126
 10261 0031 86        		.byte	-122
 10262 0032 37        		.byte	55
 10263 0033 FA        		.byte	-6
 10264 0034 E4        		.byte	-28
 10265 0035 BC        		.byte	-68
 10266 0036 56        		.byte	86
 10267 0037 F7        		.byte	-9
 10268 0038 8D        		.byte	-115
 10269 0039 72        		.byte	114
 10270 003a C8        		.byte	-56
 10271 003b 4E        		.byte	78
 10272 003c 9F        		.byte	-97
 10273 003d AA        		.byte	-86
 10274 003e 50        		.byte	80
 10275 003f 17        		.byte	23
 10276 0040 B1        		.byte	-79
 10277 0041 53        		.byte	83
 10278 0042 09        		.byte	9
 10279 0043 7D        		.byte	125
 10280 0044 61        		.byte	97
 10281 0045 BE        		.byte	-66
 10282 0046 E4        		.byte	-28
 10283 0047 B2        		.byte	-78
 10284 0048 6F        		.byte	111
 10285 0049 6C        		.byte	108
 10286 004a A9        		.byte	-87
 10287 004b 4B        		.byte	75
 10288 004c 38        		.byte	56
 10289 004d 07        		.byte	7
 10290 004e 2B        		.byte	43
 10291 004f DB        		.byte	-37
 10292 0050 09        		.byte	9
 10293 0051 0E        		.byte	14
 10294 0052 9C        		.byte	-100
 10295 0053 29        		.byte	41
 10296 0054 FA        		.byte	-6
 10297 0055 09        		.byte	9
 10298 0056 7A        		.byte	122
 10299 0057 9A        		.byte	-102
 10300 0058 6A        		.byte	106
 10301 0059 D2        		.byte	-46
 10302 005a 63        		.byte	99
 10303 005b 7D        		.byte	125
 10304 005c 76        		.byte	118
 10305 005d F5        		.byte	-11
 10306 005e 54        		.byte	84
 10307 005f D5        		.byte	-43
 10308 0060 2D        		.byte	45
 10309 0061 10        		.byte	16
 10310 0062 CF        		.byte	-49
 10311 0063 6B        		.byte	107
 10312 0064 C3        		.byte	-61
 10313 0065 D9        		.byte	-39
 10314 0066 00        		.byte	0
 10315 0067 69        		.byte	105
 10316 0068 6A        		.byte	106
 10317 0069 98        		.byte	-104
 10318 006a 00        		.byte	0
 10319 006b 89        		.byte	-119
 10320 006c 24        		.byte	36
 10321 006d B3        		.byte	-77
 10322 006e D6        		.byte	-42
 10323 006f 22        		.byte	34
 10324 0070 26        		.byte	38
 10325 0071 05        		.byte	5
 10326 0072 3A        		.byte	58
 10327 0073 58        		.byte	88
 10328 0074 37        		.byte	55
 10329 0075 6A        		.byte	106
 10330 0076 51        		.byte	81
 10331 0077 68        		.byte	104
 10332 0078 AE        		.byte	-82
 10333 0079 68        		.byte	104
 10334 007a 60        		.byte	96
 10335 007b 87        		.byte	-121
 10336 007c 63        		.byte	99
 10337 007d D9        		.byte	-39
 10338 007e 6E        		.byte	110
 10339 007f 58        		.byte	88
 10340 0080 3D        		.byte	61
 10341 0081 01        		.byte	1
 10342 0082 61        		.byte	97
 10343 0083 11        		.byte	17
 10344 0084 52        		.byte	82
 10345 0085 D0        		.byte	-48
 10346 0086 C7        		.byte	-57
 10347 0087 DE        		.byte	-34
 10348 0088 03        		.byte	3
 10349 0089 89        		.byte	-119
 10350 008a 10        		.byte	16
 10351 008b 88        		.byte	-120
 10352 008c DE        		.byte	-34
 10353 008d 0F        		.byte	15
 10354 008e 4A        		.byte	74
 10355 008f 11        		.byte	17
 10356 0090 2E        		.byte	46
 10357 0091 7E        		.byte	126
 10358 0092 CF        		.byte	-49
 10359 0093 16        		.byte	22
 10360 0094 EC        		.byte	-20
 10361 0095 DC        		.byte	-36
 10362 0096 5B        		.byte	91
 10363 0097 3F        		.byte	63
 10364 0098 CC        		.byte	-52
 10365 0099 AA        		.byte	-86
 10366 009a E6        		.byte	-26
 10367 009b D6        		.byte	-42
 10368 009c 96        		.byte	-106
 10369 009d AF        		.byte	-81
 10370 009e FE        		.byte	-2
 10371 009f 82        		.byte	-126
 10372               		.local	compressed
 10373               		.comm	compressed,80,1
 10374               		.local	result
 10375               		.comm	result,160,1
 10376               		.text
 10377               	.global	main
 10379               	main:
 10380               	.LFB17:
 817:adpcm.c       **** 
 818:adpcm.c       **** static const int32_t test_data[SIZE*2] //STORE_IN_TEXT_SEGMENT -> no. avr simulator cannot handle t
 819:adpcm.c       **** #ifdef IS_TEST
 820:adpcm.c       ****   = ###TEST_DATA###
 821:adpcm.c       **** #else
 822:adpcm.c       ****   = {1743516170,-1957350540,-957146004,-1463803137,964060706,-2064589322,2135299305,-160525180,-132
 823:adpcm.c       **** #endif
 824:adpcm.c       **** ;
 825:adpcm.c       **** 
 826:adpcm.c       **** static int32_t compressed[SIZE],result[SIZE*2];
 827:adpcm.c       **** #ifndef Seoul_Mate
 828:adpcm.c       **** int main()
 829:adpcm.c       **** {
 10381               		.loc 1 829 0
 10382 48d8 CF92      		push r12
 10383               	.LCFI232:
 10384 48da DF92      		push r13
 10385               	.LCFI233:
 10386 48dc EF92      		push r14
 10387               	.LCFI234:
 10388 48de FF92      		push r15
 10389               	.LCFI235:
 10390 48e0 CF93      		push r28
 10391               	.LCFI236:
 10392 48e2 DF93      		push r29
 10393               	.LCFI237:
 10394 48e4 CDB7      		in r28,__SP_L__
 10395 48e6 DEB7      		in r29,__SP_H__
 10396               	.LCFI238:
 10397 48e8 2C97      		sbiw r28,12
 10398               	.LCFI239:
 10399 48ea 0FB6      		in __tmp_reg__,__SREG__
 10400 48ec F894      		cli
 10401 48ee DEBF      		out __SP_H__,r29
 10402 48f0 0FBE      		out __SREG__,__tmp_reg__
 10403 48f2 CDBF      		out __SP_L__,r28
 10404               	/* prologue: function */
 10405               	/* frame size = 12 */
 10406               	/* stack size = 18 */
 10407               	.L__stack_usage = 18
 830:adpcm.c       ****     int32_t i,j,f/*,answer*/;
 831:adpcm.c       **** 
 832:adpcm.c       **** /* reset, initialize required memory */
 833:adpcm.c       ****      reset();
 10408               		.loc 1 833 0
 10409 48f4 0E94 0000 		call reset
 834:adpcm.c       **** 
 835:adpcm.c       **** /* read in amplitude and frequency for test data */
 836:adpcm.c       ****     /*  scanf("%d",&j);
 837:adpcm.c       ****   scanf("%d",&f); */
 838:adpcm.c       ****      j = 10; f = 2000;  /* krs men, anvnds inte */
 10410               		.loc 1 838 0
 10411 48f8 8AE0      		ldi r24,lo8(10)
 10412 48fa 90E0      		ldi r25,0
 10413 48fc A0E0      		ldi r26,0
 10414 48fe B0E0      		ldi r27,0
 10415 4900 8D83      		std Y+5,r24
 10416 4902 9E83      		std Y+6,r25
 10417 4904 AF83      		std Y+7,r26
 10418 4906 B887      		std Y+8,r27
 10419 4908 80ED      		ldi r24,lo8(-48)
 10420 490a 97E0      		ldi r25,lo8(7)
 10421 490c A0E0      		ldi r26,0
 10422 490e B0E0      		ldi r27,0
 10423 4910 8987      		std Y+9,r24
 10424 4912 9A87      		std Y+10,r25
 10425 4914 AB87      		std Y+11,r26
 10426 4916 BC87      		std Y+12,r27
 839:adpcm.c       **** 
 840:adpcm.c       **** /* 16 KHz sample rate */
 841:adpcm.c       ****     /* XXmain_0, MAX: 2 */
 842:adpcm.c       ****     /* Since the number of times we loop in my_sin depends on the argument we
 843:adpcm.c       ****        add the fact: xxmain_0:[]: */
 844:adpcm.c       **** #if 0
 845:adpcm.c       ****     for(i = 0 ; i < IN_END ; i++) { // Bugfix MBe, 2015/Jul/22: SIZE -> IN_END
 846:adpcm.c       ****               test_data[i] = (int32_t)j*my_cos(f*PI*i); 
 847:adpcm.c       ****     }
 848:adpcm.c       **** #endif
 849:adpcm.c       **** 
 850:adpcm.c       **** 
 851:adpcm.c       **** 
 852:adpcm.c       ****     /* MAX: 2 */
 853:adpcm.c       **** 
 854:adpcm.c       **** /*******Antar att test_data[0] = 10 och test_data[1]=-6 frn ovan,          *******
 855:adpcm.c       ****         och att anropet i forloopen blir encode(test_data[0],test_data[0]);
 856:adpcm.c       **** 		och encode(test_data[1],test_data[1]), eftersom att den annars gr
 857:adpcm.c       ****  *******ver array grnsen                                                  *******/
 858:adpcm.c       **** 
 859:adpcm.c       **** 
 860:adpcm.c       ****    for(i = 0 ; i < IN_END ; i += 2)
 10427               		.loc 1 860 0
 10428 4918 1982      		std Y+1,__zero_reg__
 10429 491a 1A82      		std Y+2,__zero_reg__
 10430 491c 1B82      		std Y+3,__zero_reg__
 10431 491e 1C82      		std Y+4,__zero_reg__
 10432 4920 00C0      		rjmp .L93
 10433               	.L95:
 861:adpcm.c       ****       compressed[i/2] = encode(test_data[i],test_data[i+1]);
 10434               		.loc 1 861 0 discriminator 2
 10435 4922 8981      		ldd r24,Y+1
 10436 4924 9A81      		ldd r25,Y+2
 10437 4926 AB81      		ldd r26,Y+3
 10438 4928 BC81      		ldd r27,Y+4
 10439 492a BB23      		tst r27
 10440 492c 04F4      		brge .L94
 10441 492e 0196      		adiw r24,1
 10442 4930 A11D      		adc r26,__zero_reg__
 10443 4932 B11D      		adc r27,__zero_reg__
 10444               	.L94:
 10445 4934 B595      		asr r27
 10446 4936 A795      		ror r26
 10447 4938 9795      		ror r25
 10448 493a 8795      		ror r24
 10449 493c 6C01      		movw r12,r24
 10450 493e 7D01      		movw r14,r26
 10451 4940 8981      		ldd r24,Y+1
 10452 4942 9A81      		ldd r25,Y+2
 10453 4944 AB81      		ldd r26,Y+3
 10454 4946 BC81      		ldd r27,Y+4
 10455 4948 0196      		adiw r24,1
 10456 494a A11D      		adc r26,__zero_reg__
 10457 494c B11D      		adc r27,__zero_reg__
 10458 494e 880F      		lsl r24
 10459 4950 991F      		rol r25
 10460 4952 880F      		lsl r24
 10461 4954 991F      		rol r25
 10462 4956 8050      		subi r24,lo8(-(test_data))
 10463 4958 9040      		sbci r25,hi8(-(test_data))
 10464 495a FC01      		movw r30,r24
 10465 495c 2081      		ld r18,Z
 10466 495e 3181      		ldd r19,Z+1
 10467 4960 4281      		ldd r20,Z+2
 10468 4962 5381      		ldd r21,Z+3
 10469 4964 8981      		ldd r24,Y+1
 10470 4966 9A81      		ldd r25,Y+2
 10471 4968 880F      		lsl r24
 10472 496a 991F      		rol r25
 10473 496c 880F      		lsl r24
 10474 496e 991F      		rol r25
 10475 4970 8050      		subi r24,lo8(-(test_data))
 10476 4972 9040      		sbci r25,hi8(-(test_data))
 10477 4974 FC01      		movw r30,r24
 10478 4976 8081      		ld r24,Z
 10479 4978 9181      		ldd r25,Z+1
 10480 497a A281      		ldd r26,Z+2
 10481 497c B381      		ldd r27,Z+3
 10482 497e BC01      		movw r22,r24
 10483 4980 CD01      		movw r24,r26
 10484 4982 0E94 0000 		call encode
 10485 4986 DC01      		movw r26,r24
 10486 4988 CB01      		movw r24,r22
 10487 498a 9601      		movw r18,r12
 10488 498c 220F      		lsl r18
 10489 498e 331F      		rol r19
 10490 4990 220F      		lsl r18
 10491 4992 331F      		rol r19
 10492 4994 2050      		subi r18,lo8(-(compressed))
 10493 4996 3040      		sbci r19,hi8(-(compressed))
 10494 4998 F901      		movw r30,r18
 10495 499a 8083      		st Z,r24
 10496 499c 9183      		std Z+1,r25
 10497 499e A283      		std Z+2,r26
 10498 49a0 B383      		std Z+3,r27
 860:adpcm.c       ****    for(i = 0 ; i < IN_END ; i += 2)
 10499               		.loc 1 860 0 discriminator 2
 10500 49a2 8981      		ldd r24,Y+1
 10501 49a4 9A81      		ldd r25,Y+2
 10502 49a6 AB81      		ldd r26,Y+3
 10503 49a8 BC81      		ldd r27,Y+4
 10504 49aa 0296      		adiw r24,2
 10505 49ac A11D      		adc r26,__zero_reg__
 10506 49ae B11D      		adc r27,__zero_reg__
 10507 49b0 8983      		std Y+1,r24
 10508 49b2 9A83      		std Y+2,r25
 10509 49b4 AB83      		std Y+3,r26
 10510 49b6 BC83      		std Y+4,r27
 10511               	.L93:
 860:adpcm.c       ****    for(i = 0 ; i < IN_END ; i += 2)
 10512               		.loc 1 860 0 is_stmt 0 discriminator 1
 10513 49b8 8981      		ldd r24,Y+1
 10514 49ba 9A81      		ldd r25,Y+2
 10515 49bc AB81      		ldd r26,Y+3
 10516 49be BC81      		ldd r27,Y+4
 10517 49c0 8832      		cpi r24,40
 10518 49c2 9105      		cpc r25,__zero_reg__
 10519 49c4 A105      		cpc r26,__zero_reg__
 10520 49c6 B105      		cpc r27,__zero_reg__
 10521 49c8 04F4      		brge .+2
 10522 49ca 00C0      		rjmp .L95
 862:adpcm.c       ****     /* MAX: 2 */
 863:adpcm.c       ****     for(i = 0 ; i < IN_END ; i += 2) {
 10523               		.loc 1 863 0 is_stmt 1
 10524 49cc 1982      		std Y+1,__zero_reg__
 10525 49ce 1A82      		std Y+2,__zero_reg__
 10526 49d0 1B82      		std Y+3,__zero_reg__
 10527 49d2 1C82      		std Y+4,__zero_reg__
 10528 49d4 00C0      		rjmp .L96
 10529               	.L98:
 864:adpcm.c       ****       decode(compressed[i/2]);
 10530               		.loc 1 864 0 discriminator 2
 10531 49d6 8981      		ldd r24,Y+1
 10532 49d8 9A81      		ldd r25,Y+2
 10533 49da AB81      		ldd r26,Y+3
 10534 49dc BC81      		ldd r27,Y+4
 10535 49de BB23      		tst r27
 10536 49e0 04F4      		brge .L97
 10537 49e2 0196      		adiw r24,1
 10538 49e4 A11D      		adc r26,__zero_reg__
 10539 49e6 B11D      		adc r27,__zero_reg__
 10540               	.L97:
 10541 49e8 B595      		asr r27
 10542 49ea A795      		ror r26
 10543 49ec 9795      		ror r25
 10544 49ee 8795      		ror r24
 10545 49f0 880F      		lsl r24
 10546 49f2 991F      		rol r25
 10547 49f4 880F      		lsl r24
 10548 49f6 991F      		rol r25
 10549 49f8 8050      		subi r24,lo8(-(compressed))
 10550 49fa 9040      		sbci r25,hi8(-(compressed))
 10551 49fc FC01      		movw r30,r24
 10552 49fe 8081      		ld r24,Z
 10553 4a00 9181      		ldd r25,Z+1
 10554 4a02 A281      		ldd r26,Z+2
 10555 4a04 B381      		ldd r27,Z+3
 10556 4a06 BC01      		movw r22,r24
 10557 4a08 CD01      		movw r24,r26
 10558 4a0a 0E94 0000 		call decode
 865:adpcm.c       ****       result[i] = xout1;
 10559               		.loc 1 865 0 discriminator 2
 10560 4a0e 8091 0000 		lds r24,xout1
 10561 4a12 9091 0000 		lds r25,xout1+1
 10562 4a16 A091 0000 		lds r26,xout1+2
 10563 4a1a B091 0000 		lds r27,xout1+3
 10564 4a1e 2981      		ldd r18,Y+1
 10565 4a20 3A81      		ldd r19,Y+2
 10566 4a22 220F      		lsl r18
 10567 4a24 331F      		rol r19
 10568 4a26 220F      		lsl r18
 10569 4a28 331F      		rol r19
 10570 4a2a 2050      		subi r18,lo8(-(result))
 10571 4a2c 3040      		sbci r19,hi8(-(result))
 10572 4a2e F901      		movw r30,r18
 10573 4a30 8083      		st Z,r24
 10574 4a32 9183      		std Z+1,r25
 10575 4a34 A283      		std Z+2,r26
 10576 4a36 B383      		std Z+3,r27
 866:adpcm.c       ****       result[i+1] = xout2;
 10577               		.loc 1 866 0 discriminator 2
 10578 4a38 8981      		ldd r24,Y+1
 10579 4a3a 9A81      		ldd r25,Y+2
 10580 4a3c AB81      		ldd r26,Y+3
 10581 4a3e BC81      		ldd r27,Y+4
 10582 4a40 9C01      		movw r18,r24
 10583 4a42 AD01      		movw r20,r26
 10584 4a44 2F5F      		subi r18,-1
 10585 4a46 3F4F      		sbci r19,-1
 10586 4a48 4F4F      		sbci r20,-1
 10587 4a4a 5F4F      		sbci r21,-1
 10588 4a4c 8091 0000 		lds r24,xout2
 10589 4a50 9091 0000 		lds r25,xout2+1
 10590 4a54 A091 0000 		lds r26,xout2+2
 10591 4a58 B091 0000 		lds r27,xout2+3
 10592 4a5c 220F      		lsl r18
 10593 4a5e 331F      		rol r19
 10594 4a60 220F      		lsl r18
 10595 4a62 331F      		rol r19
 10596 4a64 2050      		subi r18,lo8(-(result))
 10597 4a66 3040      		sbci r19,hi8(-(result))
 10598 4a68 F901      		movw r30,r18
 10599 4a6a 8083      		st Z,r24
 10600 4a6c 9183      		std Z+1,r25
 10601 4a6e A283      		std Z+2,r26
 10602 4a70 B383      		std Z+3,r27
 863:adpcm.c       ****     for(i = 0 ; i < IN_END ; i += 2) {
 10603               		.loc 1 863 0 discriminator 2
 10604 4a72 8981      		ldd r24,Y+1
 10605 4a74 9A81      		ldd r25,Y+2
 10606 4a76 AB81      		ldd r26,Y+3
 10607 4a78 BC81      		ldd r27,Y+4
 10608 4a7a 0296      		adiw r24,2
 10609 4a7c A11D      		adc r26,__zero_reg__
 10610 4a7e B11D      		adc r27,__zero_reg__
 10611 4a80 8983      		std Y+1,r24
 10612 4a82 9A83      		std Y+2,r25
 10613 4a84 AB83      		std Y+3,r26
 10614 4a86 BC83      		std Y+4,r27
 10615               	.L96:
 863:adpcm.c       ****     for(i = 0 ; i < IN_END ; i += 2) {
 10616               		.loc 1 863 0 is_stmt 0 discriminator 1
 10617 4a88 8981      		ldd r24,Y+1
 10618 4a8a 9A81      		ldd r25,Y+2
 10619 4a8c AB81      		ldd r26,Y+3
 10620 4a8e BC81      		ldd r27,Y+4
 10621 4a90 8832      		cpi r24,40
 10622 4a92 9105      		cpc r25,__zero_reg__
 10623 4a94 A105      		cpc r26,__zero_reg__
 10624 4a96 B105      		cpc r27,__zero_reg__
 10625 4a98 04F4      		brge .+2
 10626 4a9a 00C0      		rjmp .L98
 867:adpcm.c       ****     }
 868:adpcm.c       **** /*
 869:adpcm.c       **** for( ; j < 32767 ; j++) {
 870:adpcm.c       **** i=IN_END-1;
 871:adpcm.c       **** printf("\n%4d %4d %4d %4d %4d",j,compressed[i/2] >> 6,compressed[i/2] & 63,result[i],result[i-1]);
 872:adpcm.c       **** }
 873:adpcm.c       **** */
 874:adpcm.c       **** /* print32_t ih, il */
 875:adpcm.c       **** /*
 876:adpcm.c       ****     for(i = 0 ; i < IN_END/2 ; i++) printf("\n%4d %2d %2d",
 877:adpcm.c       ****         i,compressed[i] >> 6,compressed[i] & 63);
 878:adpcm.c       **** */
 879:adpcm.c       **** 
 880:adpcm.c       ****     return result[i]+result[i+1];
 10627               		.loc 1 880 0 is_stmt 1
 10628 4a9c 8981      		ldd r24,Y+1
 10629 4a9e 9A81      		ldd r25,Y+2
 10630 4aa0 880F      		lsl r24
 10631 4aa2 991F      		rol r25
 10632 4aa4 880F      		lsl r24
 10633 4aa6 991F      		rol r25
 10634 4aa8 8050      		subi r24,lo8(-(result))
 10635 4aaa 9040      		sbci r25,hi8(-(result))
 10636 4aac FC01      		movw r30,r24
 10637 4aae 8081      		ld r24,Z
 10638 4ab0 9181      		ldd r25,Z+1
 10639 4ab2 A281      		ldd r26,Z+2
 10640 4ab4 B381      		ldd r27,Z+3
 10641 4ab6 9C01      		movw r18,r24
 10642 4ab8 8981      		ldd r24,Y+1
 10643 4aba 9A81      		ldd r25,Y+2
 10644 4abc AB81      		ldd r26,Y+3
 10645 4abe BC81      		ldd r27,Y+4
 10646 4ac0 0196      		adiw r24,1
 10647 4ac2 A11D      		adc r26,__zero_reg__
 10648 4ac4 B11D      		adc r27,__zero_reg__
 10649 4ac6 880F      		lsl r24
 10650 4ac8 991F      		rol r25
 10651 4aca 880F      		lsl r24
 10652 4acc 991F      		rol r25
 10653 4ace 8050      		subi r24,lo8(-(result))
 10654 4ad0 9040      		sbci r25,hi8(-(result))
 10655 4ad2 FC01      		movw r30,r24
 10656 4ad4 8081      		ld r24,Z
 10657 4ad6 9181      		ldd r25,Z+1
 10658 4ad8 A281      		ldd r26,Z+2
 10659 4ada B381      		ldd r27,Z+3
 10660 4adc 820F      		add r24,r18
 10661 4ade 931F      		adc r25,r19
 10662               	/* epilogue start */
 881:adpcm.c       **** }
 10663               		.loc 1 881 0
 10664 4ae0 2C96      		adiw r28,12
 10665 4ae2 0FB6      		in __tmp_reg__,__SREG__
 10666 4ae4 F894      		cli
 10667 4ae6 DEBF      		out __SP_H__,r29
 10668 4ae8 0FBE      		out __SREG__,__tmp_reg__
 10669 4aea CDBF      		out __SP_L__,r28
 10670 4aec DF91      		pop r29
 10671 4aee CF91      		pop r28
 10672 4af0 FF90      		pop r15
 10673 4af2 EF90      		pop r14
 10674 4af4 DF90      		pop r13
 10675 4af6 CF90      		pop r12
 10676 4af8 0895      		ret
 10677               	.LFE17:
 12205               	.Letext0:
 12206               		.file 2 "/usr/lib/gcc/avr/4.7.2/../../../avr/include/stdint.h"
DEFINED SYMBOLS
                            *ABS*:0000000000000000 adpcm.c
     /tmp/ccBvWrHJ.s:2      *ABS*:000000000000003e __SP_H__
     /tmp/ccBvWrHJ.s:3      *ABS*:000000000000003d __SP_L__
     /tmp/ccBvWrHJ.s:4      *ABS*:000000000000003f __SREG__
     /tmp/ccBvWrHJ.s:5      *ABS*:000000000000003b __RAMPZ__
     /tmp/ccBvWrHJ.s:6      *ABS*:0000000000000000 __tmp_reg__
     /tmp/ccBvWrHJ.s:7      *ABS*:0000000000000001 __zero_reg__
                            *COM*:0000000000000060 tqmf
     /tmp/ccBvWrHJ.s:15     .data:0000000000000000 h
                            *COM*:0000000000000004 xl
                            *COM*:0000000000000004 xh
                            *COM*:000000000000002c accumc
                            *COM*:000000000000002c accumd
                            *COM*:0000000000000004 xout1
                            *COM*:0000000000000004 xout2
                            *COM*:0000000000000004 xs
                            *COM*:0000000000000004 xd
                            *COM*:0000000000000004 il
                            *COM*:0000000000000004 szl
                            *COM*:0000000000000004 spl
                            *COM*:0000000000000004 sl
                            *COM*:0000000000000004 el
     /tmp/ccBvWrHJ.s:128    .data:0000000000000060 qq4_code4_table
     /tmp/ccBvWrHJ.s:196    .data:00000000000000a0 qq5_code5_table
     /tmp/ccBvWrHJ.s:328    .data:0000000000000120 qq6_code6_table
                            *COM*:0000000000000018 delay_bpl
                            *COM*:0000000000000018 delay_dltx
     /tmp/ccBvWrHJ.s:590    .data:0000000000000220 wl_code_table
     /tmp/ccBvWrHJ.s:658    .data:0000000000000260 wl_table
     /tmp/ccBvWrHJ.s:694    .data:0000000000000280 ilb_table
                            *COM*:0000000000000004 nbl
                            *COM*:0000000000000004 al1
                            *COM*:0000000000000004 al2
                            *COM*:0000000000000004 plt
                            *COM*:0000000000000004 plt1
                            *COM*:0000000000000004 plt2
                            *COM*:0000000000000004 rs
                            *COM*:0000000000000004 dlt
                            *COM*:0000000000000004 rlt
                            *COM*:0000000000000004 rlt1
                            *COM*:0000000000000004 rlt2
     /tmp/ccBvWrHJ.s:837    .data:0000000000000300 decis_levl
                            *COM*:0000000000000004 detl
     /tmp/ccBvWrHJ.s:962    .data:0000000000000378 quant26bt_pos
     /tmp/ccBvWrHJ.s:1090   .data:00000000000003f4 quant26bt_neg
                            *COM*:0000000000000004 deth
                            *COM*:0000000000000004 sh
                            *COM*:0000000000000004 eh
     /tmp/ccBvWrHJ.s:1221   .data:0000000000000470 qq2_code2_table
     /tmp/ccBvWrHJ.s:1241   .data:0000000000000480 wh_code_table
                            *COM*:0000000000000004 dh
                            *COM*:0000000000000004 ih
                            *COM*:0000000000000004 nbh
                            *COM*:0000000000000004 szh
                            *COM*:0000000000000004 sph
                            *COM*:0000000000000004 ph
                            *COM*:0000000000000004 yh
                            *COM*:0000000000000004 rh
                            *COM*:0000000000000018 delay_dhx
                            *COM*:0000000000000018 delay_bph
                            *COM*:0000000000000004 ah1
                            *COM*:0000000000000004 ah2
                            *COM*:0000000000000004 ph1
                            *COM*:0000000000000004 ph2
                            *COM*:0000000000000004 rh1
                            *COM*:0000000000000004 rh2
                            *COM*:0000000000000004 ilr
                            *COM*:0000000000000004 yl
                            *COM*:0000000000000004 rl
                            *COM*:0000000000000004 dec_deth
                            *COM*:0000000000000004 dec_detl
                            *COM*:0000000000000004 dec_dlt
                            *COM*:0000000000000018 dec_del_bpl
                            *COM*:0000000000000018 dec_del_dltx
                            *COM*:0000000000000004 dec_plt
                            *COM*:0000000000000004 dec_plt1
                            *COM*:0000000000000004 dec_plt2
                            *COM*:0000000000000004 dec_szl
                            *COM*:0000000000000004 dec_spl
                            *COM*:0000000000000004 dec_sl
                            *COM*:0000000000000004 dec_rlt1
                            *COM*:0000000000000004 dec_rlt2
                            *COM*:0000000000000004 dec_rlt
                            *COM*:0000000000000004 dec_al1
                            *COM*:0000000000000004 dec_al2
                            *COM*:0000000000000004 dl
                            *COM*:0000000000000004 dec_nbl
                            *COM*:0000000000000004 dec_yh
                            *COM*:0000000000000004 dec_dh
                            *COM*:0000000000000004 dec_nbh
                            *COM*:0000000000000018 dec_del_bph
                            *COM*:0000000000000018 dec_del_dhx
                            *COM*:0000000000000004 dec_szh
                            *COM*:0000000000000004 dec_rh1
                            *COM*:0000000000000004 dec_rh2
                            *COM*:0000000000000004 dec_ah1
                            *COM*:0000000000000004 dec_ah2
                            *COM*:0000000000000004 dec_ph
                            *COM*:0000000000000004 dec_sph
                            *COM*:0000000000000004 dec_sh
                            *COM*:0000000000000004 dec_rh
                            *COM*:0000000000000004 dec_ph1
                            *COM*:0000000000000004 dec_ph2
     /tmp/ccBvWrHJ.s:1314   .text:0000000000000000 my_abs
     /tmp/ccBvWrHJ.s:1397   .text:0000000000000076 my_fabs
     /tmp/ccBvWrHJ.s:1479   .text:00000000000000ec my_sin
     /tmp/ccBvWrHJ.s:1835   .text:0000000000000362 my_cos
     /tmp/ccBvWrHJ.s:1906   .text:00000000000003c4 encode
     /tmp/ccBvWrHJ.s:7011   .text:00000000000032a6 filtez
     /tmp/ccBvWrHJ.s:7344   .text:00000000000034f6 filtep
     /tmp/ccBvWrHJ.s:7638   .text:00000000000036fe quantl
     /tmp/ccBvWrHJ.s:7975   .text:0000000000003942 logscl
     /tmp/ccBvWrHJ.s:8238   .text:0000000000003b02 scalel
     /tmp/ccBvWrHJ.s:8380   .text:0000000000003bec upzero
     /tmp/ccBvWrHJ.s:8850   .text:0000000000003f26 uppol2
     /tmp/ccBvWrHJ.s:9470   .text:00000000000043ae uppol1
     /tmp/ccBvWrHJ.s:9953   .text:0000000000004724 logsch
     /tmp/ccBvWrHJ.s:4216   .text:00000000000018a0 decode
     /tmp/ccBvWrHJ.s:6458   .text:0000000000002cf0 reset
     /tmp/ccBvWrHJ.s:10211  .rodata:0000000000000000 test_data
                             .bss:0000000000000000 compressed
     /tmp/ccBvWrHJ.s:10373  .bss:0000000000000050 result
     /tmp/ccBvWrHJ.s:10379  .text:00000000000048d8 main

UNDEFINED SYMBOLS
__mulsi3
__divmodsi4
__muldi3
__adddi3
__ashrdi3
__subdi3
__cmpdi2
__ashldi3
__muluhisi3
__cmpdi2_s8
__negdi2
__adddi3_s8
__do_copy_data
__do_clear_bss
