
main.elf:     file format elf32-avr


Disassembly of section .text:

00000000 <__vectors>:
__vectors():
       0:	0c 94 46 00 	jmp	0x8c	; 0x8c <__ctors_end>
       4:	0c 94 65 00 	jmp	0xca	; 0xca <__bad_interrupt>
       8:	0c 94 65 00 	jmp	0xca	; 0xca <__bad_interrupt>
       c:	0c 94 65 00 	jmp	0xca	; 0xca <__bad_interrupt>
      10:	0c 94 65 00 	jmp	0xca	; 0xca <__bad_interrupt>
      14:	0c 94 65 00 	jmp	0xca	; 0xca <__bad_interrupt>
      18:	0c 94 65 00 	jmp	0xca	; 0xca <__bad_interrupt>
      1c:	0c 94 65 00 	jmp	0xca	; 0xca <__bad_interrupt>
      20:	0c 94 65 00 	jmp	0xca	; 0xca <__bad_interrupt>
      24:	0c 94 65 00 	jmp	0xca	; 0xca <__bad_interrupt>
      28:	0c 94 65 00 	jmp	0xca	; 0xca <__bad_interrupt>
      2c:	0c 94 65 00 	jmp	0xca	; 0xca <__bad_interrupt>
      30:	0c 94 65 00 	jmp	0xca	; 0xca <__bad_interrupt>
      34:	0c 94 65 00 	jmp	0xca	; 0xca <__bad_interrupt>
      38:	0c 94 65 00 	jmp	0xca	; 0xca <__bad_interrupt>
      3c:	0c 94 65 00 	jmp	0xca	; 0xca <__bad_interrupt>
      40:	0c 94 65 00 	jmp	0xca	; 0xca <__bad_interrupt>
      44:	0c 94 65 00 	jmp	0xca	; 0xca <__bad_interrupt>
      48:	0c 94 65 00 	jmp	0xca	; 0xca <__bad_interrupt>
      4c:	0c 94 65 00 	jmp	0xca	; 0xca <__bad_interrupt>
      50:	0c 94 65 00 	jmp	0xca	; 0xca <__bad_interrupt>
      54:	0c 94 65 00 	jmp	0xca	; 0xca <__bad_interrupt>
      58:	0c 94 65 00 	jmp	0xca	; 0xca <__bad_interrupt>
      5c:	0c 94 65 00 	jmp	0xca	; 0xca <__bad_interrupt>
      60:	0c 94 65 00 	jmp	0xca	; 0xca <__bad_interrupt>
      64:	0c 94 65 00 	jmp	0xca	; 0xca <__bad_interrupt>
      68:	0c 94 65 00 	jmp	0xca	; 0xca <__bad_interrupt>
      6c:	0c 94 65 00 	jmp	0xca	; 0xca <__bad_interrupt>
      70:	0c 94 65 00 	jmp	0xca	; 0xca <__bad_interrupt>
      74:	0c 94 65 00 	jmp	0xca	; 0xca <__bad_interrupt>
      78:	0c 94 65 00 	jmp	0xca	; 0xca <__bad_interrupt>
      7c:	0c 94 65 00 	jmp	0xca	; 0xca <__bad_interrupt>
      80:	0c 94 65 00 	jmp	0xca	; 0xca <__bad_interrupt>
      84:	0c 94 65 00 	jmp	0xca	; 0xca <__bad_interrupt>
      88:	0c 94 65 00 	jmp	0xca	; 0xca <__bad_interrupt>

0000008c <__ctors_end>:
__trampolines_start():
      8c:	11 24       	eor	r1, r1
      8e:	1f be       	out	0x3f, r1	; 63
      90:	cf ef       	ldi	r28, 0xFF	; 255
      92:	d0 e1       	ldi	r29, 0x10	; 16
      94:	de bf       	out	0x3e, r29	; 62
      96:	cd bf       	out	0x3d, r28	; 61

00000098 <__do_copy_data>:
__do_copy_data():
      98:	16 e0       	ldi	r17, 0x06	; 6
      9a:	a0 e0       	ldi	r26, 0x00	; 0
      9c:	b1 e0       	ldi	r27, 0x01	; 1
      9e:	e6 ea       	ldi	r30, 0xA6	; 166
      a0:	ff e4       	ldi	r31, 0x4F	; 79
      a2:	00 e0       	ldi	r16, 0x00	; 0
      a4:	0b bf       	out	0x3b, r16	; 59
      a6:	02 c0       	rjmp	.+4      	; 0xac <__do_copy_data+0x14>
      a8:	07 90       	elpm	r0, Z+
      aa:	0d 92       	st	X+, r0
      ac:	a0 33       	cpi	r26, 0x30	; 48
      ae:	b1 07       	cpc	r27, r17
      b0:	d9 f7       	brne	.-10     	; 0xa8 <__do_copy_data+0x10>

000000b2 <__do_clear_bss>:
__do_clear_bss():
      b2:	29 e0       	ldi	r18, 0x09	; 9
      b4:	a0 e3       	ldi	r26, 0x30	; 48
      b6:	b6 e0       	ldi	r27, 0x06	; 6
      b8:	01 c0       	rjmp	.+2      	; 0xbc <.do_clear_bss_start>

000000ba <.do_clear_bss_loop>:
      ba:	1d 92       	st	X+, r1

000000bc <.do_clear_bss_start>:
      bc:	ac 3b       	cpi	r26, 0xBC	; 188
      be:	b2 07       	cpc	r27, r18
      c0:	e1 f7       	brne	.-8      	; 0xba <.do_clear_bss_loop>
.do_clear_bss_start():
      c2:	0e 94 82 25 	call	0x4b04	; 0x4b04 <main>
      c6:	0c 94 d1 27 	jmp	0x4fa2	; 0x4fa2 <_exit>

000000ca <__bad_interrupt>:
__vector_22():
      ca:	0c 94 00 00 	jmp	0	; 0x0 <__vectors>

000000ce <my_abs>:
my_abs():
/home/becker/async/wcet-benchmarks/benchmarks/adpcm-decode/adpcm.c:267
      ce:	cf 93       	push	r28
      d0:	df 93       	push	r29
      d2:	cd b7       	in	r28, 0x3d	; 61
      d4:	de b7       	in	r29, 0x3e	; 62
      d6:	28 97       	sbiw	r28, 0x08	; 8
      d8:	0f b6       	in	r0, 0x3f	; 63
      da:	f8 94       	cli
      dc:	de bf       	out	0x3e, r29	; 62
      de:	0f be       	out	0x3f, r0	; 63
      e0:	cd bf       	out	0x3d, r28	; 61
      e2:	6d 83       	std	Y+5, r22	; 0x05
      e4:	7e 83       	std	Y+6, r23	; 0x06
      e6:	8f 83       	std	Y+7, r24	; 0x07
      e8:	98 87       	std	Y+8, r25	; 0x08
/home/becker/async/wcet-benchmarks/benchmarks/adpcm-decode/adpcm.c:270
      ea:	8d 81       	ldd	r24, Y+5	; 0x05
      ec:	9e 81       	ldd	r25, Y+6	; 0x06
      ee:	af 81       	ldd	r26, Y+7	; 0x07
      f0:	b8 85       	ldd	r27, Y+8	; 0x08
      f2:	bb 23       	and	r27, r27
      f4:	4c f0       	brlt	.+18     	; 0x108 <my_abs+0x3a>
/home/becker/async/wcet-benchmarks/benchmarks/adpcm-decode/adpcm.c:270 (discriminator 1)
      f6:	8d 81       	ldd	r24, Y+5	; 0x05
      f8:	9e 81       	ldd	r25, Y+6	; 0x06
      fa:	af 81       	ldd	r26, Y+7	; 0x07
      fc:	b8 85       	ldd	r27, Y+8	; 0x08
      fe:	89 83       	std	Y+1, r24	; 0x01
     100:	9a 83       	std	Y+2, r25	; 0x02
     102:	ab 83       	std	Y+3, r26	; 0x03
     104:	bc 83       	std	Y+4, r27	; 0x04
     106:	0f c0       	rjmp	.+30     	; 0x126 <my_abs+0x58>
/home/becker/async/wcet-benchmarks/benchmarks/adpcm-decode/adpcm.c:271
     108:	8d 81       	ldd	r24, Y+5	; 0x05
     10a:	9e 81       	ldd	r25, Y+6	; 0x06
     10c:	af 81       	ldd	r26, Y+7	; 0x07
     10e:	b8 85       	ldd	r27, Y+8	; 0x08
     110:	b0 95       	com	r27
     112:	a0 95       	com	r26
     114:	90 95       	com	r25
     116:	81 95       	neg	r24
     118:	9f 4f       	sbci	r25, 0xFF	; 255
     11a:	af 4f       	sbci	r26, 0xFF	; 255
     11c:	bf 4f       	sbci	r27, 0xFF	; 255
     11e:	89 83       	std	Y+1, r24	; 0x01
     120:	9a 83       	std	Y+2, r25	; 0x02
     122:	ab 83       	std	Y+3, r26	; 0x03
     124:	bc 83       	std	Y+4, r27	; 0x04
/home/becker/async/wcet-benchmarks/benchmarks/adpcm-decode/adpcm.c:272
     126:	89 81       	ldd	r24, Y+1	; 0x01
     128:	9a 81       	ldd	r25, Y+2	; 0x02
     12a:	ab 81       	ldd	r26, Y+3	; 0x03
     12c:	bc 81       	ldd	r27, Y+4	; 0x04
/home/becker/async/wcet-benchmarks/benchmarks/adpcm-decode/adpcm.c:273
     12e:	bc 01       	movw	r22, r24
     130:	cd 01       	movw	r24, r26
     132:	28 96       	adiw	r28, 0x08	; 8
     134:	0f b6       	in	r0, 0x3f	; 63
     136:	f8 94       	cli
     138:	de bf       	out	0x3e, r29	; 62
     13a:	0f be       	out	0x3f, r0	; 63
     13c:	cd bf       	out	0x3d, r28	; 61
     13e:	df 91       	pop	r29
     140:	cf 91       	pop	r28
     142:	08 95       	ret

00000144 <my_fabs>:
my_fabs():
/home/becker/async/wcet-benchmarks/benchmarks/adpcm-decode/adpcm.c:277
     144:	cf 93       	push	r28
     146:	df 93       	push	r29
     148:	cd b7       	in	r28, 0x3d	; 61
     14a:	de b7       	in	r29, 0x3e	; 62
     14c:	28 97       	sbiw	r28, 0x08	; 8
     14e:	0f b6       	in	r0, 0x3f	; 63
     150:	f8 94       	cli
     152:	de bf       	out	0x3e, r29	; 62
     154:	0f be       	out	0x3f, r0	; 63
     156:	cd bf       	out	0x3d, r28	; 61
     158:	6d 83       	std	Y+5, r22	; 0x05
     15a:	7e 83       	std	Y+6, r23	; 0x06
     15c:	8f 83       	std	Y+7, r24	; 0x07
     15e:	98 87       	std	Y+8, r25	; 0x08
/home/becker/async/wcet-benchmarks/benchmarks/adpcm-decode/adpcm.c:280
     160:	8d 81       	ldd	r24, Y+5	; 0x05
     162:	9e 81       	ldd	r25, Y+6	; 0x06
     164:	af 81       	ldd	r26, Y+7	; 0x07
     166:	b8 85       	ldd	r27, Y+8	; 0x08
     168:	bb 23       	and	r27, r27
     16a:	4c f0       	brlt	.+18     	; 0x17e <my_fabs+0x3a>
/home/becker/async/wcet-benchmarks/benchmarks/adpcm-decode/adpcm.c:280 (discriminator 1)
     16c:	8d 81       	ldd	r24, Y+5	; 0x05
     16e:	9e 81       	ldd	r25, Y+6	; 0x06
     170:	af 81       	ldd	r26, Y+7	; 0x07
     172:	b8 85       	ldd	r27, Y+8	; 0x08
     174:	89 83       	std	Y+1, r24	; 0x01
     176:	9a 83       	std	Y+2, r25	; 0x02
     178:	ab 83       	std	Y+3, r26	; 0x03
     17a:	bc 83       	std	Y+4, r27	; 0x04
     17c:	0f c0       	rjmp	.+30     	; 0x19c <my_fabs+0x58>
/home/becker/async/wcet-benchmarks/benchmarks/adpcm-decode/adpcm.c:281
     17e:	8d 81       	ldd	r24, Y+5	; 0x05
     180:	9e 81       	ldd	r25, Y+6	; 0x06
     182:	af 81       	ldd	r26, Y+7	; 0x07
     184:	b8 85       	ldd	r27, Y+8	; 0x08
     186:	b0 95       	com	r27
     188:	a0 95       	com	r26
     18a:	90 95       	com	r25
     18c:	81 95       	neg	r24
     18e:	9f 4f       	sbci	r25, 0xFF	; 255
     190:	af 4f       	sbci	r26, 0xFF	; 255
     192:	bf 4f       	sbci	r27, 0xFF	; 255
     194:	89 83       	std	Y+1, r24	; 0x01
     196:	9a 83       	std	Y+2, r25	; 0x02
     198:	ab 83       	std	Y+3, r26	; 0x03
     19a:	bc 83       	std	Y+4, r27	; 0x04
/home/becker/async/wcet-benchmarks/benchmarks/adpcm-decode/adpcm.c:282
     19c:	89 81       	ldd	r24, Y+1	; 0x01
     19e:	9a 81       	ldd	r25, Y+2	; 0x02
     1a0:	ab 81       	ldd	r26, Y+3	; 0x03
     1a2:	bc 81       	ldd	r27, Y+4	; 0x04
/home/becker/async/wcet-benchmarks/benchmarks/adpcm-decode/adpcm.c:283
     1a4:	bc 01       	movw	r22, r24
     1a6:	cd 01       	movw	r24, r26
     1a8:	28 96       	adiw	r28, 0x08	; 8
     1aa:	0f b6       	in	r0, 0x3f	; 63
     1ac:	f8 94       	cli
     1ae:	de bf       	out	0x3e, r29	; 62
     1b0:	0f be       	out	0x3f, r0	; 63
     1b2:	cd bf       	out	0x3d, r28	; 61
     1b4:	df 91       	pop	r29
     1b6:	cf 91       	pop	r28
     1b8:	08 95       	ret

000001ba <my_sin>:
my_sin():
/home/becker/async/wcet-benchmarks/benchmarks/adpcm-decode/adpcm.c:286
     1ba:	ef 92       	push	r14
     1bc:	ff 92       	push	r15
     1be:	0f 93       	push	r16
     1c0:	1f 93       	push	r17
     1c2:	cf 93       	push	r28
     1c4:	df 93       	push	r29
     1c6:	cd b7       	in	r28, 0x3d	; 61
     1c8:	de b7       	in	r29, 0x3e	; 62
     1ca:	68 97       	sbiw	r28, 0x18	; 24
     1cc:	0f b6       	in	r0, 0x3f	; 63
     1ce:	f8 94       	cli
     1d0:	de bf       	out	0x3e, r29	; 62
     1d2:	0f be       	out	0x3f, r0	; 63
     1d4:	cd bf       	out	0x3d, r28	; 61
     1d6:	6d 87       	std	Y+13, r22	; 0x0d
     1d8:	7e 87       	std	Y+14, r23	; 0x0e
     1da:	8f 87       	std	Y+15, r24	; 0x0f
     1dc:	98 8b       	std	Y+16, r25	; 0x10
/home/becker/async/wcet-benchmarks/benchmarks/adpcm-decode/adpcm.c:288
     1de:	1d 82       	std	Y+5, r1	; 0x05
     1e0:	1e 82       	std	Y+6, r1	; 0x06
     1e2:	1f 82       	std	Y+7, r1	; 0x07
     1e4:	18 86       	std	Y+8, r1	; 0x08
/home/becker/async/wcet-benchmarks/benchmarks/adpcm-decode/adpcm.c:290
     1e6:	81 e0       	ldi	r24, 0x01	; 1
     1e8:	90 e0       	ldi	r25, 0x00	; 0
     1ea:	a0 e0       	ldi	r26, 0x00	; 0
     1ec:	b0 e0       	ldi	r27, 0x00	; 0
     1ee:	89 87       	std	Y+9, r24	; 0x09
     1f0:	9a 87       	std	Y+10, r25	; 0x0a
     1f2:	ab 87       	std	Y+11, r26	; 0x0b
     1f4:	bc 87       	std	Y+12, r27	; 0x0c
/home/becker/async/wcet-benchmarks/benchmarks/adpcm-decode/adpcm.c:293
     1f6:	0c c0       	rjmp	.+24     	; 0x210 <my_sin+0x56>
/home/becker/async/wcet-benchmarks/benchmarks/adpcm-decode/adpcm.c:294
     1f8:	8d 85       	ldd	r24, Y+13	; 0x0d
     1fa:	9e 85       	ldd	r25, Y+14	; 0x0e
     1fc:	af 85       	ldd	r26, Y+15	; 0x0f
     1fe:	b8 89       	ldd	r27, Y+16	; 0x10
     200:	8a 58       	subi	r24, 0x8A	; 138
     202:	98 41       	sbci	r25, 0x18	; 24
     204:	a1 09       	sbc	r26, r1
     206:	b1 09       	sbc	r27, r1
     208:	8d 87       	std	Y+13, r24	; 0x0d
     20a:	9e 87       	std	Y+14, r25	; 0x0e
     20c:	af 87       	std	Y+15, r26	; 0x0f
     20e:	b8 8b       	std	Y+16, r27	; 0x10
/home/becker/async/wcet-benchmarks/benchmarks/adpcm-decode/adpcm.c:293 (discriminator 1)
     210:	8d 85       	ldd	r24, Y+13	; 0x0d
     212:	9e 85       	ldd	r25, Y+14	; 0x0e
     214:	af 85       	ldd	r26, Y+15	; 0x0f
     216:	b8 89       	ldd	r27, Y+16	; 0x10
     218:	8b 38       	cpi	r24, 0x8B	; 139
     21a:	28 e1       	ldi	r18, 0x18	; 24
     21c:	92 07       	cpc	r25, r18
     21e:	a1 05       	cpc	r26, r1
     220:	b1 05       	cpc	r27, r1
     222:	54 f7       	brge	.-44     	; 0x1f8 <my_sin+0x3e>
/home/becker/async/wcet-benchmarks/benchmarks/adpcm-decode/adpcm.c:296
     224:	0c c0       	rjmp	.+24     	; 0x23e <my_sin+0x84>
/home/becker/async/wcet-benchmarks/benchmarks/adpcm-decode/adpcm.c:297
     226:	8d 85       	ldd	r24, Y+13	; 0x0d
     228:	9e 85       	ldd	r25, Y+14	; 0x0e
     22a:	af 85       	ldd	r26, Y+15	; 0x0f
     22c:	b8 89       	ldd	r27, Y+16	; 0x10
     22e:	86 57       	subi	r24, 0x76	; 118
     230:	97 4e       	sbci	r25, 0xE7	; 231
     232:	af 4f       	sbci	r26, 0xFF	; 255
     234:	bf 4f       	sbci	r27, 0xFF	; 255
     236:	8d 87       	std	Y+13, r24	; 0x0d
     238:	9e 87       	std	Y+14, r25	; 0x0e
     23a:	af 87       	std	Y+15, r26	; 0x0f
     23c:	b8 8b       	std	Y+16, r27	; 0x10
/home/becker/async/wcet-benchmarks/benchmarks/adpcm-decode/adpcm.c:296 (discriminator 1)
     23e:	8d 85       	ldd	r24, Y+13	; 0x0d
     240:	9e 85       	ldd	r25, Y+14	; 0x0e
     242:	af 85       	ldd	r26, Y+15	; 0x0f
     244:	b8 89       	ldd	r27, Y+16	; 0x10
     246:	86 37       	cpi	r24, 0x76	; 118
     248:	27 ee       	ldi	r18, 0xE7	; 231
     24a:	92 07       	cpc	r25, r18
     24c:	2f ef       	ldi	r18, 0xFF	; 255
     24e:	a2 07       	cpc	r26, r18
     250:	b2 07       	cpc	r27, r18
     252:	4c f3       	brlt	.-46     	; 0x226 <my_sin+0x6c>
/home/becker/async/wcet-benchmarks/benchmarks/adpcm-decode/adpcm.c:298
     254:	8d 85       	ldd	r24, Y+13	; 0x0d
     256:	9e 85       	ldd	r25, Y+14	; 0x0e
     258:	af 85       	ldd	r26, Y+15	; 0x0f
     25a:	b8 89       	ldd	r27, Y+16	; 0x10
     25c:	89 83       	std	Y+1, r24	; 0x01
     25e:	9a 83       	std	Y+2, r25	; 0x02
     260:	ab 83       	std	Y+3, r26	; 0x03
     262:	bc 83       	std	Y+4, r27	; 0x04
/home/becker/async/wcet-benchmarks/benchmarks/adpcm-decode/adpcm.c:299
     264:	89 81       	ldd	r24, Y+1	; 0x01
     266:	9a 81       	ldd	r25, Y+2	; 0x02
     268:	ab 81       	ldd	r26, Y+3	; 0x03
     26a:	bc 81       	ldd	r27, Y+4	; 0x04
     26c:	8d 83       	std	Y+5, r24	; 0x05
     26e:	9e 83       	std	Y+6, r25	; 0x06
     270:	af 83       	std	Y+7, r26	; 0x07
     272:	b8 87       	std	Y+8, r27	; 0x08
/home/becker/async/wcet-benchmarks/benchmarks/adpcm-decode/adpcm.c:300
     274:	2d 85       	ldd	r18, Y+13	; 0x0d
     276:	3e 85       	ldd	r19, Y+14	; 0x0e
     278:	4f 85       	ldd	r20, Y+15	; 0x0f
     27a:	58 89       	ldd	r21, Y+16	; 0x10
     27c:	8d 85       	ldd	r24, Y+13	; 0x0d
     27e:	9e 85       	ldd	r25, Y+14	; 0x0e
     280:	af 85       	ldd	r26, Y+15	; 0x0f
     282:	b8 89       	ldd	r27, Y+16	; 0x10
     284:	bc 01       	movw	r22, r24
     286:	cd 01       	movw	r24, r26
     288:	0e 94 93 26 	call	0x4d26	; 0x4d26 <__mulsi3>
     28c:	dc 01       	movw	r26, r24
     28e:	cb 01       	movw	r24, r22
     290:	22 27       	eor	r18, r18
     292:	33 27       	eor	r19, r19
     294:	a9 01       	movw	r20, r18
     296:	28 1b       	sub	r18, r24
     298:	39 0b       	sbc	r19, r25
     29a:	4a 0b       	sbc	r20, r26
     29c:	5b 0b       	sbc	r21, r27
     29e:	89 81       	ldd	r24, Y+1	; 0x01
     2a0:	9a 81       	ldd	r25, Y+2	; 0x02
     2a2:	ab 81       	ldd	r26, Y+3	; 0x03
     2a4:	bc 81       	ldd	r27, Y+4	; 0x04
     2a6:	bc 01       	movw	r22, r24
     2a8:	cd 01       	movw	r24, r26
     2aa:	0e 94 93 26 	call	0x4d26	; 0x4d26 <__mulsi3>
     2ae:	7b 01       	movw	r14, r22
     2b0:	8c 01       	movw	r16, r24
/home/becker/async/wcet-benchmarks/benchmarks/adpcm-decode/adpcm.c:301
     2b2:	89 85       	ldd	r24, Y+9	; 0x09
     2b4:	9a 85       	ldd	r25, Y+10	; 0x0a
     2b6:	ab 85       	ldd	r26, Y+11	; 0x0b
     2b8:	bc 85       	ldd	r27, Y+12	; 0x0c
     2ba:	9c 01       	movw	r18, r24
     2bc:	ad 01       	movw	r20, r26
     2be:	22 0f       	add	r18, r18
     2c0:	33 1f       	adc	r19, r19
     2c2:	44 1f       	adc	r20, r20
     2c4:	55 1f       	adc	r21, r21
     2c6:	89 85       	ldd	r24, Y+9	; 0x09
     2c8:	9a 85       	ldd	r25, Y+10	; 0x0a
     2ca:	ab 85       	ldd	r26, Y+11	; 0x0b
     2cc:	bc 85       	ldd	r27, Y+12	; 0x0c
     2ce:	88 0f       	add	r24, r24
     2d0:	99 1f       	adc	r25, r25
     2d2:	aa 1f       	adc	r26, r26
     2d4:	bb 1f       	adc	r27, r27
     2d6:	01 96       	adiw	r24, 0x01	; 1
     2d8:	a1 1d       	adc	r26, r1
     2da:	b1 1d       	adc	r27, r1
     2dc:	bc 01       	movw	r22, r24
     2de:	cd 01       	movw	r24, r26
     2e0:	0e 94 93 26 	call	0x4d26	; 0x4d26 <__mulsi3>
     2e4:	9b 01       	movw	r18, r22
     2e6:	ac 01       	movw	r20, r24
/home/becker/async/wcet-benchmarks/benchmarks/adpcm-decode/adpcm.c:300
     2e8:	c8 01       	movw	r24, r16
     2ea:	b7 01       	movw	r22, r14
     2ec:	0e 94 a3 26 	call	0x4d46	; 0x4d46 <__divmodsi4>
     2f0:	da 01       	movw	r26, r20
     2f2:	c9 01       	movw	r24, r18
     2f4:	89 83       	std	Y+1, r24	; 0x01
     2f6:	9a 83       	std	Y+2, r25	; 0x02
     2f8:	ab 83       	std	Y+3, r26	; 0x03
     2fa:	bc 83       	std	Y+4, r27	; 0x04
/home/becker/async/wcet-benchmarks/benchmarks/adpcm-decode/adpcm.c:302
     2fc:	2d 81       	ldd	r18, Y+5	; 0x05
     2fe:	3e 81       	ldd	r19, Y+6	; 0x06
     300:	4f 81       	ldd	r20, Y+7	; 0x07
     302:	58 85       	ldd	r21, Y+8	; 0x08
     304:	89 81       	ldd	r24, Y+1	; 0x01
     306:	9a 81       	ldd	r25, Y+2	; 0x02
     308:	ab 81       	ldd	r26, Y+3	; 0x03
     30a:	bc 81       	ldd	r27, Y+4	; 0x04
     30c:	82 0f       	add	r24, r18
     30e:	93 1f       	adc	r25, r19
     310:	a4 1f       	adc	r26, r20
     312:	b5 1f       	adc	r27, r21
     314:	8d 83       	std	Y+5, r24	; 0x05
     316:	9e 83       	std	Y+6, r25	; 0x06
     318:	af 83       	std	Y+7, r26	; 0x07
     31a:	b8 87       	std	Y+8, r27	; 0x08
/home/becker/async/wcet-benchmarks/benchmarks/adpcm-decode/adpcm.c:303
     31c:	89 85       	ldd	r24, Y+9	; 0x09
     31e:	9a 85       	ldd	r25, Y+10	; 0x0a
     320:	ab 85       	ldd	r26, Y+11	; 0x0b
     322:	bc 85       	ldd	r27, Y+12	; 0x0c
     324:	01 96       	adiw	r24, 0x01	; 1
     326:	a1 1d       	adc	r26, r1
     328:	b1 1d       	adc	r27, r1
     32a:	89 87       	std	Y+9, r24	; 0x09
     32c:	9a 87       	std	Y+10, r25	; 0x0a
     32e:	ab 87       	std	Y+11, r26	; 0x0b
     330:	bc 87       	std	Y+12, r27	; 0x0c
/home/becker/async/wcet-benchmarks/benchmarks/adpcm-decode/adpcm.c:306
     332:	5f c0       	rjmp	.+190    	; 0x3f2 <my_sin+0x238>
/home/becker/async/wcet-benchmarks/benchmarks/adpcm-decode/adpcm.c:307
     334:	2d 85       	ldd	r18, Y+13	; 0x0d
     336:	3e 85       	ldd	r19, Y+14	; 0x0e
     338:	4f 85       	ldd	r20, Y+15	; 0x0f
     33a:	58 89       	ldd	r21, Y+16	; 0x10
     33c:	8d 85       	ldd	r24, Y+13	; 0x0d
     33e:	9e 85       	ldd	r25, Y+14	; 0x0e
     340:	af 85       	ldd	r26, Y+15	; 0x0f
     342:	b8 89       	ldd	r27, Y+16	; 0x10
     344:	bc 01       	movw	r22, r24
     346:	cd 01       	movw	r24, r26
     348:	0e 94 93 26 	call	0x4d26	; 0x4d26 <__mulsi3>
     34c:	dc 01       	movw	r26, r24
     34e:	cb 01       	movw	r24, r22
     350:	22 27       	eor	r18, r18
     352:	33 27       	eor	r19, r19
     354:	a9 01       	movw	r20, r18
     356:	28 1b       	sub	r18, r24
     358:	39 0b       	sbc	r19, r25
     35a:	4a 0b       	sbc	r20, r26
     35c:	5b 0b       	sbc	r21, r27
     35e:	89 81       	ldd	r24, Y+1	; 0x01
     360:	9a 81       	ldd	r25, Y+2	; 0x02
     362:	ab 81       	ldd	r26, Y+3	; 0x03
     364:	bc 81       	ldd	r27, Y+4	; 0x04
     366:	bc 01       	movw	r22, r24
     368:	cd 01       	movw	r24, r26
     36a:	0e 94 93 26 	call	0x4d26	; 0x4d26 <__mulsi3>
     36e:	7b 01       	movw	r14, r22
     370:	8c 01       	movw	r16, r24
/home/becker/async/wcet-benchmarks/benchmarks/adpcm-decode/adpcm.c:308
     372:	89 85       	ldd	r24, Y+9	; 0x09
     374:	9a 85       	ldd	r25, Y+10	; 0x0a
     376:	ab 85       	ldd	r26, Y+11	; 0x0b
     378:	bc 85       	ldd	r27, Y+12	; 0x0c
     37a:	9c 01       	movw	r18, r24
     37c:	ad 01       	movw	r20, r26
     37e:	22 0f       	add	r18, r18
     380:	33 1f       	adc	r19, r19
     382:	44 1f       	adc	r20, r20
     384:	55 1f       	adc	r21, r21
     386:	89 85       	ldd	r24, Y+9	; 0x09
     388:	9a 85       	ldd	r25, Y+10	; 0x0a
     38a:	ab 85       	ldd	r26, Y+11	; 0x0b
     38c:	bc 85       	ldd	r27, Y+12	; 0x0c
     38e:	88 0f       	add	r24, r24
     390:	99 1f       	adc	r25, r25
     392:	aa 1f       	adc	r26, r26
     394:	bb 1f       	adc	r27, r27
     396:	01 96       	adiw	r24, 0x01	; 1
     398:	a1 1d       	adc	r26, r1
     39a:	b1 1d       	adc	r27, r1
     39c:	bc 01       	movw	r22, r24
     39e:	cd 01       	movw	r24, r26
     3a0:	0e 94 93 26 	call	0x4d26	; 0x4d26 <__mulsi3>
     3a4:	9b 01       	movw	r18, r22
     3a6:	ac 01       	movw	r20, r24
/home/becker/async/wcet-benchmarks/benchmarks/adpcm-decode/adpcm.c:307
     3a8:	c8 01       	movw	r24, r16
     3aa:	b7 01       	movw	r22, r14
     3ac:	0e 94 a3 26 	call	0x4d46	; 0x4d46 <__divmodsi4>
     3b0:	da 01       	movw	r26, r20
     3b2:	c9 01       	movw	r24, r18
     3b4:	89 83       	std	Y+1, r24	; 0x01
     3b6:	9a 83       	std	Y+2, r25	; 0x02
     3b8:	ab 83       	std	Y+3, r26	; 0x03
     3ba:	bc 83       	std	Y+4, r27	; 0x04
/home/becker/async/wcet-benchmarks/benchmarks/adpcm-decode/adpcm.c:309
     3bc:	2d 81       	ldd	r18, Y+5	; 0x05
     3be:	3e 81       	ldd	r19, Y+6	; 0x06
     3c0:	4f 81       	ldd	r20, Y+7	; 0x07
     3c2:	58 85       	ldd	r21, Y+8	; 0x08
     3c4:	89 81       	ldd	r24, Y+1	; 0x01
     3c6:	9a 81       	ldd	r25, Y+2	; 0x02
     3c8:	ab 81       	ldd	r26, Y+3	; 0x03
     3ca:	bc 81       	ldd	r27, Y+4	; 0x04
     3cc:	82 0f       	add	r24, r18
     3ce:	93 1f       	adc	r25, r19
     3d0:	a4 1f       	adc	r26, r20
     3d2:	b5 1f       	adc	r27, r21
     3d4:	8d 83       	std	Y+5, r24	; 0x05
     3d6:	9e 83       	std	Y+6, r25	; 0x06
     3d8:	af 83       	std	Y+7, r26	; 0x07
     3da:	b8 87       	std	Y+8, r27	; 0x08
/home/becker/async/wcet-benchmarks/benchmarks/adpcm-decode/adpcm.c:310
     3dc:	89 85       	ldd	r24, Y+9	; 0x09
     3de:	9a 85       	ldd	r25, Y+10	; 0x0a
     3e0:	ab 85       	ldd	r26, Y+11	; 0x0b
     3e2:	bc 85       	ldd	r27, Y+12	; 0x0c
     3e4:	01 96       	adiw	r24, 0x01	; 1
     3e6:	a1 1d       	adc	r26, r1
     3e8:	b1 1d       	adc	r27, r1
     3ea:	89 87       	std	Y+9, r24	; 0x09
     3ec:	9a 87       	std	Y+10, r25	; 0x0a
     3ee:	ab 87       	std	Y+11, r26	; 0x0b
     3f0:	bc 87       	std	Y+12, r27	; 0x0c
/home/becker/async/wcet-benchmarks/benchmarks/adpcm-decode/adpcm.c:306 (discriminator 1)
     3f2:	89 81       	ldd	r24, Y+1	; 0x01
     3f4:	9a 81       	ldd	r25, Y+2	; 0x02
     3f6:	ab 81       	ldd	r26, Y+3	; 0x03
     3f8:	bc 81       	ldd	r27, Y+4	; 0x04
     3fa:	bc 01       	movw	r22, r24
     3fc:	cd 01       	movw	r24, r26
     3fe:	0e 94 a2 00 	call	0x144	; 0x144 <my_fabs>
     402:	dc 01       	movw	r26, r24
     404:	cb 01       	movw	r24, r22
     406:	18 16       	cp	r1, r24
     408:	19 06       	cpc	r1, r25
     40a:	1a 06       	cpc	r1, r26
     40c:	1b 06       	cpc	r1, r27
     40e:	0c f4       	brge	.+2      	; 0x412 <my_sin+0x258>
     410:	91 cf       	rjmp	.-222    	; 0x334 <my_sin+0x17a>
/home/becker/async/wcet-benchmarks/benchmarks/adpcm-decode/adpcm.c:313
     412:	8d 81       	ldd	r24, Y+5	; 0x05
     414:	9e 81       	ldd	r25, Y+6	; 0x06
     416:	af 81       	ldd	r26, Y+7	; 0x07
     418:	b8 85       	ldd	r27, Y+8	; 0x08
/home/becker/async/wcet-benchmarks/benchmarks/adpcm-decode/adpcm.c:314
     41a:	bc 01       	movw	r22, r24
     41c:	cd 01       	movw	r24, r26
     41e:	68 96       	adiw	r28, 0x18	; 24
     420:	0f b6       	in	r0, 0x3f	; 63
     422:	f8 94       	cli
     424:	de bf       	out	0x3e, r29	; 62
     426:	0f be       	out	0x3f, r0	; 63
     428:	cd bf       	out	0x3d, r28	; 61
     42a:	df 91       	pop	r29
     42c:	cf 91       	pop	r28
     42e:	1f 91       	pop	r17
     430:	0f 91       	pop	r16
     432:	ff 90       	pop	r15
     434:	ef 90       	pop	r14
     436:	08 95       	ret

00000438 <my_cos>:
my_cos():
/home/becker/async/wcet-benchmarks/benchmarks/adpcm-decode/adpcm.c:318
     438:	ef 92       	push	r14
     43a:	ff 92       	push	r15
     43c:	0f 93       	push	r16
     43e:	1f 93       	push	r17
     440:	cf 93       	push	r28
     442:	df 93       	push	r29
     444:	00 d0       	rcall	.+0      	; 0x446 <my_cos+0xe>
     446:	00 d0       	rcall	.+0      	; 0x448 <my_cos+0x10>
     448:	cd b7       	in	r28, 0x3d	; 61
     44a:	de b7       	in	r29, 0x3e	; 62
     44c:	69 83       	std	Y+1, r22	; 0x01
     44e:	7a 83       	std	Y+2, r23	; 0x02
     450:	8b 83       	std	Y+3, r24	; 0x03
     452:	9c 83       	std	Y+4, r25	; 0x04
/home/becker/async/wcet-benchmarks/benchmarks/adpcm-decode/adpcm.c:319
     454:	22 e2       	ldi	r18, 0x22	; 34
     456:	36 e0       	ldi	r19, 0x06	; 6
     458:	40 e0       	ldi	r20, 0x00	; 0
     45a:	50 e0       	ldi	r21, 0x00	; 0
     45c:	89 81       	ldd	r24, Y+1	; 0x01
     45e:	9a 81       	ldd	r25, Y+2	; 0x02
     460:	ab 81       	ldd	r26, Y+3	; 0x03
     462:	bc 81       	ldd	r27, Y+4	; 0x04
     464:	79 01       	movw	r14, r18
     466:	8a 01       	movw	r16, r20
     468:	e8 1a       	sub	r14, r24
     46a:	f9 0a       	sbc	r15, r25
     46c:	0a 0b       	sbc	r16, r26
     46e:	1b 0b       	sbc	r17, r27
     470:	d8 01       	movw	r26, r16
     472:	c7 01       	movw	r24, r14
     474:	bc 01       	movw	r22, r24
     476:	cd 01       	movw	r24, r26
     478:	0e 94 dd 00 	call	0x1ba	; 0x1ba <my_sin>
     47c:	dc 01       	movw	r26, r24
     47e:	cb 01       	movw	r24, r22
/home/becker/async/wcet-benchmarks/benchmarks/adpcm-decode/adpcm.c:320
     480:	bc 01       	movw	r22, r24
     482:	cd 01       	movw	r24, r26
     484:	0f 90       	pop	r0
     486:	0f 90       	pop	r0
     488:	0f 90       	pop	r0
     48a:	0f 90       	pop	r0
     48c:	df 91       	pop	r29
     48e:	cf 91       	pop	r28
     490:	1f 91       	pop	r17
     492:	0f 91       	pop	r16
     494:	ff 90       	pop	r15
     496:	ef 90       	pop	r14
     498:	08 95       	ret

0000049a <encode>:
encode():
/home/becker/async/wcet-benchmarks/benchmarks/adpcm-decode/adpcm.c:325
     49a:	2f 92       	push	r2
     49c:	3f 92       	push	r3
     49e:	4f 92       	push	r4
     4a0:	5f 92       	push	r5
     4a2:	6f 92       	push	r6
     4a4:	7f 92       	push	r7
     4a6:	8f 92       	push	r8
     4a8:	9f 92       	push	r9
     4aa:	af 92       	push	r10
     4ac:	bf 92       	push	r11
     4ae:	cf 92       	push	r12
     4b0:	df 92       	push	r13
     4b2:	ef 92       	push	r14
     4b4:	ff 92       	push	r15
     4b6:	0f 93       	push	r16
     4b8:	1f 93       	push	r17
     4ba:	cf 93       	push	r28
     4bc:	df 93       	push	r29
     4be:	cd b7       	in	r28, 0x3d	; 61
     4c0:	de b7       	in	r29, 0x3e	; 62
     4c2:	c6 5a       	subi	r28, 0xA6	; 166
     4c4:	d1 09       	sbc	r29, r1
     4c6:	0f b6       	in	r0, 0x3f	; 63
     4c8:	f8 94       	cli
     4ca:	de bf       	out	0x3e, r29	; 62
     4cc:	0f be       	out	0x3f, r0	; 63
     4ce:	cd bf       	out	0x3d, r28	; 61
     4d0:	6f 8f       	std	Y+31, r22	; 0x1f
     4d2:	78 a3       	std	Y+32, r23	; 0x20
     4d4:	89 a3       	std	Y+33, r24	; 0x21
     4d6:	9a a3       	std	Y+34, r25	; 0x22
     4d8:	2b a3       	std	Y+35, r18	; 0x23
     4da:	3c a3       	std	Y+36, r19	; 0x24
     4dc:	4d a3       	std	Y+37, r20	; 0x25
     4de:	5e a3       	std	Y+38, r21	; 0x26
/home/becker/async/wcet-benchmarks/benchmarks/adpcm-decode/adpcm.c:332
     4e0:	80 e0       	ldi	r24, 0x00	; 0
     4e2:	91 e0       	ldi	r25, 0x01	; 1
     4e4:	9e 83       	std	Y+6, r25	; 0x06
     4e6:	8d 83       	std	Y+5, r24	; 0x05
/home/becker/async/wcet-benchmarks/benchmarks/adpcm-decode/adpcm.c:333
     4e8:	88 e7       	ldi	r24, 0x78	; 120
     4ea:	98 e0       	ldi	r25, 0x08	; 8
     4ec:	98 87       	std	Y+8, r25	; 0x08
     4ee:	8f 83       	std	Y+7, r24	; 0x07
/home/becker/async/wcet-benchmarks/benchmarks/adpcm-decode/adpcm.c:334
     4f0:	2f 81       	ldd	r18, Y+7	; 0x07
     4f2:	38 85       	ldd	r19, Y+8	; 0x08
     4f4:	c9 01       	movw	r24, r18
     4f6:	04 96       	adiw	r24, 0x04	; 4
     4f8:	98 87       	std	Y+8, r25	; 0x08
     4fa:	8f 83       	std	Y+7, r24	; 0x07
     4fc:	f9 01       	movw	r30, r18
     4fe:	80 81       	ld	r24, Z
     500:	91 81       	ldd	r25, Z+1	; 0x01
     502:	a2 81       	ldd	r26, Z+2	; 0x02
     504:	b3 81       	ldd	r27, Z+3	; 0x03
     506:	8f a3       	std	Y+39, r24	; 0x27
     508:	98 a7       	std	Y+40, r25	; 0x28
     50a:	a9 a7       	std	Y+41, r26	; 0x29
     50c:	ba a7       	std	Y+42, r27	; 0x2a
     50e:	bb 0f       	add	r27, r27
     510:	88 0b       	sbc	r24, r24
     512:	98 2f       	mov	r25, r24
     514:	dc 01       	movw	r26, r24
     516:	8b a7       	std	Y+43, r24	; 0x2b
     518:	8c a7       	std	Y+44, r24	; 0x2c
     51a:	8d a7       	std	Y+45, r24	; 0x2d
     51c:	8e a7       	std	Y+46, r24	; 0x2e
     51e:	2d 81       	ldd	r18, Y+5	; 0x05
     520:	3e 81       	ldd	r19, Y+6	; 0x06
     522:	c9 01       	movw	r24, r18
     524:	04 96       	adiw	r24, 0x04	; 4
     526:	9e 83       	std	Y+6, r25	; 0x06
     528:	8d 83       	std	Y+5, r24	; 0x05
     52a:	f9 01       	movw	r30, r18
     52c:	80 81       	ld	r24, Z
     52e:	91 81       	ldd	r25, Z+1	; 0x01
     530:	a2 81       	ldd	r26, Z+2	; 0x02
     532:	b3 81       	ldd	r27, Z+3	; 0x03
     534:	1c 01       	movw	r2, r24
     536:	2d 01       	movw	r4, r26
     538:	bb 0f       	add	r27, r27
     53a:	88 0b       	sbc	r24, r24
     53c:	98 2f       	mov	r25, r24
     53e:	dc 01       	movw	r26, r24
     540:	68 2e       	mov	r6, r24
     542:	78 2e       	mov	r7, r24
     544:	88 2e       	mov	r8, r24
     546:	98 2e       	mov	r9, r24
     548:	a2 2c       	mov	r10, r2
     54a:	b3 2c       	mov	r11, r3
     54c:	c4 2c       	mov	r12, r4
     54e:	d5 2c       	mov	r13, r5
     550:	e6 2c       	mov	r14, r6
     552:	f7 2c       	mov	r15, r7
     554:	08 2d       	mov	r16, r8
     556:	19 2d       	mov	r17, r9
     558:	2f a1       	ldd	r18, Y+39	; 0x27
     55a:	38 a5       	ldd	r19, Y+40	; 0x28
     55c:	49 a5       	ldd	r20, Y+41	; 0x29
     55e:	5a a5       	ldd	r21, Y+42	; 0x2a
     560:	6b a5       	ldd	r22, Y+43	; 0x2b
     562:	7c a5       	ldd	r23, Y+44	; 0x2c
     564:	8d a5       	ldd	r24, Y+45	; 0x2d
     566:	9e a5       	ldd	r25, Y+46	; 0x2e
     568:	0e 94 cd 26 	call	0x4d9a	; 0x4d9a <__muldi3>
     56c:	a2 2e       	mov	r10, r18
     56e:	b3 2e       	mov	r11, r19
     570:	c4 2e       	mov	r12, r20
     572:	d5 2e       	mov	r13, r21
     574:	e6 2e       	mov	r14, r22
     576:	f7 2e       	mov	r15, r23
     578:	08 2f       	mov	r16, r24
     57a:	19 2f       	mov	r17, r25
     57c:	ab 86       	std	Y+11, r10	; 0x0b
     57e:	bc 86       	std	Y+12, r11	; 0x0c
     580:	cd 86       	std	Y+13, r12	; 0x0d
     582:	de 86       	std	Y+14, r13	; 0x0e
     584:	ef 86       	std	Y+15, r14	; 0x0f
     586:	f8 8a       	std	Y+16, r15	; 0x10
     588:	09 8b       	std	Y+17, r16	; 0x11
     58a:	1a 8b       	std	Y+18, r17	; 0x12
/home/becker/async/wcet-benchmarks/benchmarks/adpcm-decode/adpcm.c:335
     58c:	2f 81       	ldd	r18, Y+7	; 0x07
     58e:	38 85       	ldd	r19, Y+8	; 0x08
     590:	c9 01       	movw	r24, r18
     592:	04 96       	adiw	r24, 0x04	; 4
     594:	98 87       	std	Y+8, r25	; 0x08
     596:	8f 83       	std	Y+7, r24	; 0x07
     598:	f9 01       	movw	r30, r18
     59a:	80 81       	ld	r24, Z
     59c:	91 81       	ldd	r25, Z+1	; 0x01
     59e:	a2 81       	ldd	r26, Z+2	; 0x02
     5a0:	b3 81       	ldd	r27, Z+3	; 0x03
     5a2:	8f a7       	std	Y+47, r24	; 0x2f
     5a4:	98 ab       	std	Y+48, r25	; 0x30
     5a6:	a9 ab       	std	Y+49, r26	; 0x31
     5a8:	ba ab       	std	Y+50, r27	; 0x32
     5aa:	bb 0f       	add	r27, r27
     5ac:	88 0b       	sbc	r24, r24
     5ae:	98 2f       	mov	r25, r24
     5b0:	dc 01       	movw	r26, r24
     5b2:	8b ab       	std	Y+51, r24	; 0x33
     5b4:	8c ab       	std	Y+52, r24	; 0x34
     5b6:	8d ab       	std	Y+53, r24	; 0x35
     5b8:	8e ab       	std	Y+54, r24	; 0x36
     5ba:	2d 81       	ldd	r18, Y+5	; 0x05
     5bc:	3e 81       	ldd	r19, Y+6	; 0x06
     5be:	c9 01       	movw	r24, r18
     5c0:	04 96       	adiw	r24, 0x04	; 4
     5c2:	9e 83       	std	Y+6, r25	; 0x06
     5c4:	8d 83       	std	Y+5, r24	; 0x05
     5c6:	f9 01       	movw	r30, r18
     5c8:	80 81       	ld	r24, Z
     5ca:	91 81       	ldd	r25, Z+1	; 0x01
     5cc:	a2 81       	ldd	r26, Z+2	; 0x02
     5ce:	b3 81       	ldd	r27, Z+3	; 0x03
     5d0:	8f ab       	std	Y+55, r24	; 0x37
     5d2:	98 af       	std	Y+56, r25	; 0x38
     5d4:	a9 af       	std	Y+57, r26	; 0x39
     5d6:	ba af       	std	Y+58, r27	; 0x3a
     5d8:	bb 0f       	add	r27, r27
     5da:	88 0b       	sbc	r24, r24
     5dc:	98 2f       	mov	r25, r24
     5de:	dc 01       	movw	r26, r24
     5e0:	8b af       	std	Y+59, r24	; 0x3b
     5e2:	8c af       	std	Y+60, r24	; 0x3c
     5e4:	8d af       	std	Y+61, r24	; 0x3d
     5e6:	8e af       	std	Y+62, r24	; 0x3e
     5e8:	af a8       	ldd	r10, Y+55	; 0x37
     5ea:	b8 ac       	ldd	r11, Y+56	; 0x38
     5ec:	c9 ac       	ldd	r12, Y+57	; 0x39
     5ee:	da ac       	ldd	r13, Y+58	; 0x3a
     5f0:	eb ac       	ldd	r14, Y+59	; 0x3b
     5f2:	fc ac       	ldd	r15, Y+60	; 0x3c
     5f4:	0d ad       	ldd	r16, Y+61	; 0x3d
     5f6:	1e ad       	ldd	r17, Y+62	; 0x3e
     5f8:	2f a5       	ldd	r18, Y+47	; 0x2f
     5fa:	38 a9       	ldd	r19, Y+48	; 0x30
     5fc:	49 a9       	ldd	r20, Y+49	; 0x31
     5fe:	5a a9       	ldd	r21, Y+50	; 0x32
     600:	6b a9       	ldd	r22, Y+51	; 0x33
     602:	7c a9       	ldd	r23, Y+52	; 0x34
     604:	8d a9       	ldd	r24, Y+53	; 0x35
     606:	9e a9       	ldd	r25, Y+54	; 0x36
     608:	0e 94 cd 26 	call	0x4d9a	; 0x4d9a <__muldi3>
     60c:	a2 2e       	mov	r10, r18
     60e:	b3 2e       	mov	r11, r19
     610:	c4 2e       	mov	r12, r20
     612:	d5 2e       	mov	r13, r21
     614:	e6 2e       	mov	r14, r22
     616:	f7 2e       	mov	r15, r23
     618:	08 2f       	mov	r16, r24
     61a:	19 2f       	mov	r17, r25
     61c:	ab 8a       	std	Y+19, r10	; 0x13
     61e:	bc 8a       	std	Y+20, r11	; 0x14
     620:	cd 8a       	std	Y+21, r12	; 0x15
     622:	de 8a       	std	Y+22, r13	; 0x16
     624:	ef 8a       	std	Y+23, r14	; 0x17
     626:	f8 8e       	std	Y+24, r15	; 0x18
     628:	09 8f       	std	Y+25, r16	; 0x19
     62a:	1a 8f       	std	Y+26, r17	; 0x1a
/home/becker/async/wcet-benchmarks/benchmarks/adpcm-decode/adpcm.c:338
     62c:	19 82       	std	Y+1, r1	; 0x01
     62e:	1a 82       	std	Y+2, r1	; 0x02
     630:	1b 82       	std	Y+3, r1	; 0x03
     632:	1c 82       	std	Y+4, r1	; 0x04
     634:	55 c1       	rjmp	.+682    	; 0x8e0 <encode+0x446>
/home/becker/async/wcet-benchmarks/benchmarks/adpcm-decode/adpcm.c:339 (discriminator 2)
     636:	2f 81       	ldd	r18, Y+7	; 0x07
     638:	38 85       	ldd	r19, Y+8	; 0x08
     63a:	c9 01       	movw	r24, r18
     63c:	04 96       	adiw	r24, 0x04	; 4
     63e:	98 87       	std	Y+8, r25	; 0x08
     640:	8f 83       	std	Y+7, r24	; 0x07
     642:	f9 01       	movw	r30, r18
     644:	80 81       	ld	r24, Z
     646:	91 81       	ldd	r25, Z+1	; 0x01
     648:	a2 81       	ldd	r26, Z+2	; 0x02
     64a:	b3 81       	ldd	r27, Z+3	; 0x03
     64c:	23 96       	adiw	r28, 0x03	; 3
     64e:	8c af       	std	Y+60, r24	; 0x3c
     650:	9d af       	std	Y+61, r25	; 0x3d
     652:	ae af       	std	Y+62, r26	; 0x3e
     654:	bf af       	std	Y+63, r27	; 0x3f
     656:	23 97       	sbiw	r28, 0x03	; 3
     658:	bb 0f       	add	r27, r27
     65a:	88 0b       	sbc	r24, r24
     65c:	98 2f       	mov	r25, r24
     65e:	dc 01       	movw	r26, r24
     660:	24 96       	adiw	r28, 0x04	; 4
     662:	8f af       	std	Y+63, r24	; 0x3f
     664:	24 97       	sbiw	r28, 0x04	; 4
     666:	25 96       	adiw	r28, 0x05	; 5
     668:	8f af       	std	Y+63, r24	; 0x3f
     66a:	25 97       	sbiw	r28, 0x05	; 5
     66c:	26 96       	adiw	r28, 0x06	; 6
     66e:	8f af       	std	Y+63, r24	; 0x3f
     670:	26 97       	sbiw	r28, 0x06	; 6
     672:	27 96       	adiw	r28, 0x07	; 7
     674:	8f af       	std	Y+63, r24	; 0x3f
     676:	27 97       	sbiw	r28, 0x07	; 7
     678:	2d 81       	ldd	r18, Y+5	; 0x05
     67a:	3e 81       	ldd	r19, Y+6	; 0x06
     67c:	c9 01       	movw	r24, r18
     67e:	04 96       	adiw	r24, 0x04	; 4
     680:	9e 83       	std	Y+6, r25	; 0x06
     682:	8d 83       	std	Y+5, r24	; 0x05
     684:	f9 01       	movw	r30, r18
     686:	80 81       	ld	r24, Z
     688:	91 81       	ldd	r25, Z+1	; 0x01
     68a:	a2 81       	ldd	r26, Z+2	; 0x02
     68c:	b3 81       	ldd	r27, Z+3	; 0x03
     68e:	2b 96       	adiw	r28, 0x0b	; 11
     690:	8c af       	std	Y+60, r24	; 0x3c
     692:	9d af       	std	Y+61, r25	; 0x3d
     694:	ae af       	std	Y+62, r26	; 0x3e
     696:	bf af       	std	Y+63, r27	; 0x3f
     698:	2b 97       	sbiw	r28, 0x0b	; 11
     69a:	bb 0f       	add	r27, r27
     69c:	88 0b       	sbc	r24, r24
     69e:	98 2f       	mov	r25, r24
     6a0:	dc 01       	movw	r26, r24
     6a2:	2c 96       	adiw	r28, 0x0c	; 12
     6a4:	8f af       	std	Y+63, r24	; 0x3f
     6a6:	2c 97       	sbiw	r28, 0x0c	; 12
     6a8:	2d 96       	adiw	r28, 0x0d	; 13
     6aa:	8f af       	std	Y+63, r24	; 0x3f
     6ac:	2d 97       	sbiw	r28, 0x0d	; 13
     6ae:	2e 96       	adiw	r28, 0x0e	; 14
     6b0:	8f af       	std	Y+63, r24	; 0x3f
     6b2:	2e 97       	sbiw	r28, 0x0e	; 14
     6b4:	2f 96       	adiw	r28, 0x0f	; 15
     6b6:	8f af       	std	Y+63, r24	; 0x3f
     6b8:	2f 97       	sbiw	r28, 0x0f	; 15
     6ba:	28 96       	adiw	r28, 0x08	; 8
     6bc:	af ac       	ldd	r10, Y+63	; 0x3f
     6be:	28 97       	sbiw	r28, 0x08	; 8
     6c0:	29 96       	adiw	r28, 0x09	; 9
     6c2:	bf ac       	ldd	r11, Y+63	; 0x3f
     6c4:	29 97       	sbiw	r28, 0x09	; 9
     6c6:	2a 96       	adiw	r28, 0x0a	; 10
     6c8:	cf ac       	ldd	r12, Y+63	; 0x3f
     6ca:	2a 97       	sbiw	r28, 0x0a	; 10
     6cc:	2b 96       	adiw	r28, 0x0b	; 11
     6ce:	df ac       	ldd	r13, Y+63	; 0x3f
     6d0:	2b 97       	sbiw	r28, 0x0b	; 11
     6d2:	2c 96       	adiw	r28, 0x0c	; 12
     6d4:	ef ac       	ldd	r14, Y+63	; 0x3f
     6d6:	2c 97       	sbiw	r28, 0x0c	; 12
     6d8:	2d 96       	adiw	r28, 0x0d	; 13
     6da:	ff ac       	ldd	r15, Y+63	; 0x3f
     6dc:	2d 97       	sbiw	r28, 0x0d	; 13
     6de:	2e 96       	adiw	r28, 0x0e	; 14
     6e0:	0f ad       	ldd	r16, Y+63	; 0x3f
     6e2:	2e 97       	sbiw	r28, 0x0e	; 14
     6e4:	2f 96       	adiw	r28, 0x0f	; 15
     6e6:	1f ad       	ldd	r17, Y+63	; 0x3f
     6e8:	2f 97       	sbiw	r28, 0x0f	; 15
     6ea:	2f ad       	ldd	r18, Y+63	; 0x3f
     6ec:	21 96       	adiw	r28, 0x01	; 1
     6ee:	3f ad       	ldd	r19, Y+63	; 0x3f
     6f0:	21 97       	sbiw	r28, 0x01	; 1
     6f2:	22 96       	adiw	r28, 0x02	; 2
     6f4:	4f ad       	ldd	r20, Y+63	; 0x3f
     6f6:	22 97       	sbiw	r28, 0x02	; 2
     6f8:	23 96       	adiw	r28, 0x03	; 3
     6fa:	5f ad       	ldd	r21, Y+63	; 0x3f
     6fc:	23 97       	sbiw	r28, 0x03	; 3
     6fe:	24 96       	adiw	r28, 0x04	; 4
     700:	6f ad       	ldd	r22, Y+63	; 0x3f
     702:	24 97       	sbiw	r28, 0x04	; 4
     704:	25 96       	adiw	r28, 0x05	; 5
     706:	7f ad       	ldd	r23, Y+63	; 0x3f
     708:	25 97       	sbiw	r28, 0x05	; 5
     70a:	26 96       	adiw	r28, 0x06	; 6
     70c:	8f ad       	ldd	r24, Y+63	; 0x3f
     70e:	26 97       	sbiw	r28, 0x06	; 6
     710:	27 96       	adiw	r28, 0x07	; 7
     712:	9f ad       	ldd	r25, Y+63	; 0x3f
     714:	27 97       	sbiw	r28, 0x07	; 7
     716:	0e 94 cd 26 	call	0x4d9a	; 0x4d9a <__muldi3>
     71a:	22 2e       	mov	r2, r18
     71c:	33 2e       	mov	r3, r19
     71e:	44 2e       	mov	r4, r20
     720:	55 2e       	mov	r5, r21
     722:	66 2e       	mov	r6, r22
     724:	77 2e       	mov	r7, r23
     726:	88 2e       	mov	r8, r24
     728:	99 2e       	mov	r9, r25
     72a:	a2 2c       	mov	r10, r2
     72c:	b3 2c       	mov	r11, r3
     72e:	c4 2c       	mov	r12, r4
     730:	d5 2c       	mov	r13, r5
     732:	e6 2c       	mov	r14, r6
     734:	f7 2c       	mov	r15, r7
     736:	08 2d       	mov	r16, r8
     738:	19 2d       	mov	r17, r9
     73a:	2a 2d       	mov	r18, r10
     73c:	3b 2d       	mov	r19, r11
     73e:	4c 2d       	mov	r20, r12
     740:	5d 2d       	mov	r21, r13
     742:	6e 2d       	mov	r22, r14
     744:	7f 2d       	mov	r23, r15
     746:	80 2f       	mov	r24, r16
     748:	91 2f       	mov	r25, r17
     74a:	ab 84       	ldd	r10, Y+11	; 0x0b
     74c:	bc 84       	ldd	r11, Y+12	; 0x0c
     74e:	cd 84       	ldd	r12, Y+13	; 0x0d
     750:	de 84       	ldd	r13, Y+14	; 0x0e
     752:	ef 84       	ldd	r14, Y+15	; 0x0f
     754:	f8 88       	ldd	r15, Y+16	; 0x10
     756:	09 89       	ldd	r16, Y+17	; 0x11
     758:	1a 89       	ldd	r17, Y+18	; 0x12
     75a:	0e 94 6d 27 	call	0x4eda	; 0x4eda <__adddi3>
     75e:	a2 2e       	mov	r10, r18
     760:	b3 2e       	mov	r11, r19
     762:	c4 2e       	mov	r12, r20
     764:	d5 2e       	mov	r13, r21
     766:	e6 2e       	mov	r14, r22
     768:	f7 2e       	mov	r15, r23
     76a:	08 2f       	mov	r16, r24
     76c:	19 2f       	mov	r17, r25
     76e:	ab 86       	std	Y+11, r10	; 0x0b
     770:	bc 86       	std	Y+12, r11	; 0x0c
     772:	cd 86       	std	Y+13, r12	; 0x0d
     774:	de 86       	std	Y+14, r13	; 0x0e
     776:	ef 86       	std	Y+15, r14	; 0x0f
     778:	f8 8a       	std	Y+16, r15	; 0x10
     77a:	09 8b       	std	Y+17, r16	; 0x11
     77c:	1a 8b       	std	Y+18, r17	; 0x12
/home/becker/async/wcet-benchmarks/benchmarks/adpcm-decode/adpcm.c:340 (discriminator 2)
     77e:	2f 81       	ldd	r18, Y+7	; 0x07
     780:	38 85       	ldd	r19, Y+8	; 0x08
     782:	c9 01       	movw	r24, r18
     784:	04 96       	adiw	r24, 0x04	; 4
     786:	98 87       	std	Y+8, r25	; 0x08
     788:	8f 83       	std	Y+7, r24	; 0x07
     78a:	f9 01       	movw	r30, r18
     78c:	80 81       	ld	r24, Z
     78e:	91 81       	ldd	r25, Z+1	; 0x01
     790:	a2 81       	ldd	r26, Z+2	; 0x02
     792:	b3 81       	ldd	r27, Z+3	; 0x03
     794:	63 96       	adiw	r28, 0x13	; 19
     796:	8c af       	std	Y+60, r24	; 0x3c
     798:	9d af       	std	Y+61, r25	; 0x3d
     79a:	ae af       	std	Y+62, r26	; 0x3e
     79c:	bf af       	std	Y+63, r27	; 0x3f
     79e:	63 97       	sbiw	r28, 0x13	; 19
     7a0:	bb 0f       	add	r27, r27
     7a2:	88 0b       	sbc	r24, r24
     7a4:	98 2f       	mov	r25, r24
     7a6:	dc 01       	movw	r26, r24
     7a8:	64 96       	adiw	r28, 0x14	; 20
     7aa:	8f af       	std	Y+63, r24	; 0x3f
     7ac:	64 97       	sbiw	r28, 0x14	; 20
     7ae:	65 96       	adiw	r28, 0x15	; 21
     7b0:	8f af       	std	Y+63, r24	; 0x3f
     7b2:	65 97       	sbiw	r28, 0x15	; 21
     7b4:	66 96       	adiw	r28, 0x16	; 22
     7b6:	8f af       	std	Y+63, r24	; 0x3f
     7b8:	66 97       	sbiw	r28, 0x16	; 22
     7ba:	67 96       	adiw	r28, 0x17	; 23
     7bc:	8f af       	std	Y+63, r24	; 0x3f
     7be:	67 97       	sbiw	r28, 0x17	; 23
     7c0:	2d 81       	ldd	r18, Y+5	; 0x05
     7c2:	3e 81       	ldd	r19, Y+6	; 0x06
     7c4:	c9 01       	movw	r24, r18
     7c6:	04 96       	adiw	r24, 0x04	; 4
     7c8:	9e 83       	std	Y+6, r25	; 0x06
     7ca:	8d 83       	std	Y+5, r24	; 0x05
     7cc:	f9 01       	movw	r30, r18
     7ce:	80 81       	ld	r24, Z
     7d0:	91 81       	ldd	r25, Z+1	; 0x01
     7d2:	a2 81       	ldd	r26, Z+2	; 0x02
     7d4:	b3 81       	ldd	r27, Z+3	; 0x03
     7d6:	6b 96       	adiw	r28, 0x1b	; 27
     7d8:	8c af       	std	Y+60, r24	; 0x3c
     7da:	9d af       	std	Y+61, r25	; 0x3d
     7dc:	ae af       	std	Y+62, r26	; 0x3e
     7de:	bf af       	std	Y+63, r27	; 0x3f
     7e0:	6b 97       	sbiw	r28, 0x1b	; 27
     7e2:	bb 0f       	add	r27, r27
     7e4:	88 0b       	sbc	r24, r24
     7e6:	98 2f       	mov	r25, r24
     7e8:	dc 01       	movw	r26, r24
     7ea:	6c 96       	adiw	r28, 0x1c	; 28
     7ec:	8f af       	std	Y+63, r24	; 0x3f
     7ee:	6c 97       	sbiw	r28, 0x1c	; 28
     7f0:	6d 96       	adiw	r28, 0x1d	; 29
     7f2:	8f af       	std	Y+63, r24	; 0x3f
     7f4:	6d 97       	sbiw	r28, 0x1d	; 29
     7f6:	6e 96       	adiw	r28, 0x1e	; 30
     7f8:	8f af       	std	Y+63, r24	; 0x3f
     7fa:	6e 97       	sbiw	r28, 0x1e	; 30
     7fc:	6f 96       	adiw	r28, 0x1f	; 31
     7fe:	8f af       	std	Y+63, r24	; 0x3f
     800:	6f 97       	sbiw	r28, 0x1f	; 31
     802:	68 96       	adiw	r28, 0x18	; 24
     804:	af ac       	ldd	r10, Y+63	; 0x3f
     806:	68 97       	sbiw	r28, 0x18	; 24
     808:	69 96       	adiw	r28, 0x19	; 25
     80a:	bf ac       	ldd	r11, Y+63	; 0x3f
     80c:	69 97       	sbiw	r28, 0x19	; 25
     80e:	6a 96       	adiw	r28, 0x1a	; 26
     810:	cf ac       	ldd	r12, Y+63	; 0x3f
     812:	6a 97       	sbiw	r28, 0x1a	; 26
     814:	6b 96       	adiw	r28, 0x1b	; 27
     816:	df ac       	ldd	r13, Y+63	; 0x3f
     818:	6b 97       	sbiw	r28, 0x1b	; 27
     81a:	6c 96       	adiw	r28, 0x1c	; 28
     81c:	ef ac       	ldd	r14, Y+63	; 0x3f
     81e:	6c 97       	sbiw	r28, 0x1c	; 28
     820:	6d 96       	adiw	r28, 0x1d	; 29
     822:	ff ac       	ldd	r15, Y+63	; 0x3f
     824:	6d 97       	sbiw	r28, 0x1d	; 29
     826:	6e 96       	adiw	r28, 0x1e	; 30
     828:	0f ad       	ldd	r16, Y+63	; 0x3f
     82a:	6e 97       	sbiw	r28, 0x1e	; 30
     82c:	6f 96       	adiw	r28, 0x1f	; 31
     82e:	1f ad       	ldd	r17, Y+63	; 0x3f
     830:	6f 97       	sbiw	r28, 0x1f	; 31
     832:	60 96       	adiw	r28, 0x10	; 16
     834:	2f ad       	ldd	r18, Y+63	; 0x3f
     836:	60 97       	sbiw	r28, 0x10	; 16
     838:	61 96       	adiw	r28, 0x11	; 17
     83a:	3f ad       	ldd	r19, Y+63	; 0x3f
     83c:	61 97       	sbiw	r28, 0x11	; 17
     83e:	62 96       	adiw	r28, 0x12	; 18
     840:	4f ad       	ldd	r20, Y+63	; 0x3f
     842:	62 97       	sbiw	r28, 0x12	; 18
     844:	63 96       	adiw	r28, 0x13	; 19
     846:	5f ad       	ldd	r21, Y+63	; 0x3f
     848:	63 97       	sbiw	r28, 0x13	; 19
     84a:	64 96       	adiw	r28, 0x14	; 20
     84c:	6f ad       	ldd	r22, Y+63	; 0x3f
     84e:	64 97       	sbiw	r28, 0x14	; 20
     850:	65 96       	adiw	r28, 0x15	; 21
     852:	7f ad       	ldd	r23, Y+63	; 0x3f
     854:	65 97       	sbiw	r28, 0x15	; 21
     856:	66 96       	adiw	r28, 0x16	; 22
     858:	8f ad       	ldd	r24, Y+63	; 0x3f
     85a:	66 97       	sbiw	r28, 0x16	; 22
     85c:	67 96       	adiw	r28, 0x17	; 23
     85e:	9f ad       	ldd	r25, Y+63	; 0x3f
     860:	67 97       	sbiw	r28, 0x17	; 23
     862:	0e 94 cd 26 	call	0x4d9a	; 0x4d9a <__muldi3>
     866:	22 2e       	mov	r2, r18
     868:	33 2e       	mov	r3, r19
     86a:	44 2e       	mov	r4, r20
     86c:	55 2e       	mov	r5, r21
     86e:	66 2e       	mov	r6, r22
     870:	77 2e       	mov	r7, r23
     872:	88 2e       	mov	r8, r24
     874:	99 2e       	mov	r9, r25
     876:	a2 2c       	mov	r10, r2
     878:	b3 2c       	mov	r11, r3
     87a:	c4 2c       	mov	r12, r4
     87c:	d5 2c       	mov	r13, r5
     87e:	e6 2c       	mov	r14, r6
     880:	f7 2c       	mov	r15, r7
     882:	08 2d       	mov	r16, r8
     884:	19 2d       	mov	r17, r9
     886:	2a 2d       	mov	r18, r10
     888:	3b 2d       	mov	r19, r11
     88a:	4c 2d       	mov	r20, r12
     88c:	5d 2d       	mov	r21, r13
     88e:	6e 2d       	mov	r22, r14
     890:	7f 2d       	mov	r23, r15
     892:	80 2f       	mov	r24, r16
     894:	91 2f       	mov	r25, r17
     896:	ab 88       	ldd	r10, Y+19	; 0x13
     898:	bc 88       	ldd	r11, Y+20	; 0x14
     89a:	cd 88       	ldd	r12, Y+21	; 0x15
     89c:	de 88       	ldd	r13, Y+22	; 0x16
     89e:	ef 88       	ldd	r14, Y+23	; 0x17
     8a0:	f8 8c       	ldd	r15, Y+24	; 0x18
     8a2:	09 8d       	ldd	r16, Y+25	; 0x19
     8a4:	1a 8d       	ldd	r17, Y+26	; 0x1a
     8a6:	0e 94 6d 27 	call	0x4eda	; 0x4eda <__adddi3>
     8aa:	a2 2e       	mov	r10, r18
     8ac:	b3 2e       	mov	r11, r19
     8ae:	c4 2e       	mov	r12, r20
     8b0:	d5 2e       	mov	r13, r21
     8b2:	e6 2e       	mov	r14, r22
     8b4:	f7 2e       	mov	r15, r23
     8b6:	08 2f       	mov	r16, r24
     8b8:	19 2f       	mov	r17, r25
     8ba:	ab 8a       	std	Y+19, r10	; 0x13
     8bc:	bc 8a       	std	Y+20, r11	; 0x14
     8be:	cd 8a       	std	Y+21, r12	; 0x15
     8c0:	de 8a       	std	Y+22, r13	; 0x16
     8c2:	ef 8a       	std	Y+23, r14	; 0x17
     8c4:	f8 8e       	std	Y+24, r15	; 0x18
     8c6:	09 8f       	std	Y+25, r16	; 0x19
     8c8:	1a 8f       	std	Y+26, r17	; 0x1a
/home/becker/async/wcet-benchmarks/benchmarks/adpcm-decode/adpcm.c:338 (discriminator 2)
     8ca:	89 81       	ldd	r24, Y+1	; 0x01
     8cc:	9a 81       	ldd	r25, Y+2	; 0x02
     8ce:	ab 81       	ldd	r26, Y+3	; 0x03
     8d0:	bc 81       	ldd	r27, Y+4	; 0x04
     8d2:	01 96       	adiw	r24, 0x01	; 1
     8d4:	a1 1d       	adc	r26, r1
     8d6:	b1 1d       	adc	r27, r1
     8d8:	89 83       	std	Y+1, r24	; 0x01
     8da:	9a 83       	std	Y+2, r25	; 0x02
     8dc:	ab 83       	std	Y+3, r26	; 0x03
     8de:	bc 83       	std	Y+4, r27	; 0x04
/home/becker/async/wcet-benchmarks/benchmarks/adpcm-decode/adpcm.c:338 (discriminator 1)
     8e0:	89 81       	ldd	r24, Y+1	; 0x01
     8e2:	9a 81       	ldd	r25, Y+2	; 0x02
     8e4:	ab 81       	ldd	r26, Y+3	; 0x03
     8e6:	bc 81       	ldd	r27, Y+4	; 0x04
     8e8:	8a 30       	cpi	r24, 0x0A	; 10
     8ea:	91 05       	cpc	r25, r1
     8ec:	a1 05       	cpc	r26, r1
     8ee:	b1 05       	cpc	r27, r1
     8f0:	0c f4       	brge	.+2      	; 0x8f4 <encode+0x45a>
     8f2:	a1 ce       	rjmp	.-702    	; 0x636 <encode+0x19c>
/home/becker/async/wcet-benchmarks/benchmarks/adpcm-decode/adpcm.c:343
     8f4:	2f 81       	ldd	r18, Y+7	; 0x07
     8f6:	38 85       	ldd	r19, Y+8	; 0x08
     8f8:	c9 01       	movw	r24, r18
     8fa:	04 96       	adiw	r24, 0x04	; 4
     8fc:	98 87       	std	Y+8, r25	; 0x08
     8fe:	8f 83       	std	Y+7, r24	; 0x07
     900:	f9 01       	movw	r30, r18
     902:	80 81       	ld	r24, Z
     904:	91 81       	ldd	r25, Z+1	; 0x01
     906:	a2 81       	ldd	r26, Z+2	; 0x02
     908:	b3 81       	ldd	r27, Z+3	; 0x03
     90a:	a3 96       	adiw	r28, 0x23	; 35
     90c:	8c af       	std	Y+60, r24	; 0x3c
     90e:	9d af       	std	Y+61, r25	; 0x3d
     910:	ae af       	std	Y+62, r26	; 0x3e
     912:	bf af       	std	Y+63, r27	; 0x3f
     914:	a3 97       	sbiw	r28, 0x23	; 35
     916:	bb 0f       	add	r27, r27
     918:	88 0b       	sbc	r24, r24
     91a:	98 2f       	mov	r25, r24
     91c:	dc 01       	movw	r26, r24
     91e:	a4 96       	adiw	r28, 0x24	; 36
     920:	8f af       	std	Y+63, r24	; 0x3f
     922:	a4 97       	sbiw	r28, 0x24	; 36
     924:	a5 96       	adiw	r28, 0x25	; 37
     926:	8f af       	std	Y+63, r24	; 0x3f
     928:	a5 97       	sbiw	r28, 0x25	; 37
     92a:	a6 96       	adiw	r28, 0x26	; 38
     92c:	8f af       	std	Y+63, r24	; 0x3f
     92e:	a6 97       	sbiw	r28, 0x26	; 38
     930:	a7 96       	adiw	r28, 0x27	; 39
     932:	8f af       	std	Y+63, r24	; 0x3f
     934:	a7 97       	sbiw	r28, 0x27	; 39
     936:	2d 81       	ldd	r18, Y+5	; 0x05
     938:	3e 81       	ldd	r19, Y+6	; 0x06
     93a:	c9 01       	movw	r24, r18
     93c:	04 96       	adiw	r24, 0x04	; 4
     93e:	9e 83       	std	Y+6, r25	; 0x06
     940:	8d 83       	std	Y+5, r24	; 0x05
     942:	f9 01       	movw	r30, r18
     944:	80 81       	ld	r24, Z
     946:	91 81       	ldd	r25, Z+1	; 0x01
     948:	a2 81       	ldd	r26, Z+2	; 0x02
     94a:	b3 81       	ldd	r27, Z+3	; 0x03
     94c:	ab 96       	adiw	r28, 0x2b	; 43
     94e:	8c af       	std	Y+60, r24	; 0x3c
     950:	9d af       	std	Y+61, r25	; 0x3d
     952:	ae af       	std	Y+62, r26	; 0x3e
     954:	bf af       	std	Y+63, r27	; 0x3f
     956:	ab 97       	sbiw	r28, 0x2b	; 43
     958:	bb 0f       	add	r27, r27
     95a:	88 0b       	sbc	r24, r24
     95c:	98 2f       	mov	r25, r24
     95e:	dc 01       	movw	r26, r24
     960:	ac 96       	adiw	r28, 0x2c	; 44
     962:	8f af       	std	Y+63, r24	; 0x3f
     964:	ac 97       	sbiw	r28, 0x2c	; 44
     966:	ad 96       	adiw	r28, 0x2d	; 45
     968:	8f af       	std	Y+63, r24	; 0x3f
     96a:	ad 97       	sbiw	r28, 0x2d	; 45
     96c:	ae 96       	adiw	r28, 0x2e	; 46
     96e:	8f af       	std	Y+63, r24	; 0x3f
     970:	ae 97       	sbiw	r28, 0x2e	; 46
     972:	af 96       	adiw	r28, 0x2f	; 47
     974:	8f af       	std	Y+63, r24	; 0x3f
     976:	af 97       	sbiw	r28, 0x2f	; 47
     978:	a8 96       	adiw	r28, 0x28	; 40
     97a:	af ac       	ldd	r10, Y+63	; 0x3f
     97c:	a8 97       	sbiw	r28, 0x28	; 40
     97e:	a9 96       	adiw	r28, 0x29	; 41
     980:	bf ac       	ldd	r11, Y+63	; 0x3f
     982:	a9 97       	sbiw	r28, 0x29	; 41
     984:	aa 96       	adiw	r28, 0x2a	; 42
     986:	cf ac       	ldd	r12, Y+63	; 0x3f
     988:	aa 97       	sbiw	r28, 0x2a	; 42
     98a:	ab 96       	adiw	r28, 0x2b	; 43
     98c:	df ac       	ldd	r13, Y+63	; 0x3f
     98e:	ab 97       	sbiw	r28, 0x2b	; 43
     990:	ac 96       	adiw	r28, 0x2c	; 44
     992:	ef ac       	ldd	r14, Y+63	; 0x3f
     994:	ac 97       	sbiw	r28, 0x2c	; 44
     996:	ad 96       	adiw	r28, 0x2d	; 45
     998:	ff ac       	ldd	r15, Y+63	; 0x3f
     99a:	ad 97       	sbiw	r28, 0x2d	; 45
     99c:	ae 96       	adiw	r28, 0x2e	; 46
     99e:	0f ad       	ldd	r16, Y+63	; 0x3f
     9a0:	ae 97       	sbiw	r28, 0x2e	; 46
     9a2:	af 96       	adiw	r28, 0x2f	; 47
     9a4:	1f ad       	ldd	r17, Y+63	; 0x3f
     9a6:	af 97       	sbiw	r28, 0x2f	; 47
     9a8:	a0 96       	adiw	r28, 0x20	; 32
     9aa:	2f ad       	ldd	r18, Y+63	; 0x3f
     9ac:	a0 97       	sbiw	r28, 0x20	; 32
     9ae:	a1 96       	adiw	r28, 0x21	; 33
     9b0:	3f ad       	ldd	r19, Y+63	; 0x3f
     9b2:	a1 97       	sbiw	r28, 0x21	; 33
     9b4:	a2 96       	adiw	r28, 0x22	; 34
     9b6:	4f ad       	ldd	r20, Y+63	; 0x3f
     9b8:	a2 97       	sbiw	r28, 0x22	; 34
     9ba:	a3 96       	adiw	r28, 0x23	; 35
     9bc:	5f ad       	ldd	r21, Y+63	; 0x3f
     9be:	a3 97       	sbiw	r28, 0x23	; 35
     9c0:	a4 96       	adiw	r28, 0x24	; 36
     9c2:	6f ad       	ldd	r22, Y+63	; 0x3f
     9c4:	a4 97       	sbiw	r28, 0x24	; 36
     9c6:	a5 96       	adiw	r28, 0x25	; 37
     9c8:	7f ad       	ldd	r23, Y+63	; 0x3f
     9ca:	a5 97       	sbiw	r28, 0x25	; 37
     9cc:	a6 96       	adiw	r28, 0x26	; 38
     9ce:	8f ad       	ldd	r24, Y+63	; 0x3f
     9d0:	a6 97       	sbiw	r28, 0x26	; 38
     9d2:	a7 96       	adiw	r28, 0x27	; 39
     9d4:	9f ad       	ldd	r25, Y+63	; 0x3f
     9d6:	a7 97       	sbiw	r28, 0x27	; 39
     9d8:	0e 94 cd 26 	call	0x4d9a	; 0x4d9a <__muldi3>
     9dc:	22 2e       	mov	r2, r18
     9de:	33 2e       	mov	r3, r19
     9e0:	44 2e       	mov	r4, r20
     9e2:	55 2e       	mov	r5, r21
     9e4:	66 2e       	mov	r6, r22
     9e6:	77 2e       	mov	r7, r23
     9e8:	88 2e       	mov	r8, r24
     9ea:	99 2e       	mov	r9, r25
     9ec:	a2 2c       	mov	r10, r2
     9ee:	b3 2c       	mov	r11, r3
     9f0:	c4 2c       	mov	r12, r4
     9f2:	d5 2c       	mov	r13, r5
     9f4:	e6 2c       	mov	r14, r6
     9f6:	f7 2c       	mov	r15, r7
     9f8:	08 2d       	mov	r16, r8
     9fa:	19 2d       	mov	r17, r9
     9fc:	2a 2d       	mov	r18, r10
     9fe:	3b 2d       	mov	r19, r11
     a00:	4c 2d       	mov	r20, r12
     a02:	5d 2d       	mov	r21, r13
     a04:	6e 2d       	mov	r22, r14
     a06:	7f 2d       	mov	r23, r15
     a08:	80 2f       	mov	r24, r16
     a0a:	91 2f       	mov	r25, r17
     a0c:	ab 84       	ldd	r10, Y+11	; 0x0b
     a0e:	bc 84       	ldd	r11, Y+12	; 0x0c
     a10:	cd 84       	ldd	r12, Y+13	; 0x0d
     a12:	de 84       	ldd	r13, Y+14	; 0x0e
     a14:	ef 84       	ldd	r14, Y+15	; 0x0f
     a16:	f8 88       	ldd	r15, Y+16	; 0x10
     a18:	09 89       	ldd	r16, Y+17	; 0x11
     a1a:	1a 89       	ldd	r17, Y+18	; 0x12
     a1c:	0e 94 6d 27 	call	0x4eda	; 0x4eda <__adddi3>
     a20:	a2 2e       	mov	r10, r18
     a22:	b3 2e       	mov	r11, r19
     a24:	c4 2e       	mov	r12, r20
     a26:	d5 2e       	mov	r13, r21
     a28:	e6 2e       	mov	r14, r22
     a2a:	f7 2e       	mov	r15, r23
     a2c:	08 2f       	mov	r16, r24
     a2e:	19 2f       	mov	r17, r25
     a30:	ab 86       	std	Y+11, r10	; 0x0b
     a32:	bc 86       	std	Y+12, r11	; 0x0c
     a34:	cd 86       	std	Y+13, r12	; 0x0d
     a36:	de 86       	std	Y+14, r13	; 0x0e
     a38:	ef 86       	std	Y+15, r14	; 0x0f
     a3a:	f8 8a       	std	Y+16, r15	; 0x10
     a3c:	09 8b       	std	Y+17, r16	; 0x11
     a3e:	1a 8b       	std	Y+18, r17	; 0x12
/home/becker/async/wcet-benchmarks/benchmarks/adpcm-decode/adpcm.c:344
     a40:	8f 81       	ldd	r24, Y+7	; 0x07
     a42:	98 85       	ldd	r25, Y+8	; 0x08
     a44:	fc 01       	movw	r30, r24
     a46:	80 81       	ld	r24, Z
     a48:	91 81       	ldd	r25, Z+1	; 0x01
     a4a:	a2 81       	ldd	r26, Z+2	; 0x02
     a4c:	b3 81       	ldd	r27, Z+3	; 0x03
     a4e:	e3 96       	adiw	r28, 0x33	; 51
     a50:	8c af       	std	Y+60, r24	; 0x3c
     a52:	9d af       	std	Y+61, r25	; 0x3d
     a54:	ae af       	std	Y+62, r26	; 0x3e
     a56:	bf af       	std	Y+63, r27	; 0x3f
     a58:	e3 97       	sbiw	r28, 0x33	; 51
     a5a:	bb 0f       	add	r27, r27
     a5c:	88 0b       	sbc	r24, r24
     a5e:	98 2f       	mov	r25, r24
     a60:	dc 01       	movw	r26, r24
     a62:	e4 96       	adiw	r28, 0x34	; 52
     a64:	8f af       	std	Y+63, r24	; 0x3f
     a66:	e4 97       	sbiw	r28, 0x34	; 52
     a68:	e5 96       	adiw	r28, 0x35	; 53
     a6a:	8f af       	std	Y+63, r24	; 0x3f
     a6c:	e5 97       	sbiw	r28, 0x35	; 53
     a6e:	e6 96       	adiw	r28, 0x36	; 54
     a70:	8f af       	std	Y+63, r24	; 0x3f
     a72:	e6 97       	sbiw	r28, 0x36	; 54
     a74:	e7 96       	adiw	r28, 0x37	; 55
     a76:	8f af       	std	Y+63, r24	; 0x3f
     a78:	e7 97       	sbiw	r28, 0x37	; 55
     a7a:	2d 81       	ldd	r18, Y+5	; 0x05
     a7c:	3e 81       	ldd	r19, Y+6	; 0x06
     a7e:	c9 01       	movw	r24, r18
     a80:	04 96       	adiw	r24, 0x04	; 4
     a82:	9e 83       	std	Y+6, r25	; 0x06
     a84:	8d 83       	std	Y+5, r24	; 0x05
     a86:	f9 01       	movw	r30, r18
     a88:	80 81       	ld	r24, Z
     a8a:	91 81       	ldd	r25, Z+1	; 0x01
     a8c:	a2 81       	ldd	r26, Z+2	; 0x02
     a8e:	b3 81       	ldd	r27, Z+3	; 0x03
     a90:	eb 96       	adiw	r28, 0x3b	; 59
     a92:	8c af       	std	Y+60, r24	; 0x3c
     a94:	9d af       	std	Y+61, r25	; 0x3d
     a96:	ae af       	std	Y+62, r26	; 0x3e
     a98:	bf af       	std	Y+63, r27	; 0x3f
     a9a:	eb 97       	sbiw	r28, 0x3b	; 59
     a9c:	bb 0f       	add	r27, r27
     a9e:	88 0b       	sbc	r24, r24
     aa0:	98 2f       	mov	r25, r24
     aa2:	dc 01       	movw	r26, r24
     aa4:	ec 96       	adiw	r28, 0x3c	; 60
     aa6:	8f af       	std	Y+63, r24	; 0x3f
     aa8:	ec 97       	sbiw	r28, 0x3c	; 60
     aaa:	ed 96       	adiw	r28, 0x3d	; 61
     aac:	8f af       	std	Y+63, r24	; 0x3f
     aae:	ed 97       	sbiw	r28, 0x3d	; 61
     ab0:	ee 96       	adiw	r28, 0x3e	; 62
     ab2:	8f af       	std	Y+63, r24	; 0x3f
     ab4:	ee 97       	sbiw	r28, 0x3e	; 62
     ab6:	ef 96       	adiw	r28, 0x3f	; 63
     ab8:	8f af       	std	Y+63, r24	; 0x3f
     aba:	ef 97       	sbiw	r28, 0x3f	; 63
     abc:	e8 96       	adiw	r28, 0x38	; 56
     abe:	af ac       	ldd	r10, Y+63	; 0x3f
     ac0:	e8 97       	sbiw	r28, 0x38	; 56
     ac2:	e9 96       	adiw	r28, 0x39	; 57
     ac4:	bf ac       	ldd	r11, Y+63	; 0x3f
     ac6:	e9 97       	sbiw	r28, 0x39	; 57
     ac8:	ea 96       	adiw	r28, 0x3a	; 58
     aca:	cf ac       	ldd	r12, Y+63	; 0x3f
     acc:	ea 97       	sbiw	r28, 0x3a	; 58
     ace:	eb 96       	adiw	r28, 0x3b	; 59
     ad0:	df ac       	ldd	r13, Y+63	; 0x3f
     ad2:	eb 97       	sbiw	r28, 0x3b	; 59
     ad4:	ec 96       	adiw	r28, 0x3c	; 60
     ad6:	ef ac       	ldd	r14, Y+63	; 0x3f
     ad8:	ec 97       	sbiw	r28, 0x3c	; 60
     ada:	ed 96       	adiw	r28, 0x3d	; 61
     adc:	ff ac       	ldd	r15, Y+63	; 0x3f
     ade:	ed 97       	sbiw	r28, 0x3d	; 61
     ae0:	ee 96       	adiw	r28, 0x3e	; 62
     ae2:	0f ad       	ldd	r16, Y+63	; 0x3f
     ae4:	ee 97       	sbiw	r28, 0x3e	; 62
     ae6:	ef 96       	adiw	r28, 0x3f	; 63
     ae8:	1f ad       	ldd	r17, Y+63	; 0x3f
     aea:	ef 97       	sbiw	r28, 0x3f	; 63
     aec:	e0 96       	adiw	r28, 0x30	; 48
     aee:	2f ad       	ldd	r18, Y+63	; 0x3f
     af0:	e0 97       	sbiw	r28, 0x30	; 48
     af2:	e1 96       	adiw	r28, 0x31	; 49
     af4:	3f ad       	ldd	r19, Y+63	; 0x3f
     af6:	e1 97       	sbiw	r28, 0x31	; 49
     af8:	e2 96       	adiw	r28, 0x32	; 50
     afa:	4f ad       	ldd	r20, Y+63	; 0x3f
     afc:	e2 97       	sbiw	r28, 0x32	; 50
     afe:	e3 96       	adiw	r28, 0x33	; 51
     b00:	5f ad       	ldd	r21, Y+63	; 0x3f
     b02:	e3 97       	sbiw	r28, 0x33	; 51
     b04:	e4 96       	adiw	r28, 0x34	; 52
     b06:	6f ad       	ldd	r22, Y+63	; 0x3f
     b08:	e4 97       	sbiw	r28, 0x34	; 52
     b0a:	e5 96       	adiw	r28, 0x35	; 53
     b0c:	7f ad       	ldd	r23, Y+63	; 0x3f
     b0e:	e5 97       	sbiw	r28, 0x35	; 53
     b10:	e6 96       	adiw	r28, 0x36	; 54
     b12:	8f ad       	ldd	r24, Y+63	; 0x3f
     b14:	e6 97       	sbiw	r28, 0x36	; 54
     b16:	e7 96       	adiw	r28, 0x37	; 55
     b18:	9f ad       	ldd	r25, Y+63	; 0x3f
     b1a:	e7 97       	sbiw	r28, 0x37	; 55
     b1c:	0e 94 cd 26 	call	0x4d9a	; 0x4d9a <__muldi3>
     b20:	22 2e       	mov	r2, r18
     b22:	33 2e       	mov	r3, r19
     b24:	44 2e       	mov	r4, r20
     b26:	55 2e       	mov	r5, r21
     b28:	66 2e       	mov	r6, r22
     b2a:	77 2e       	mov	r7, r23
     b2c:	88 2e       	mov	r8, r24
     b2e:	99 2e       	mov	r9, r25
     b30:	a2 2c       	mov	r10, r2
     b32:	b3 2c       	mov	r11, r3
     b34:	c4 2c       	mov	r12, r4
     b36:	d5 2c       	mov	r13, r5
     b38:	e6 2c       	mov	r14, r6
     b3a:	f7 2c       	mov	r15, r7
     b3c:	08 2d       	mov	r16, r8
     b3e:	19 2d       	mov	r17, r9
     b40:	2a 2d       	mov	r18, r10
     b42:	3b 2d       	mov	r19, r11
     b44:	4c 2d       	mov	r20, r12
     b46:	5d 2d       	mov	r21, r13
     b48:	6e 2d       	mov	r22, r14
     b4a:	7f 2d       	mov	r23, r15
     b4c:	80 2f       	mov	r24, r16
     b4e:	91 2f       	mov	r25, r17
     b50:	ab 88       	ldd	r10, Y+19	; 0x13
     b52:	bc 88       	ldd	r11, Y+20	; 0x14
     b54:	cd 88       	ldd	r12, Y+21	; 0x15
     b56:	de 88       	ldd	r13, Y+22	; 0x16
     b58:	ef 88       	ldd	r14, Y+23	; 0x17
     b5a:	f8 8c       	ldd	r15, Y+24	; 0x18
     b5c:	09 8d       	ldd	r16, Y+25	; 0x19
     b5e:	1a 8d       	ldd	r17, Y+26	; 0x1a
     b60:	0e 94 6d 27 	call	0x4eda	; 0x4eda <__adddi3>
     b64:	a2 2e       	mov	r10, r18
     b66:	b3 2e       	mov	r11, r19
     b68:	c4 2e       	mov	r12, r20
     b6a:	d5 2e       	mov	r13, r21
     b6c:	e6 2e       	mov	r14, r22
     b6e:	f7 2e       	mov	r15, r23
     b70:	08 2f       	mov	r16, r24
     b72:	19 2f       	mov	r17, r25
     b74:	ab 8a       	std	Y+19, r10	; 0x13
     b76:	bc 8a       	std	Y+20, r11	; 0x14
     b78:	cd 8a       	std	Y+21, r12	; 0x15
     b7a:	de 8a       	std	Y+22, r13	; 0x16
     b7c:	ef 8a       	std	Y+23, r14	; 0x17
     b7e:	f8 8e       	std	Y+24, r15	; 0x18
     b80:	09 8f       	std	Y+25, r16	; 0x19
     b82:	1a 8f       	std	Y+26, r17	; 0x1a
/home/becker/async/wcet-benchmarks/benchmarks/adpcm-decode/adpcm.c:347
     b84:	8f 81       	ldd	r24, Y+7	; 0x07
     b86:	98 85       	ldd	r25, Y+8	; 0x08
     b88:	08 97       	sbiw	r24, 0x08	; 8
     b8a:	9a 87       	std	Y+10, r25	; 0x0a
     b8c:	89 87       	std	Y+9, r24	; 0x09
/home/becker/async/wcet-benchmarks/benchmarks/adpcm-decode/adpcm.c:349
     b8e:	19 82       	std	Y+1, r1	; 0x01
     b90:	1a 82       	std	Y+2, r1	; 0x02
     b92:	1b 82       	std	Y+3, r1	; 0x03
     b94:	1c 82       	std	Y+4, r1	; 0x04
     b96:	21 c0       	rjmp	.+66     	; 0xbda <encode+0x740>
/home/becker/async/wcet-benchmarks/benchmarks/adpcm-decode/adpcm.c:350 (discriminator 2)
     b98:	4f 81       	ldd	r20, Y+7	; 0x07
     b9a:	58 85       	ldd	r21, Y+8	; 0x08
     b9c:	ca 01       	movw	r24, r20
     b9e:	04 97       	sbiw	r24, 0x04	; 4
     ba0:	98 87       	std	Y+8, r25	; 0x08
     ba2:	8f 83       	std	Y+7, r24	; 0x07
     ba4:	29 85       	ldd	r18, Y+9	; 0x09
     ba6:	3a 85       	ldd	r19, Y+10	; 0x0a
     ba8:	c9 01       	movw	r24, r18
     baa:	04 97       	sbiw	r24, 0x04	; 4
     bac:	9a 87       	std	Y+10, r25	; 0x0a
     bae:	89 87       	std	Y+9, r24	; 0x09
     bb0:	f9 01       	movw	r30, r18
     bb2:	80 81       	ld	r24, Z
     bb4:	91 81       	ldd	r25, Z+1	; 0x01
     bb6:	a2 81       	ldd	r26, Z+2	; 0x02
     bb8:	b3 81       	ldd	r27, Z+3	; 0x03
     bba:	fa 01       	movw	r30, r20
     bbc:	80 83       	st	Z, r24
     bbe:	91 83       	std	Z+1, r25	; 0x01
     bc0:	a2 83       	std	Z+2, r26	; 0x02
     bc2:	b3 83       	std	Z+3, r27	; 0x03
/home/becker/async/wcet-benchmarks/benchmarks/adpcm-decode/adpcm.c:349 (discriminator 2)
     bc4:	89 81       	ldd	r24, Y+1	; 0x01
     bc6:	9a 81       	ldd	r25, Y+2	; 0x02
     bc8:	ab 81       	ldd	r26, Y+3	; 0x03
     bca:	bc 81       	ldd	r27, Y+4	; 0x04
     bcc:	01 96       	adiw	r24, 0x01	; 1
     bce:	a1 1d       	adc	r26, r1
     bd0:	b1 1d       	adc	r27, r1
     bd2:	89 83       	std	Y+1, r24	; 0x01
     bd4:	9a 83       	std	Y+2, r25	; 0x02
     bd6:	ab 83       	std	Y+3, r26	; 0x03
     bd8:	bc 83       	std	Y+4, r27	; 0x04
/home/becker/async/wcet-benchmarks/benchmarks/adpcm-decode/adpcm.c:349 (discriminator 1)
     bda:	89 81       	ldd	r24, Y+1	; 0x01
     bdc:	9a 81       	ldd	r25, Y+2	; 0x02
     bde:	ab 81       	ldd	r26, Y+3	; 0x03
     be0:	bc 81       	ldd	r27, Y+4	; 0x04
     be2:	86 31       	cpi	r24, 0x16	; 22
     be4:	91 05       	cpc	r25, r1
     be6:	a1 05       	cpc	r26, r1
     be8:	b1 05       	cpc	r27, r1
     bea:	b4 f2       	brlt	.-84     	; 0xb98 <encode+0x6fe>
/home/becker/async/wcet-benchmarks/benchmarks/adpcm-decode/adpcm.c:351
     bec:	2f 81       	ldd	r18, Y+7	; 0x07
     bee:	38 85       	ldd	r19, Y+8	; 0x08
     bf0:	c9 01       	movw	r24, r18
     bf2:	04 97       	sbiw	r24, 0x04	; 4
     bf4:	98 87       	std	Y+8, r25	; 0x08
     bf6:	8f 83       	std	Y+7, r24	; 0x07
     bf8:	8f 8d       	ldd	r24, Y+31	; 0x1f
     bfa:	98 a1       	ldd	r25, Y+32	; 0x20
     bfc:	a9 a1       	ldd	r26, Y+33	; 0x21
     bfe:	ba a1       	ldd	r27, Y+34	; 0x22
     c00:	f9 01       	movw	r30, r18
     c02:	80 83       	st	Z, r24
     c04:	91 83       	std	Z+1, r25	; 0x01
     c06:	a2 83       	std	Z+2, r26	; 0x02
     c08:	b3 83       	std	Z+3, r27	; 0x03
/home/becker/async/wcet-benchmarks/benchmarks/adpcm-decode/adpcm.c:352
     c0a:	2f 81       	ldd	r18, Y+7	; 0x07
     c0c:	38 85       	ldd	r19, Y+8	; 0x08
     c0e:	8b a1       	ldd	r24, Y+35	; 0x23
     c10:	9c a1       	ldd	r25, Y+36	; 0x24
     c12:	ad a1       	ldd	r26, Y+37	; 0x25
     c14:	be a1       	ldd	r27, Y+38	; 0x26
     c16:	f9 01       	movw	r30, r18
     c18:	80 83       	st	Z, r24
     c1a:	91 83       	std	Z+1, r25	; 0x01
     c1c:	a2 83       	std	Z+2, r26	; 0x02
     c1e:	b3 83       	std	Z+3, r27	; 0x03
/home/becker/async/wcet-benchmarks/benchmarks/adpcm-decode/adpcm.c:355
     c20:	2b 85       	ldd	r18, Y+11	; 0x0b
     c22:	3c 85       	ldd	r19, Y+12	; 0x0c
     c24:	4d 85       	ldd	r20, Y+13	; 0x0d
     c26:	5e 85       	ldd	r21, Y+14	; 0x0e
     c28:	6f 85       	ldd	r22, Y+15	; 0x0f
     c2a:	78 89       	ldd	r23, Y+16	; 0x10
     c2c:	89 89       	ldd	r24, Y+17	; 0x11
     c2e:	9a 89       	ldd	r25, Y+18	; 0x12
     c30:	ab 88       	ldd	r10, Y+19	; 0x13
     c32:	bc 88       	ldd	r11, Y+20	; 0x14
     c34:	cd 88       	ldd	r12, Y+21	; 0x15
     c36:	de 88       	ldd	r13, Y+22	; 0x16
     c38:	ef 88       	ldd	r14, Y+23	; 0x17
     c3a:	f8 8c       	ldd	r15, Y+24	; 0x18
     c3c:	09 8d       	ldd	r16, Y+25	; 0x19
     c3e:	1a 8d       	ldd	r17, Y+26	; 0x1a
     c40:	0e 94 6d 27 	call	0x4eda	; 0x4eda <__adddi3>
     c44:	a2 2e       	mov	r10, r18
     c46:	b3 2e       	mov	r11, r19
     c48:	c4 2e       	mov	r12, r20
     c4a:	d5 2e       	mov	r13, r21
     c4c:	e6 2e       	mov	r14, r22
     c4e:	f7 2e       	mov	r15, r23
     c50:	08 2f       	mov	r16, r24
     c52:	19 2f       	mov	r17, r25
     c54:	2a 2d       	mov	r18, r10
     c56:	3b 2d       	mov	r19, r11
     c58:	4c 2d       	mov	r20, r12
     c5a:	5d 2d       	mov	r21, r13
     c5c:	6e 2d       	mov	r22, r14
     c5e:	7f 2d       	mov	r23, r15
     c60:	80 2f       	mov	r24, r16
     c62:	91 2f       	mov	r25, r17
     c64:	0f e0       	ldi	r16, 0x0F	; 15
     c66:	0e 94 4f 27 	call	0x4e9e	; 0x4e9e <__ashrdi3>
     c6a:	a2 2e       	mov	r10, r18
     c6c:	b3 2e       	mov	r11, r19
     c6e:	c4 2e       	mov	r12, r20
     c70:	d5 2e       	mov	r13, r21
     c72:	e6 2e       	mov	r14, r22
     c74:	f7 2e       	mov	r15, r23
     c76:	08 2f       	mov	r16, r24
     c78:	19 2f       	mov	r17, r25
     c7a:	d6 01       	movw	r26, r12
     c7c:	c5 01       	movw	r24, r10
     c7e:	80 93 88 09 	sts	0x0988, r24
     c82:	90 93 89 09 	sts	0x0989, r25
     c86:	a0 93 8a 09 	sts	0x098A, r26
     c8a:	b0 93 8b 09 	sts	0x098B, r27
/home/becker/async/wcet-benchmarks/benchmarks/adpcm-decode/adpcm.c:356
     c8e:	2b 85       	ldd	r18, Y+11	; 0x0b
     c90:	3c 85       	ldd	r19, Y+12	; 0x0c
     c92:	4d 85       	ldd	r20, Y+13	; 0x0d
     c94:	5e 85       	ldd	r21, Y+14	; 0x0e
     c96:	6f 85       	ldd	r22, Y+15	; 0x0f
     c98:	78 89       	ldd	r23, Y+16	; 0x10
     c9a:	89 89       	ldd	r24, Y+17	; 0x11
     c9c:	9a 89       	ldd	r25, Y+18	; 0x12
     c9e:	ab 88       	ldd	r10, Y+19	; 0x13
     ca0:	bc 88       	ldd	r11, Y+20	; 0x14
     ca2:	cd 88       	ldd	r12, Y+21	; 0x15
     ca4:	de 88       	ldd	r13, Y+22	; 0x16
     ca6:	ef 88       	ldd	r14, Y+23	; 0x17
     ca8:	f8 8c       	ldd	r15, Y+24	; 0x18
     caa:	09 8d       	ldd	r16, Y+25	; 0x19
     cac:	1a 8d       	ldd	r17, Y+26	; 0x1a
     cae:	0e 94 82 27 	call	0x4f04	; 0x4f04 <__subdi3>
     cb2:	a2 2e       	mov	r10, r18
     cb4:	b3 2e       	mov	r11, r19
     cb6:	c4 2e       	mov	r12, r20
     cb8:	d5 2e       	mov	r13, r21
     cba:	e6 2e       	mov	r14, r22
     cbc:	f7 2e       	mov	r15, r23
     cbe:	08 2f       	mov	r16, r24
     cc0:	19 2f       	mov	r17, r25
     cc2:	2a 2d       	mov	r18, r10
     cc4:	3b 2d       	mov	r19, r11
     cc6:	4c 2d       	mov	r20, r12
     cc8:	5d 2d       	mov	r21, r13
     cca:	6e 2d       	mov	r22, r14
     ccc:	7f 2d       	mov	r23, r15
     cce:	80 2f       	mov	r24, r16
     cd0:	91 2f       	mov	r25, r17
     cd2:	0f e0       	ldi	r16, 0x0F	; 15
     cd4:	0e 94 4f 27 	call	0x4e9e	; 0x4e9e <__ashrdi3>
     cd8:	a2 2e       	mov	r10, r18
     cda:	b3 2e       	mov	r11, r19
     cdc:	c4 2e       	mov	r12, r20
     cde:	d5 2e       	mov	r13, r21
     ce0:	e6 2e       	mov	r14, r22
     ce2:	f7 2e       	mov	r15, r23
     ce4:	08 2f       	mov	r16, r24
     ce6:	19 2f       	mov	r17, r25
     ce8:	d6 01       	movw	r26, r12
     cea:	c5 01       	movw	r24, r10
     cec:	80 93 14 08 	sts	0x0814, r24
     cf0:	90 93 15 08 	sts	0x0815, r25
     cf4:	a0 93 16 08 	sts	0x0816, r26
     cf8:	b0 93 17 08 	sts	0x0817, r27
/home/becker/async/wcet-benchmarks/benchmarks/adpcm-decode/adpcm.c:363
     cfc:	68 e4       	ldi	r22, 0x48	; 72
     cfe:	77 e0       	ldi	r23, 0x07	; 7
     d00:	80 e5       	ldi	r24, 0x50	; 80
     d02:	99 e0       	ldi	r25, 0x09	; 9
     d04:	0e 94 b2 1a 	call	0x3564	; 0x3564 <filtez>
     d08:	dc 01       	movw	r26, r24
     d0a:	cb 01       	movw	r24, r22
     d0c:	80 93 d8 07 	sts	0x07D8, r24
     d10:	90 93 d9 07 	sts	0x07D9, r25
     d14:	a0 93 da 07 	sts	0x07DA, r26
     d18:	b0 93 db 07 	sts	0x07DB, r27
/home/becker/async/wcet-benchmarks/benchmarks/adpcm-decode/adpcm.c:366
     d1c:	a0 90 40 09 	lds	r10, 0x0940
     d20:	b0 90 41 09 	lds	r11, 0x0941
     d24:	c0 90 42 09 	lds	r12, 0x0942
     d28:	d0 90 43 09 	lds	r13, 0x0943
     d2c:	e0 90 24 08 	lds	r14, 0x0824
     d30:	f0 90 25 08 	lds	r15, 0x0825
     d34:	00 91 26 08 	lds	r16, 0x0826
     d38:	10 91 27 08 	lds	r17, 0x0827
     d3c:	20 91 98 09 	lds	r18, 0x0998
     d40:	30 91 99 09 	lds	r19, 0x0999
     d44:	40 91 9a 09 	lds	r20, 0x099A
     d48:	50 91 9b 09 	lds	r21, 0x099B
     d4c:	80 91 68 09 	lds	r24, 0x0968
     d50:	90 91 69 09 	lds	r25, 0x0969
     d54:	a0 91 6a 09 	lds	r26, 0x096A
     d58:	b0 91 6b 09 	lds	r27, 0x096B
     d5c:	bc 01       	movw	r22, r24
     d5e:	cd 01       	movw	r24, r26
     d60:	0e 94 e0 1b 	call	0x37c0	; 0x37c0 <filtep>
     d64:	dc 01       	movw	r26, r24
     d66:	cb 01       	movw	r24, r22
     d68:	80 93 2c 07 	sts	0x072C, r24
     d6c:	90 93 2d 07 	sts	0x072D, r25
     d70:	a0 93 2e 07 	sts	0x072E, r26
     d74:	b0 93 2f 07 	sts	0x072F, r27
/home/becker/async/wcet-benchmarks/benchmarks/adpcm-decode/adpcm.c:369
     d78:	20 91 d8 07 	lds	r18, 0x07D8
     d7c:	30 91 d9 07 	lds	r19, 0x07D9
     d80:	40 91 da 07 	lds	r20, 0x07DA
     d84:	50 91 db 07 	lds	r21, 0x07DB
     d88:	80 91 2c 07 	lds	r24, 0x072C
     d8c:	90 91 2d 07 	lds	r25, 0x072D
     d90:	a0 91 2e 07 	lds	r26, 0x072E
     d94:	b0 91 2f 07 	lds	r27, 0x072F
     d98:	82 0f       	add	r24, r18
     d9a:	93 1f       	adc	r25, r19
     d9c:	a4 1f       	adc	r26, r20
     d9e:	b5 1f       	adc	r27, r21
     da0:	80 93 cc 07 	sts	0x07CC, r24
     da4:	90 93 cd 07 	sts	0x07CD, r25
     da8:	a0 93 ce 07 	sts	0x07CE, r26
     dac:	b0 93 cf 07 	sts	0x07CF, r27
/home/becker/async/wcet-benchmarks/benchmarks/adpcm-decode/adpcm.c:370
     db0:	20 91 88 09 	lds	r18, 0x0988
     db4:	30 91 89 09 	lds	r19, 0x0989
     db8:	40 91 8a 09 	lds	r20, 0x098A
     dbc:	50 91 8b 09 	lds	r21, 0x098B
     dc0:	80 91 cc 07 	lds	r24, 0x07CC
     dc4:	90 91 cd 07 	lds	r25, 0x07CD
     dc8:	a0 91 ce 07 	lds	r26, 0x07CE
     dcc:	b0 91 cf 07 	lds	r27, 0x07CF
     dd0:	79 01       	movw	r14, r18
     dd2:	8a 01       	movw	r16, r20
     dd4:	e8 1a       	sub	r14, r24
     dd6:	f9 0a       	sbc	r15, r25
     dd8:	0a 0b       	sbc	r16, r26
     dda:	1b 0b       	sbc	r17, r27
     ddc:	d8 01       	movw	r26, r16
     dde:	c7 01       	movw	r24, r14
     de0:	80 93 3c 08 	sts	0x083C, r24
     de4:	90 93 3d 08 	sts	0x083D, r25
     de8:	a0 93 3e 08 	sts	0x083E, r26
     dec:	b0 93 3f 08 	sts	0x083F, r27
/home/becker/async/wcet-benchmarks/benchmarks/adpcm-decode/adpcm.c:373
     df0:	20 91 b8 07 	lds	r18, 0x07B8
     df4:	30 91 b9 07 	lds	r19, 0x07B9
     df8:	40 91 ba 07 	lds	r20, 0x07BA
     dfc:	50 91 bb 07 	lds	r21, 0x07BB
     e00:	80 91 3c 08 	lds	r24, 0x083C
     e04:	90 91 3d 08 	lds	r25, 0x083D
     e08:	a0 91 3e 08 	lds	r26, 0x083E
     e0c:	b0 91 3f 08 	lds	r27, 0x083F
     e10:	bc 01       	movw	r22, r24
     e12:	cd 01       	movw	r24, r26
     e14:	0e 94 e6 1c 	call	0x39cc	; 0x39cc <quantl>
     e18:	dc 01       	movw	r26, r24
     e1a:	cb 01       	movw	r24, r22
     e1c:	80 93 34 08 	sts	0x0834, r24
     e20:	90 93 35 08 	sts	0x0835, r25
     e24:	a0 93 36 08 	sts	0x0836, r26
     e28:	b0 93 37 08 	sts	0x0837, r27
/home/becker/async/wcet-benchmarks/benchmarks/adpcm-decode/adpcm.c:377
     e2c:	80 91 b8 07 	lds	r24, 0x07B8
     e30:	90 91 b9 07 	lds	r25, 0x07B9
     e34:	a0 91 ba 07 	lds	r26, 0x07BA
     e38:	b0 91 bb 07 	lds	r27, 0x07BB
     e3c:	c1 58       	subi	r28, 0x81	; 129
     e3e:	df 4f       	sbci	r29, 0xFF	; 255
     e40:	88 83       	st	Y, r24
     e42:	99 83       	std	Y+1, r25	; 0x01
     e44:	aa 83       	std	Y+2, r26	; 0x02
     e46:	bb 83       	std	Y+3, r27	; 0x03
     e48:	cf 57       	subi	r28, 0x7F	; 127
     e4a:	d0 40       	sbci	r29, 0x00	; 0
     e4c:	bb 0f       	add	r27, r27
     e4e:	88 0b       	sbc	r24, r24
     e50:	98 2f       	mov	r25, r24
     e52:	dc 01       	movw	r26, r24
     e54:	cd 57       	subi	r28, 0x7D	; 125
     e56:	df 4f       	sbci	r29, 0xFF	; 255
     e58:	88 83       	st	Y, r24
     e5a:	c3 58       	subi	r28, 0x83	; 131
     e5c:	d0 40       	sbci	r29, 0x00	; 0
     e5e:	cc 57       	subi	r28, 0x7C	; 124
     e60:	df 4f       	sbci	r29, 0xFF	; 255
     e62:	88 83       	st	Y, r24
     e64:	c4 58       	subi	r28, 0x84	; 132
     e66:	d0 40       	sbci	r29, 0x00	; 0
     e68:	cb 57       	subi	r28, 0x7B	; 123
     e6a:	df 4f       	sbci	r29, 0xFF	; 255
     e6c:	88 83       	st	Y, r24
     e6e:	c5 58       	subi	r28, 0x85	; 133
     e70:	d0 40       	sbci	r29, 0x00	; 0
     e72:	ca 57       	subi	r28, 0x7A	; 122
     e74:	df 4f       	sbci	r29, 0xFF	; 255
     e76:	88 83       	st	Y, r24
     e78:	c6 58       	subi	r28, 0x86	; 134
     e7a:	d0 40       	sbci	r29, 0x00	; 0
     e7c:	80 91 34 08 	lds	r24, 0x0834
     e80:	90 91 35 08 	lds	r25, 0x0835
     e84:	a0 91 36 08 	lds	r26, 0x0836
     e88:	b0 91 37 08 	lds	r27, 0x0837
     e8c:	b5 95       	asr	r27
     e8e:	a7 95       	ror	r26
     e90:	97 95       	ror	r25
     e92:	87 95       	ror	r24
     e94:	b5 95       	asr	r27
     e96:	a7 95       	ror	r26
     e98:	97 95       	ror	r25
     e9a:	87 95       	ror	r24
     e9c:	88 0f       	add	r24, r24
     e9e:	99 1f       	adc	r25, r25
     ea0:	88 0f       	add	r24, r24
     ea2:	99 1f       	adc	r25, r25
     ea4:	80 5a       	subi	r24, 0xA0	; 160
     ea6:	9e 4f       	sbci	r25, 0xFE	; 254
     ea8:	fc 01       	movw	r30, r24
     eaa:	80 81       	ld	r24, Z
     eac:	91 81       	ldd	r25, Z+1	; 0x01
     eae:	a2 81       	ldd	r26, Z+2	; 0x02
     eb0:	b3 81       	ldd	r27, Z+3	; 0x03
     eb2:	c9 57       	subi	r28, 0x79	; 121
     eb4:	df 4f       	sbci	r29, 0xFF	; 255
     eb6:	88 83       	st	Y, r24
     eb8:	99 83       	std	Y+1, r25	; 0x01
     eba:	aa 83       	std	Y+2, r26	; 0x02
     ebc:	bb 83       	std	Y+3, r27	; 0x03
     ebe:	c7 58       	subi	r28, 0x87	; 135
     ec0:	d0 40       	sbci	r29, 0x00	; 0
     ec2:	bb 0f       	add	r27, r27
     ec4:	88 0b       	sbc	r24, r24
     ec6:	98 2f       	mov	r25, r24
     ec8:	dc 01       	movw	r26, r24
     eca:	c5 57       	subi	r28, 0x75	; 117
     ecc:	df 4f       	sbci	r29, 0xFF	; 255
     ece:	88 83       	st	Y, r24
     ed0:	cb 58       	subi	r28, 0x8B	; 139
     ed2:	d0 40       	sbci	r29, 0x00	; 0
     ed4:	c4 57       	subi	r28, 0x74	; 116
     ed6:	df 4f       	sbci	r29, 0xFF	; 255
     ed8:	88 83       	st	Y, r24
     eda:	cc 58       	subi	r28, 0x8C	; 140
     edc:	d0 40       	sbci	r29, 0x00	; 0
     ede:	c3 57       	subi	r28, 0x73	; 115
     ee0:	df 4f       	sbci	r29, 0xFF	; 255
     ee2:	88 83       	st	Y, r24
     ee4:	cd 58       	subi	r28, 0x8D	; 141
     ee6:	d0 40       	sbci	r29, 0x00	; 0
     ee8:	c2 57       	subi	r28, 0x72	; 114
     eea:	df 4f       	sbci	r29, 0xFF	; 255
     eec:	88 83       	st	Y, r24
     eee:	ce 58       	subi	r28, 0x8E	; 142
     ef0:	d0 40       	sbci	r29, 0x00	; 0
     ef2:	c9 57       	subi	r28, 0x79	; 121
     ef4:	df 4f       	sbci	r29, 0xFF	; 255
     ef6:	a8 80       	ld	r10, Y
     ef8:	c7 58       	subi	r28, 0x87	; 135
     efa:	d0 40       	sbci	r29, 0x00	; 0
     efc:	c8 57       	subi	r28, 0x78	; 120
     efe:	df 4f       	sbci	r29, 0xFF	; 255
     f00:	b8 80       	ld	r11, Y
     f02:	c8 58       	subi	r28, 0x88	; 136
     f04:	d0 40       	sbci	r29, 0x00	; 0
     f06:	c7 57       	subi	r28, 0x77	; 119
     f08:	df 4f       	sbci	r29, 0xFF	; 255
     f0a:	c8 80       	ld	r12, Y
     f0c:	c9 58       	subi	r28, 0x89	; 137
     f0e:	d0 40       	sbci	r29, 0x00	; 0
     f10:	c6 57       	subi	r28, 0x76	; 118
     f12:	df 4f       	sbci	r29, 0xFF	; 255
     f14:	d8 80       	ld	r13, Y
     f16:	ca 58       	subi	r28, 0x8A	; 138
     f18:	d0 40       	sbci	r29, 0x00	; 0
     f1a:	c5 57       	subi	r28, 0x75	; 117
     f1c:	df 4f       	sbci	r29, 0xFF	; 255
     f1e:	e8 80       	ld	r14, Y
     f20:	cb 58       	subi	r28, 0x8B	; 139
     f22:	d0 40       	sbci	r29, 0x00	; 0
     f24:	c4 57       	subi	r28, 0x74	; 116
     f26:	df 4f       	sbci	r29, 0xFF	; 255
     f28:	f8 80       	ld	r15, Y
     f2a:	cc 58       	subi	r28, 0x8C	; 140
     f2c:	d0 40       	sbci	r29, 0x00	; 0
     f2e:	c3 57       	subi	r28, 0x73	; 115
     f30:	df 4f       	sbci	r29, 0xFF	; 255
     f32:	08 81       	ld	r16, Y
     f34:	cd 58       	subi	r28, 0x8D	; 141
     f36:	d0 40       	sbci	r29, 0x00	; 0
     f38:	c2 57       	subi	r28, 0x72	; 114
     f3a:	df 4f       	sbci	r29, 0xFF	; 255
     f3c:	18 81       	ld	r17, Y
     f3e:	ce 58       	subi	r28, 0x8E	; 142
     f40:	d0 40       	sbci	r29, 0x00	; 0
     f42:	c1 58       	subi	r28, 0x81	; 129
     f44:	df 4f       	sbci	r29, 0xFF	; 255
     f46:	28 81       	ld	r18, Y
     f48:	cf 57       	subi	r28, 0x7F	; 127
     f4a:	d0 40       	sbci	r29, 0x00	; 0
     f4c:	c0 58       	subi	r28, 0x80	; 128
     f4e:	df 4f       	sbci	r29, 0xFF	; 255
     f50:	38 81       	ld	r19, Y
     f52:	c0 58       	subi	r28, 0x80	; 128
     f54:	d0 40       	sbci	r29, 0x00	; 0
     f56:	cf 57       	subi	r28, 0x7F	; 127
     f58:	df 4f       	sbci	r29, 0xFF	; 255
     f5a:	48 81       	ld	r20, Y
     f5c:	c1 58       	subi	r28, 0x81	; 129
     f5e:	d0 40       	sbci	r29, 0x00	; 0
     f60:	ce 57       	subi	r28, 0x7E	; 126
     f62:	df 4f       	sbci	r29, 0xFF	; 255
     f64:	58 81       	ld	r21, Y
     f66:	c2 58       	subi	r28, 0x82	; 130
     f68:	d0 40       	sbci	r29, 0x00	; 0
     f6a:	cd 57       	subi	r28, 0x7D	; 125
     f6c:	df 4f       	sbci	r29, 0xFF	; 255
     f6e:	68 81       	ld	r22, Y
     f70:	c3 58       	subi	r28, 0x83	; 131
     f72:	d0 40       	sbci	r29, 0x00	; 0
     f74:	cc 57       	subi	r28, 0x7C	; 124
     f76:	df 4f       	sbci	r29, 0xFF	; 255
     f78:	78 81       	ld	r23, Y
     f7a:	c4 58       	subi	r28, 0x84	; 132
     f7c:	d0 40       	sbci	r29, 0x00	; 0
     f7e:	cb 57       	subi	r28, 0x7B	; 123
     f80:	df 4f       	sbci	r29, 0xFF	; 255
     f82:	88 81       	ld	r24, Y
     f84:	c5 58       	subi	r28, 0x85	; 133
     f86:	d0 40       	sbci	r29, 0x00	; 0
     f88:	ca 57       	subi	r28, 0x7A	; 122
     f8a:	df 4f       	sbci	r29, 0xFF	; 255
     f8c:	98 81       	ld	r25, Y
     f8e:	c6 58       	subi	r28, 0x86	; 134
     f90:	d0 40       	sbci	r29, 0x00	; 0
     f92:	0e 94 cd 26 	call	0x4d9a	; 0x4d9a <__muldi3>
     f96:	22 2e       	mov	r2, r18
     f98:	33 2e       	mov	r3, r19
     f9a:	44 2e       	mov	r4, r20
     f9c:	55 2e       	mov	r5, r21
     f9e:	66 2e       	mov	r6, r22
     fa0:	77 2e       	mov	r7, r23
     fa2:	88 2e       	mov	r8, r24
     fa4:	99 2e       	mov	r9, r25
     fa6:	a2 2c       	mov	r10, r2
     fa8:	b3 2c       	mov	r11, r3
     faa:	c4 2c       	mov	r12, r4
     fac:	d5 2c       	mov	r13, r5
     fae:	e6 2c       	mov	r14, r6
     fb0:	f7 2c       	mov	r15, r7
     fb2:	08 2d       	mov	r16, r8
     fb4:	19 2d       	mov	r17, r9
     fb6:	2a 2d       	mov	r18, r10
     fb8:	3b 2d       	mov	r19, r11
     fba:	4c 2d       	mov	r20, r12
     fbc:	5d 2d       	mov	r21, r13
     fbe:	6e 2d       	mov	r22, r14
     fc0:	7f 2d       	mov	r23, r15
     fc2:	80 2f       	mov	r24, r16
     fc4:	91 2f       	mov	r25, r17
     fc6:	0f e0       	ldi	r16, 0x0F	; 15
     fc8:	0e 94 4f 27 	call	0x4e9e	; 0x4e9e <__ashrdi3>
     fcc:	a2 2e       	mov	r10, r18
     fce:	b3 2e       	mov	r11, r19
     fd0:	c4 2e       	mov	r12, r20
     fd2:	d5 2e       	mov	r13, r21
     fd4:	e6 2e       	mov	r14, r22
     fd6:	f7 2e       	mov	r15, r23
     fd8:	08 2f       	mov	r16, r24
     fda:	19 2f       	mov	r17, r25
     fdc:	d6 01       	movw	r26, r12
     fde:	c5 01       	movw	r24, r10
     fe0:	80 93 6c 08 	sts	0x086C, r24
     fe4:	90 93 6d 08 	sts	0x086D, r25
     fe8:	a0 93 6e 08 	sts	0x086E, r26
     fec:	b0 93 6f 08 	sts	0x086F, r27
/home/becker/async/wcet-benchmarks/benchmarks/adpcm-decode/adpcm.c:380
     ff0:	80 91 40 07 	lds	r24, 0x0740
     ff4:	90 91 41 07 	lds	r25, 0x0741
     ff8:	a0 91 42 07 	lds	r26, 0x0742
     ffc:	b0 91 43 07 	lds	r27, 0x0743
    1000:	e0 90 34 08 	lds	r14, 0x0834
    1004:	f0 90 35 08 	lds	r15, 0x0835
    1008:	00 91 36 08 	lds	r16, 0x0836
    100c:	10 91 37 08 	lds	r17, 0x0837
    1010:	9c 01       	movw	r18, r24
    1012:	ad 01       	movw	r20, r26
    1014:	c8 01       	movw	r24, r16
    1016:	b7 01       	movw	r22, r14
    1018:	0e 94 03 1e 	call	0x3c06	; 0x3c06 <logscl>
    101c:	dc 01       	movw	r26, r24
    101e:	cb 01       	movw	r24, r22
    1020:	80 93 40 07 	sts	0x0740, r24
    1024:	90 93 41 07 	sts	0x0741, r25
    1028:	a0 93 42 07 	sts	0x0742, r26
    102c:	b0 93 43 07 	sts	0x0743, r27
/home/becker/async/wcet-benchmarks/benchmarks/adpcm-decode/adpcm.c:384
    1030:	80 91 40 07 	lds	r24, 0x0740
    1034:	90 91 41 07 	lds	r25, 0x0741
    1038:	a0 91 42 07 	lds	r26, 0x0742
    103c:	b0 91 43 07 	lds	r27, 0x0743
    1040:	28 e0       	ldi	r18, 0x08	; 8
    1042:	30 e0       	ldi	r19, 0x00	; 0
    1044:	40 e0       	ldi	r20, 0x00	; 0
    1046:	50 e0       	ldi	r21, 0x00	; 0
    1048:	bc 01       	movw	r22, r24
    104a:	cd 01       	movw	r24, r26
    104c:	0e 94 d9 1e 	call	0x3db2	; 0x3db2 <scalel>
    1050:	dc 01       	movw	r26, r24
    1052:	cb 01       	movw	r24, r22
    1054:	80 93 b8 07 	sts	0x07B8, r24
    1058:	90 93 b9 07 	sts	0x07B9, r25
    105c:	a0 93 ba 07 	sts	0x07BA, r26
    1060:	b0 93 bb 07 	sts	0x07BB, r27
/home/becker/async/wcet-benchmarks/benchmarks/adpcm-decode/adpcm.c:387
    1064:	20 91 6c 08 	lds	r18, 0x086C
    1068:	30 91 6d 08 	lds	r19, 0x086D
    106c:	40 91 6e 08 	lds	r20, 0x086E
    1070:	50 91 6f 08 	lds	r21, 0x086F
    1074:	80 91 d8 07 	lds	r24, 0x07D8
    1078:	90 91 d9 07 	lds	r25, 0x07D9
    107c:	a0 91 da 07 	lds	r26, 0x07DA
    1080:	b0 91 db 07 	lds	r27, 0x07DB
    1084:	82 0f       	add	r24, r18
    1086:	93 1f       	adc	r25, r19
    1088:	a4 1f       	adc	r26, r20
    108a:	b5 1f       	adc	r27, r21
    108c:	80 93 8c 09 	sts	0x098C, r24
    1090:	90 93 8d 09 	sts	0x098D, r25
    1094:	a0 93 8e 09 	sts	0x098E, r26
    1098:	b0 93 8f 09 	sts	0x098F, r27
/home/becker/async/wcet-benchmarks/benchmarks/adpcm-decode/adpcm.c:393
    109c:	80 91 6c 08 	lds	r24, 0x086C
    10a0:	90 91 6d 08 	lds	r25, 0x086D
    10a4:	a0 91 6e 08 	lds	r26, 0x086E
    10a8:	b0 91 6f 08 	lds	r27, 0x086F
    10ac:	20 e5       	ldi	r18, 0x50	; 80
    10ae:	39 e0       	ldi	r19, 0x09	; 9
    10b0:	48 e4       	ldi	r20, 0x48	; 72
    10b2:	57 e0       	ldi	r21, 0x07	; 7
    10b4:	bc 01       	movw	r22, r24
    10b6:	cd 01       	movw	r24, r26
    10b8:	0e 94 4e 1f 	call	0x3e9c	; 0x3e9c <upzero>
/home/becker/async/wcet-benchmarks/benchmarks/adpcm-decode/adpcm.c:397
    10bc:	80 91 fc 08 	lds	r24, 0x08FC
    10c0:	90 91 fd 08 	lds	r25, 0x08FD
    10c4:	a0 91 fe 08 	lds	r26, 0x08FE
    10c8:	b0 91 ff 08 	lds	r27, 0x08FF
    10cc:	a0 90 34 09 	lds	r10, 0x0934
    10d0:	b0 90 35 09 	lds	r11, 0x0935
    10d4:	c0 90 36 09 	lds	r12, 0x0936
    10d8:	d0 90 37 09 	lds	r13, 0x0937
    10dc:	e0 90 8c 09 	lds	r14, 0x098C
    10e0:	f0 90 8d 09 	lds	r15, 0x098D
    10e4:	00 91 8e 09 	lds	r16, 0x098E
    10e8:	10 91 8f 09 	lds	r17, 0x098F
    10ec:	20 91 40 09 	lds	r18, 0x0940
    10f0:	30 91 41 09 	lds	r19, 0x0941
    10f4:	40 91 42 09 	lds	r20, 0x0942
    10f8:	50 91 43 09 	lds	r21, 0x0943
    10fc:	60 90 98 09 	lds	r6, 0x0998
    1100:	70 90 99 09 	lds	r7, 0x0999
    1104:	80 90 9a 09 	lds	r8, 0x099A
    1108:	90 90 9b 09 	lds	r9, 0x099B
    110c:	6b 2f       	mov	r22, r27
    110e:	6f 93       	push	r22
    1110:	6a 2f       	mov	r22, r26
    1112:	6f 93       	push	r22
    1114:	69 2f       	mov	r22, r25
    1116:	6f 93       	push	r22
    1118:	8f 93       	push	r24
    111a:	c4 01       	movw	r24, r8
    111c:	b3 01       	movw	r22, r6
    111e:	0e 94 e7 20 	call	0x41ce	; 0x41ce <uppol2>
    1122:	0f 90       	pop	r0
    1124:	0f 90       	pop	r0
    1126:	0f 90       	pop	r0
    1128:	0f 90       	pop	r0
    112a:	dc 01       	movw	r26, r24
    112c:	cb 01       	movw	r24, r22
    112e:	80 93 40 09 	sts	0x0940, r24
    1132:	90 93 41 09 	sts	0x0941, r25
    1136:	a0 93 42 09 	sts	0x0942, r26
    113a:	b0 93 43 09 	sts	0x0943, r27
/home/becker/async/wcet-benchmarks/benchmarks/adpcm-decode/adpcm.c:401
    113e:	80 91 34 09 	lds	r24, 0x0934
    1142:	90 91 35 09 	lds	r25, 0x0935
    1146:	a0 91 36 09 	lds	r26, 0x0936
    114a:	b0 91 37 09 	lds	r27, 0x0937
    114e:	e0 90 8c 09 	lds	r14, 0x098C
    1152:	f0 90 8d 09 	lds	r15, 0x098D
    1156:	00 91 8e 09 	lds	r16, 0x098E
    115a:	10 91 8f 09 	lds	r17, 0x098F
    115e:	20 91 40 09 	lds	r18, 0x0940
    1162:	30 91 41 09 	lds	r19, 0x0941
    1166:	40 91 42 09 	lds	r20, 0x0942
    116a:	50 91 43 09 	lds	r21, 0x0943
    116e:	60 90 98 09 	lds	r6, 0x0998
    1172:	70 90 99 09 	lds	r7, 0x0999
    1176:	80 90 9a 09 	lds	r8, 0x099A
    117a:	90 90 9b 09 	lds	r9, 0x099B
    117e:	5c 01       	movw	r10, r24
    1180:	6d 01       	movw	r12, r26
    1182:	c4 01       	movw	r24, r8
    1184:	b3 01       	movw	r22, r6
    1186:	0e 94 2b 23 	call	0x4656	; 0x4656 <uppol1>
    118a:	dc 01       	movw	r26, r24
    118c:	cb 01       	movw	r24, r22
    118e:	80 93 98 09 	sts	0x0998, r24
    1192:	90 93 99 09 	sts	0x0999, r25
    1196:	a0 93 9a 09 	sts	0x099A, r26
    119a:	b0 93 9b 09 	sts	0x099B, r27
/home/becker/async/wcet-benchmarks/benchmarks/adpcm-decode/adpcm.c:404
    119e:	20 91 cc 07 	lds	r18, 0x07CC
    11a2:	30 91 cd 07 	lds	r19, 0x07CD
    11a6:	40 91 ce 07 	lds	r20, 0x07CE
    11aa:	50 91 cf 07 	lds	r21, 0x07CF
    11ae:	80 91 6c 08 	lds	r24, 0x086C
    11b2:	90 91 6d 08 	lds	r25, 0x086D
    11b6:	a0 91 6e 08 	lds	r26, 0x086E
    11ba:	b0 91 6f 08 	lds	r27, 0x086F
    11be:	82 0f       	add	r24, r18
    11c0:	93 1f       	adc	r25, r19
    11c2:	a4 1f       	adc	r26, r20
    11c4:	b5 1f       	adc	r27, r21
    11c6:	80 93 c8 07 	sts	0x07C8, r24
    11ca:	90 93 c9 07 	sts	0x07C9, r25
    11ce:	a0 93 ca 07 	sts	0x07CA, r26
    11d2:	b0 93 cb 07 	sts	0x07CB, r27
/home/becker/async/wcet-benchmarks/benchmarks/adpcm-decode/adpcm.c:407
    11d6:	80 91 68 09 	lds	r24, 0x0968
    11da:	90 91 69 09 	lds	r25, 0x0969
    11de:	a0 91 6a 09 	lds	r26, 0x096A
    11e2:	b0 91 6b 09 	lds	r27, 0x096B
    11e6:	80 93 24 08 	sts	0x0824, r24
    11ea:	90 93 25 08 	sts	0x0825, r25
    11ee:	a0 93 26 08 	sts	0x0826, r26
    11f2:	b0 93 27 08 	sts	0x0827, r27
/home/becker/async/wcet-benchmarks/benchmarks/adpcm-decode/adpcm.c:408
    11f6:	80 91 c8 07 	lds	r24, 0x07C8
    11fa:	90 91 c9 07 	lds	r25, 0x07C9
    11fe:	a0 91 ca 07 	lds	r26, 0x07CA
    1202:	b0 91 cb 07 	lds	r27, 0x07CB
    1206:	80 93 68 09 	sts	0x0968, r24
    120a:	90 93 69 09 	sts	0x0969, r25
    120e:	a0 93 6a 09 	sts	0x096A, r26
    1212:	b0 93 6b 09 	sts	0x096B, r27
/home/becker/async/wcet-benchmarks/benchmarks/adpcm-decode/adpcm.c:409
    1216:	80 91 34 09 	lds	r24, 0x0934
    121a:	90 91 35 09 	lds	r25, 0x0935
    121e:	a0 91 36 09 	lds	r26, 0x0936
    1222:	b0 91 37 09 	lds	r27, 0x0937
    1226:	80 93 fc 08 	sts	0x08FC, r24
    122a:	90 93 fd 08 	sts	0x08FD, r25
    122e:	a0 93 fe 08 	sts	0x08FE, r26
    1232:	b0 93 ff 08 	sts	0x08FF, r27
/home/becker/async/wcet-benchmarks/benchmarks/adpcm-decode/adpcm.c:410
    1236:	80 91 8c 09 	lds	r24, 0x098C
    123a:	90 91 8d 09 	lds	r25, 0x098D
    123e:	a0 91 8e 09 	lds	r26, 0x098E
    1242:	b0 91 8f 09 	lds	r27, 0x098F
    1246:	80 93 34 09 	sts	0x0934, r24
    124a:	90 93 35 09 	sts	0x0935, r25
    124e:	a0 93 36 09 	sts	0x0936, r26
    1252:	b0 93 37 09 	sts	0x0937, r27
/home/becker/async/wcet-benchmarks/benchmarks/adpcm-decode/adpcm.c:414
    1256:	64 e4       	ldi	r22, 0x44	; 68
    1258:	78 e0       	ldi	r23, 0x08	; 8
    125a:	80 ea       	ldi	r24, 0xA0	; 160
    125c:	99 e0       	ldi	r25, 0x09	; 9
    125e:	0e 94 b2 1a 	call	0x3564	; 0x3564 <filtez>
    1262:	dc 01       	movw	r26, r24
    1264:	cb 01       	movw	r24, r22
    1266:	80 93 30 07 	sts	0x0730, r24
    126a:	90 93 31 07 	sts	0x0731, r25
    126e:	a0 93 32 07 	sts	0x0732, r26
    1272:	b0 93 33 07 	sts	0x0733, r27
/home/becker/async/wcet-benchmarks/benchmarks/adpcm-decode/adpcm.c:416
    1276:	80 91 30 08 	lds	r24, 0x0830
    127a:	90 91 31 08 	lds	r25, 0x0831
    127e:	a0 91 32 08 	lds	r26, 0x0832
    1282:	b0 91 33 08 	lds	r27, 0x0833
    1286:	e0 90 28 07 	lds	r14, 0x0728
    128a:	f0 90 29 07 	lds	r15, 0x0729
    128e:	00 91 2a 07 	lds	r16, 0x072A
    1292:	10 91 2b 07 	lds	r17, 0x072B
    1296:	20 91 c4 07 	lds	r18, 0x07C4
    129a:	30 91 c5 07 	lds	r19, 0x07C5
    129e:	40 91 c6 07 	lds	r20, 0x07C6
    12a2:	50 91 c7 07 	lds	r21, 0x07C7
    12a6:	60 90 d8 08 	lds	r6, 0x08D8
    12aa:	70 90 d9 08 	lds	r7, 0x08D9
    12ae:	80 90 da 08 	lds	r8, 0x08DA
    12b2:	90 90 db 08 	lds	r9, 0x08DB
    12b6:	5c 01       	movw	r10, r24
    12b8:	6d 01       	movw	r12, r26
    12ba:	c4 01       	movw	r24, r8
    12bc:	b3 01       	movw	r22, r6
    12be:	0e 94 e0 1b 	call	0x37c0	; 0x37c0 <filtep>
    12c2:	dc 01       	movw	r26, r24
    12c4:	cb 01       	movw	r24, r22
    12c6:	80 93 68 08 	sts	0x0868, r24
    12ca:	90 93 69 08 	sts	0x0869, r25
    12ce:	a0 93 6a 08 	sts	0x086A, r26
    12d2:	b0 93 6b 08 	sts	0x086B, r27
/home/becker/async/wcet-benchmarks/benchmarks/adpcm-decode/adpcm.c:419
    12d6:	20 91 68 08 	lds	r18, 0x0868
    12da:	30 91 69 08 	lds	r19, 0x0869
    12de:	40 91 6a 08 	lds	r20, 0x086A
    12e2:	50 91 6b 08 	lds	r21, 0x086B
    12e6:	80 91 30 07 	lds	r24, 0x0730
    12ea:	90 91 31 07 	lds	r25, 0x0731
    12ee:	a0 91 32 07 	lds	r26, 0x0732
    12f2:	b0 91 33 07 	lds	r27, 0x0733
    12f6:	82 0f       	add	r24, r18
    12f8:	93 1f       	adc	r25, r19
    12fa:	a4 1f       	adc	r26, r20
    12fc:	b5 1f       	adc	r27, r21
    12fe:	80 93 88 07 	sts	0x0788, r24
    1302:	90 93 89 07 	sts	0x0789, r25
    1306:	a0 93 8a 07 	sts	0x078A, r26
    130a:	b0 93 8b 07 	sts	0x078B, r27
/home/becker/async/wcet-benchmarks/benchmarks/adpcm-decode/adpcm.c:421
    130e:	20 91 14 08 	lds	r18, 0x0814
    1312:	30 91 15 08 	lds	r19, 0x0815
    1316:	40 91 16 08 	lds	r20, 0x0816
    131a:	50 91 17 08 	lds	r21, 0x0817
    131e:	80 91 88 07 	lds	r24, 0x0788
    1322:	90 91 89 07 	lds	r25, 0x0789
    1326:	a0 91 8a 07 	lds	r26, 0x078A
    132a:	b0 91 8b 07 	lds	r27, 0x078B
    132e:	79 01       	movw	r14, r18
    1330:	8a 01       	movw	r16, r20
    1332:	e8 1a       	sub	r14, r24
    1334:	f9 0a       	sbc	r15, r25
    1336:	0a 0b       	sbc	r16, r26
    1338:	1b 0b       	sbc	r17, r27
    133a:	d8 01       	movw	r26, r16
    133c:	c7 01       	movw	r24, r14
    133e:	80 93 bc 07 	sts	0x07BC, r24
    1342:	90 93 bd 07 	sts	0x07BD, r25
    1346:	a0 93 be 07 	sts	0x07BE, r26
    134a:	b0 93 bf 07 	sts	0x07BF, r27
/home/becker/async/wcet-benchmarks/benchmarks/adpcm-decode/adpcm.c:425
    134e:	80 91 bc 07 	lds	r24, 0x07BC
    1352:	90 91 bd 07 	lds	r25, 0x07BD
    1356:	a0 91 be 07 	lds	r26, 0x07BE
    135a:	b0 91 bf 07 	lds	r27, 0x07BF
    135e:	bb 23       	and	r27, r27
    1360:	6c f0       	brlt	.+26     	; 0x137c <__stack+0x27d>
/home/becker/async/wcet-benchmarks/benchmarks/adpcm-decode/adpcm.c:426
    1362:	83 e0       	ldi	r24, 0x03	; 3
    1364:	90 e0       	ldi	r25, 0x00	; 0
    1366:	a0 e0       	ldi	r26, 0x00	; 0
    1368:	b0 e0       	ldi	r27, 0x00	; 0
    136a:	80 93 38 07 	sts	0x0738, r24
    136e:	90 93 39 07 	sts	0x0739, r25
    1372:	a0 93 3a 07 	sts	0x073A, r26
    1376:	b0 93 3b 07 	sts	0x073B, r27
    137a:	0c c0       	rjmp	.+24     	; 0x1394 <__stack+0x295>
/home/becker/async/wcet-benchmarks/benchmarks/adpcm-decode/adpcm.c:429
    137c:	81 e0       	ldi	r24, 0x01	; 1
    137e:	90 e0       	ldi	r25, 0x00	; 0
    1380:	a0 e0       	ldi	r26, 0x00	; 0
    1382:	b0 e0       	ldi	r27, 0x00	; 0
    1384:	80 93 38 07 	sts	0x0738, r24
    1388:	90 93 39 07 	sts	0x0739, r25
    138c:	a0 93 3a 07 	sts	0x073A, r26
    1390:	b0 93 3b 07 	sts	0x073B, r27
/home/becker/async/wcet-benchmarks/benchmarks/adpcm-decode/adpcm.c:431
    1394:	80 91 08 08 	lds	r24, 0x0808
    1398:	90 91 09 08 	lds	r25, 0x0809
    139c:	a0 91 0a 08 	lds	r26, 0x080A
    13a0:	b0 91 0b 08 	lds	r27, 0x080B
    13a4:	c1 57       	subi	r28, 0x71	; 113
    13a6:	df 4f       	sbci	r29, 0xFF	; 255
    13a8:	88 83       	st	Y, r24
    13aa:	99 83       	std	Y+1, r25	; 0x01
    13ac:	aa 83       	std	Y+2, r26	; 0x02
    13ae:	bb 83       	std	Y+3, r27	; 0x03
    13b0:	cf 58       	subi	r28, 0x8F	; 143
    13b2:	d0 40       	sbci	r29, 0x00	; 0
    13b4:	bb 0f       	add	r27, r27
    13b6:	88 0b       	sbc	r24, r24
    13b8:	98 2f       	mov	r25, r24
    13ba:	dc 01       	movw	r26, r24
    13bc:	cd 56       	subi	r28, 0x6D	; 109
    13be:	df 4f       	sbci	r29, 0xFF	; 255
    13c0:	88 83       	st	Y, r24
    13c2:	c3 59       	subi	r28, 0x93	; 147
    13c4:	d0 40       	sbci	r29, 0x00	; 0
    13c6:	cc 56       	subi	r28, 0x6C	; 108
    13c8:	df 4f       	sbci	r29, 0xFF	; 255
    13ca:	88 83       	st	Y, r24
    13cc:	c4 59       	subi	r28, 0x94	; 148
    13ce:	d0 40       	sbci	r29, 0x00	; 0
    13d0:	cb 56       	subi	r28, 0x6B	; 107
    13d2:	df 4f       	sbci	r29, 0xFF	; 255
    13d4:	88 83       	st	Y, r24
    13d6:	c5 59       	subi	r28, 0x95	; 149
    13d8:	d0 40       	sbci	r29, 0x00	; 0
    13da:	ca 56       	subi	r28, 0x6A	; 106
    13dc:	df 4f       	sbci	r29, 0xFF	; 255
    13de:	88 83       	st	Y, r24
    13e0:	c6 59       	subi	r28, 0x96	; 150
    13e2:	d0 40       	sbci	r29, 0x00	; 0
    13e4:	c1 57       	subi	r28, 0x71	; 113
    13e6:	df 4f       	sbci	r29, 0xFF	; 255
    13e8:	28 80       	ld	r2, Y
    13ea:	cf 58       	subi	r28, 0x8F	; 143
    13ec:	d0 40       	sbci	r29, 0x00	; 0
    13ee:	c0 57       	subi	r28, 0x70	; 112
    13f0:	df 4f       	sbci	r29, 0xFF	; 255
    13f2:	38 80       	ld	r3, Y
    13f4:	c0 59       	subi	r28, 0x90	; 144
    13f6:	d0 40       	sbci	r29, 0x00	; 0
    13f8:	cf 56       	subi	r28, 0x6F	; 111
    13fa:	df 4f       	sbci	r29, 0xFF	; 255
    13fc:	48 80       	ld	r4, Y
    13fe:	c1 59       	subi	r28, 0x91	; 145
    1400:	d0 40       	sbci	r29, 0x00	; 0
    1402:	ce 56       	subi	r28, 0x6E	; 110
    1404:	df 4f       	sbci	r29, 0xFF	; 255
    1406:	58 80       	ld	r5, Y
    1408:	c2 59       	subi	r28, 0x92	; 146
    140a:	d0 40       	sbci	r29, 0x00	; 0
    140c:	cd 56       	subi	r28, 0x6D	; 109
    140e:	df 4f       	sbci	r29, 0xFF	; 255
    1410:	68 80       	ld	r6, Y
    1412:	c3 59       	subi	r28, 0x93	; 147
    1414:	d0 40       	sbci	r29, 0x00	; 0
    1416:	cc 56       	subi	r28, 0x6C	; 108
    1418:	df 4f       	sbci	r29, 0xFF	; 255
    141a:	78 80       	ld	r7, Y
    141c:	c4 59       	subi	r28, 0x94	; 148
    141e:	d0 40       	sbci	r29, 0x00	; 0
    1420:	cb 56       	subi	r28, 0x6B	; 107
    1422:	df 4f       	sbci	r29, 0xFF	; 255
    1424:	88 80       	ld	r8, Y
    1426:	c5 59       	subi	r28, 0x95	; 149
    1428:	d0 40       	sbci	r29, 0x00	; 0
    142a:	ca 56       	subi	r28, 0x6A	; 106
    142c:	df 4f       	sbci	r29, 0xFF	; 255
    142e:	98 80       	ld	r9, Y
    1430:	c6 59       	subi	r28, 0x96	; 150
    1432:	d0 40       	sbci	r29, 0x00	; 0
    1434:	22 2d       	mov	r18, r2
    1436:	33 2d       	mov	r19, r3
    1438:	44 2d       	mov	r20, r4
    143a:	55 2d       	mov	r21, r5
    143c:	66 2d       	mov	r22, r6
    143e:	77 2d       	mov	r23, r7
    1440:	88 2d       	mov	r24, r8
    1442:	99 2d       	mov	r25, r9
    1444:	02 e0       	ldi	r16, 0x02	; 2
    1446:	0e 94 36 27 	call	0x4e6c	; 0x4e6c <__ashldi3>
    144a:	a2 2e       	mov	r10, r18
    144c:	b3 2e       	mov	r11, r19
    144e:	c4 2e       	mov	r12, r20
    1450:	d5 2e       	mov	r13, r21
    1452:	e6 2e       	mov	r14, r22
    1454:	f7 2e       	mov	r15, r23
    1456:	08 2f       	mov	r16, r24
    1458:	19 2f       	mov	r17, r25
    145a:	2a 2d       	mov	r18, r10
    145c:	3b 2d       	mov	r19, r11
    145e:	4c 2d       	mov	r20, r12
    1460:	5d 2d       	mov	r21, r13
    1462:	6e 2d       	mov	r22, r14
    1464:	7f 2d       	mov	r23, r15
    1466:	80 2f       	mov	r24, r16
    1468:	91 2f       	mov	r25, r17
    146a:	c1 57       	subi	r28, 0x71	; 113
    146c:	df 4f       	sbci	r29, 0xFF	; 255
    146e:	a8 80       	ld	r10, Y
    1470:	cf 58       	subi	r28, 0x8F	; 143
    1472:	d0 40       	sbci	r29, 0x00	; 0
    1474:	c0 57       	subi	r28, 0x70	; 112
    1476:	df 4f       	sbci	r29, 0xFF	; 255
    1478:	b8 80       	ld	r11, Y
    147a:	c0 59       	subi	r28, 0x90	; 144
    147c:	d0 40       	sbci	r29, 0x00	; 0
    147e:	cf 56       	subi	r28, 0x6F	; 111
    1480:	df 4f       	sbci	r29, 0xFF	; 255
    1482:	c8 80       	ld	r12, Y
    1484:	c1 59       	subi	r28, 0x91	; 145
    1486:	d0 40       	sbci	r29, 0x00	; 0
    1488:	ce 56       	subi	r28, 0x6E	; 110
    148a:	df 4f       	sbci	r29, 0xFF	; 255
    148c:	d8 80       	ld	r13, Y
    148e:	c2 59       	subi	r28, 0x92	; 146
    1490:	d0 40       	sbci	r29, 0x00	; 0
    1492:	cd 56       	subi	r28, 0x6D	; 109
    1494:	df 4f       	sbci	r29, 0xFF	; 255
    1496:	e8 80       	ld	r14, Y
    1498:	c3 59       	subi	r28, 0x93	; 147
    149a:	d0 40       	sbci	r29, 0x00	; 0
    149c:	cc 56       	subi	r28, 0x6C	; 108
    149e:	df 4f       	sbci	r29, 0xFF	; 255
    14a0:	f8 80       	ld	r15, Y
    14a2:	c4 59       	subi	r28, 0x94	; 148
    14a4:	d0 40       	sbci	r29, 0x00	; 0
    14a6:	cb 56       	subi	r28, 0x6B	; 107
    14a8:	df 4f       	sbci	r29, 0xFF	; 255
    14aa:	08 81       	ld	r16, Y
    14ac:	c5 59       	subi	r28, 0x95	; 149
    14ae:	d0 40       	sbci	r29, 0x00	; 0
    14b0:	ca 56       	subi	r28, 0x6A	; 106
    14b2:	df 4f       	sbci	r29, 0xFF	; 255
    14b4:	18 81       	ld	r17, Y
    14b6:	c6 59       	subi	r28, 0x96	; 150
    14b8:	d0 40       	sbci	r29, 0x00	; 0
    14ba:	0e 94 82 27 	call	0x4f04	; 0x4f04 <__subdi3>
    14be:	22 2e       	mov	r2, r18
    14c0:	33 2e       	mov	r3, r19
    14c2:	44 2e       	mov	r4, r20
    14c4:	55 2e       	mov	r5, r21
    14c6:	66 2e       	mov	r6, r22
    14c8:	77 2e       	mov	r7, r23
    14ca:	88 2e       	mov	r8, r24
    14cc:	99 2e       	mov	r9, r25
    14ce:	22 2d       	mov	r18, r2
    14d0:	33 2d       	mov	r19, r3
    14d2:	44 2d       	mov	r20, r4
    14d4:	55 2d       	mov	r21, r5
    14d6:	66 2d       	mov	r22, r6
    14d8:	77 2d       	mov	r23, r7
    14da:	88 2d       	mov	r24, r8
    14dc:	99 2d       	mov	r25, r9
    14de:	04 e0       	ldi	r16, 0x04	; 4
    14e0:	0e 94 36 27 	call	0x4e6c	; 0x4e6c <__ashldi3>
    14e4:	a2 2e       	mov	r10, r18
    14e6:	b3 2e       	mov	r11, r19
    14e8:	c4 2e       	mov	r12, r20
    14ea:	d5 2e       	mov	r13, r21
    14ec:	e6 2e       	mov	r14, r22
    14ee:	f7 2e       	mov	r15, r23
    14f0:	08 2f       	mov	r16, r24
    14f2:	19 2f       	mov	r17, r25
    14f4:	2a 2d       	mov	r18, r10
    14f6:	3b 2d       	mov	r19, r11
    14f8:	4c 2d       	mov	r20, r12
    14fa:	5d 2d       	mov	r21, r13
    14fc:	6e 2d       	mov	r22, r14
    14fe:	7f 2d       	mov	r23, r15
    1500:	80 2f       	mov	r24, r16
    1502:	91 2f       	mov	r25, r17
    1504:	c1 57       	subi	r28, 0x71	; 113
    1506:	df 4f       	sbci	r29, 0xFF	; 255
    1508:	a8 80       	ld	r10, Y
    150a:	cf 58       	subi	r28, 0x8F	; 143
    150c:	d0 40       	sbci	r29, 0x00	; 0
    150e:	c0 57       	subi	r28, 0x70	; 112
    1510:	df 4f       	sbci	r29, 0xFF	; 255
    1512:	b8 80       	ld	r11, Y
    1514:	c0 59       	subi	r28, 0x90	; 144
    1516:	d0 40       	sbci	r29, 0x00	; 0
    1518:	cf 56       	subi	r28, 0x6F	; 111
    151a:	df 4f       	sbci	r29, 0xFF	; 255
    151c:	c8 80       	ld	r12, Y
    151e:	c1 59       	subi	r28, 0x91	; 145
    1520:	d0 40       	sbci	r29, 0x00	; 0
    1522:	ce 56       	subi	r28, 0x6E	; 110
    1524:	df 4f       	sbci	r29, 0xFF	; 255
    1526:	d8 80       	ld	r13, Y
    1528:	c2 59       	subi	r28, 0x92	; 146
    152a:	d0 40       	sbci	r29, 0x00	; 0
    152c:	cd 56       	subi	r28, 0x6D	; 109
    152e:	df 4f       	sbci	r29, 0xFF	; 255
    1530:	e8 80       	ld	r14, Y
    1532:	c3 59       	subi	r28, 0x93	; 147
    1534:	d0 40       	sbci	r29, 0x00	; 0
    1536:	cc 56       	subi	r28, 0x6C	; 108
    1538:	df 4f       	sbci	r29, 0xFF	; 255
    153a:	f8 80       	ld	r15, Y
    153c:	c4 59       	subi	r28, 0x94	; 148
    153e:	d0 40       	sbci	r29, 0x00	; 0
    1540:	cb 56       	subi	r28, 0x6B	; 107
    1542:	df 4f       	sbci	r29, 0xFF	; 255
    1544:	08 81       	ld	r16, Y
    1546:	c5 59       	subi	r28, 0x95	; 149
    1548:	d0 40       	sbci	r29, 0x00	; 0
    154a:	ca 56       	subi	r28, 0x6A	; 106
    154c:	df 4f       	sbci	r29, 0xFF	; 255
    154e:	18 81       	ld	r17, Y
    1550:	c6 59       	subi	r28, 0x96	; 150
    1552:	d0 40       	sbci	r29, 0x00	; 0
    1554:	0e 94 82 27 	call	0x4f04	; 0x4f04 <__subdi3>
    1558:	22 2e       	mov	r2, r18
    155a:	33 2e       	mov	r3, r19
    155c:	44 2e       	mov	r4, r20
    155e:	55 2e       	mov	r5, r21
    1560:	66 2e       	mov	r6, r22
    1562:	77 2e       	mov	r7, r23
    1564:	88 2e       	mov	r8, r24
    1566:	99 2e       	mov	r9, r25
    1568:	22 2d       	mov	r18, r2
    156a:	33 2d       	mov	r19, r3
    156c:	44 2d       	mov	r20, r4
    156e:	55 2d       	mov	r21, r5
    1570:	66 2d       	mov	r22, r6
    1572:	77 2d       	mov	r23, r7
    1574:	88 2d       	mov	r24, r8
    1576:	99 2d       	mov	r25, r9
    1578:	02 e0       	ldi	r16, 0x02	; 2
    157a:	0e 94 36 27 	call	0x4e6c	; 0x4e6c <__ashldi3>
    157e:	a2 2e       	mov	r10, r18
    1580:	b3 2e       	mov	r11, r19
    1582:	c4 2e       	mov	r12, r20
    1584:	d5 2e       	mov	r13, r21
    1586:	e6 2e       	mov	r14, r22
    1588:	f7 2e       	mov	r15, r23
    158a:	08 2f       	mov	r16, r24
    158c:	19 2f       	mov	r17, r25
    158e:	2a 2d       	mov	r18, r10
    1590:	3b 2d       	mov	r19, r11
    1592:	4c 2d       	mov	r20, r12
    1594:	5d 2d       	mov	r21, r13
    1596:	6e 2d       	mov	r22, r14
    1598:	7f 2d       	mov	r23, r15
    159a:	80 2f       	mov	r24, r16
    159c:	91 2f       	mov	r25, r17
    159e:	a2 2c       	mov	r10, r2
    15a0:	b3 2c       	mov	r11, r3
    15a2:	c4 2c       	mov	r12, r4
    15a4:	d5 2c       	mov	r13, r5
    15a6:	e6 2c       	mov	r14, r6
    15a8:	f7 2c       	mov	r15, r7
    15aa:	08 2d       	mov	r16, r8
    15ac:	19 2d       	mov	r17, r9
    15ae:	0e 94 82 27 	call	0x4f04	; 0x4f04 <__subdi3>
    15b2:	a2 2e       	mov	r10, r18
    15b4:	b3 2e       	mov	r11, r19
    15b6:	c4 2e       	mov	r12, r20
    15b8:	d5 2e       	mov	r13, r21
    15ba:	e6 2e       	mov	r14, r22
    15bc:	f7 2e       	mov	r15, r23
    15be:	08 2f       	mov	r16, r24
    15c0:	19 2f       	mov	r17, r25
    15c2:	2a 2d       	mov	r18, r10
    15c4:	3b 2d       	mov	r19, r11
    15c6:	4c 2d       	mov	r20, r12
    15c8:	5d 2d       	mov	r21, r13
    15ca:	6e 2d       	mov	r22, r14
    15cc:	7f 2d       	mov	r23, r15
    15ce:	80 2f       	mov	r24, r16
    15d0:	91 2f       	mov	r25, r17
    15d2:	02 e0       	ldi	r16, 0x02	; 2
    15d4:	0e 94 36 27 	call	0x4e6c	; 0x4e6c <__ashldi3>
    15d8:	22 2e       	mov	r2, r18
    15da:	33 2e       	mov	r3, r19
    15dc:	44 2e       	mov	r4, r20
    15de:	55 2e       	mov	r5, r21
    15e0:	66 2e       	mov	r6, r22
    15e2:	77 2e       	mov	r7, r23
    15e4:	88 2e       	mov	r8, r24
    15e6:	99 2e       	mov	r9, r25
    15e8:	a2 2c       	mov	r10, r2
    15ea:	b3 2c       	mov	r11, r3
    15ec:	c4 2c       	mov	r12, r4
    15ee:	d5 2c       	mov	r13, r5
    15f0:	e6 2c       	mov	r14, r6
    15f2:	f7 2c       	mov	r15, r7
    15f4:	08 2d       	mov	r16, r8
    15f6:	19 2d       	mov	r17, r9
    15f8:	2a 2c       	mov	r2, r10
    15fa:	3b 2c       	mov	r3, r11
    15fc:	4c 2c       	mov	r4, r12
    15fe:	5d 2c       	mov	r5, r13
    1600:	6e 2c       	mov	r6, r14
    1602:	7f 2c       	mov	r7, r15
    1604:	80 2e       	mov	r8, r16
    1606:	91 2e       	mov	r9, r17
    1608:	22 2d       	mov	r18, r2
    160a:	33 2d       	mov	r19, r3
    160c:	44 2d       	mov	r20, r4
    160e:	55 2d       	mov	r21, r5
    1610:	66 2d       	mov	r22, r6
    1612:	77 2d       	mov	r23, r7
    1614:	88 2d       	mov	r24, r8
    1616:	99 2d       	mov	r25, r9
    1618:	0c e0       	ldi	r16, 0x0C	; 12
    161a:	0e 94 4f 27 	call	0x4e9e	; 0x4e9e <__ashrdi3>
    161e:	a2 2e       	mov	r10, r18
    1620:	b3 2e       	mov	r11, r19
    1622:	c4 2e       	mov	r12, r20
    1624:	d5 2e       	mov	r13, r21
    1626:	e6 2e       	mov	r14, r22
    1628:	f7 2e       	mov	r15, r23
    162a:	08 2f       	mov	r16, r24
    162c:	19 2f       	mov	r17, r25
    162e:	ab 8e       	std	Y+27, r10	; 0x1b
    1630:	bc 8e       	std	Y+28, r11	; 0x1c
    1632:	cd 8e       	std	Y+29, r12	; 0x1d
    1634:	de 8e       	std	Y+30, r13	; 0x1e
/home/becker/async/wcet-benchmarks/benchmarks/adpcm-decode/adpcm.c:432
    1636:	80 91 bc 07 	lds	r24, 0x07BC
    163a:	90 91 bd 07 	lds	r25, 0x07BD
    163e:	a0 91 be 07 	lds	r26, 0x07BE
    1642:	b0 91 bf 07 	lds	r27, 0x07BF
    1646:	bc 01       	movw	r22, r24
    1648:	cd 01       	movw	r24, r26
    164a:	0e 94 67 00 	call	0xce	; 0xce <my_abs>
    164e:	9b 01       	movw	r18, r22
    1650:	ac 01       	movw	r20, r24
    1652:	8b 8d       	ldd	r24, Y+27	; 0x1b
    1654:	9c 8d       	ldd	r25, Y+28	; 0x1c
    1656:	ad 8d       	ldd	r26, Y+29	; 0x1d
    1658:	be 8d       	ldd	r27, Y+30	; 0x1e
    165a:	82 17       	cp	r24, r18
    165c:	93 07       	cpc	r25, r19
    165e:	a4 07       	cpc	r26, r20
    1660:	b5 07       	cpc	r27, r21
    1662:	9c f4       	brge	.+38     	; 0x168a <__stack+0x58b>
/home/becker/async/wcet-benchmarks/benchmarks/adpcm-decode/adpcm.c:432 (discriminator 1)
    1664:	80 91 38 07 	lds	r24, 0x0738
    1668:	90 91 39 07 	lds	r25, 0x0739
    166c:	a0 91 3a 07 	lds	r26, 0x073A
    1670:	b0 91 3b 07 	lds	r27, 0x073B
    1674:	01 97       	sbiw	r24, 0x01	; 1
    1676:	a1 09       	sbc	r26, r1
    1678:	b1 09       	sbc	r27, r1
    167a:	80 93 38 07 	sts	0x0738, r24
    167e:	90 93 39 07 	sts	0x0739, r25
    1682:	a0 93 3a 07 	sts	0x073A, r26
    1686:	b0 93 3b 07 	sts	0x073B, r27
/home/becker/async/wcet-benchmarks/benchmarks/adpcm-decode/adpcm.c:435
    168a:	80 91 08 08 	lds	r24, 0x0808
    168e:	90 91 09 08 	lds	r25, 0x0809
    1692:	a0 91 0a 08 	lds	r26, 0x080A
    1696:	b0 91 0b 08 	lds	r27, 0x080B
    169a:	c9 56       	subi	r28, 0x69	; 105
    169c:	df 4f       	sbci	r29, 0xFF	; 255
    169e:	88 83       	st	Y, r24
    16a0:	99 83       	std	Y+1, r25	; 0x01
    16a2:	aa 83       	std	Y+2, r26	; 0x02
    16a4:	bb 83       	std	Y+3, r27	; 0x03
    16a6:	c7 59       	subi	r28, 0x97	; 151
    16a8:	d0 40       	sbci	r29, 0x00	; 0
    16aa:	bb 0f       	add	r27, r27
    16ac:	88 0b       	sbc	r24, r24
    16ae:	98 2f       	mov	r25, r24
    16b0:	dc 01       	movw	r26, r24
    16b2:	c5 56       	subi	r28, 0x65	; 101
    16b4:	df 4f       	sbci	r29, 0xFF	; 255
    16b6:	88 83       	st	Y, r24
    16b8:	cb 59       	subi	r28, 0x9B	; 155
    16ba:	d0 40       	sbci	r29, 0x00	; 0
    16bc:	c4 56       	subi	r28, 0x64	; 100
    16be:	df 4f       	sbci	r29, 0xFF	; 255
    16c0:	88 83       	st	Y, r24
    16c2:	cc 59       	subi	r28, 0x9C	; 156
    16c4:	d0 40       	sbci	r29, 0x00	; 0
    16c6:	c3 56       	subi	r28, 0x63	; 99
    16c8:	df 4f       	sbci	r29, 0xFF	; 255
    16ca:	88 83       	st	Y, r24
    16cc:	cd 59       	subi	r28, 0x9D	; 157
    16ce:	d0 40       	sbci	r29, 0x00	; 0
    16d0:	c2 56       	subi	r28, 0x62	; 98
    16d2:	df 4f       	sbci	r29, 0xFF	; 255
    16d4:	88 83       	st	Y, r24
    16d6:	ce 59       	subi	r28, 0x9E	; 158
    16d8:	d0 40       	sbci	r29, 0x00	; 0
    16da:	80 91 38 07 	lds	r24, 0x0738
    16de:	90 91 39 07 	lds	r25, 0x0739
    16e2:	a0 91 3a 07 	lds	r26, 0x073A
    16e6:	b0 91 3b 07 	lds	r27, 0x073B
    16ea:	88 0f       	add	r24, r24
    16ec:	99 1f       	adc	r25, r25
    16ee:	88 0f       	add	r24, r24
    16f0:	99 1f       	adc	r25, r25
    16f2:	80 59       	subi	r24, 0x90	; 144
    16f4:	9a 4f       	sbci	r25, 0xFA	; 250
    16f6:	fc 01       	movw	r30, r24
    16f8:	80 81       	ld	r24, Z
    16fa:	91 81       	ldd	r25, Z+1	; 0x01
    16fc:	a2 81       	ldd	r26, Z+2	; 0x02
    16fe:	b3 81       	ldd	r27, Z+3	; 0x03
    1700:	c1 56       	subi	r28, 0x61	; 97
    1702:	df 4f       	sbci	r29, 0xFF	; 255
    1704:	88 83       	st	Y, r24
    1706:	99 83       	std	Y+1, r25	; 0x01
    1708:	aa 83       	std	Y+2, r26	; 0x02
    170a:	bb 83       	std	Y+3, r27	; 0x03
    170c:	cf 59       	subi	r28, 0x9F	; 159
    170e:	d0 40       	sbci	r29, 0x00	; 0
    1710:	bb 0f       	add	r27, r27
    1712:	88 0b       	sbc	r24, r24
    1714:	98 2f       	mov	r25, r24
    1716:	dc 01       	movw	r26, r24
    1718:	cd 55       	subi	r28, 0x5D	; 93
    171a:	df 4f       	sbci	r29, 0xFF	; 255
    171c:	88 83       	st	Y, r24
    171e:	c3 5a       	subi	r28, 0xA3	; 163
    1720:	d0 40       	sbci	r29, 0x00	; 0
    1722:	cc 55       	subi	r28, 0x5C	; 92
    1724:	df 4f       	sbci	r29, 0xFF	; 255
    1726:	88 83       	st	Y, r24
    1728:	c4 5a       	subi	r28, 0xA4	; 164
    172a:	d0 40       	sbci	r29, 0x00	; 0
    172c:	cb 55       	subi	r28, 0x5B	; 91
    172e:	df 4f       	sbci	r29, 0xFF	; 255
    1730:	88 83       	st	Y, r24
    1732:	c5 5a       	subi	r28, 0xA5	; 165
    1734:	d0 40       	sbci	r29, 0x00	; 0
    1736:	ca 55       	subi	r28, 0x5A	; 90
    1738:	df 4f       	sbci	r29, 0xFF	; 255
    173a:	88 83       	st	Y, r24
    173c:	c6 5a       	subi	r28, 0xA6	; 166
    173e:	d0 40       	sbci	r29, 0x00	; 0
    1740:	c1 56       	subi	r28, 0x61	; 97
    1742:	df 4f       	sbci	r29, 0xFF	; 255
    1744:	a8 80       	ld	r10, Y
    1746:	cf 59       	subi	r28, 0x9F	; 159
    1748:	d0 40       	sbci	r29, 0x00	; 0
    174a:	c0 56       	subi	r28, 0x60	; 96
    174c:	df 4f       	sbci	r29, 0xFF	; 255
    174e:	b8 80       	ld	r11, Y
    1750:	c0 5a       	subi	r28, 0xA0	; 160
    1752:	d0 40       	sbci	r29, 0x00	; 0
    1754:	cf 55       	subi	r28, 0x5F	; 95
    1756:	df 4f       	sbci	r29, 0xFF	; 255
    1758:	c8 80       	ld	r12, Y
    175a:	c1 5a       	subi	r28, 0xA1	; 161
    175c:	d0 40       	sbci	r29, 0x00	; 0
    175e:	ce 55       	subi	r28, 0x5E	; 94
    1760:	df 4f       	sbci	r29, 0xFF	; 255
    1762:	d8 80       	ld	r13, Y
    1764:	c2 5a       	subi	r28, 0xA2	; 162
    1766:	d0 40       	sbci	r29, 0x00	; 0
    1768:	cd 55       	subi	r28, 0x5D	; 93
    176a:	df 4f       	sbci	r29, 0xFF	; 255
    176c:	e8 80       	ld	r14, Y
    176e:	c3 5a       	subi	r28, 0xA3	; 163
    1770:	d0 40       	sbci	r29, 0x00	; 0
    1772:	cc 55       	subi	r28, 0x5C	; 92
    1774:	df 4f       	sbci	r29, 0xFF	; 255
    1776:	f8 80       	ld	r15, Y
    1778:	c4 5a       	subi	r28, 0xA4	; 164
    177a:	d0 40       	sbci	r29, 0x00	; 0
    177c:	cb 55       	subi	r28, 0x5B	; 91
    177e:	df 4f       	sbci	r29, 0xFF	; 255
    1780:	08 81       	ld	r16, Y
    1782:	c5 5a       	subi	r28, 0xA5	; 165
    1784:	d0 40       	sbci	r29, 0x00	; 0
    1786:	ca 55       	subi	r28, 0x5A	; 90
    1788:	df 4f       	sbci	r29, 0xFF	; 255
    178a:	18 81       	ld	r17, Y
    178c:	c6 5a       	subi	r28, 0xA6	; 166
    178e:	d0 40       	sbci	r29, 0x00	; 0
    1790:	c9 56       	subi	r28, 0x69	; 105
    1792:	df 4f       	sbci	r29, 0xFF	; 255
    1794:	28 81       	ld	r18, Y
    1796:	c7 59       	subi	r28, 0x97	; 151
    1798:	d0 40       	sbci	r29, 0x00	; 0
    179a:	c8 56       	subi	r28, 0x68	; 104
    179c:	df 4f       	sbci	r29, 0xFF	; 255
    179e:	38 81       	ld	r19, Y
    17a0:	c8 59       	subi	r28, 0x98	; 152
    17a2:	d0 40       	sbci	r29, 0x00	; 0
    17a4:	c7 56       	subi	r28, 0x67	; 103
    17a6:	df 4f       	sbci	r29, 0xFF	; 255
    17a8:	48 81       	ld	r20, Y
    17aa:	c9 59       	subi	r28, 0x99	; 153
    17ac:	d0 40       	sbci	r29, 0x00	; 0
    17ae:	c6 56       	subi	r28, 0x66	; 102
    17b0:	df 4f       	sbci	r29, 0xFF	; 255
    17b2:	58 81       	ld	r21, Y
    17b4:	ca 59       	subi	r28, 0x9A	; 154
    17b6:	d0 40       	sbci	r29, 0x00	; 0
    17b8:	c5 56       	subi	r28, 0x65	; 101
    17ba:	df 4f       	sbci	r29, 0xFF	; 255
    17bc:	68 81       	ld	r22, Y
    17be:	cb 59       	subi	r28, 0x9B	; 155
    17c0:	d0 40       	sbci	r29, 0x00	; 0
    17c2:	c4 56       	subi	r28, 0x64	; 100
    17c4:	df 4f       	sbci	r29, 0xFF	; 255
    17c6:	78 81       	ld	r23, Y
    17c8:	cc 59       	subi	r28, 0x9C	; 156
    17ca:	d0 40       	sbci	r29, 0x00	; 0
    17cc:	c3 56       	subi	r28, 0x63	; 99
    17ce:	df 4f       	sbci	r29, 0xFF	; 255
    17d0:	88 81       	ld	r24, Y
    17d2:	cd 59       	subi	r28, 0x9D	; 157
    17d4:	d0 40       	sbci	r29, 0x00	; 0
    17d6:	c2 56       	subi	r28, 0x62	; 98
    17d8:	df 4f       	sbci	r29, 0xFF	; 255
    17da:	98 81       	ld	r25, Y
    17dc:	ce 59       	subi	r28, 0x9E	; 158
    17de:	d0 40       	sbci	r29, 0x00	; 0
    17e0:	0e 94 cd 26 	call	0x4d9a	; 0x4d9a <__muldi3>
    17e4:	22 2e       	mov	r2, r18
    17e6:	33 2e       	mov	r3, r19
    17e8:	44 2e       	mov	r4, r20
    17ea:	55 2e       	mov	r5, r21
    17ec:	66 2e       	mov	r6, r22
    17ee:	77 2e       	mov	r7, r23
    17f0:	88 2e       	mov	r8, r24
    17f2:	99 2e       	mov	r9, r25
    17f4:	a2 2c       	mov	r10, r2
    17f6:	b3 2c       	mov	r11, r3
    17f8:	c4 2c       	mov	r12, r4
    17fa:	d5 2c       	mov	r13, r5
    17fc:	e6 2c       	mov	r14, r6
    17fe:	f7 2c       	mov	r15, r7
    1800:	08 2d       	mov	r16, r8
    1802:	19 2d       	mov	r17, r9
    1804:	2a 2d       	mov	r18, r10
    1806:	3b 2d       	mov	r19, r11
    1808:	4c 2d       	mov	r20, r12
    180a:	5d 2d       	mov	r21, r13
    180c:	6e 2d       	mov	r22, r14
    180e:	7f 2d       	mov	r23, r15
    1810:	80 2f       	mov	r24, r16
    1812:	91 2f       	mov	r25, r17
    1814:	0f e0       	ldi	r16, 0x0F	; 15
    1816:	0e 94 4f 27 	call	0x4e9e	; 0x4e9e <__ashrdi3>
    181a:	a2 2e       	mov	r10, r18
    181c:	b3 2e       	mov	r11, r19
    181e:	c4 2e       	mov	r12, r20
    1820:	d5 2e       	mov	r13, r21
    1822:	e6 2e       	mov	r14, r22
    1824:	f7 2e       	mov	r15, r23
    1826:	08 2f       	mov	r16, r24
    1828:	19 2f       	mov	r17, r25
    182a:	d6 01       	movw	r26, r12
    182c:	c5 01       	movw	r24, r10
    182e:	80 93 80 07 	sts	0x0780, r24
    1832:	90 93 81 07 	sts	0x0781, r25
    1836:	a0 93 82 07 	sts	0x0782, r26
    183a:	b0 93 83 07 	sts	0x0783, r27
/home/becker/async/wcet-benchmarks/benchmarks/adpcm-decode/adpcm.c:438
    183e:	20 91 4c 09 	lds	r18, 0x094C
    1842:	30 91 4d 09 	lds	r19, 0x094D
    1846:	40 91 4e 09 	lds	r20, 0x094E
    184a:	50 91 4f 09 	lds	r21, 0x094F
    184e:	80 91 38 07 	lds	r24, 0x0738
    1852:	90 91 39 07 	lds	r25, 0x0739
    1856:	a0 91 3a 07 	lds	r26, 0x073A
    185a:	b0 91 3b 07 	lds	r27, 0x073B
    185e:	bc 01       	movw	r22, r24
    1860:	cd 01       	movw	r24, r26
    1862:	0e 94 b2 24 	call	0x4964	; 0x4964 <logsch>
    1866:	dc 01       	movw	r26, r24
    1868:	cb 01       	movw	r24, r22
    186a:	80 93 4c 09 	sts	0x094C, r24
    186e:	90 93 4d 09 	sts	0x094D, r25
    1872:	a0 93 4e 09 	sts	0x094E, r26
    1876:	b0 93 4f 09 	sts	0x094F, r27
/home/becker/async/wcet-benchmarks/benchmarks/adpcm-decode/adpcm.c:441
    187a:	80 91 4c 09 	lds	r24, 0x094C
    187e:	90 91 4d 09 	lds	r25, 0x094D
    1882:	a0 91 4e 09 	lds	r26, 0x094E
    1886:	b0 91 4f 09 	lds	r27, 0x094F
    188a:	2a e0       	ldi	r18, 0x0A	; 10
    188c:	30 e0       	ldi	r19, 0x00	; 0
    188e:	40 e0       	ldi	r20, 0x00	; 0
    1890:	50 e0       	ldi	r21, 0x00	; 0
    1892:	bc 01       	movw	r22, r24
    1894:	cd 01       	movw	r24, r26
    1896:	0e 94 d9 1e 	call	0x3db2	; 0x3db2 <scalel>
    189a:	dc 01       	movw	r26, r24
    189c:	cb 01       	movw	r24, r22
    189e:	80 93 08 08 	sts	0x0808, r24
    18a2:	90 93 09 08 	sts	0x0809, r25
    18a6:	a0 93 0a 08 	sts	0x080A, r26
    18aa:	b0 93 0b 08 	sts	0x080B, r27
/home/becker/async/wcet-benchmarks/benchmarks/adpcm-decode/adpcm.c:444
    18ae:	20 91 80 07 	lds	r18, 0x0780
    18b2:	30 91 81 07 	lds	r19, 0x0781
    18b6:	40 91 82 07 	lds	r20, 0x0782
    18ba:	50 91 83 07 	lds	r21, 0x0783
    18be:	80 91 30 07 	lds	r24, 0x0730
    18c2:	90 91 31 07 	lds	r25, 0x0731
    18c6:	a0 91 32 07 	lds	r26, 0x0732
    18ca:	b0 91 33 07 	lds	r27, 0x0733
    18ce:	82 0f       	add	r24, r18
    18d0:	93 1f       	adc	r25, r19
    18d2:	a4 1f       	adc	r26, r20
    18d4:	b5 1f       	adc	r27, r21
    18d6:	80 93 7c 07 	sts	0x077C, r24
    18da:	90 93 7d 07 	sts	0x077D, r25
    18de:	a0 93 7e 07 	sts	0x077E, r26
    18e2:	b0 93 7f 07 	sts	0x077F, r27
/home/becker/async/wcet-benchmarks/benchmarks/adpcm-decode/adpcm.c:449
    18e6:	80 91 80 07 	lds	r24, 0x0780
    18ea:	90 91 81 07 	lds	r25, 0x0781
    18ee:	a0 91 82 07 	lds	r26, 0x0782
    18f2:	b0 91 83 07 	lds	r27, 0x0783
    18f6:	20 ea       	ldi	r18, 0xA0	; 160
    18f8:	39 e0       	ldi	r19, 0x09	; 9
    18fa:	44 e4       	ldi	r20, 0x44	; 68
    18fc:	58 e0       	ldi	r21, 0x08	; 8
    18fe:	bc 01       	movw	r22, r24
    1900:	cd 01       	movw	r24, r26
    1902:	0e 94 4e 1f 	call	0x3e9c	; 0x3e9c <upzero>
/home/becker/async/wcet-benchmarks/benchmarks/adpcm-decode/adpcm.c:453
    1906:	80 91 28 08 	lds	r24, 0x0828
    190a:	90 91 29 08 	lds	r25, 0x0829
    190e:	a0 91 2a 08 	lds	r26, 0x082A
    1912:	b0 91 2b 08 	lds	r27, 0x082B
    1916:	a0 90 74 08 	lds	r10, 0x0874
    191a:	b0 90 75 08 	lds	r11, 0x0875
    191e:	c0 90 76 08 	lds	r12, 0x0876
    1922:	d0 90 77 08 	lds	r13, 0x0877
    1926:	e0 90 7c 07 	lds	r14, 0x077C
    192a:	f0 90 7d 07 	lds	r15, 0x077D
    192e:	00 91 7e 07 	lds	r16, 0x077E
    1932:	10 91 7f 07 	lds	r17, 0x077F
    1936:	20 91 30 08 	lds	r18, 0x0830
    193a:	30 91 31 08 	lds	r19, 0x0831
    193e:	40 91 32 08 	lds	r20, 0x0832
    1942:	50 91 33 08 	lds	r21, 0x0833
    1946:	60 90 c4 07 	lds	r6, 0x07C4
    194a:	70 90 c5 07 	lds	r7, 0x07C5
    194e:	80 90 c6 07 	lds	r8, 0x07C6
    1952:	90 90 c7 07 	lds	r9, 0x07C7
    1956:	6b 2f       	mov	r22, r27
    1958:	6f 93       	push	r22
    195a:	6a 2f       	mov	r22, r26
    195c:	6f 93       	push	r22
    195e:	69 2f       	mov	r22, r25
    1960:	6f 93       	push	r22
    1962:	8f 93       	push	r24
    1964:	c4 01       	movw	r24, r8
    1966:	b3 01       	movw	r22, r6
    1968:	0e 94 e7 20 	call	0x41ce	; 0x41ce <uppol2>
    196c:	0f 90       	pop	r0
    196e:	0f 90       	pop	r0
    1970:	0f 90       	pop	r0
    1972:	0f 90       	pop	r0
    1974:	dc 01       	movw	r26, r24
    1976:	cb 01       	movw	r24, r22
    1978:	80 93 30 08 	sts	0x0830, r24
    197c:	90 93 31 08 	sts	0x0831, r25
    1980:	a0 93 32 08 	sts	0x0832, r26
    1984:	b0 93 33 08 	sts	0x0833, r27
/home/becker/async/wcet-benchmarks/benchmarks/adpcm-decode/adpcm.c:456
    1988:	a0 90 74 08 	lds	r10, 0x0874
    198c:	b0 90 75 08 	lds	r11, 0x0875
    1990:	c0 90 76 08 	lds	r12, 0x0876
    1994:	d0 90 77 08 	lds	r13, 0x0877
    1998:	e0 90 7c 07 	lds	r14, 0x077C
    199c:	f0 90 7d 07 	lds	r15, 0x077D
    19a0:	00 91 7e 07 	lds	r16, 0x077E
    19a4:	10 91 7f 07 	lds	r17, 0x077F
    19a8:	20 91 30 08 	lds	r18, 0x0830
    19ac:	30 91 31 08 	lds	r19, 0x0831
    19b0:	40 91 32 08 	lds	r20, 0x0832
    19b4:	50 91 33 08 	lds	r21, 0x0833
    19b8:	80 91 c4 07 	lds	r24, 0x07C4
    19bc:	90 91 c5 07 	lds	r25, 0x07C5
    19c0:	a0 91 c6 07 	lds	r26, 0x07C6
    19c4:	b0 91 c7 07 	lds	r27, 0x07C7
    19c8:	bc 01       	movw	r22, r24
    19ca:	cd 01       	movw	r24, r26
    19cc:	0e 94 2b 23 	call	0x4656	; 0x4656 <uppol1>
    19d0:	dc 01       	movw	r26, r24
    19d2:	cb 01       	movw	r24, r22
    19d4:	80 93 c4 07 	sts	0x07C4, r24
    19d8:	90 93 c5 07 	sts	0x07C5, r25
    19dc:	a0 93 c6 07 	sts	0x07C6, r26
    19e0:	b0 93 c7 07 	sts	0x07C7, r27
/home/becker/async/wcet-benchmarks/benchmarks/adpcm-decode/adpcm.c:459
    19e4:	20 91 88 07 	lds	r18, 0x0788
    19e8:	30 91 89 07 	lds	r19, 0x0789
    19ec:	40 91 8a 07 	lds	r20, 0x078A
    19f0:	50 91 8b 07 	lds	r21, 0x078B
    19f4:	80 91 80 07 	lds	r24, 0x0780
    19f8:	90 91 81 07 	lds	r25, 0x0781
    19fc:	a0 91 82 07 	lds	r26, 0x0782
    1a00:	b0 91 83 07 	lds	r27, 0x0783
    1a04:	82 0f       	add	r24, r18
    1a06:	93 1f       	adc	r25, r19
    1a08:	a4 1f       	adc	r26, r20
    1a0a:	b5 1f       	adc	r27, r21
    1a0c:	80 93 c0 07 	sts	0x07C0, r24
    1a10:	90 93 c1 07 	sts	0x07C1, r25
    1a14:	a0 93 c2 07 	sts	0x07C2, r26
    1a18:	b0 93 c3 07 	sts	0x07C3, r27
/home/becker/async/wcet-benchmarks/benchmarks/adpcm-decode/adpcm.c:462
    1a1c:	80 91 d8 08 	lds	r24, 0x08D8
    1a20:	90 91 d9 08 	lds	r25, 0x08D9
    1a24:	a0 91 da 08 	lds	r26, 0x08DA
    1a28:	b0 91 db 08 	lds	r27, 0x08DB
    1a2c:	80 93 28 07 	sts	0x0728, r24
    1a30:	90 93 29 07 	sts	0x0729, r25
    1a34:	a0 93 2a 07 	sts	0x072A, r26
    1a38:	b0 93 2b 07 	sts	0x072B, r27
/home/becker/async/wcet-benchmarks/benchmarks/adpcm-decode/adpcm.c:463
    1a3c:	80 91 c0 07 	lds	r24, 0x07C0
    1a40:	90 91 c1 07 	lds	r25, 0x07C1
    1a44:	a0 91 c2 07 	lds	r26, 0x07C2
    1a48:	b0 91 c3 07 	lds	r27, 0x07C3
    1a4c:	80 93 d8 08 	sts	0x08D8, r24
    1a50:	90 93 d9 08 	sts	0x08D9, r25
    1a54:	a0 93 da 08 	sts	0x08DA, r26
    1a58:	b0 93 db 08 	sts	0x08DB, r27
/home/becker/async/wcet-benchmarks/benchmarks/adpcm-decode/adpcm.c:464
    1a5c:	80 91 74 08 	lds	r24, 0x0874
    1a60:	90 91 75 08 	lds	r25, 0x0875
    1a64:	a0 91 76 08 	lds	r26, 0x0876
    1a68:	b0 91 77 08 	lds	r27, 0x0877
    1a6c:	80 93 28 08 	sts	0x0828, r24
    1a70:	90 93 29 08 	sts	0x0829, r25
    1a74:	a0 93 2a 08 	sts	0x082A, r26
    1a78:	b0 93 2b 08 	sts	0x082B, r27
/home/becker/async/wcet-benchmarks/benchmarks/adpcm-decode/adpcm.c:465
    1a7c:	80 91 7c 07 	lds	r24, 0x077C
    1a80:	90 91 7d 07 	lds	r25, 0x077D
    1a84:	a0 91 7e 07 	lds	r26, 0x077E
    1a88:	b0 91 7f 07 	lds	r27, 0x077F
    1a8c:	80 93 74 08 	sts	0x0874, r24
    1a90:	90 93 75 08 	sts	0x0875, r25
    1a94:	a0 93 76 08 	sts	0x0876, r26
    1a98:	b0 93 77 08 	sts	0x0877, r27
/home/becker/async/wcet-benchmarks/benchmarks/adpcm-decode/adpcm.c:468
    1a9c:	80 91 38 07 	lds	r24, 0x0738
    1aa0:	90 91 39 07 	lds	r25, 0x0739
    1aa4:	a0 91 3a 07 	lds	r26, 0x073A
    1aa8:	b0 91 3b 07 	lds	r27, 0x073B
    1aac:	88 0f       	add	r24, r24
    1aae:	99 1f       	adc	r25, r25
    1ab0:	aa 1f       	adc	r26, r26
    1ab2:	bb 1f       	adc	r27, r27
    1ab4:	88 0f       	add	r24, r24
    1ab6:	99 1f       	adc	r25, r25
    1ab8:	aa 1f       	adc	r26, r26
    1aba:	bb 1f       	adc	r27, r27
    1abc:	88 0f       	add	r24, r24
    1abe:	99 1f       	adc	r25, r25
    1ac0:	aa 1f       	adc	r26, r26
    1ac2:	bb 1f       	adc	r27, r27
    1ac4:	88 0f       	add	r24, r24
    1ac6:	99 1f       	adc	r25, r25
    1ac8:	aa 1f       	adc	r26, r26
    1aca:	bb 1f       	adc	r27, r27
    1acc:	88 0f       	add	r24, r24
    1ace:	99 1f       	adc	r25, r25
    1ad0:	aa 1f       	adc	r26, r26
    1ad2:	bb 1f       	adc	r27, r27
    1ad4:	88 0f       	add	r24, r24
    1ad6:	99 1f       	adc	r25, r25
    1ad8:	aa 1f       	adc	r26, r26
    1ada:	bb 1f       	adc	r27, r27
    1adc:	9c 01       	movw	r18, r24
    1ade:	ad 01       	movw	r20, r26
    1ae0:	80 91 34 08 	lds	r24, 0x0834
    1ae4:	90 91 35 08 	lds	r25, 0x0835
    1ae8:	a0 91 36 08 	lds	r26, 0x0836
    1aec:	b0 91 37 08 	lds	r27, 0x0837
    1af0:	82 2b       	or	r24, r18
    1af2:	93 2b       	or	r25, r19
    1af4:	a4 2b       	or	r26, r20
    1af6:	b5 2b       	or	r27, r21
/home/becker/async/wcet-benchmarks/benchmarks/adpcm-decode/adpcm.c:469
    1af8:	bc 01       	movw	r22, r24
    1afa:	cd 01       	movw	r24, r26
    1afc:	ca 55       	subi	r28, 0x5A	; 90
    1afe:	df 4f       	sbci	r29, 0xFF	; 255
    1b00:	0f b6       	in	r0, 0x3f	; 63
    1b02:	f8 94       	cli
    1b04:	de bf       	out	0x3e, r29	; 62
    1b06:	0f be       	out	0x3f, r0	; 63
    1b08:	cd bf       	out	0x3d, r28	; 61
    1b0a:	df 91       	pop	r29
    1b0c:	cf 91       	pop	r28
    1b0e:	1f 91       	pop	r17
    1b10:	0f 91       	pop	r16
    1b12:	ff 90       	pop	r15
    1b14:	ef 90       	pop	r14
    1b16:	df 90       	pop	r13
    1b18:	cf 90       	pop	r12
    1b1a:	bf 90       	pop	r11
    1b1c:	af 90       	pop	r10
    1b1e:	9f 90       	pop	r9
    1b20:	8f 90       	pop	r8
    1b22:	7f 90       	pop	r7
    1b24:	6f 90       	pop	r6
    1b26:	5f 90       	pop	r5
    1b28:	4f 90       	pop	r4
    1b2a:	3f 90       	pop	r3
    1b2c:	2f 90       	pop	r2
    1b2e:	08 95       	ret

00001b30 <decode>:
decode():
/home/becker/async/wcet-benchmarks/benchmarks/adpcm-decode/adpcm.c:474
    1b30:	2f 92       	push	r2
    1b32:	3f 92       	push	r3
    1b34:	4f 92       	push	r4
    1b36:	5f 92       	push	r5
    1b38:	6f 92       	push	r6
    1b3a:	7f 92       	push	r7
    1b3c:	8f 92       	push	r8
    1b3e:	9f 92       	push	r9
    1b40:	af 92       	push	r10
    1b42:	bf 92       	push	r11
    1b44:	cf 92       	push	r12
    1b46:	df 92       	push	r13
    1b48:	ef 92       	push	r14
    1b4a:	ff 92       	push	r15
    1b4c:	0f 93       	push	r16
    1b4e:	1f 93       	push	r17
    1b50:	cf 93       	push	r28
    1b52:	df 93       	push	r29
    1b54:	cd b7       	in	r28, 0x3d	; 61
    1b56:	de b7       	in	r29, 0x3e	; 62
    1b58:	ca 5a       	subi	r28, 0xAA	; 170
    1b5a:	d1 09       	sbc	r29, r1
    1b5c:	0f b6       	in	r0, 0x3f	; 63
    1b5e:	f8 94       	cli
    1b60:	de bf       	out	0x3e, r29	; 62
    1b62:	0f be       	out	0x3f, r0	; 63
    1b64:	cd bf       	out	0x3d, r28	; 61
    1b66:	6f 8f       	std	Y+31, r22	; 0x1f
    1b68:	78 a3       	std	Y+32, r23	; 0x20
    1b6a:	89 a3       	std	Y+33, r24	; 0x21
    1b6c:	9a a3       	std	Y+34, r25	; 0x22
/home/becker/async/wcet-benchmarks/benchmarks/adpcm-decode/adpcm.c:480
    1b6e:	8f 8d       	ldd	r24, Y+31	; 0x1f
    1b70:	98 a1       	ldd	r25, Y+32	; 0x20
    1b72:	a9 a1       	ldd	r26, Y+33	; 0x21
    1b74:	ba a1       	ldd	r27, Y+34	; 0x22
    1b76:	8f 73       	andi	r24, 0x3F	; 63
    1b78:	99 27       	eor	r25, r25
    1b7a:	aa 27       	eor	r26, r26
    1b7c:	bb 27       	eor	r27, r27
    1b7e:	80 93 38 08 	sts	0x0838, r24
    1b82:	90 93 39 08 	sts	0x0839, r25
    1b86:	a0 93 3a 08 	sts	0x083A, r26
    1b8a:	b0 93 3b 08 	sts	0x083B, r27
/home/becker/async/wcet-benchmarks/benchmarks/adpcm-decode/adpcm.c:481
    1b8e:	8f 8d       	ldd	r24, Y+31	; 0x1f
    1b90:	98 a1       	ldd	r25, Y+32	; 0x20
    1b92:	a9 a1       	ldd	r26, Y+33	; 0x21
    1b94:	ba a1       	ldd	r27, Y+34	; 0x22
    1b96:	68 94       	set
    1b98:	15 f8       	bld	r1, 5
    1b9a:	b5 95       	asr	r27
    1b9c:	a7 95       	ror	r26
    1b9e:	97 95       	ror	r25
    1ba0:	87 95       	ror	r24
    1ba2:	16 94       	lsr	r1
    1ba4:	d1 f7       	brne	.-12     	; 0x1b9a <decode+0x6a>
    1ba6:	80 93 38 07 	sts	0x0738, r24
    1baa:	90 93 39 07 	sts	0x0739, r25
    1bae:	a0 93 3a 07 	sts	0x073A, r26
    1bb2:	b0 93 3b 07 	sts	0x073B, r27
/home/becker/async/wcet-benchmarks/benchmarks/adpcm-decode/adpcm.c:486
    1bb6:	60 e6       	ldi	r22, 0x60	; 96
    1bb8:	77 e0       	ldi	r23, 0x07	; 7
    1bba:	8c e6       	ldi	r24, 0x6C	; 108
    1bbc:	99 e0       	ldi	r25, 0x09	; 9
    1bbe:	0e 94 b2 1a 	call	0x3564	; 0x3564 <filtez>
    1bc2:	dc 01       	movw	r26, r24
    1bc4:	cb 01       	movw	r24, r22
    1bc6:	80 93 fc 07 	sts	0x07FC, r24
    1bca:	90 93 fd 07 	sts	0x07FD, r25
    1bce:	a0 93 fe 07 	sts	0x07FE, r26
    1bd2:	b0 93 ff 07 	sts	0x07FF, r27
/home/becker/async/wcet-benchmarks/benchmarks/adpcm-decode/adpcm.c:489
    1bd6:	a0 90 04 09 	lds	r10, 0x0904
    1bda:	b0 90 05 09 	lds	r11, 0x0905
    1bde:	c0 90 06 09 	lds	r12, 0x0906
    1be2:	d0 90 07 09 	lds	r13, 0x0907
    1be6:	e0 90 0c 08 	lds	r14, 0x080C
    1bea:	f0 90 0d 08 	lds	r15, 0x080D
    1bee:	00 91 0e 08 	lds	r16, 0x080E
    1bf2:	10 91 0f 08 	lds	r17, 0x080F
    1bf6:	20 91 84 09 	lds	r18, 0x0984
    1bfa:	30 91 85 09 	lds	r19, 0x0985
    1bfe:	40 91 86 09 	lds	r20, 0x0986
    1c02:	50 91 87 09 	lds	r21, 0x0987
    1c06:	80 91 10 08 	lds	r24, 0x0810
    1c0a:	90 91 11 08 	lds	r25, 0x0811
    1c0e:	a0 91 12 08 	lds	r26, 0x0812
    1c12:	b0 91 13 08 	lds	r27, 0x0813
    1c16:	bc 01       	movw	r22, r24
    1c18:	cd 01       	movw	r24, r26
    1c1a:	0e 94 e0 1b 	call	0x37c0	; 0x37c0 <filtep>
    1c1e:	dc 01       	movw	r26, r24
    1c20:	cb 01       	movw	r24, r22
    1c22:	80 93 40 08 	sts	0x0840, r24
    1c26:	90 93 41 08 	sts	0x0841, r25
    1c2a:	a0 93 42 08 	sts	0x0842, r26
    1c2e:	b0 93 43 08 	sts	0x0843, r27
/home/becker/async/wcet-benchmarks/benchmarks/adpcm-decode/adpcm.c:491
    1c32:	20 91 40 08 	lds	r18, 0x0840
    1c36:	30 91 41 08 	lds	r19, 0x0841
    1c3a:	40 91 42 08 	lds	r20, 0x0842
    1c3e:	50 91 43 08 	lds	r21, 0x0843
    1c42:	80 91 fc 07 	lds	r24, 0x07FC
    1c46:	90 91 fd 07 	lds	r25, 0x07FD
    1c4a:	a0 91 fe 07 	lds	r26, 0x07FE
    1c4e:	b0 91 ff 07 	lds	r27, 0x07FF
    1c52:	82 0f       	add	r24, r18
    1c54:	93 1f       	adc	r25, r19
    1c56:	a4 1f       	adc	r26, r20
    1c58:	b5 1f       	adc	r27, r21
    1c5a:	80 93 18 08 	sts	0x0818, r24
    1c5e:	90 93 19 08 	sts	0x0819, r25
    1c62:	a0 93 1a 08 	sts	0x081A, r26
    1c66:	b0 93 1b 08 	sts	0x081B, r27
/home/becker/async/wcet-benchmarks/benchmarks/adpcm-decode/adpcm.c:494
    1c6a:	80 91 00 09 	lds	r24, 0x0900
    1c6e:	90 91 01 09 	lds	r25, 0x0901
    1c72:	a0 91 02 09 	lds	r26, 0x0902
    1c76:	b0 91 03 09 	lds	r27, 0x0903
    1c7a:	8b a3       	std	Y+35, r24	; 0x23
    1c7c:	9c a3       	std	Y+36, r25	; 0x24
    1c7e:	ad a3       	std	Y+37, r26	; 0x25
    1c80:	be a3       	std	Y+38, r27	; 0x26
    1c82:	bb 0f       	add	r27, r27
    1c84:	88 0b       	sbc	r24, r24
    1c86:	98 2f       	mov	r25, r24
    1c88:	dc 01       	movw	r26, r24
    1c8a:	8f a3       	std	Y+39, r24	; 0x27
    1c8c:	88 a7       	std	Y+40, r24	; 0x28
    1c8e:	89 a7       	std	Y+41, r24	; 0x29
    1c90:	8a a7       	std	Y+42, r24	; 0x2a
    1c92:	80 91 38 08 	lds	r24, 0x0838
    1c96:	90 91 39 08 	lds	r25, 0x0839
    1c9a:	a0 91 3a 08 	lds	r26, 0x083A
    1c9e:	b0 91 3b 08 	lds	r27, 0x083B
    1ca2:	b5 95       	asr	r27
    1ca4:	a7 95       	ror	r26
    1ca6:	97 95       	ror	r25
    1ca8:	87 95       	ror	r24
    1caa:	b5 95       	asr	r27
    1cac:	a7 95       	ror	r26
    1cae:	97 95       	ror	r25
    1cb0:	87 95       	ror	r24
    1cb2:	88 0f       	add	r24, r24
    1cb4:	99 1f       	adc	r25, r25
    1cb6:	88 0f       	add	r24, r24
    1cb8:	99 1f       	adc	r25, r25
    1cba:	80 5a       	subi	r24, 0xA0	; 160
    1cbc:	9e 4f       	sbci	r25, 0xFE	; 254
    1cbe:	fc 01       	movw	r30, r24
    1cc0:	80 81       	ld	r24, Z
    1cc2:	91 81       	ldd	r25, Z+1	; 0x01
    1cc4:	a2 81       	ldd	r26, Z+2	; 0x02
    1cc6:	b3 81       	ldd	r27, Z+3	; 0x03
    1cc8:	1c 01       	movw	r2, r24
    1cca:	2d 01       	movw	r4, r26
    1ccc:	bb 0f       	add	r27, r27
    1cce:	88 0b       	sbc	r24, r24
    1cd0:	98 2f       	mov	r25, r24
    1cd2:	dc 01       	movw	r26, r24
    1cd4:	68 2e       	mov	r6, r24
    1cd6:	78 2e       	mov	r7, r24
    1cd8:	88 2e       	mov	r8, r24
    1cda:	98 2e       	mov	r9, r24
    1cdc:	a2 2c       	mov	r10, r2
    1cde:	b3 2c       	mov	r11, r3
    1ce0:	c4 2c       	mov	r12, r4
    1ce2:	d5 2c       	mov	r13, r5
    1ce4:	e6 2c       	mov	r14, r6
    1ce6:	f7 2c       	mov	r15, r7
    1ce8:	08 2d       	mov	r16, r8
    1cea:	19 2d       	mov	r17, r9
    1cec:	2b a1       	ldd	r18, Y+35	; 0x23
    1cee:	3c a1       	ldd	r19, Y+36	; 0x24
    1cf0:	4d a1       	ldd	r20, Y+37	; 0x25
    1cf2:	5e a1       	ldd	r21, Y+38	; 0x26
    1cf4:	6f a1       	ldd	r22, Y+39	; 0x27
    1cf6:	78 a5       	ldd	r23, Y+40	; 0x28
    1cf8:	89 a5       	ldd	r24, Y+41	; 0x29
    1cfa:	9a a5       	ldd	r25, Y+42	; 0x2a
    1cfc:	0e 94 cd 26 	call	0x4d9a	; 0x4d9a <__muldi3>
    1d00:	22 2e       	mov	r2, r18
    1d02:	33 2e       	mov	r3, r19
    1d04:	44 2e       	mov	r4, r20
    1d06:	55 2e       	mov	r5, r21
    1d08:	66 2e       	mov	r6, r22
    1d0a:	77 2e       	mov	r7, r23
    1d0c:	88 2e       	mov	r8, r24
    1d0e:	99 2e       	mov	r9, r25
    1d10:	a2 2c       	mov	r10, r2
    1d12:	b3 2c       	mov	r11, r3
    1d14:	c4 2c       	mov	r12, r4
    1d16:	d5 2c       	mov	r13, r5
    1d18:	e6 2c       	mov	r14, r6
    1d1a:	f7 2c       	mov	r15, r7
    1d1c:	08 2d       	mov	r16, r8
    1d1e:	19 2d       	mov	r17, r9
    1d20:	2a 2d       	mov	r18, r10
    1d22:	3b 2d       	mov	r19, r11
    1d24:	4c 2d       	mov	r20, r12
    1d26:	5d 2d       	mov	r21, r13
    1d28:	6e 2d       	mov	r22, r14
    1d2a:	7f 2d       	mov	r23, r15
    1d2c:	80 2f       	mov	r24, r16
    1d2e:	91 2f       	mov	r25, r17
    1d30:	0f e0       	ldi	r16, 0x0F	; 15
    1d32:	0e 94 4f 27 	call	0x4e9e	; 0x4e9e <__ashrdi3>
    1d36:	a2 2e       	mov	r10, r18
    1d38:	b3 2e       	mov	r11, r19
    1d3a:	c4 2e       	mov	r12, r20
    1d3c:	d5 2e       	mov	r13, r21
    1d3e:	e6 2e       	mov	r14, r22
    1d40:	f7 2e       	mov	r15, r23
    1d42:	08 2f       	mov	r16, r24
    1d44:	19 2f       	mov	r17, r25
    1d46:	d6 01       	movw	r26, r12
    1d48:	c5 01       	movw	r24, r10
    1d4a:	80 93 2c 08 	sts	0x082C, r24
    1d4e:	90 93 2d 08 	sts	0x082D, r25
    1d52:	a0 93 2e 08 	sts	0x082E, r26
    1d56:	b0 93 2f 08 	sts	0x082F, r27
/home/becker/async/wcet-benchmarks/benchmarks/adpcm-decode/adpcm.c:497
    1d5a:	80 91 00 09 	lds	r24, 0x0900
    1d5e:	90 91 01 09 	lds	r25, 0x0901
    1d62:	a0 91 02 09 	lds	r26, 0x0902
    1d66:	b0 91 03 09 	lds	r27, 0x0903
    1d6a:	8b a7       	std	Y+43, r24	; 0x2b
    1d6c:	9c a7       	std	Y+44, r25	; 0x2c
    1d6e:	ad a7       	std	Y+45, r26	; 0x2d
    1d70:	be a7       	std	Y+46, r27	; 0x2e
    1d72:	bb 0f       	add	r27, r27
    1d74:	88 0b       	sbc	r24, r24
    1d76:	98 2f       	mov	r25, r24
    1d78:	dc 01       	movw	r26, r24
    1d7a:	8f a7       	std	Y+47, r24	; 0x2f
    1d7c:	88 ab       	std	Y+48, r24	; 0x30
    1d7e:	89 ab       	std	Y+49, r24	; 0x31
    1d80:	8a ab       	std	Y+50, r24	; 0x32
    1d82:	80 91 34 08 	lds	r24, 0x0834
    1d86:	90 91 35 08 	lds	r25, 0x0835
    1d8a:	a0 91 36 08 	lds	r26, 0x0836
    1d8e:	b0 91 37 08 	lds	r27, 0x0837
    1d92:	88 0f       	add	r24, r24
    1d94:	99 1f       	adc	r25, r25
    1d96:	88 0f       	add	r24, r24
    1d98:	99 1f       	adc	r25, r25
    1d9a:	80 5e       	subi	r24, 0xE0	; 224
    1d9c:	9d 4f       	sbci	r25, 0xFD	; 253
    1d9e:	fc 01       	movw	r30, r24
    1da0:	80 81       	ld	r24, Z
    1da2:	91 81       	ldd	r25, Z+1	; 0x01
    1da4:	a2 81       	ldd	r26, Z+2	; 0x02
    1da6:	b3 81       	ldd	r27, Z+3	; 0x03
    1da8:	8b ab       	std	Y+51, r24	; 0x33
    1daa:	9c ab       	std	Y+52, r25	; 0x34
    1dac:	ad ab       	std	Y+53, r26	; 0x35
    1dae:	be ab       	std	Y+54, r27	; 0x36
    1db0:	bb 0f       	add	r27, r27
    1db2:	88 0b       	sbc	r24, r24
    1db4:	98 2f       	mov	r25, r24
    1db6:	dc 01       	movw	r26, r24
    1db8:	8f ab       	std	Y+55, r24	; 0x37
    1dba:	88 af       	std	Y+56, r24	; 0x38
    1dbc:	89 af       	std	Y+57, r24	; 0x39
    1dbe:	8a af       	std	Y+58, r24	; 0x3a
    1dc0:	ab a8       	ldd	r10, Y+51	; 0x33
    1dc2:	bc a8       	ldd	r11, Y+52	; 0x34
    1dc4:	cd a8       	ldd	r12, Y+53	; 0x35
    1dc6:	de a8       	ldd	r13, Y+54	; 0x36
    1dc8:	ef a8       	ldd	r14, Y+55	; 0x37
    1dca:	f8 ac       	ldd	r15, Y+56	; 0x38
    1dcc:	09 ad       	ldd	r16, Y+57	; 0x39
    1dce:	1a ad       	ldd	r17, Y+58	; 0x3a
    1dd0:	2b a5       	ldd	r18, Y+43	; 0x2b
    1dd2:	3c a5       	ldd	r19, Y+44	; 0x2c
    1dd4:	4d a5       	ldd	r20, Y+45	; 0x2d
    1dd6:	5e a5       	ldd	r21, Y+46	; 0x2e
    1dd8:	6f a5       	ldd	r22, Y+47	; 0x2f
    1dda:	78 a9       	ldd	r23, Y+48	; 0x30
    1ddc:	89 a9       	ldd	r24, Y+49	; 0x31
    1dde:	9a a9       	ldd	r25, Y+50	; 0x32
    1de0:	0e 94 cd 26 	call	0x4d9a	; 0x4d9a <__muldi3>
    1de4:	22 2e       	mov	r2, r18
    1de6:	33 2e       	mov	r3, r19
    1de8:	44 2e       	mov	r4, r20
    1dea:	55 2e       	mov	r5, r21
    1dec:	66 2e       	mov	r6, r22
    1dee:	77 2e       	mov	r7, r23
    1df0:	88 2e       	mov	r8, r24
    1df2:	99 2e       	mov	r9, r25
    1df4:	a2 2c       	mov	r10, r2
    1df6:	b3 2c       	mov	r11, r3
    1df8:	c4 2c       	mov	r12, r4
    1dfa:	d5 2c       	mov	r13, r5
    1dfc:	e6 2c       	mov	r14, r6
    1dfe:	f7 2c       	mov	r15, r7
    1e00:	08 2d       	mov	r16, r8
    1e02:	19 2d       	mov	r17, r9
    1e04:	2a 2d       	mov	r18, r10
    1e06:	3b 2d       	mov	r19, r11
    1e08:	4c 2d       	mov	r20, r12
    1e0a:	5d 2d       	mov	r21, r13
    1e0c:	6e 2d       	mov	r22, r14
    1e0e:	7f 2d       	mov	r23, r15
    1e10:	80 2f       	mov	r24, r16
    1e12:	91 2f       	mov	r25, r17
    1e14:	0f e0       	ldi	r16, 0x0F	; 15
    1e16:	0e 94 4f 27 	call	0x4e9e	; 0x4e9e <__ashrdi3>
    1e1a:	a2 2e       	mov	r10, r18
    1e1c:	b3 2e       	mov	r11, r19
    1e1e:	c4 2e       	mov	r12, r20
    1e20:	d5 2e       	mov	r13, r21
    1e22:	e6 2e       	mov	r14, r22
    1e24:	f7 2e       	mov	r15, r23
    1e26:	08 2f       	mov	r16, r24
    1e28:	19 2f       	mov	r17, r25
    1e2a:	d6 01       	movw	r26, r12
    1e2c:	c5 01       	movw	r24, r10
    1e2e:	80 93 70 08 	sts	0x0870, r24
    1e32:	90 93 71 08 	sts	0x0871, r25
    1e36:	a0 93 72 08 	sts	0x0872, r26
    1e3a:	b0 93 73 08 	sts	0x0873, r27
/home/becker/async/wcet-benchmarks/benchmarks/adpcm-decode/adpcm.c:499
    1e3e:	20 91 70 08 	lds	r18, 0x0870
    1e42:	30 91 71 08 	lds	r19, 0x0871
    1e46:	40 91 72 08 	lds	r20, 0x0872
    1e4a:	50 91 73 08 	lds	r21, 0x0873
    1e4e:	80 91 18 08 	lds	r24, 0x0818
    1e52:	90 91 19 08 	lds	r25, 0x0819
    1e56:	a0 91 1a 08 	lds	r26, 0x081A
    1e5a:	b0 91 1b 08 	lds	r27, 0x081B
    1e5e:	82 0f       	add	r24, r18
    1e60:	93 1f       	adc	r25, r19
    1e62:	a4 1f       	adc	r26, r20
    1e64:	b5 1f       	adc	r27, r21
    1e66:	80 93 20 07 	sts	0x0720, r24
    1e6a:	90 93 21 07 	sts	0x0721, r25
    1e6e:	a0 93 22 07 	sts	0x0722, r26
    1e72:	b0 93 23 07 	sts	0x0723, r27
/home/becker/async/wcet-benchmarks/benchmarks/adpcm-decode/adpcm.c:502
    1e76:	20 91 60 08 	lds	r18, 0x0860
    1e7a:	30 91 61 08 	lds	r19, 0x0861
    1e7e:	40 91 62 08 	lds	r20, 0x0862
    1e82:	50 91 63 08 	lds	r21, 0x0863
    1e86:	80 91 38 08 	lds	r24, 0x0838
    1e8a:	90 91 39 08 	lds	r25, 0x0839
    1e8e:	a0 91 3a 08 	lds	r26, 0x083A
    1e92:	b0 91 3b 08 	lds	r27, 0x083B
    1e96:	bc 01       	movw	r22, r24
    1e98:	cd 01       	movw	r24, r26
    1e9a:	0e 94 03 1e 	call	0x3c06	; 0x3c06 <logscl>
    1e9e:	dc 01       	movw	r26, r24
    1ea0:	cb 01       	movw	r24, r22
    1ea2:	80 93 60 08 	sts	0x0860, r24
    1ea6:	90 93 61 08 	sts	0x0861, r25
    1eaa:	a0 93 62 08 	sts	0x0862, r26
    1eae:	b0 93 63 08 	sts	0x0863, r27
/home/becker/async/wcet-benchmarks/benchmarks/adpcm-decode/adpcm.c:505
    1eb2:	80 91 60 08 	lds	r24, 0x0860
    1eb6:	90 91 61 08 	lds	r25, 0x0861
    1eba:	a0 91 62 08 	lds	r26, 0x0862
    1ebe:	b0 91 63 08 	lds	r27, 0x0863
    1ec2:	28 e0       	ldi	r18, 0x08	; 8
    1ec4:	30 e0       	ldi	r19, 0x00	; 0
    1ec6:	40 e0       	ldi	r20, 0x00	; 0
    1ec8:	50 e0       	ldi	r21, 0x00	; 0
    1eca:	bc 01       	movw	r22, r24
    1ecc:	cd 01       	movw	r24, r26
    1ece:	0e 94 d9 1e 	call	0x3db2	; 0x3db2 <scalel>
    1ed2:	dc 01       	movw	r26, r24
    1ed4:	cb 01       	movw	r24, r22
    1ed6:	80 93 00 09 	sts	0x0900, r24
    1eda:	90 93 01 09 	sts	0x0901, r25
    1ede:	a0 93 02 09 	sts	0x0902, r26
    1ee2:	b0 93 03 09 	sts	0x0903, r27
/home/becker/async/wcet-benchmarks/benchmarks/adpcm-decode/adpcm.c:509
    1ee6:	20 91 2c 08 	lds	r18, 0x082C
    1eea:	30 91 2d 08 	lds	r19, 0x082D
    1eee:	40 91 2e 08 	lds	r20, 0x082E
    1ef2:	50 91 2f 08 	lds	r21, 0x082F
    1ef6:	80 91 fc 07 	lds	r24, 0x07FC
    1efa:	90 91 fd 07 	lds	r25, 0x07FD
    1efe:	a0 91 fe 07 	lds	r26, 0x07FE
    1f02:	b0 91 ff 07 	lds	r27, 0x07FF
    1f06:	82 0f       	add	r24, r18
    1f08:	93 1f       	adc	r25, r19
    1f0a:	a4 1f       	adc	r26, r20
    1f0c:	b5 1f       	adc	r27, r21
    1f0e:	80 93 38 09 	sts	0x0938, r24
    1f12:	90 93 39 09 	sts	0x0939, r25
    1f16:	a0 93 3a 09 	sts	0x093A, r26
    1f1a:	b0 93 3b 09 	sts	0x093B, r27
/home/becker/async/wcet-benchmarks/benchmarks/adpcm-decode/adpcm.c:512
    1f1e:	80 91 2c 08 	lds	r24, 0x082C
    1f22:	90 91 2d 08 	lds	r25, 0x082D
    1f26:	a0 91 2e 08 	lds	r26, 0x082E
    1f2a:	b0 91 2f 08 	lds	r27, 0x082F
    1f2e:	2c e6       	ldi	r18, 0x6C	; 108
    1f30:	39 e0       	ldi	r19, 0x09	; 9
    1f32:	40 e6       	ldi	r20, 0x60	; 96
    1f34:	57 e0       	ldi	r21, 0x07	; 7
    1f36:	bc 01       	movw	r22, r24
    1f38:	cd 01       	movw	r24, r26
    1f3a:	0e 94 4e 1f 	call	0x3e9c	; 0x3e9c <upzero>
/home/becker/async/wcet-benchmarks/benchmarks/adpcm-decode/adpcm.c:515
    1f3e:	80 91 24 07 	lds	r24, 0x0724
    1f42:	90 91 25 07 	lds	r25, 0x0725
    1f46:	a0 91 26 07 	lds	r26, 0x0726
    1f4a:	b0 91 27 07 	lds	r27, 0x0727
    1f4e:	a0 90 3c 07 	lds	r10, 0x073C
    1f52:	b0 90 3d 07 	lds	r11, 0x073D
    1f56:	c0 90 3e 07 	lds	r12, 0x073E
    1f5a:	d0 90 3f 07 	lds	r13, 0x073F
    1f5e:	e0 90 38 09 	lds	r14, 0x0938
    1f62:	f0 90 39 09 	lds	r15, 0x0939
    1f66:	00 91 3a 09 	lds	r16, 0x093A
    1f6a:	10 91 3b 09 	lds	r17, 0x093B
    1f6e:	20 91 04 09 	lds	r18, 0x0904
    1f72:	30 91 05 09 	lds	r19, 0x0905
    1f76:	40 91 06 09 	lds	r20, 0x0906
    1f7a:	50 91 07 09 	lds	r21, 0x0907
    1f7e:	60 90 84 09 	lds	r6, 0x0984
    1f82:	70 90 85 09 	lds	r7, 0x0985
    1f86:	80 90 86 09 	lds	r8, 0x0986
    1f8a:	90 90 87 09 	lds	r9, 0x0987
    1f8e:	6b 2f       	mov	r22, r27
    1f90:	6f 93       	push	r22
    1f92:	6a 2f       	mov	r22, r26
    1f94:	6f 93       	push	r22
    1f96:	69 2f       	mov	r22, r25
    1f98:	6f 93       	push	r22
    1f9a:	8f 93       	push	r24
    1f9c:	c4 01       	movw	r24, r8
    1f9e:	b3 01       	movw	r22, r6
    1fa0:	0e 94 e7 20 	call	0x41ce	; 0x41ce <uppol2>
    1fa4:	0f 90       	pop	r0
    1fa6:	0f 90       	pop	r0
    1fa8:	0f 90       	pop	r0
    1faa:	0f 90       	pop	r0
    1fac:	dc 01       	movw	r26, r24
    1fae:	cb 01       	movw	r24, r22
    1fb0:	80 93 04 09 	sts	0x0904, r24
    1fb4:	90 93 05 09 	sts	0x0905, r25
    1fb8:	a0 93 06 09 	sts	0x0906, r26
    1fbc:	b0 93 07 09 	sts	0x0907, r27
/home/becker/async/wcet-benchmarks/benchmarks/adpcm-decode/adpcm.c:518
    1fc0:	a0 90 3c 07 	lds	r10, 0x073C
    1fc4:	b0 90 3d 07 	lds	r11, 0x073D
    1fc8:	c0 90 3e 07 	lds	r12, 0x073E
    1fcc:	d0 90 3f 07 	lds	r13, 0x073F
    1fd0:	e0 90 38 09 	lds	r14, 0x0938
    1fd4:	f0 90 39 09 	lds	r15, 0x0939
    1fd8:	00 91 3a 09 	lds	r16, 0x093A
    1fdc:	10 91 3b 09 	lds	r17, 0x093B
    1fe0:	20 91 04 09 	lds	r18, 0x0904
    1fe4:	30 91 05 09 	lds	r19, 0x0905
    1fe8:	40 91 06 09 	lds	r20, 0x0906
    1fec:	50 91 07 09 	lds	r21, 0x0907
    1ff0:	80 91 84 09 	lds	r24, 0x0984
    1ff4:	90 91 85 09 	lds	r25, 0x0985
    1ff8:	a0 91 86 09 	lds	r26, 0x0986
    1ffc:	b0 91 87 09 	lds	r27, 0x0987
    2000:	bc 01       	movw	r22, r24
    2002:	cd 01       	movw	r24, r26
    2004:	0e 94 2b 23 	call	0x4656	; 0x4656 <uppol1>
    2008:	dc 01       	movw	r26, r24
    200a:	cb 01       	movw	r24, r22
    200c:	80 93 84 09 	sts	0x0984, r24
    2010:	90 93 85 09 	sts	0x0985, r25
    2014:	a0 93 86 09 	sts	0x0986, r26
    2018:	b0 93 87 09 	sts	0x0987, r27
/home/becker/async/wcet-benchmarks/benchmarks/adpcm-decode/adpcm.c:521
    201c:	20 91 18 08 	lds	r18, 0x0818
    2020:	30 91 19 08 	lds	r19, 0x0819
    2024:	40 91 1a 08 	lds	r20, 0x081A
    2028:	50 91 1b 08 	lds	r21, 0x081B
    202c:	80 91 2c 08 	lds	r24, 0x082C
    2030:	90 91 2d 08 	lds	r25, 0x082D
    2034:	a0 91 2e 08 	lds	r26, 0x082E
    2038:	b0 91 2f 08 	lds	r27, 0x082F
    203c:	82 0f       	add	r24, r18
    203e:	93 1f       	adc	r25, r19
    2040:	a4 1f       	adc	r26, r20
    2042:	b5 1f       	adc	r27, r21
    2044:	80 93 34 07 	sts	0x0734, r24
    2048:	90 93 35 07 	sts	0x0735, r25
    204c:	a0 93 36 07 	sts	0x0736, r26
    2050:	b0 93 37 07 	sts	0x0737, r27
/home/becker/async/wcet-benchmarks/benchmarks/adpcm-decode/adpcm.c:524
    2054:	80 91 10 08 	lds	r24, 0x0810
    2058:	90 91 11 08 	lds	r25, 0x0811
    205c:	a0 91 12 08 	lds	r26, 0x0812
    2060:	b0 91 13 08 	lds	r27, 0x0813
    2064:	80 93 0c 08 	sts	0x080C, r24
    2068:	90 93 0d 08 	sts	0x080D, r25
    206c:	a0 93 0e 08 	sts	0x080E, r26
    2070:	b0 93 0f 08 	sts	0x080F, r27
/home/becker/async/wcet-benchmarks/benchmarks/adpcm-decode/adpcm.c:525
    2074:	80 91 34 07 	lds	r24, 0x0734
    2078:	90 91 35 07 	lds	r25, 0x0735
    207c:	a0 91 36 07 	lds	r26, 0x0736
    2080:	b0 91 37 07 	lds	r27, 0x0737
    2084:	80 93 10 08 	sts	0x0810, r24
    2088:	90 93 11 08 	sts	0x0811, r25
    208c:	a0 93 12 08 	sts	0x0812, r26
    2090:	b0 93 13 08 	sts	0x0813, r27
/home/becker/async/wcet-benchmarks/benchmarks/adpcm-decode/adpcm.c:526
    2094:	80 91 3c 07 	lds	r24, 0x073C
    2098:	90 91 3d 07 	lds	r25, 0x073D
    209c:	a0 91 3e 07 	lds	r26, 0x073E
    20a0:	b0 91 3f 07 	lds	r27, 0x073F
    20a4:	80 93 24 07 	sts	0x0724, r24
    20a8:	90 93 25 07 	sts	0x0725, r25
    20ac:	a0 93 26 07 	sts	0x0726, r26
    20b0:	b0 93 27 07 	sts	0x0727, r27
/home/becker/async/wcet-benchmarks/benchmarks/adpcm-decode/adpcm.c:527
    20b4:	80 91 38 09 	lds	r24, 0x0938
    20b8:	90 91 39 09 	lds	r25, 0x0939
    20bc:	a0 91 3a 09 	lds	r26, 0x093A
    20c0:	b0 91 3b 09 	lds	r27, 0x093B
    20c4:	80 93 3c 07 	sts	0x073C, r24
    20c8:	90 93 3d 07 	sts	0x073D, r25
    20cc:	a0 93 3e 07 	sts	0x073E, r26
    20d0:	b0 93 3f 07 	sts	0x073F, r27
/home/becker/async/wcet-benchmarks/benchmarks/adpcm-decode/adpcm.c:532
    20d4:	60 ee       	ldi	r22, 0xE0	; 224
    20d6:	77 e0       	ldi	r23, 0x07	; 7
    20d8:	80 ee       	ldi	r24, 0xE0	; 224
    20da:	98 e0       	ldi	r25, 0x08	; 8
    20dc:	0e 94 b2 1a 	call	0x3564	; 0x3564 <filtez>
    20e0:	dc 01       	movw	r26, r24
    20e2:	cb 01       	movw	r24, r22
    20e4:	80 93 5c 08 	sts	0x085C, r24
    20e8:	90 93 5d 08 	sts	0x085D, r25
    20ec:	a0 93 5e 08 	sts	0x085E, r26
    20f0:	b0 93 5f 08 	sts	0x085F, r27
/home/becker/async/wcet-benchmarks/benchmarks/adpcm-decode/adpcm.c:535
    20f4:	a0 90 90 09 	lds	r10, 0x0990
    20f8:	b0 90 91 09 	lds	r11, 0x0991
    20fc:	c0 90 92 09 	lds	r12, 0x0992
    2100:	d0 90 93 09 	lds	r13, 0x0993
    2104:	e0 90 3c 09 	lds	r14, 0x093C
    2108:	f0 90 3d 09 	lds	r15, 0x093D
    210c:	00 91 3e 09 	lds	r16, 0x093E
    2110:	10 91 3f 09 	lds	r17, 0x093F
    2114:	20 91 f8 07 	lds	r18, 0x07F8
    2118:	30 91 f9 07 	lds	r19, 0x07F9
    211c:	40 91 fa 07 	lds	r20, 0x07FA
    2120:	50 91 fb 07 	lds	r21, 0x07FB
    2124:	80 91 44 09 	lds	r24, 0x0944
    2128:	90 91 45 09 	lds	r25, 0x0945
    212c:	a0 91 46 09 	lds	r26, 0x0946
    2130:	b0 91 47 09 	lds	r27, 0x0947
    2134:	bc 01       	movw	r22, r24
    2136:	cd 01       	movw	r24, r26
    2138:	0e 94 e0 1b 	call	0x37c0	; 0x37c0 <filtep>
    213c:	dc 01       	movw	r26, r24
    213e:	cb 01       	movw	r24, r22
    2140:	80 93 84 07 	sts	0x0784, r24
    2144:	90 93 85 07 	sts	0x0785, r25
    2148:	a0 93 86 07 	sts	0x0786, r26
    214c:	b0 93 87 07 	sts	0x0787, r27
/home/becker/async/wcet-benchmarks/benchmarks/adpcm-decode/adpcm.c:538
    2150:	20 91 84 07 	lds	r18, 0x0784
    2154:	30 91 85 07 	lds	r19, 0x0785
    2158:	40 91 86 07 	lds	r20, 0x0786
    215c:	50 91 87 07 	lds	r21, 0x0787
    2160:	80 91 5c 08 	lds	r24, 0x085C
    2164:	90 91 5d 08 	lds	r25, 0x085D
    2168:	a0 91 5e 08 	lds	r26, 0x085E
    216c:	b0 91 5f 08 	lds	r27, 0x085F
    2170:	82 0f       	add	r24, r18
    2172:	93 1f       	adc	r25, r19
    2174:	a4 1f       	adc	r26, r20
    2176:	b5 1f       	adc	r27, r21
    2178:	80 93 dc 08 	sts	0x08DC, r24
    217c:	90 93 dd 08 	sts	0x08DD, r25
    2180:	a0 93 de 08 	sts	0x08DE, r26
    2184:	b0 93 df 08 	sts	0x08DF, r27
/home/becker/async/wcet-benchmarks/benchmarks/adpcm-decode/adpcm.c:541
    2188:	80 91 20 08 	lds	r24, 0x0820
    218c:	90 91 21 08 	lds	r25, 0x0821
    2190:	a0 91 22 08 	lds	r26, 0x0822
    2194:	b0 91 23 08 	lds	r27, 0x0823
    2198:	8b af       	std	Y+59, r24	; 0x3b
    219a:	9c af       	std	Y+60, r25	; 0x3c
    219c:	ad af       	std	Y+61, r26	; 0x3d
    219e:	be af       	std	Y+62, r27	; 0x3e
    21a0:	bb 0f       	add	r27, r27
    21a2:	88 0b       	sbc	r24, r24
    21a4:	98 2f       	mov	r25, r24
    21a6:	dc 01       	movw	r26, r24
    21a8:	8f af       	std	Y+63, r24	; 0x3f
    21aa:	21 96       	adiw	r28, 0x01	; 1
    21ac:	8f af       	std	Y+63, r24	; 0x3f
    21ae:	21 97       	sbiw	r28, 0x01	; 1
    21b0:	22 96       	adiw	r28, 0x02	; 2
    21b2:	8f af       	std	Y+63, r24	; 0x3f
    21b4:	22 97       	sbiw	r28, 0x02	; 2
    21b6:	23 96       	adiw	r28, 0x03	; 3
    21b8:	8f af       	std	Y+63, r24	; 0x3f
    21ba:	23 97       	sbiw	r28, 0x03	; 3
    21bc:	80 91 38 07 	lds	r24, 0x0738
    21c0:	90 91 39 07 	lds	r25, 0x0739
    21c4:	a0 91 3a 07 	lds	r26, 0x073A
    21c8:	b0 91 3b 07 	lds	r27, 0x073B
    21cc:	88 0f       	add	r24, r24
    21ce:	99 1f       	adc	r25, r25
    21d0:	88 0f       	add	r24, r24
    21d2:	99 1f       	adc	r25, r25
    21d4:	80 59       	subi	r24, 0x90	; 144
    21d6:	9a 4f       	sbci	r25, 0xFA	; 250
    21d8:	fc 01       	movw	r30, r24
    21da:	80 81       	ld	r24, Z
    21dc:	91 81       	ldd	r25, Z+1	; 0x01
    21de:	a2 81       	ldd	r26, Z+2	; 0x02
    21e0:	b3 81       	ldd	r27, Z+3	; 0x03
    21e2:	27 96       	adiw	r28, 0x07	; 7
    21e4:	8c af       	std	Y+60, r24	; 0x3c
    21e6:	9d af       	std	Y+61, r25	; 0x3d
    21e8:	ae af       	std	Y+62, r26	; 0x3e
    21ea:	bf af       	std	Y+63, r27	; 0x3f
    21ec:	27 97       	sbiw	r28, 0x07	; 7
    21ee:	bb 0f       	add	r27, r27
    21f0:	88 0b       	sbc	r24, r24
    21f2:	98 2f       	mov	r25, r24
    21f4:	dc 01       	movw	r26, r24
    21f6:	28 96       	adiw	r28, 0x08	; 8
    21f8:	8f af       	std	Y+63, r24	; 0x3f
    21fa:	28 97       	sbiw	r28, 0x08	; 8
    21fc:	29 96       	adiw	r28, 0x09	; 9
    21fe:	8f af       	std	Y+63, r24	; 0x3f
    2200:	29 97       	sbiw	r28, 0x09	; 9
    2202:	2a 96       	adiw	r28, 0x0a	; 10
    2204:	8f af       	std	Y+63, r24	; 0x3f
    2206:	2a 97       	sbiw	r28, 0x0a	; 10
    2208:	2b 96       	adiw	r28, 0x0b	; 11
    220a:	8f af       	std	Y+63, r24	; 0x3f
    220c:	2b 97       	sbiw	r28, 0x0b	; 11
    220e:	24 96       	adiw	r28, 0x04	; 4
    2210:	af ac       	ldd	r10, Y+63	; 0x3f
    2212:	24 97       	sbiw	r28, 0x04	; 4
    2214:	25 96       	adiw	r28, 0x05	; 5
    2216:	bf ac       	ldd	r11, Y+63	; 0x3f
    2218:	25 97       	sbiw	r28, 0x05	; 5
    221a:	26 96       	adiw	r28, 0x06	; 6
    221c:	cf ac       	ldd	r12, Y+63	; 0x3f
    221e:	26 97       	sbiw	r28, 0x06	; 6
    2220:	27 96       	adiw	r28, 0x07	; 7
    2222:	df ac       	ldd	r13, Y+63	; 0x3f
    2224:	27 97       	sbiw	r28, 0x07	; 7
    2226:	28 96       	adiw	r28, 0x08	; 8
    2228:	ef ac       	ldd	r14, Y+63	; 0x3f
    222a:	28 97       	sbiw	r28, 0x08	; 8
    222c:	29 96       	adiw	r28, 0x09	; 9
    222e:	ff ac       	ldd	r15, Y+63	; 0x3f
    2230:	29 97       	sbiw	r28, 0x09	; 9
    2232:	2a 96       	adiw	r28, 0x0a	; 10
    2234:	0f ad       	ldd	r16, Y+63	; 0x3f
    2236:	2a 97       	sbiw	r28, 0x0a	; 10
    2238:	2b 96       	adiw	r28, 0x0b	; 11
    223a:	1f ad       	ldd	r17, Y+63	; 0x3f
    223c:	2b 97       	sbiw	r28, 0x0b	; 11
    223e:	2b ad       	ldd	r18, Y+59	; 0x3b
    2240:	3c ad       	ldd	r19, Y+60	; 0x3c
    2242:	4d ad       	ldd	r20, Y+61	; 0x3d
    2244:	5e ad       	ldd	r21, Y+62	; 0x3e
    2246:	6f ad       	ldd	r22, Y+63	; 0x3f
    2248:	21 96       	adiw	r28, 0x01	; 1
    224a:	7f ad       	ldd	r23, Y+63	; 0x3f
    224c:	21 97       	sbiw	r28, 0x01	; 1
    224e:	22 96       	adiw	r28, 0x02	; 2
    2250:	8f ad       	ldd	r24, Y+63	; 0x3f
    2252:	22 97       	sbiw	r28, 0x02	; 2
    2254:	23 96       	adiw	r28, 0x03	; 3
    2256:	9f ad       	ldd	r25, Y+63	; 0x3f
    2258:	23 97       	sbiw	r28, 0x03	; 3
    225a:	0e 94 cd 26 	call	0x4d9a	; 0x4d9a <__muldi3>
    225e:	22 2e       	mov	r2, r18
    2260:	33 2e       	mov	r3, r19
    2262:	44 2e       	mov	r4, r20
    2264:	55 2e       	mov	r5, r21
    2266:	66 2e       	mov	r6, r22
    2268:	77 2e       	mov	r7, r23
    226a:	88 2e       	mov	r8, r24
    226c:	99 2e       	mov	r9, r25
    226e:	a2 2c       	mov	r10, r2
    2270:	b3 2c       	mov	r11, r3
    2272:	c4 2c       	mov	r12, r4
    2274:	d5 2c       	mov	r13, r5
    2276:	e6 2c       	mov	r14, r6
    2278:	f7 2c       	mov	r15, r7
    227a:	08 2d       	mov	r16, r8
    227c:	19 2d       	mov	r17, r9
    227e:	2a 2d       	mov	r18, r10
    2280:	3b 2d       	mov	r19, r11
    2282:	4c 2d       	mov	r20, r12
    2284:	5d 2d       	mov	r21, r13
    2286:	6e 2d       	mov	r22, r14
    2288:	7f 2d       	mov	r23, r15
    228a:	80 2f       	mov	r24, r16
    228c:	91 2f       	mov	r25, r17
    228e:	0f e0       	ldi	r16, 0x0F	; 15
    2290:	0e 94 4f 27 	call	0x4e9e	; 0x4e9e <__ashrdi3>
    2294:	a2 2e       	mov	r10, r18
    2296:	b3 2e       	mov	r11, r19
    2298:	c4 2e       	mov	r12, r20
    229a:	d5 2e       	mov	r13, r21
    229c:	e6 2e       	mov	r14, r22
    229e:	f7 2e       	mov	r15, r23
    22a0:	08 2f       	mov	r16, r24
    22a2:	19 2f       	mov	r17, r25
    22a4:	d6 01       	movw	r26, r12
    22a6:	c5 01       	movw	r24, r10
    22a8:	80 93 00 08 	sts	0x0800, r24
    22ac:	90 93 01 08 	sts	0x0801, r25
    22b0:	a0 93 02 08 	sts	0x0802, r26
    22b4:	b0 93 03 08 	sts	0x0803, r27
/home/becker/async/wcet-benchmarks/benchmarks/adpcm-decode/adpcm.c:544
    22b8:	20 91 44 07 	lds	r18, 0x0744
    22bc:	30 91 45 07 	lds	r19, 0x0745
    22c0:	40 91 46 07 	lds	r20, 0x0746
    22c4:	50 91 47 07 	lds	r21, 0x0747
    22c8:	80 91 38 07 	lds	r24, 0x0738
    22cc:	90 91 39 07 	lds	r25, 0x0739
    22d0:	a0 91 3a 07 	lds	r26, 0x073A
    22d4:	b0 91 3b 07 	lds	r27, 0x073B
    22d8:	bc 01       	movw	r22, r24
    22da:	cd 01       	movw	r24, r26
    22dc:	0e 94 b2 24 	call	0x4964	; 0x4964 <logsch>
    22e0:	dc 01       	movw	r26, r24
    22e2:	cb 01       	movw	r24, r22
    22e4:	80 93 44 07 	sts	0x0744, r24
    22e8:	90 93 45 07 	sts	0x0745, r25
    22ec:	a0 93 46 07 	sts	0x0746, r26
    22f0:	b0 93 47 07 	sts	0x0747, r27
/home/becker/async/wcet-benchmarks/benchmarks/adpcm-decode/adpcm.c:547
    22f4:	80 91 44 07 	lds	r24, 0x0744
    22f8:	90 91 45 07 	lds	r25, 0x0745
    22fc:	a0 91 46 07 	lds	r26, 0x0746
    2300:	b0 91 47 07 	lds	r27, 0x0747
    2304:	2a e0       	ldi	r18, 0x0A	; 10
    2306:	30 e0       	ldi	r19, 0x00	; 0
    2308:	40 e0       	ldi	r20, 0x00	; 0
    230a:	50 e0       	ldi	r21, 0x00	; 0
    230c:	bc 01       	movw	r22, r24
    230e:	cd 01       	movw	r24, r26
    2310:	0e 94 d9 1e 	call	0x3db2	; 0x3db2 <scalel>
    2314:	dc 01       	movw	r26, r24
    2316:	cb 01       	movw	r24, r22
    2318:	80 93 20 08 	sts	0x0820, r24
    231c:	90 93 21 08 	sts	0x0821, r25
    2320:	a0 93 22 08 	sts	0x0822, r26
    2324:	b0 93 23 08 	sts	0x0823, r27
/home/becker/async/wcet-benchmarks/benchmarks/adpcm-decode/adpcm.c:550
    2328:	20 91 00 08 	lds	r18, 0x0800
    232c:	30 91 01 08 	lds	r19, 0x0801
    2330:	40 91 02 08 	lds	r20, 0x0802
    2334:	50 91 03 08 	lds	r21, 0x0803
    2338:	80 91 5c 08 	lds	r24, 0x085C
    233c:	90 91 5d 08 	lds	r25, 0x085D
    2340:	a0 91 5e 08 	lds	r26, 0x085E
    2344:	b0 91 5f 08 	lds	r27, 0x085F
    2348:	82 0f       	add	r24, r18
    234a:	93 1f       	adc	r25, r19
    234c:	a4 1f       	adc	r26, r20
    234e:	b5 1f       	adc	r27, r21
    2350:	80 93 64 08 	sts	0x0864, r24
    2354:	90 93 65 08 	sts	0x0865, r25
    2358:	a0 93 66 08 	sts	0x0866, r26
    235c:	b0 93 67 08 	sts	0x0867, r27
/home/becker/async/wcet-benchmarks/benchmarks/adpcm-decode/adpcm.c:553
    2360:	80 91 00 08 	lds	r24, 0x0800
    2364:	90 91 01 08 	lds	r25, 0x0801
    2368:	a0 91 02 08 	lds	r26, 0x0802
    236c:	b0 91 03 08 	lds	r27, 0x0803
    2370:	20 ee       	ldi	r18, 0xE0	; 224
    2372:	38 e0       	ldi	r19, 0x08	; 8
    2374:	40 ee       	ldi	r20, 0xE0	; 224
    2376:	57 e0       	ldi	r21, 0x07	; 7
    2378:	bc 01       	movw	r22, r24
    237a:	cd 01       	movw	r24, r26
    237c:	0e 94 4e 1f 	call	0x3e9c	; 0x3e9c <upzero>
/home/becker/async/wcet-benchmarks/benchmarks/adpcm-decode/adpcm.c:556
    2380:	80 91 dc 07 	lds	r24, 0x07DC
    2384:	90 91 dd 07 	lds	r25, 0x07DD
    2388:	a0 91 de 07 	lds	r26, 0x07DE
    238c:	b0 91 df 07 	lds	r27, 0x07DF
    2390:	a0 90 78 07 	lds	r10, 0x0778
    2394:	b0 90 79 07 	lds	r11, 0x0779
    2398:	c0 90 7a 07 	lds	r12, 0x077A
    239c:	d0 90 7b 07 	lds	r13, 0x077B
    23a0:	e0 90 64 08 	lds	r14, 0x0864
    23a4:	f0 90 65 08 	lds	r15, 0x0865
    23a8:	00 91 66 08 	lds	r16, 0x0866
    23ac:	10 91 67 08 	lds	r17, 0x0867
    23b0:	20 91 90 09 	lds	r18, 0x0990
    23b4:	30 91 91 09 	lds	r19, 0x0991
    23b8:	40 91 92 09 	lds	r20, 0x0992
    23bc:	50 91 93 09 	lds	r21, 0x0993
    23c0:	60 90 f8 07 	lds	r6, 0x07F8
    23c4:	70 90 f9 07 	lds	r7, 0x07F9
    23c8:	80 90 fa 07 	lds	r8, 0x07FA
    23cc:	90 90 fb 07 	lds	r9, 0x07FB
    23d0:	6b 2f       	mov	r22, r27
    23d2:	6f 93       	push	r22
    23d4:	6a 2f       	mov	r22, r26
    23d6:	6f 93       	push	r22
    23d8:	69 2f       	mov	r22, r25
    23da:	6f 93       	push	r22
    23dc:	8f 93       	push	r24
    23de:	c4 01       	movw	r24, r8
    23e0:	b3 01       	movw	r22, r6
    23e2:	0e 94 e7 20 	call	0x41ce	; 0x41ce <uppol2>
    23e6:	0f 90       	pop	r0
    23e8:	0f 90       	pop	r0
    23ea:	0f 90       	pop	r0
    23ec:	0f 90       	pop	r0
    23ee:	dc 01       	movw	r26, r24
    23f0:	cb 01       	movw	r24, r22
    23f2:	80 93 90 09 	sts	0x0990, r24
    23f6:	90 93 91 09 	sts	0x0991, r25
    23fa:	a0 93 92 09 	sts	0x0992, r26
    23fe:	b0 93 93 09 	sts	0x0993, r27
/home/becker/async/wcet-benchmarks/benchmarks/adpcm-decode/adpcm.c:559
    2402:	a0 90 78 07 	lds	r10, 0x0778
    2406:	b0 90 79 07 	lds	r11, 0x0779
    240a:	c0 90 7a 07 	lds	r12, 0x077A
    240e:	d0 90 7b 07 	lds	r13, 0x077B
    2412:	e0 90 64 08 	lds	r14, 0x0864
    2416:	f0 90 65 08 	lds	r15, 0x0865
    241a:	00 91 66 08 	lds	r16, 0x0866
    241e:	10 91 67 08 	lds	r17, 0x0867
    2422:	20 91 90 09 	lds	r18, 0x0990
    2426:	30 91 91 09 	lds	r19, 0x0991
    242a:	40 91 92 09 	lds	r20, 0x0992
    242e:	50 91 93 09 	lds	r21, 0x0993
    2432:	80 91 f8 07 	lds	r24, 0x07F8
    2436:	90 91 f9 07 	lds	r25, 0x07F9
    243a:	a0 91 fa 07 	lds	r26, 0x07FA
    243e:	b0 91 fb 07 	lds	r27, 0x07FB
    2442:	bc 01       	movw	r22, r24
    2444:	cd 01       	movw	r24, r26
    2446:	0e 94 2b 23 	call	0x4656	; 0x4656 <uppol1>
    244a:	dc 01       	movw	r26, r24
    244c:	cb 01       	movw	r24, r22
    244e:	80 93 f8 07 	sts	0x07F8, r24
    2452:	90 93 f9 07 	sts	0x07F9, r25
    2456:	a0 93 fa 07 	sts	0x07FA, r26
    245a:	b0 93 fb 07 	sts	0x07FB, r27
/home/becker/async/wcet-benchmarks/benchmarks/adpcm-decode/adpcm.c:562
    245e:	20 91 dc 08 	lds	r18, 0x08DC
    2462:	30 91 dd 08 	lds	r19, 0x08DD
    2466:	40 91 de 08 	lds	r20, 0x08DE
    246a:	50 91 df 08 	lds	r21, 0x08DF
    246e:	80 91 00 08 	lds	r24, 0x0800
    2472:	90 91 01 08 	lds	r25, 0x0801
    2476:	a0 91 02 08 	lds	r26, 0x0802
    247a:	b0 91 03 08 	lds	r27, 0x0803
    247e:	82 0f       	add	r24, r18
    2480:	93 1f       	adc	r25, r19
    2482:	a4 1f       	adc	r26, r20
    2484:	b5 1f       	adc	r27, r21
    2486:	80 93 04 08 	sts	0x0804, r24
    248a:	90 93 05 08 	sts	0x0805, r25
    248e:	a0 93 06 08 	sts	0x0806, r26
    2492:	b0 93 07 08 	sts	0x0807, r27
/home/becker/async/wcet-benchmarks/benchmarks/adpcm-decode/adpcm.c:565
    2496:	80 91 44 09 	lds	r24, 0x0944
    249a:	90 91 45 09 	lds	r25, 0x0945
    249e:	a0 91 46 09 	lds	r26, 0x0946
    24a2:	b0 91 47 09 	lds	r27, 0x0947
    24a6:	80 93 3c 09 	sts	0x093C, r24
    24aa:	90 93 3d 09 	sts	0x093D, r25
    24ae:	a0 93 3e 09 	sts	0x093E, r26
    24b2:	b0 93 3f 09 	sts	0x093F, r27
/home/becker/async/wcet-benchmarks/benchmarks/adpcm-decode/adpcm.c:566
    24b6:	80 91 04 08 	lds	r24, 0x0804
    24ba:	90 91 05 08 	lds	r25, 0x0805
    24be:	a0 91 06 08 	lds	r26, 0x0806
    24c2:	b0 91 07 08 	lds	r27, 0x0807
    24c6:	80 93 44 09 	sts	0x0944, r24
    24ca:	90 93 45 09 	sts	0x0945, r25
    24ce:	a0 93 46 09 	sts	0x0946, r26
    24d2:	b0 93 47 09 	sts	0x0947, r27
/home/becker/async/wcet-benchmarks/benchmarks/adpcm-decode/adpcm.c:567
    24d6:	80 91 78 07 	lds	r24, 0x0778
    24da:	90 91 79 07 	lds	r25, 0x0779
    24de:	a0 91 7a 07 	lds	r26, 0x077A
    24e2:	b0 91 7b 07 	lds	r27, 0x077B
    24e6:	80 93 dc 07 	sts	0x07DC, r24
    24ea:	90 93 dd 07 	sts	0x07DD, r25
    24ee:	a0 93 de 07 	sts	0x07DE, r26
    24f2:	b0 93 df 07 	sts	0x07DF, r27
/home/becker/async/wcet-benchmarks/benchmarks/adpcm-decode/adpcm.c:568
    24f6:	80 91 64 08 	lds	r24, 0x0864
    24fa:	90 91 65 08 	lds	r25, 0x0865
    24fe:	a0 91 66 08 	lds	r26, 0x0866
    2502:	b0 91 67 08 	lds	r27, 0x0867
    2506:	80 93 78 07 	sts	0x0778, r24
    250a:	90 93 79 07 	sts	0x0779, r25
    250e:	a0 93 7a 07 	sts	0x077A, r26
    2512:	b0 93 7b 07 	sts	0x077B, r27
/home/becker/async/wcet-benchmarks/benchmarks/adpcm-decode/adpcm.c:573
    2516:	20 91 20 07 	lds	r18, 0x0720
    251a:	30 91 21 07 	lds	r19, 0x0721
    251e:	40 91 22 07 	lds	r20, 0x0722
    2522:	50 91 23 07 	lds	r21, 0x0723
    2526:	80 91 04 08 	lds	r24, 0x0804
    252a:	90 91 05 08 	lds	r25, 0x0805
    252e:	a0 91 06 08 	lds	r26, 0x0806
    2532:	b0 91 07 08 	lds	r27, 0x0807
    2536:	79 01       	movw	r14, r18
    2538:	8a 01       	movw	r16, r20
    253a:	e8 1a       	sub	r14, r24
    253c:	f9 0a       	sbc	r15, r25
    253e:	0a 0b       	sbc	r16, r26
    2540:	1b 0b       	sbc	r17, r27
    2542:	d8 01       	movw	r26, r16
    2544:	c7 01       	movw	r24, r14
    2546:	80 93 f8 08 	sts	0x08F8, r24
    254a:	90 93 f9 08 	sts	0x08F9, r25
    254e:	a0 93 fa 08 	sts	0x08FA, r26
    2552:	b0 93 fb 08 	sts	0x08FB, r27
/home/becker/async/wcet-benchmarks/benchmarks/adpcm-decode/adpcm.c:574
    2556:	20 91 20 07 	lds	r18, 0x0720
    255a:	30 91 21 07 	lds	r19, 0x0721
    255e:	40 91 22 07 	lds	r20, 0x0722
    2562:	50 91 23 07 	lds	r21, 0x0723
    2566:	80 91 04 08 	lds	r24, 0x0804
    256a:	90 91 05 08 	lds	r25, 0x0805
    256e:	a0 91 06 08 	lds	r26, 0x0806
    2572:	b0 91 07 08 	lds	r27, 0x0807
    2576:	82 0f       	add	r24, r18
    2578:	93 1f       	adc	r25, r19
    257a:	a4 1f       	adc	r26, r20
    257c:	b5 1f       	adc	r27, r21
    257e:	80 93 94 09 	sts	0x0994, r24
    2582:	90 93 95 09 	sts	0x0995, r25
    2586:	a0 93 96 09 	sts	0x0996, r26
    258a:	b0 93 97 09 	sts	0x0997, r27
/home/becker/async/wcet-benchmarks/benchmarks/adpcm-decode/adpcm.c:577
    258e:	80 e0       	ldi	r24, 0x00	; 0
    2590:	91 e0       	ldi	r25, 0x01	; 1
    2592:	9e 8b       	std	Y+22, r25	; 0x16
    2594:	8d 8b       	std	Y+21, r24	; 0x15
/home/becker/async/wcet-benchmarks/benchmarks/adpcm-decode/adpcm.c:578
    2596:	88 e0       	ldi	r24, 0x08	; 8
    2598:	99 e0       	ldi	r25, 0x09	; 9
    259a:	98 8f       	std	Y+24, r25	; 0x18
    259c:	8f 8b       	std	Y+23, r24	; 0x17
/home/becker/async/wcet-benchmarks/benchmarks/adpcm-decode/adpcm.c:579
    259e:	8c e8       	ldi	r24, 0x8C	; 140
    25a0:	97 e0       	ldi	r25, 0x07	; 7
    25a2:	9c 8f       	std	Y+28, r25	; 0x1c
    25a4:	8b 8f       	std	Y+27, r24	; 0x1b
/home/becker/async/wcet-benchmarks/benchmarks/adpcm-decode/adpcm.c:580
    25a6:	80 91 f8 08 	lds	r24, 0x08F8
    25aa:	90 91 f9 08 	lds	r25, 0x08F9
    25ae:	a0 91 fa 08 	lds	r26, 0x08FA
    25b2:	b0 91 fb 08 	lds	r27, 0x08FB
    25b6:	2f 96       	adiw	r28, 0x0f	; 15
    25b8:	8c af       	std	Y+60, r24	; 0x3c
    25ba:	9d af       	std	Y+61, r25	; 0x3d
    25bc:	ae af       	std	Y+62, r26	; 0x3e
    25be:	bf af       	std	Y+63, r27	; 0x3f
    25c0:	2f 97       	sbiw	r28, 0x0f	; 15
    25c2:	bb 0f       	add	r27, r27
    25c4:	88 0b       	sbc	r24, r24
    25c6:	98 2f       	mov	r25, r24
    25c8:	dc 01       	movw	r26, r24
    25ca:	60 96       	adiw	r28, 0x10	; 16
    25cc:	8f af       	std	Y+63, r24	; 0x3f
    25ce:	60 97       	sbiw	r28, 0x10	; 16
    25d0:	61 96       	adiw	r28, 0x11	; 17
    25d2:	8f af       	std	Y+63, r24	; 0x3f
    25d4:	61 97       	sbiw	r28, 0x11	; 17
    25d6:	62 96       	adiw	r28, 0x12	; 18
    25d8:	8f af       	std	Y+63, r24	; 0x3f
    25da:	62 97       	sbiw	r28, 0x12	; 18
    25dc:	63 96       	adiw	r28, 0x13	; 19
    25de:	8f af       	std	Y+63, r24	; 0x3f
    25e0:	63 97       	sbiw	r28, 0x13	; 19
    25e2:	2d 89       	ldd	r18, Y+21	; 0x15
    25e4:	3e 89       	ldd	r19, Y+22	; 0x16
    25e6:	c9 01       	movw	r24, r18
    25e8:	04 96       	adiw	r24, 0x04	; 4
    25ea:	9e 8b       	std	Y+22, r25	; 0x16
    25ec:	8d 8b       	std	Y+21, r24	; 0x15
    25ee:	f9 01       	movw	r30, r18
    25f0:	80 81       	ld	r24, Z
    25f2:	91 81       	ldd	r25, Z+1	; 0x01
    25f4:	a2 81       	ldd	r26, Z+2	; 0x02
    25f6:	b3 81       	ldd	r27, Z+3	; 0x03
    25f8:	67 96       	adiw	r28, 0x17	; 23
    25fa:	8c af       	std	Y+60, r24	; 0x3c
    25fc:	9d af       	std	Y+61, r25	; 0x3d
    25fe:	ae af       	std	Y+62, r26	; 0x3e
    2600:	bf af       	std	Y+63, r27	; 0x3f
    2602:	67 97       	sbiw	r28, 0x17	; 23
    2604:	bb 0f       	add	r27, r27
    2606:	88 0b       	sbc	r24, r24
    2608:	98 2f       	mov	r25, r24
    260a:	dc 01       	movw	r26, r24
    260c:	68 96       	adiw	r28, 0x18	; 24
    260e:	8f af       	std	Y+63, r24	; 0x3f
    2610:	68 97       	sbiw	r28, 0x18	; 24
    2612:	69 96       	adiw	r28, 0x19	; 25
    2614:	8f af       	std	Y+63, r24	; 0x3f
    2616:	69 97       	sbiw	r28, 0x19	; 25
    2618:	6a 96       	adiw	r28, 0x1a	; 26
    261a:	8f af       	std	Y+63, r24	; 0x3f
    261c:	6a 97       	sbiw	r28, 0x1a	; 26
    261e:	6b 96       	adiw	r28, 0x1b	; 27
    2620:	8f af       	std	Y+63, r24	; 0x3f
    2622:	6b 97       	sbiw	r28, 0x1b	; 27
    2624:	64 96       	adiw	r28, 0x14	; 20
    2626:	af ac       	ldd	r10, Y+63	; 0x3f
    2628:	64 97       	sbiw	r28, 0x14	; 20
    262a:	65 96       	adiw	r28, 0x15	; 21
    262c:	bf ac       	ldd	r11, Y+63	; 0x3f
    262e:	65 97       	sbiw	r28, 0x15	; 21
    2630:	66 96       	adiw	r28, 0x16	; 22
    2632:	cf ac       	ldd	r12, Y+63	; 0x3f
    2634:	66 97       	sbiw	r28, 0x16	; 22
    2636:	67 96       	adiw	r28, 0x17	; 23
    2638:	df ac       	ldd	r13, Y+63	; 0x3f
    263a:	67 97       	sbiw	r28, 0x17	; 23
    263c:	68 96       	adiw	r28, 0x18	; 24
    263e:	ef ac       	ldd	r14, Y+63	; 0x3f
    2640:	68 97       	sbiw	r28, 0x18	; 24
    2642:	69 96       	adiw	r28, 0x19	; 25
    2644:	ff ac       	ldd	r15, Y+63	; 0x3f
    2646:	69 97       	sbiw	r28, 0x19	; 25
    2648:	6a 96       	adiw	r28, 0x1a	; 26
    264a:	0f ad       	ldd	r16, Y+63	; 0x3f
    264c:	6a 97       	sbiw	r28, 0x1a	; 26
    264e:	6b 96       	adiw	r28, 0x1b	; 27
    2650:	1f ad       	ldd	r17, Y+63	; 0x3f
    2652:	6b 97       	sbiw	r28, 0x1b	; 27
    2654:	2c 96       	adiw	r28, 0x0c	; 12
    2656:	2f ad       	ldd	r18, Y+63	; 0x3f
    2658:	2c 97       	sbiw	r28, 0x0c	; 12
    265a:	2d 96       	adiw	r28, 0x0d	; 13
    265c:	3f ad       	ldd	r19, Y+63	; 0x3f
    265e:	2d 97       	sbiw	r28, 0x0d	; 13
    2660:	2e 96       	adiw	r28, 0x0e	; 14
    2662:	4f ad       	ldd	r20, Y+63	; 0x3f
    2664:	2e 97       	sbiw	r28, 0x0e	; 14
    2666:	2f 96       	adiw	r28, 0x0f	; 15
    2668:	5f ad       	ldd	r21, Y+63	; 0x3f
    266a:	2f 97       	sbiw	r28, 0x0f	; 15
    266c:	60 96       	adiw	r28, 0x10	; 16
    266e:	6f ad       	ldd	r22, Y+63	; 0x3f
    2670:	60 97       	sbiw	r28, 0x10	; 16
    2672:	61 96       	adiw	r28, 0x11	; 17
    2674:	7f ad       	ldd	r23, Y+63	; 0x3f
    2676:	61 97       	sbiw	r28, 0x11	; 17
    2678:	62 96       	adiw	r28, 0x12	; 18
    267a:	8f ad       	ldd	r24, Y+63	; 0x3f
    267c:	62 97       	sbiw	r28, 0x12	; 18
    267e:	63 96       	adiw	r28, 0x13	; 19
    2680:	9f ad       	ldd	r25, Y+63	; 0x3f
    2682:	63 97       	sbiw	r28, 0x13	; 19
    2684:	0e 94 cd 26 	call	0x4d9a	; 0x4d9a <__muldi3>
    2688:	a2 2e       	mov	r10, r18
    268a:	b3 2e       	mov	r11, r19
    268c:	c4 2e       	mov	r12, r20
    268e:	d5 2e       	mov	r13, r21
    2690:	e6 2e       	mov	r14, r22
    2692:	f7 2e       	mov	r15, r23
    2694:	08 2f       	mov	r16, r24
    2696:	19 2f       	mov	r17, r25
    2698:	ad 82       	std	Y+5, r10	; 0x05
    269a:	be 82       	std	Y+6, r11	; 0x06
    269c:	cf 82       	std	Y+7, r12	; 0x07
    269e:	d8 86       	std	Y+8, r13	; 0x08
    26a0:	e9 86       	std	Y+9, r14	; 0x09
    26a2:	fa 86       	std	Y+10, r15	; 0x0a
    26a4:	0b 87       	std	Y+11, r16	; 0x0b
    26a6:	1c 87       	std	Y+12, r17	; 0x0c
/home/becker/async/wcet-benchmarks/benchmarks/adpcm-decode/adpcm.c:581
    26a8:	80 91 94 09 	lds	r24, 0x0994
    26ac:	90 91 95 09 	lds	r25, 0x0995
    26b0:	a0 91 96 09 	lds	r26, 0x0996
    26b4:	b0 91 97 09 	lds	r27, 0x0997
    26b8:	6f 96       	adiw	r28, 0x1f	; 31
    26ba:	8c af       	std	Y+60, r24	; 0x3c
    26bc:	9d af       	std	Y+61, r25	; 0x3d
    26be:	ae af       	std	Y+62, r26	; 0x3e
    26c0:	bf af       	std	Y+63, r27	; 0x3f
    26c2:	6f 97       	sbiw	r28, 0x1f	; 31
    26c4:	bb 0f       	add	r27, r27
    26c6:	88 0b       	sbc	r24, r24
    26c8:	98 2f       	mov	r25, r24
    26ca:	dc 01       	movw	r26, r24
    26cc:	a0 96       	adiw	r28, 0x20	; 32
    26ce:	8f af       	std	Y+63, r24	; 0x3f
    26d0:	a0 97       	sbiw	r28, 0x20	; 32
    26d2:	a1 96       	adiw	r28, 0x21	; 33
    26d4:	8f af       	std	Y+63, r24	; 0x3f
    26d6:	a1 97       	sbiw	r28, 0x21	; 33
    26d8:	a2 96       	adiw	r28, 0x22	; 34
    26da:	8f af       	std	Y+63, r24	; 0x3f
    26dc:	a2 97       	sbiw	r28, 0x22	; 34
    26de:	a3 96       	adiw	r28, 0x23	; 35
    26e0:	8f af       	std	Y+63, r24	; 0x3f
    26e2:	a3 97       	sbiw	r28, 0x23	; 35
    26e4:	2d 89       	ldd	r18, Y+21	; 0x15
    26e6:	3e 89       	ldd	r19, Y+22	; 0x16
    26e8:	c9 01       	movw	r24, r18
    26ea:	04 96       	adiw	r24, 0x04	; 4
    26ec:	9e 8b       	std	Y+22, r25	; 0x16
    26ee:	8d 8b       	std	Y+21, r24	; 0x15
    26f0:	f9 01       	movw	r30, r18
    26f2:	80 81       	ld	r24, Z
    26f4:	91 81       	ldd	r25, Z+1	; 0x01
    26f6:	a2 81       	ldd	r26, Z+2	; 0x02
    26f8:	b3 81       	ldd	r27, Z+3	; 0x03
    26fa:	a7 96       	adiw	r28, 0x27	; 39
    26fc:	8c af       	std	Y+60, r24	; 0x3c
    26fe:	9d af       	std	Y+61, r25	; 0x3d
    2700:	ae af       	std	Y+62, r26	; 0x3e
    2702:	bf af       	std	Y+63, r27	; 0x3f
    2704:	a7 97       	sbiw	r28, 0x27	; 39
    2706:	bb 0f       	add	r27, r27
    2708:	88 0b       	sbc	r24, r24
    270a:	98 2f       	mov	r25, r24
    270c:	dc 01       	movw	r26, r24
    270e:	a8 96       	adiw	r28, 0x28	; 40
    2710:	8f af       	std	Y+63, r24	; 0x3f
    2712:	a8 97       	sbiw	r28, 0x28	; 40
    2714:	a9 96       	adiw	r28, 0x29	; 41
    2716:	8f af       	std	Y+63, r24	; 0x3f
    2718:	a9 97       	sbiw	r28, 0x29	; 41
    271a:	aa 96       	adiw	r28, 0x2a	; 42
    271c:	8f af       	std	Y+63, r24	; 0x3f
    271e:	aa 97       	sbiw	r28, 0x2a	; 42
    2720:	ab 96       	adiw	r28, 0x2b	; 43
    2722:	8f af       	std	Y+63, r24	; 0x3f
    2724:	ab 97       	sbiw	r28, 0x2b	; 43
    2726:	a4 96       	adiw	r28, 0x24	; 36
    2728:	af ac       	ldd	r10, Y+63	; 0x3f
    272a:	a4 97       	sbiw	r28, 0x24	; 36
    272c:	a5 96       	adiw	r28, 0x25	; 37
    272e:	bf ac       	ldd	r11, Y+63	; 0x3f
    2730:	a5 97       	sbiw	r28, 0x25	; 37
    2732:	a6 96       	adiw	r28, 0x26	; 38
    2734:	cf ac       	ldd	r12, Y+63	; 0x3f
    2736:	a6 97       	sbiw	r28, 0x26	; 38
    2738:	a7 96       	adiw	r28, 0x27	; 39
    273a:	df ac       	ldd	r13, Y+63	; 0x3f
    273c:	a7 97       	sbiw	r28, 0x27	; 39
    273e:	a8 96       	adiw	r28, 0x28	; 40
    2740:	ef ac       	ldd	r14, Y+63	; 0x3f
    2742:	a8 97       	sbiw	r28, 0x28	; 40
    2744:	a9 96       	adiw	r28, 0x29	; 41
    2746:	ff ac       	ldd	r15, Y+63	; 0x3f
    2748:	a9 97       	sbiw	r28, 0x29	; 41
    274a:	aa 96       	adiw	r28, 0x2a	; 42
    274c:	0f ad       	ldd	r16, Y+63	; 0x3f
    274e:	aa 97       	sbiw	r28, 0x2a	; 42
    2750:	ab 96       	adiw	r28, 0x2b	; 43
    2752:	1f ad       	ldd	r17, Y+63	; 0x3f
    2754:	ab 97       	sbiw	r28, 0x2b	; 43
    2756:	6c 96       	adiw	r28, 0x1c	; 28
    2758:	2f ad       	ldd	r18, Y+63	; 0x3f
    275a:	6c 97       	sbiw	r28, 0x1c	; 28
    275c:	6d 96       	adiw	r28, 0x1d	; 29
    275e:	3f ad       	ldd	r19, Y+63	; 0x3f
    2760:	6d 97       	sbiw	r28, 0x1d	; 29
    2762:	6e 96       	adiw	r28, 0x1e	; 30
    2764:	4f ad       	ldd	r20, Y+63	; 0x3f
    2766:	6e 97       	sbiw	r28, 0x1e	; 30
    2768:	6f 96       	adiw	r28, 0x1f	; 31
    276a:	5f ad       	ldd	r21, Y+63	; 0x3f
    276c:	6f 97       	sbiw	r28, 0x1f	; 31
    276e:	a0 96       	adiw	r28, 0x20	; 32
    2770:	6f ad       	ldd	r22, Y+63	; 0x3f
    2772:	a0 97       	sbiw	r28, 0x20	; 32
    2774:	a1 96       	adiw	r28, 0x21	; 33
    2776:	7f ad       	ldd	r23, Y+63	; 0x3f
    2778:	a1 97       	sbiw	r28, 0x21	; 33
    277a:	a2 96       	adiw	r28, 0x22	; 34
    277c:	8f ad       	ldd	r24, Y+63	; 0x3f
    277e:	a2 97       	sbiw	r28, 0x22	; 34
    2780:	a3 96       	adiw	r28, 0x23	; 35
    2782:	9f ad       	ldd	r25, Y+63	; 0x3f
    2784:	a3 97       	sbiw	r28, 0x23	; 35
    2786:	0e 94 cd 26 	call	0x4d9a	; 0x4d9a <__muldi3>
    278a:	a2 2e       	mov	r10, r18
    278c:	b3 2e       	mov	r11, r19
    278e:	c4 2e       	mov	r12, r20
    2790:	d5 2e       	mov	r13, r21
    2792:	e6 2e       	mov	r14, r22
    2794:	f7 2e       	mov	r15, r23
    2796:	08 2f       	mov	r16, r24
    2798:	19 2f       	mov	r17, r25
    279a:	ad 86       	std	Y+13, r10	; 0x0d
    279c:	be 86       	std	Y+14, r11	; 0x0e
    279e:	cf 86       	std	Y+15, r12	; 0x0f
    27a0:	d8 8a       	std	Y+16, r13	; 0x10
    27a2:	e9 8a       	std	Y+17, r14	; 0x11
    27a4:	fa 8a       	std	Y+18, r15	; 0x12
    27a6:	0b 8b       	std	Y+19, r16	; 0x13
    27a8:	1c 8b       	std	Y+20, r17	; 0x14
/home/becker/async/wcet-benchmarks/benchmarks/adpcm-decode/adpcm.c:583
    27aa:	19 82       	std	Y+1, r1	; 0x01
    27ac:	1a 82       	std	Y+2, r1	; 0x02
    27ae:	1b 82       	std	Y+3, r1	; 0x03
    27b0:	1c 82       	std	Y+4, r1	; 0x04
    27b2:	81 c1       	rjmp	.+770    	; 0x2ab6 <decode+0xf86>
/home/becker/async/wcet-benchmarks/benchmarks/adpcm-decode/adpcm.c:584 (discriminator 2)
    27b4:	2f 89       	ldd	r18, Y+23	; 0x17
    27b6:	38 8d       	ldd	r19, Y+24	; 0x18
    27b8:	c9 01       	movw	r24, r18
    27ba:	04 96       	adiw	r24, 0x04	; 4
    27bc:	98 8f       	std	Y+24, r25	; 0x18
    27be:	8f 8b       	std	Y+23, r24	; 0x17
    27c0:	f9 01       	movw	r30, r18
    27c2:	80 81       	ld	r24, Z
    27c4:	91 81       	ldd	r25, Z+1	; 0x01
    27c6:	a2 81       	ldd	r26, Z+2	; 0x02
    27c8:	b3 81       	ldd	r27, Z+3	; 0x03
    27ca:	af 96       	adiw	r28, 0x2f	; 47
    27cc:	8c af       	std	Y+60, r24	; 0x3c
    27ce:	9d af       	std	Y+61, r25	; 0x3d
    27d0:	ae af       	std	Y+62, r26	; 0x3e
    27d2:	bf af       	std	Y+63, r27	; 0x3f
    27d4:	af 97       	sbiw	r28, 0x2f	; 47
    27d6:	bb 0f       	add	r27, r27
    27d8:	88 0b       	sbc	r24, r24
    27da:	98 2f       	mov	r25, r24
    27dc:	dc 01       	movw	r26, r24
    27de:	e0 96       	adiw	r28, 0x30	; 48
    27e0:	8f af       	std	Y+63, r24	; 0x3f
    27e2:	e0 97       	sbiw	r28, 0x30	; 48
    27e4:	e1 96       	adiw	r28, 0x31	; 49
    27e6:	8f af       	std	Y+63, r24	; 0x3f
    27e8:	e1 97       	sbiw	r28, 0x31	; 49
    27ea:	e2 96       	adiw	r28, 0x32	; 50
    27ec:	8f af       	std	Y+63, r24	; 0x3f
    27ee:	e2 97       	sbiw	r28, 0x32	; 50
    27f0:	e3 96       	adiw	r28, 0x33	; 51
    27f2:	8f af       	std	Y+63, r24	; 0x3f
    27f4:	e3 97       	sbiw	r28, 0x33	; 51
    27f6:	2d 89       	ldd	r18, Y+21	; 0x15
    27f8:	3e 89       	ldd	r19, Y+22	; 0x16
    27fa:	c9 01       	movw	r24, r18
    27fc:	04 96       	adiw	r24, 0x04	; 4
    27fe:	9e 8b       	std	Y+22, r25	; 0x16
    2800:	8d 8b       	std	Y+21, r24	; 0x15
    2802:	f9 01       	movw	r30, r18
    2804:	80 81       	ld	r24, Z
    2806:	91 81       	ldd	r25, Z+1	; 0x01
    2808:	a2 81       	ldd	r26, Z+2	; 0x02
    280a:	b3 81       	ldd	r27, Z+3	; 0x03
    280c:	e7 96       	adiw	r28, 0x37	; 55
    280e:	8c af       	std	Y+60, r24	; 0x3c
    2810:	9d af       	std	Y+61, r25	; 0x3d
    2812:	ae af       	std	Y+62, r26	; 0x3e
    2814:	bf af       	std	Y+63, r27	; 0x3f
    2816:	e7 97       	sbiw	r28, 0x37	; 55
    2818:	bb 0f       	add	r27, r27
    281a:	88 0b       	sbc	r24, r24
    281c:	98 2f       	mov	r25, r24
    281e:	dc 01       	movw	r26, r24
    2820:	e8 96       	adiw	r28, 0x38	; 56
    2822:	8f af       	std	Y+63, r24	; 0x3f
    2824:	e8 97       	sbiw	r28, 0x38	; 56
    2826:	e9 96       	adiw	r28, 0x39	; 57
    2828:	8f af       	std	Y+63, r24	; 0x3f
    282a:	e9 97       	sbiw	r28, 0x39	; 57
    282c:	ea 96       	adiw	r28, 0x3a	; 58
    282e:	8f af       	std	Y+63, r24	; 0x3f
    2830:	ea 97       	sbiw	r28, 0x3a	; 58
    2832:	eb 96       	adiw	r28, 0x3b	; 59
    2834:	8f af       	std	Y+63, r24	; 0x3f
    2836:	eb 97       	sbiw	r28, 0x3b	; 59
    2838:	e4 96       	adiw	r28, 0x34	; 52
    283a:	af ac       	ldd	r10, Y+63	; 0x3f
    283c:	e4 97       	sbiw	r28, 0x34	; 52
    283e:	e5 96       	adiw	r28, 0x35	; 53
    2840:	bf ac       	ldd	r11, Y+63	; 0x3f
    2842:	e5 97       	sbiw	r28, 0x35	; 53
    2844:	e6 96       	adiw	r28, 0x36	; 54
    2846:	cf ac       	ldd	r12, Y+63	; 0x3f
    2848:	e6 97       	sbiw	r28, 0x36	; 54
    284a:	e7 96       	adiw	r28, 0x37	; 55
    284c:	df ac       	ldd	r13, Y+63	; 0x3f
    284e:	e7 97       	sbiw	r28, 0x37	; 55
    2850:	e8 96       	adiw	r28, 0x38	; 56
    2852:	ef ac       	ldd	r14, Y+63	; 0x3f
    2854:	e8 97       	sbiw	r28, 0x38	; 56
    2856:	e9 96       	adiw	r28, 0x39	; 57
    2858:	ff ac       	ldd	r15, Y+63	; 0x3f
    285a:	e9 97       	sbiw	r28, 0x39	; 57
    285c:	ea 96       	adiw	r28, 0x3a	; 58
    285e:	0f ad       	ldd	r16, Y+63	; 0x3f
    2860:	ea 97       	sbiw	r28, 0x3a	; 58
    2862:	eb 96       	adiw	r28, 0x3b	; 59
    2864:	1f ad       	ldd	r17, Y+63	; 0x3f
    2866:	eb 97       	sbiw	r28, 0x3b	; 59
    2868:	ac 96       	adiw	r28, 0x2c	; 44
    286a:	2f ad       	ldd	r18, Y+63	; 0x3f
    286c:	ac 97       	sbiw	r28, 0x2c	; 44
    286e:	ad 96       	adiw	r28, 0x2d	; 45
    2870:	3f ad       	ldd	r19, Y+63	; 0x3f
    2872:	ad 97       	sbiw	r28, 0x2d	; 45
    2874:	ae 96       	adiw	r28, 0x2e	; 46
    2876:	4f ad       	ldd	r20, Y+63	; 0x3f
    2878:	ae 97       	sbiw	r28, 0x2e	; 46
    287a:	af 96       	adiw	r28, 0x2f	; 47
    287c:	5f ad       	ldd	r21, Y+63	; 0x3f
    287e:	af 97       	sbiw	r28, 0x2f	; 47
    2880:	e0 96       	adiw	r28, 0x30	; 48
    2882:	6f ad       	ldd	r22, Y+63	; 0x3f
    2884:	e0 97       	sbiw	r28, 0x30	; 48
    2886:	e1 96       	adiw	r28, 0x31	; 49
    2888:	7f ad       	ldd	r23, Y+63	; 0x3f
    288a:	e1 97       	sbiw	r28, 0x31	; 49
    288c:	e2 96       	adiw	r28, 0x32	; 50
    288e:	8f ad       	ldd	r24, Y+63	; 0x3f
    2890:	e2 97       	sbiw	r28, 0x32	; 50
    2892:	e3 96       	adiw	r28, 0x33	; 51
    2894:	9f ad       	ldd	r25, Y+63	; 0x3f
    2896:	e3 97       	sbiw	r28, 0x33	; 51
    2898:	0e 94 cd 26 	call	0x4d9a	; 0x4d9a <__muldi3>
    289c:	22 2e       	mov	r2, r18
    289e:	33 2e       	mov	r3, r19
    28a0:	44 2e       	mov	r4, r20
    28a2:	55 2e       	mov	r5, r21
    28a4:	66 2e       	mov	r6, r22
    28a6:	77 2e       	mov	r7, r23
    28a8:	88 2e       	mov	r8, r24
    28aa:	99 2e       	mov	r9, r25
    28ac:	a2 2c       	mov	r10, r2
    28ae:	b3 2c       	mov	r11, r3
    28b0:	c4 2c       	mov	r12, r4
    28b2:	d5 2c       	mov	r13, r5
    28b4:	e6 2c       	mov	r14, r6
    28b6:	f7 2c       	mov	r15, r7
    28b8:	08 2d       	mov	r16, r8
    28ba:	19 2d       	mov	r17, r9
    28bc:	2a 2d       	mov	r18, r10
    28be:	3b 2d       	mov	r19, r11
    28c0:	4c 2d       	mov	r20, r12
    28c2:	5d 2d       	mov	r21, r13
    28c4:	6e 2d       	mov	r22, r14
    28c6:	7f 2d       	mov	r23, r15
    28c8:	80 2f       	mov	r24, r16
    28ca:	91 2f       	mov	r25, r17
    28cc:	ad 80       	ldd	r10, Y+5	; 0x05
    28ce:	be 80       	ldd	r11, Y+6	; 0x06
    28d0:	cf 80       	ldd	r12, Y+7	; 0x07
    28d2:	d8 84       	ldd	r13, Y+8	; 0x08
    28d4:	e9 84       	ldd	r14, Y+9	; 0x09
    28d6:	fa 84       	ldd	r15, Y+10	; 0x0a
    28d8:	0b 85       	ldd	r16, Y+11	; 0x0b
    28da:	1c 85       	ldd	r17, Y+12	; 0x0c
    28dc:	0e 94 6d 27 	call	0x4eda	; 0x4eda <__adddi3>
    28e0:	a2 2e       	mov	r10, r18
    28e2:	b3 2e       	mov	r11, r19
    28e4:	c4 2e       	mov	r12, r20
    28e6:	d5 2e       	mov	r13, r21
    28e8:	e6 2e       	mov	r14, r22
    28ea:	f7 2e       	mov	r15, r23
    28ec:	08 2f       	mov	r16, r24
    28ee:	19 2f       	mov	r17, r25
    28f0:	ad 82       	std	Y+5, r10	; 0x05
    28f2:	be 82       	std	Y+6, r11	; 0x06
    28f4:	cf 82       	std	Y+7, r12	; 0x07
    28f6:	d8 86       	std	Y+8, r13	; 0x08
    28f8:	e9 86       	std	Y+9, r14	; 0x09
    28fa:	fa 86       	std	Y+10, r15	; 0x0a
    28fc:	0b 87       	std	Y+11, r16	; 0x0b
    28fe:	1c 87       	std	Y+12, r17	; 0x0c
/home/becker/async/wcet-benchmarks/benchmarks/adpcm-decode/adpcm.c:585 (discriminator 2)
    2900:	2b 8d       	ldd	r18, Y+27	; 0x1b
    2902:	3c 8d       	ldd	r19, Y+28	; 0x1c
    2904:	c9 01       	movw	r24, r18
    2906:	04 96       	adiw	r24, 0x04	; 4
    2908:	9c 8f       	std	Y+28, r25	; 0x1c
    290a:	8b 8f       	std	Y+27, r24	; 0x1b
    290c:	f9 01       	movw	r30, r18
    290e:	80 81       	ld	r24, Z
    2910:	91 81       	ldd	r25, Z+1	; 0x01
    2912:	a2 81       	ldd	r26, Z+2	; 0x02
    2914:	b3 81       	ldd	r27, Z+3	; 0x03
    2916:	ef 96       	adiw	r28, 0x3f	; 63
    2918:	8c af       	std	Y+60, r24	; 0x3c
    291a:	9d af       	std	Y+61, r25	; 0x3d
    291c:	ae af       	std	Y+62, r26	; 0x3e
    291e:	bf af       	std	Y+63, r27	; 0x3f
    2920:	ef 97       	sbiw	r28, 0x3f	; 63
    2922:	bb 0f       	add	r27, r27
    2924:	88 0b       	sbc	r24, r24
    2926:	98 2f       	mov	r25, r24
    2928:	dc 01       	movw	r26, r24
    292a:	c1 58       	subi	r28, 0x81	; 129
    292c:	df 4f       	sbci	r29, 0xFF	; 255
    292e:	88 83       	st	Y, r24
    2930:	cf 57       	subi	r28, 0x7F	; 127
    2932:	d0 40       	sbci	r29, 0x00	; 0
    2934:	c0 58       	subi	r28, 0x80	; 128
    2936:	df 4f       	sbci	r29, 0xFF	; 255
    2938:	88 83       	st	Y, r24
    293a:	c0 58       	subi	r28, 0x80	; 128
    293c:	d0 40       	sbci	r29, 0x00	; 0
    293e:	cf 57       	subi	r28, 0x7F	; 127
    2940:	df 4f       	sbci	r29, 0xFF	; 255
    2942:	88 83       	st	Y, r24
    2944:	c1 58       	subi	r28, 0x81	; 129
    2946:	d0 40       	sbci	r29, 0x00	; 0
    2948:	ce 57       	subi	r28, 0x7E	; 126
    294a:	df 4f       	sbci	r29, 0xFF	; 255
    294c:	88 83       	st	Y, r24
    294e:	c2 58       	subi	r28, 0x82	; 130
    2950:	d0 40       	sbci	r29, 0x00	; 0
    2952:	2d 89       	ldd	r18, Y+21	; 0x15
    2954:	3e 89       	ldd	r19, Y+22	; 0x16
    2956:	c9 01       	movw	r24, r18
    2958:	04 96       	adiw	r24, 0x04	; 4
    295a:	9e 8b       	std	Y+22, r25	; 0x16
    295c:	8d 8b       	std	Y+21, r24	; 0x15
    295e:	f9 01       	movw	r30, r18
    2960:	80 81       	ld	r24, Z
    2962:	91 81       	ldd	r25, Z+1	; 0x01
    2964:	a2 81       	ldd	r26, Z+2	; 0x02
    2966:	b3 81       	ldd	r27, Z+3	; 0x03
    2968:	cd 57       	subi	r28, 0x7D	; 125
    296a:	df 4f       	sbci	r29, 0xFF	; 255
    296c:	88 83       	st	Y, r24
    296e:	99 83       	std	Y+1, r25	; 0x01
    2970:	aa 83       	std	Y+2, r26	; 0x02
    2972:	bb 83       	std	Y+3, r27	; 0x03
    2974:	c3 58       	subi	r28, 0x83	; 131
    2976:	d0 40       	sbci	r29, 0x00	; 0
    2978:	bb 0f       	add	r27, r27
    297a:	88 0b       	sbc	r24, r24
    297c:	98 2f       	mov	r25, r24
    297e:	dc 01       	movw	r26, r24
    2980:	c9 57       	subi	r28, 0x79	; 121
    2982:	df 4f       	sbci	r29, 0xFF	; 255
    2984:	88 83       	st	Y, r24
    2986:	c7 58       	subi	r28, 0x87	; 135
    2988:	d0 40       	sbci	r29, 0x00	; 0
    298a:	c8 57       	subi	r28, 0x78	; 120
    298c:	df 4f       	sbci	r29, 0xFF	; 255
    298e:	88 83       	st	Y, r24
    2990:	c8 58       	subi	r28, 0x88	; 136
    2992:	d0 40       	sbci	r29, 0x00	; 0
    2994:	c7 57       	subi	r28, 0x77	; 119
    2996:	df 4f       	sbci	r29, 0xFF	; 255
    2998:	88 83       	st	Y, r24
    299a:	c9 58       	subi	r28, 0x89	; 137
    299c:	d0 40       	sbci	r29, 0x00	; 0
    299e:	c6 57       	subi	r28, 0x76	; 118
    29a0:	df 4f       	sbci	r29, 0xFF	; 255
    29a2:	88 83       	st	Y, r24
    29a4:	ca 58       	subi	r28, 0x8A	; 138
    29a6:	d0 40       	sbci	r29, 0x00	; 0
    29a8:	cd 57       	subi	r28, 0x7D	; 125
    29aa:	df 4f       	sbci	r29, 0xFF	; 255
    29ac:	a8 80       	ld	r10, Y
    29ae:	c3 58       	subi	r28, 0x83	; 131
    29b0:	d0 40       	sbci	r29, 0x00	; 0
    29b2:	cc 57       	subi	r28, 0x7C	; 124
    29b4:	df 4f       	sbci	r29, 0xFF	; 255
    29b6:	b8 80       	ld	r11, Y
    29b8:	c4 58       	subi	r28, 0x84	; 132
    29ba:	d0 40       	sbci	r29, 0x00	; 0
    29bc:	cb 57       	subi	r28, 0x7B	; 123
    29be:	df 4f       	sbci	r29, 0xFF	; 255
    29c0:	c8 80       	ld	r12, Y
    29c2:	c5 58       	subi	r28, 0x85	; 133
    29c4:	d0 40       	sbci	r29, 0x00	; 0
    29c6:	ca 57       	subi	r28, 0x7A	; 122
    29c8:	df 4f       	sbci	r29, 0xFF	; 255
    29ca:	d8 80       	ld	r13, Y
    29cc:	c6 58       	subi	r28, 0x86	; 134
    29ce:	d0 40       	sbci	r29, 0x00	; 0
    29d0:	c9 57       	subi	r28, 0x79	; 121
    29d2:	df 4f       	sbci	r29, 0xFF	; 255
    29d4:	e8 80       	ld	r14, Y
    29d6:	c7 58       	subi	r28, 0x87	; 135
    29d8:	d0 40       	sbci	r29, 0x00	; 0
    29da:	c8 57       	subi	r28, 0x78	; 120
    29dc:	df 4f       	sbci	r29, 0xFF	; 255
    29de:	f8 80       	ld	r15, Y
    29e0:	c8 58       	subi	r28, 0x88	; 136
    29e2:	d0 40       	sbci	r29, 0x00	; 0
    29e4:	c7 57       	subi	r28, 0x77	; 119
    29e6:	df 4f       	sbci	r29, 0xFF	; 255
    29e8:	08 81       	ld	r16, Y
    29ea:	c9 58       	subi	r28, 0x89	; 137
    29ec:	d0 40       	sbci	r29, 0x00	; 0
    29ee:	c6 57       	subi	r28, 0x76	; 118
    29f0:	df 4f       	sbci	r29, 0xFF	; 255
    29f2:	18 81       	ld	r17, Y
    29f4:	ca 58       	subi	r28, 0x8A	; 138
    29f6:	d0 40       	sbci	r29, 0x00	; 0
    29f8:	ec 96       	adiw	r28, 0x3c	; 60
    29fa:	2f ad       	ldd	r18, Y+63	; 0x3f
    29fc:	ec 97       	sbiw	r28, 0x3c	; 60
    29fe:	ed 96       	adiw	r28, 0x3d	; 61
    2a00:	3f ad       	ldd	r19, Y+63	; 0x3f
    2a02:	ed 97       	sbiw	r28, 0x3d	; 61
    2a04:	ee 96       	adiw	r28, 0x3e	; 62
    2a06:	4f ad       	ldd	r20, Y+63	; 0x3f
    2a08:	ee 97       	sbiw	r28, 0x3e	; 62
    2a0a:	ef 96       	adiw	r28, 0x3f	; 63
    2a0c:	5f ad       	ldd	r21, Y+63	; 0x3f
    2a0e:	ef 97       	sbiw	r28, 0x3f	; 63
    2a10:	c1 58       	subi	r28, 0x81	; 129
    2a12:	df 4f       	sbci	r29, 0xFF	; 255
    2a14:	68 81       	ld	r22, Y
    2a16:	cf 57       	subi	r28, 0x7F	; 127
    2a18:	d0 40       	sbci	r29, 0x00	; 0
    2a1a:	c0 58       	subi	r28, 0x80	; 128
    2a1c:	df 4f       	sbci	r29, 0xFF	; 255
    2a1e:	78 81       	ld	r23, Y
    2a20:	c0 58       	subi	r28, 0x80	; 128
    2a22:	d0 40       	sbci	r29, 0x00	; 0
    2a24:	cf 57       	subi	r28, 0x7F	; 127
    2a26:	df 4f       	sbci	r29, 0xFF	; 255
    2a28:	88 81       	ld	r24, Y
    2a2a:	c1 58       	subi	r28, 0x81	; 129
    2a2c:	d0 40       	sbci	r29, 0x00	; 0
    2a2e:	ce 57       	subi	r28, 0x7E	; 126
    2a30:	df 4f       	sbci	r29, 0xFF	; 255
    2a32:	98 81       	ld	r25, Y
    2a34:	c2 58       	subi	r28, 0x82	; 130
    2a36:	d0 40       	sbci	r29, 0x00	; 0
    2a38:	0e 94 cd 26 	call	0x4d9a	; 0x4d9a <__muldi3>
    2a3c:	22 2e       	mov	r2, r18
    2a3e:	33 2e       	mov	r3, r19
    2a40:	44 2e       	mov	r4, r20
    2a42:	55 2e       	mov	r5, r21
    2a44:	66 2e       	mov	r6, r22
    2a46:	77 2e       	mov	r7, r23
    2a48:	88 2e       	mov	r8, r24
    2a4a:	99 2e       	mov	r9, r25
    2a4c:	a2 2c       	mov	r10, r2
    2a4e:	b3 2c       	mov	r11, r3
    2a50:	c4 2c       	mov	r12, r4
    2a52:	d5 2c       	mov	r13, r5
    2a54:	e6 2c       	mov	r14, r6
    2a56:	f7 2c       	mov	r15, r7
    2a58:	08 2d       	mov	r16, r8
    2a5a:	19 2d       	mov	r17, r9
    2a5c:	2a 2d       	mov	r18, r10
    2a5e:	3b 2d       	mov	r19, r11
    2a60:	4c 2d       	mov	r20, r12
    2a62:	5d 2d       	mov	r21, r13
    2a64:	6e 2d       	mov	r22, r14
    2a66:	7f 2d       	mov	r23, r15
    2a68:	80 2f       	mov	r24, r16
    2a6a:	91 2f       	mov	r25, r17
    2a6c:	ad 84       	ldd	r10, Y+13	; 0x0d
    2a6e:	be 84       	ldd	r11, Y+14	; 0x0e
    2a70:	cf 84       	ldd	r12, Y+15	; 0x0f
    2a72:	d8 88       	ldd	r13, Y+16	; 0x10
    2a74:	e9 88       	ldd	r14, Y+17	; 0x11
    2a76:	fa 88       	ldd	r15, Y+18	; 0x12
    2a78:	0b 89       	ldd	r16, Y+19	; 0x13
    2a7a:	1c 89       	ldd	r17, Y+20	; 0x14
    2a7c:	0e 94 6d 27 	call	0x4eda	; 0x4eda <__adddi3>
    2a80:	a2 2e       	mov	r10, r18
    2a82:	b3 2e       	mov	r11, r19
    2a84:	c4 2e       	mov	r12, r20
    2a86:	d5 2e       	mov	r13, r21
    2a88:	e6 2e       	mov	r14, r22
    2a8a:	f7 2e       	mov	r15, r23
    2a8c:	08 2f       	mov	r16, r24
    2a8e:	19 2f       	mov	r17, r25
    2a90:	ad 86       	std	Y+13, r10	; 0x0d
    2a92:	be 86       	std	Y+14, r11	; 0x0e
    2a94:	cf 86       	std	Y+15, r12	; 0x0f
    2a96:	d8 8a       	std	Y+16, r13	; 0x10
    2a98:	e9 8a       	std	Y+17, r14	; 0x11
    2a9a:	fa 8a       	std	Y+18, r15	; 0x12
    2a9c:	0b 8b       	std	Y+19, r16	; 0x13
    2a9e:	1c 8b       	std	Y+20, r17	; 0x14
/home/becker/async/wcet-benchmarks/benchmarks/adpcm-decode/adpcm.c:583 (discriminator 2)
    2aa0:	89 81       	ldd	r24, Y+1	; 0x01
    2aa2:	9a 81       	ldd	r25, Y+2	; 0x02
    2aa4:	ab 81       	ldd	r26, Y+3	; 0x03
    2aa6:	bc 81       	ldd	r27, Y+4	; 0x04
    2aa8:	01 96       	adiw	r24, 0x01	; 1
    2aaa:	a1 1d       	adc	r26, r1
    2aac:	b1 1d       	adc	r27, r1
    2aae:	89 83       	std	Y+1, r24	; 0x01
    2ab0:	9a 83       	std	Y+2, r25	; 0x02
    2ab2:	ab 83       	std	Y+3, r26	; 0x03
    2ab4:	bc 83       	std	Y+4, r27	; 0x04
/home/becker/async/wcet-benchmarks/benchmarks/adpcm-decode/adpcm.c:583 (discriminator 1)
    2ab6:	89 81       	ldd	r24, Y+1	; 0x01
    2ab8:	9a 81       	ldd	r25, Y+2	; 0x02
    2aba:	ab 81       	ldd	r26, Y+3	; 0x03
    2abc:	bc 81       	ldd	r27, Y+4	; 0x04
    2abe:	8a 30       	cpi	r24, 0x0A	; 10
    2ac0:	91 05       	cpc	r25, r1
    2ac2:	a1 05       	cpc	r26, r1
    2ac4:	b1 05       	cpc	r27, r1
    2ac6:	0c f4       	brge	.+2      	; 0x2aca <decode+0xf9a>
    2ac8:	75 ce       	rjmp	.-790    	; 0x27b4 <decode+0xc84>
/home/becker/async/wcet-benchmarks/benchmarks/adpcm-decode/adpcm.c:588
    2aca:	8f 89       	ldd	r24, Y+23	; 0x17
    2acc:	98 8d       	ldd	r25, Y+24	; 0x18
    2ace:	fc 01       	movw	r30, r24
    2ad0:	80 81       	ld	r24, Z
    2ad2:	91 81       	ldd	r25, Z+1	; 0x01
    2ad4:	a2 81       	ldd	r26, Z+2	; 0x02
    2ad6:	b3 81       	ldd	r27, Z+3	; 0x03
    2ad8:	c5 57       	subi	r28, 0x75	; 117
    2ada:	df 4f       	sbci	r29, 0xFF	; 255
    2adc:	88 83       	st	Y, r24
    2ade:	99 83       	std	Y+1, r25	; 0x01
    2ae0:	aa 83       	std	Y+2, r26	; 0x02
    2ae2:	bb 83       	std	Y+3, r27	; 0x03
    2ae4:	cb 58       	subi	r28, 0x8B	; 139
    2ae6:	d0 40       	sbci	r29, 0x00	; 0
    2ae8:	bb 0f       	add	r27, r27
    2aea:	88 0b       	sbc	r24, r24
    2aec:	98 2f       	mov	r25, r24
    2aee:	dc 01       	movw	r26, r24
    2af0:	c1 57       	subi	r28, 0x71	; 113
    2af2:	df 4f       	sbci	r29, 0xFF	; 255
    2af4:	88 83       	st	Y, r24
    2af6:	cf 58       	subi	r28, 0x8F	; 143
    2af8:	d0 40       	sbci	r29, 0x00	; 0
    2afa:	c0 57       	subi	r28, 0x70	; 112
    2afc:	df 4f       	sbci	r29, 0xFF	; 255
    2afe:	88 83       	st	Y, r24
    2b00:	c0 59       	subi	r28, 0x90	; 144
    2b02:	d0 40       	sbci	r29, 0x00	; 0
    2b04:	cf 56       	subi	r28, 0x6F	; 111
    2b06:	df 4f       	sbci	r29, 0xFF	; 255
    2b08:	88 83       	st	Y, r24
    2b0a:	c1 59       	subi	r28, 0x91	; 145
    2b0c:	d0 40       	sbci	r29, 0x00	; 0
    2b0e:	ce 56       	subi	r28, 0x6E	; 110
    2b10:	df 4f       	sbci	r29, 0xFF	; 255
    2b12:	88 83       	st	Y, r24
    2b14:	c2 59       	subi	r28, 0x92	; 146
    2b16:	d0 40       	sbci	r29, 0x00	; 0
    2b18:	2d 89       	ldd	r18, Y+21	; 0x15
    2b1a:	3e 89       	ldd	r19, Y+22	; 0x16
    2b1c:	c9 01       	movw	r24, r18
    2b1e:	04 96       	adiw	r24, 0x04	; 4
    2b20:	9e 8b       	std	Y+22, r25	; 0x16
    2b22:	8d 8b       	std	Y+21, r24	; 0x15
    2b24:	f9 01       	movw	r30, r18
    2b26:	80 81       	ld	r24, Z
    2b28:	91 81       	ldd	r25, Z+1	; 0x01
    2b2a:	a2 81       	ldd	r26, Z+2	; 0x02
    2b2c:	b3 81       	ldd	r27, Z+3	; 0x03
    2b2e:	cd 56       	subi	r28, 0x6D	; 109
    2b30:	df 4f       	sbci	r29, 0xFF	; 255
    2b32:	88 83       	st	Y, r24
    2b34:	99 83       	std	Y+1, r25	; 0x01
    2b36:	aa 83       	std	Y+2, r26	; 0x02
    2b38:	bb 83       	std	Y+3, r27	; 0x03
    2b3a:	c3 59       	subi	r28, 0x93	; 147
    2b3c:	d0 40       	sbci	r29, 0x00	; 0
    2b3e:	bb 0f       	add	r27, r27
    2b40:	88 0b       	sbc	r24, r24
    2b42:	98 2f       	mov	r25, r24
    2b44:	dc 01       	movw	r26, r24
    2b46:	c9 56       	subi	r28, 0x69	; 105
    2b48:	df 4f       	sbci	r29, 0xFF	; 255
    2b4a:	88 83       	st	Y, r24
    2b4c:	c7 59       	subi	r28, 0x97	; 151
    2b4e:	d0 40       	sbci	r29, 0x00	; 0
    2b50:	c8 56       	subi	r28, 0x68	; 104
    2b52:	df 4f       	sbci	r29, 0xFF	; 255
    2b54:	88 83       	st	Y, r24
    2b56:	c8 59       	subi	r28, 0x98	; 152
    2b58:	d0 40       	sbci	r29, 0x00	; 0
    2b5a:	c7 56       	subi	r28, 0x67	; 103
    2b5c:	df 4f       	sbci	r29, 0xFF	; 255
    2b5e:	88 83       	st	Y, r24
    2b60:	c9 59       	subi	r28, 0x99	; 153
    2b62:	d0 40       	sbci	r29, 0x00	; 0
    2b64:	c6 56       	subi	r28, 0x66	; 102
    2b66:	df 4f       	sbci	r29, 0xFF	; 255
    2b68:	88 83       	st	Y, r24
    2b6a:	ca 59       	subi	r28, 0x9A	; 154
    2b6c:	d0 40       	sbci	r29, 0x00	; 0
    2b6e:	cd 56       	subi	r28, 0x6D	; 109
    2b70:	df 4f       	sbci	r29, 0xFF	; 255
    2b72:	a8 80       	ld	r10, Y
    2b74:	c3 59       	subi	r28, 0x93	; 147
    2b76:	d0 40       	sbci	r29, 0x00	; 0
    2b78:	cc 56       	subi	r28, 0x6C	; 108
    2b7a:	df 4f       	sbci	r29, 0xFF	; 255
    2b7c:	b8 80       	ld	r11, Y
    2b7e:	c4 59       	subi	r28, 0x94	; 148
    2b80:	d0 40       	sbci	r29, 0x00	; 0
    2b82:	cb 56       	subi	r28, 0x6B	; 107
    2b84:	df 4f       	sbci	r29, 0xFF	; 255
    2b86:	c8 80       	ld	r12, Y
    2b88:	c5 59       	subi	r28, 0x95	; 149
    2b8a:	d0 40       	sbci	r29, 0x00	; 0
    2b8c:	ca 56       	subi	r28, 0x6A	; 106
    2b8e:	df 4f       	sbci	r29, 0xFF	; 255
    2b90:	d8 80       	ld	r13, Y
    2b92:	c6 59       	subi	r28, 0x96	; 150
    2b94:	d0 40       	sbci	r29, 0x00	; 0
    2b96:	c9 56       	subi	r28, 0x69	; 105
    2b98:	df 4f       	sbci	r29, 0xFF	; 255
    2b9a:	e8 80       	ld	r14, Y
    2b9c:	c7 59       	subi	r28, 0x97	; 151
    2b9e:	d0 40       	sbci	r29, 0x00	; 0
    2ba0:	c8 56       	subi	r28, 0x68	; 104
    2ba2:	df 4f       	sbci	r29, 0xFF	; 255
    2ba4:	f8 80       	ld	r15, Y
    2ba6:	c8 59       	subi	r28, 0x98	; 152
    2ba8:	d0 40       	sbci	r29, 0x00	; 0
    2baa:	c7 56       	subi	r28, 0x67	; 103
    2bac:	df 4f       	sbci	r29, 0xFF	; 255
    2bae:	08 81       	ld	r16, Y
    2bb0:	c9 59       	subi	r28, 0x99	; 153
    2bb2:	d0 40       	sbci	r29, 0x00	; 0
    2bb4:	c6 56       	subi	r28, 0x66	; 102
    2bb6:	df 4f       	sbci	r29, 0xFF	; 255
    2bb8:	18 81       	ld	r17, Y
    2bba:	ca 59       	subi	r28, 0x9A	; 154
    2bbc:	d0 40       	sbci	r29, 0x00	; 0
    2bbe:	c5 57       	subi	r28, 0x75	; 117
    2bc0:	df 4f       	sbci	r29, 0xFF	; 255
    2bc2:	28 81       	ld	r18, Y
    2bc4:	cb 58       	subi	r28, 0x8B	; 139
    2bc6:	d0 40       	sbci	r29, 0x00	; 0
    2bc8:	c4 57       	subi	r28, 0x74	; 116
    2bca:	df 4f       	sbci	r29, 0xFF	; 255
    2bcc:	38 81       	ld	r19, Y
    2bce:	cc 58       	subi	r28, 0x8C	; 140
    2bd0:	d0 40       	sbci	r29, 0x00	; 0
    2bd2:	c3 57       	subi	r28, 0x73	; 115
    2bd4:	df 4f       	sbci	r29, 0xFF	; 255
    2bd6:	48 81       	ld	r20, Y
    2bd8:	cd 58       	subi	r28, 0x8D	; 141
    2bda:	d0 40       	sbci	r29, 0x00	; 0
    2bdc:	c2 57       	subi	r28, 0x72	; 114
    2bde:	df 4f       	sbci	r29, 0xFF	; 255
    2be0:	58 81       	ld	r21, Y
    2be2:	ce 58       	subi	r28, 0x8E	; 142
    2be4:	d0 40       	sbci	r29, 0x00	; 0
    2be6:	c1 57       	subi	r28, 0x71	; 113
    2be8:	df 4f       	sbci	r29, 0xFF	; 255
    2bea:	68 81       	ld	r22, Y
    2bec:	cf 58       	subi	r28, 0x8F	; 143
    2bee:	d0 40       	sbci	r29, 0x00	; 0
    2bf0:	c0 57       	subi	r28, 0x70	; 112
    2bf2:	df 4f       	sbci	r29, 0xFF	; 255
    2bf4:	78 81       	ld	r23, Y
    2bf6:	c0 59       	subi	r28, 0x90	; 144
    2bf8:	d0 40       	sbci	r29, 0x00	; 0
    2bfa:	cf 56       	subi	r28, 0x6F	; 111
    2bfc:	df 4f       	sbci	r29, 0xFF	; 255
    2bfe:	88 81       	ld	r24, Y
    2c00:	c1 59       	subi	r28, 0x91	; 145
    2c02:	d0 40       	sbci	r29, 0x00	; 0
    2c04:	ce 56       	subi	r28, 0x6E	; 110
    2c06:	df 4f       	sbci	r29, 0xFF	; 255
    2c08:	98 81       	ld	r25, Y
    2c0a:	c2 59       	subi	r28, 0x92	; 146
    2c0c:	d0 40       	sbci	r29, 0x00	; 0
    2c0e:	0e 94 cd 26 	call	0x4d9a	; 0x4d9a <__muldi3>
    2c12:	22 2e       	mov	r2, r18
    2c14:	33 2e       	mov	r3, r19
    2c16:	44 2e       	mov	r4, r20
    2c18:	55 2e       	mov	r5, r21
    2c1a:	66 2e       	mov	r6, r22
    2c1c:	77 2e       	mov	r7, r23
    2c1e:	88 2e       	mov	r8, r24
    2c20:	99 2e       	mov	r9, r25
    2c22:	a2 2c       	mov	r10, r2
    2c24:	b3 2c       	mov	r11, r3
    2c26:	c4 2c       	mov	r12, r4
    2c28:	d5 2c       	mov	r13, r5
    2c2a:	e6 2c       	mov	r14, r6
    2c2c:	f7 2c       	mov	r15, r7
    2c2e:	08 2d       	mov	r16, r8
    2c30:	19 2d       	mov	r17, r9
    2c32:	2a 2d       	mov	r18, r10
    2c34:	3b 2d       	mov	r19, r11
    2c36:	4c 2d       	mov	r20, r12
    2c38:	5d 2d       	mov	r21, r13
    2c3a:	6e 2d       	mov	r22, r14
    2c3c:	7f 2d       	mov	r23, r15
    2c3e:	80 2f       	mov	r24, r16
    2c40:	91 2f       	mov	r25, r17
    2c42:	ad 80       	ldd	r10, Y+5	; 0x05
    2c44:	be 80       	ldd	r11, Y+6	; 0x06
    2c46:	cf 80       	ldd	r12, Y+7	; 0x07
    2c48:	d8 84       	ldd	r13, Y+8	; 0x08
    2c4a:	e9 84       	ldd	r14, Y+9	; 0x09
    2c4c:	fa 84       	ldd	r15, Y+10	; 0x0a
    2c4e:	0b 85       	ldd	r16, Y+11	; 0x0b
    2c50:	1c 85       	ldd	r17, Y+12	; 0x0c
    2c52:	0e 94 6d 27 	call	0x4eda	; 0x4eda <__adddi3>
    2c56:	a2 2e       	mov	r10, r18
    2c58:	b3 2e       	mov	r11, r19
    2c5a:	c4 2e       	mov	r12, r20
    2c5c:	d5 2e       	mov	r13, r21
    2c5e:	e6 2e       	mov	r14, r22
    2c60:	f7 2e       	mov	r15, r23
    2c62:	08 2f       	mov	r16, r24
    2c64:	19 2f       	mov	r17, r25
    2c66:	ad 82       	std	Y+5, r10	; 0x05
    2c68:	be 82       	std	Y+6, r11	; 0x06
    2c6a:	cf 82       	std	Y+7, r12	; 0x07
    2c6c:	d8 86       	std	Y+8, r13	; 0x08
    2c6e:	e9 86       	std	Y+9, r14	; 0x09
    2c70:	fa 86       	std	Y+10, r15	; 0x0a
    2c72:	0b 87       	std	Y+11, r16	; 0x0b
    2c74:	1c 87       	std	Y+12, r17	; 0x0c
/home/becker/async/wcet-benchmarks/benchmarks/adpcm-decode/adpcm.c:589
    2c76:	8b 8d       	ldd	r24, Y+27	; 0x1b
    2c78:	9c 8d       	ldd	r25, Y+28	; 0x1c
    2c7a:	fc 01       	movw	r30, r24
    2c7c:	80 81       	ld	r24, Z
    2c7e:	91 81       	ldd	r25, Z+1	; 0x01
    2c80:	a2 81       	ldd	r26, Z+2	; 0x02
    2c82:	b3 81       	ldd	r27, Z+3	; 0x03
    2c84:	c5 56       	subi	r28, 0x65	; 101
    2c86:	df 4f       	sbci	r29, 0xFF	; 255
    2c88:	88 83       	st	Y, r24
    2c8a:	99 83       	std	Y+1, r25	; 0x01
    2c8c:	aa 83       	std	Y+2, r26	; 0x02
    2c8e:	bb 83       	std	Y+3, r27	; 0x03
    2c90:	cb 59       	subi	r28, 0x9B	; 155
    2c92:	d0 40       	sbci	r29, 0x00	; 0
    2c94:	bb 0f       	add	r27, r27
    2c96:	88 0b       	sbc	r24, r24
    2c98:	98 2f       	mov	r25, r24
    2c9a:	dc 01       	movw	r26, r24
    2c9c:	c1 56       	subi	r28, 0x61	; 97
    2c9e:	df 4f       	sbci	r29, 0xFF	; 255
    2ca0:	88 83       	st	Y, r24
    2ca2:	cf 59       	subi	r28, 0x9F	; 159
    2ca4:	d0 40       	sbci	r29, 0x00	; 0
    2ca6:	c0 56       	subi	r28, 0x60	; 96
    2ca8:	df 4f       	sbci	r29, 0xFF	; 255
    2caa:	88 83       	st	Y, r24
    2cac:	c0 5a       	subi	r28, 0xA0	; 160
    2cae:	d0 40       	sbci	r29, 0x00	; 0
    2cb0:	cf 55       	subi	r28, 0x5F	; 95
    2cb2:	df 4f       	sbci	r29, 0xFF	; 255
    2cb4:	88 83       	st	Y, r24
    2cb6:	c1 5a       	subi	r28, 0xA1	; 161
    2cb8:	d0 40       	sbci	r29, 0x00	; 0
    2cba:	ce 55       	subi	r28, 0x5E	; 94
    2cbc:	df 4f       	sbci	r29, 0xFF	; 255
    2cbe:	88 83       	st	Y, r24
    2cc0:	c2 5a       	subi	r28, 0xA2	; 162
    2cc2:	d0 40       	sbci	r29, 0x00	; 0
    2cc4:	8d 89       	ldd	r24, Y+21	; 0x15
    2cc6:	9e 89       	ldd	r25, Y+22	; 0x16
    2cc8:	9c 01       	movw	r18, r24
    2cca:	2c 5f       	subi	r18, 0xFC	; 252
    2ccc:	3f 4f       	sbci	r19, 0xFF	; 255
    2cce:	3e 8b       	std	Y+22, r19	; 0x16
    2cd0:	2d 8b       	std	Y+21, r18	; 0x15
    2cd2:	fc 01       	movw	r30, r24
    2cd4:	80 81       	ld	r24, Z
    2cd6:	91 81       	ldd	r25, Z+1	; 0x01
    2cd8:	a2 81       	ldd	r26, Z+2	; 0x02
    2cda:	b3 81       	ldd	r27, Z+3	; 0x03
    2cdc:	cd 55       	subi	r28, 0x5D	; 93
    2cde:	df 4f       	sbci	r29, 0xFF	; 255
    2ce0:	88 83       	st	Y, r24
    2ce2:	99 83       	std	Y+1, r25	; 0x01
    2ce4:	aa 83       	std	Y+2, r26	; 0x02
    2ce6:	bb 83       	std	Y+3, r27	; 0x03
    2ce8:	c3 5a       	subi	r28, 0xA3	; 163
    2cea:	d0 40       	sbci	r29, 0x00	; 0
    2cec:	bb 0f       	add	r27, r27
    2cee:	88 0b       	sbc	r24, r24
    2cf0:	98 2f       	mov	r25, r24
    2cf2:	dc 01       	movw	r26, r24
    2cf4:	c9 55       	subi	r28, 0x59	; 89
    2cf6:	df 4f       	sbci	r29, 0xFF	; 255
    2cf8:	88 83       	st	Y, r24
    2cfa:	c7 5a       	subi	r28, 0xA7	; 167
    2cfc:	d0 40       	sbci	r29, 0x00	; 0
    2cfe:	c8 55       	subi	r28, 0x58	; 88
    2d00:	df 4f       	sbci	r29, 0xFF	; 255
    2d02:	88 83       	st	Y, r24
    2d04:	c8 5a       	subi	r28, 0xA8	; 168
    2d06:	d0 40       	sbci	r29, 0x00	; 0
    2d08:	c7 55       	subi	r28, 0x57	; 87
    2d0a:	df 4f       	sbci	r29, 0xFF	; 255
    2d0c:	88 83       	st	Y, r24
    2d0e:	c9 5a       	subi	r28, 0xA9	; 169
    2d10:	d0 40       	sbci	r29, 0x00	; 0
    2d12:	c6 55       	subi	r28, 0x56	; 86
    2d14:	df 4f       	sbci	r29, 0xFF	; 255
    2d16:	88 83       	st	Y, r24
    2d18:	ca 5a       	subi	r28, 0xAA	; 170
    2d1a:	d0 40       	sbci	r29, 0x00	; 0
    2d1c:	cd 55       	subi	r28, 0x5D	; 93
    2d1e:	df 4f       	sbci	r29, 0xFF	; 255
    2d20:	a8 80       	ld	r10, Y
    2d22:	c3 5a       	subi	r28, 0xA3	; 163
    2d24:	d0 40       	sbci	r29, 0x00	; 0
    2d26:	cc 55       	subi	r28, 0x5C	; 92
    2d28:	df 4f       	sbci	r29, 0xFF	; 255
    2d2a:	b8 80       	ld	r11, Y
    2d2c:	c4 5a       	subi	r28, 0xA4	; 164
    2d2e:	d0 40       	sbci	r29, 0x00	; 0
    2d30:	cb 55       	subi	r28, 0x5B	; 91
    2d32:	df 4f       	sbci	r29, 0xFF	; 255
    2d34:	c8 80       	ld	r12, Y
    2d36:	c5 5a       	subi	r28, 0xA5	; 165
    2d38:	d0 40       	sbci	r29, 0x00	; 0
    2d3a:	ca 55       	subi	r28, 0x5A	; 90
    2d3c:	df 4f       	sbci	r29, 0xFF	; 255
    2d3e:	d8 80       	ld	r13, Y
    2d40:	c6 5a       	subi	r28, 0xA6	; 166
    2d42:	d0 40       	sbci	r29, 0x00	; 0
    2d44:	c9 55       	subi	r28, 0x59	; 89
    2d46:	df 4f       	sbci	r29, 0xFF	; 255
    2d48:	e8 80       	ld	r14, Y
    2d4a:	c7 5a       	subi	r28, 0xA7	; 167
    2d4c:	d0 40       	sbci	r29, 0x00	; 0
    2d4e:	c8 55       	subi	r28, 0x58	; 88
    2d50:	df 4f       	sbci	r29, 0xFF	; 255
    2d52:	f8 80       	ld	r15, Y
    2d54:	c8 5a       	subi	r28, 0xA8	; 168
    2d56:	d0 40       	sbci	r29, 0x00	; 0
    2d58:	c7 55       	subi	r28, 0x57	; 87
    2d5a:	df 4f       	sbci	r29, 0xFF	; 255
    2d5c:	08 81       	ld	r16, Y
    2d5e:	c9 5a       	subi	r28, 0xA9	; 169
    2d60:	d0 40       	sbci	r29, 0x00	; 0
    2d62:	c6 55       	subi	r28, 0x56	; 86
    2d64:	df 4f       	sbci	r29, 0xFF	; 255
    2d66:	18 81       	ld	r17, Y
    2d68:	ca 5a       	subi	r28, 0xAA	; 170
    2d6a:	d0 40       	sbci	r29, 0x00	; 0
    2d6c:	c5 56       	subi	r28, 0x65	; 101
    2d6e:	df 4f       	sbci	r29, 0xFF	; 255
    2d70:	28 81       	ld	r18, Y
    2d72:	cb 59       	subi	r28, 0x9B	; 155
    2d74:	d0 40       	sbci	r29, 0x00	; 0
    2d76:	c4 56       	subi	r28, 0x64	; 100
    2d78:	df 4f       	sbci	r29, 0xFF	; 255
    2d7a:	38 81       	ld	r19, Y
    2d7c:	cc 59       	subi	r28, 0x9C	; 156
    2d7e:	d0 40       	sbci	r29, 0x00	; 0
    2d80:	c3 56       	subi	r28, 0x63	; 99
    2d82:	df 4f       	sbci	r29, 0xFF	; 255
    2d84:	48 81       	ld	r20, Y
    2d86:	cd 59       	subi	r28, 0x9D	; 157
    2d88:	d0 40       	sbci	r29, 0x00	; 0
    2d8a:	c2 56       	subi	r28, 0x62	; 98
    2d8c:	df 4f       	sbci	r29, 0xFF	; 255
    2d8e:	58 81       	ld	r21, Y
    2d90:	ce 59       	subi	r28, 0x9E	; 158
    2d92:	d0 40       	sbci	r29, 0x00	; 0
    2d94:	c1 56       	subi	r28, 0x61	; 97
    2d96:	df 4f       	sbci	r29, 0xFF	; 255
    2d98:	68 81       	ld	r22, Y
    2d9a:	cf 59       	subi	r28, 0x9F	; 159
    2d9c:	d0 40       	sbci	r29, 0x00	; 0
    2d9e:	c0 56       	subi	r28, 0x60	; 96
    2da0:	df 4f       	sbci	r29, 0xFF	; 255
    2da2:	78 81       	ld	r23, Y
    2da4:	c0 5a       	subi	r28, 0xA0	; 160
    2da6:	d0 40       	sbci	r29, 0x00	; 0
    2da8:	cf 55       	subi	r28, 0x5F	; 95
    2daa:	df 4f       	sbci	r29, 0xFF	; 255
    2dac:	88 81       	ld	r24, Y
    2dae:	c1 5a       	subi	r28, 0xA1	; 161
    2db0:	d0 40       	sbci	r29, 0x00	; 0
    2db2:	ce 55       	subi	r28, 0x5E	; 94
    2db4:	df 4f       	sbci	r29, 0xFF	; 255
    2db6:	98 81       	ld	r25, Y
    2db8:	c2 5a       	subi	r28, 0xA2	; 162
    2dba:	d0 40       	sbci	r29, 0x00	; 0
    2dbc:	0e 94 cd 26 	call	0x4d9a	; 0x4d9a <__muldi3>
    2dc0:	22 2e       	mov	r2, r18
    2dc2:	33 2e       	mov	r3, r19
    2dc4:	44 2e       	mov	r4, r20
    2dc6:	55 2e       	mov	r5, r21
    2dc8:	66 2e       	mov	r6, r22
    2dca:	77 2e       	mov	r7, r23
    2dcc:	88 2e       	mov	r8, r24
    2dce:	99 2e       	mov	r9, r25
    2dd0:	a2 2c       	mov	r10, r2
    2dd2:	b3 2c       	mov	r11, r3
    2dd4:	c4 2c       	mov	r12, r4
    2dd6:	d5 2c       	mov	r13, r5
    2dd8:	e6 2c       	mov	r14, r6
    2dda:	f7 2c       	mov	r15, r7
    2ddc:	08 2d       	mov	r16, r8
    2dde:	19 2d       	mov	r17, r9
    2de0:	2a 2d       	mov	r18, r10
    2de2:	3b 2d       	mov	r19, r11
    2de4:	4c 2d       	mov	r20, r12
    2de6:	5d 2d       	mov	r21, r13
    2de8:	6e 2d       	mov	r22, r14
    2dea:	7f 2d       	mov	r23, r15
    2dec:	80 2f       	mov	r24, r16
    2dee:	91 2f       	mov	r25, r17
    2df0:	ad 84       	ldd	r10, Y+13	; 0x0d
    2df2:	be 84       	ldd	r11, Y+14	; 0x0e
    2df4:	cf 84       	ldd	r12, Y+15	; 0x0f
    2df6:	d8 88       	ldd	r13, Y+16	; 0x10
    2df8:	e9 88       	ldd	r14, Y+17	; 0x11
    2dfa:	fa 88       	ldd	r15, Y+18	; 0x12
    2dfc:	0b 89       	ldd	r16, Y+19	; 0x13
    2dfe:	1c 89       	ldd	r17, Y+20	; 0x14
    2e00:	0e 94 6d 27 	call	0x4eda	; 0x4eda <__adddi3>
    2e04:	a2 2e       	mov	r10, r18
    2e06:	b3 2e       	mov	r11, r19
    2e08:	c4 2e       	mov	r12, r20
    2e0a:	d5 2e       	mov	r13, r21
    2e0c:	e6 2e       	mov	r14, r22
    2e0e:	f7 2e       	mov	r15, r23
    2e10:	08 2f       	mov	r16, r24
    2e12:	19 2f       	mov	r17, r25
    2e14:	ad 86       	std	Y+13, r10	; 0x0d
    2e16:	be 86       	std	Y+14, r11	; 0x0e
    2e18:	cf 86       	std	Y+15, r12	; 0x0f
    2e1a:	d8 8a       	std	Y+16, r13	; 0x10
    2e1c:	e9 8a       	std	Y+17, r14	; 0x11
    2e1e:	fa 8a       	std	Y+18, r15	; 0x12
    2e20:	0b 8b       	std	Y+19, r16	; 0x13
    2e22:	1c 8b       	std	Y+20, r17	; 0x14
/home/becker/async/wcet-benchmarks/benchmarks/adpcm-decode/adpcm.c:592
    2e24:	2d 81       	ldd	r18, Y+5	; 0x05
    2e26:	3e 81       	ldd	r19, Y+6	; 0x06
    2e28:	4f 81       	ldd	r20, Y+7	; 0x07
    2e2a:	58 85       	ldd	r21, Y+8	; 0x08
    2e2c:	69 85       	ldd	r22, Y+9	; 0x09
    2e2e:	7a 85       	ldd	r23, Y+10	; 0x0a
    2e30:	8b 85       	ldd	r24, Y+11	; 0x0b
    2e32:	9c 85       	ldd	r25, Y+12	; 0x0c
    2e34:	0e e0       	ldi	r16, 0x0E	; 14
    2e36:	0e 94 4f 27 	call	0x4e9e	; 0x4e9e <__ashrdi3>
    2e3a:	a2 2e       	mov	r10, r18
    2e3c:	b3 2e       	mov	r11, r19
    2e3e:	c4 2e       	mov	r12, r20
    2e40:	d5 2e       	mov	r13, r21
    2e42:	e6 2e       	mov	r14, r22
    2e44:	f7 2e       	mov	r15, r23
    2e46:	08 2f       	mov	r16, r24
    2e48:	19 2f       	mov	r17, r25
    2e4a:	d6 01       	movw	r26, r12
    2e4c:	c5 01       	movw	r24, r10
    2e4e:	80 93 d0 07 	sts	0x07D0, r24
    2e52:	90 93 d1 07 	sts	0x07D1, r25
    2e56:	a0 93 d2 07 	sts	0x07D2, r26
    2e5a:	b0 93 d3 07 	sts	0x07D3, r27
/home/becker/async/wcet-benchmarks/benchmarks/adpcm-decode/adpcm.c:593
    2e5e:	2d 85       	ldd	r18, Y+13	; 0x0d
    2e60:	3e 85       	ldd	r19, Y+14	; 0x0e
    2e62:	4f 85       	ldd	r20, Y+15	; 0x0f
    2e64:	58 89       	ldd	r21, Y+16	; 0x10
    2e66:	69 89       	ldd	r22, Y+17	; 0x11
    2e68:	7a 89       	ldd	r23, Y+18	; 0x12
    2e6a:	8b 89       	ldd	r24, Y+19	; 0x13
    2e6c:	9c 89       	ldd	r25, Y+20	; 0x14
    2e6e:	0e e0       	ldi	r16, 0x0E	; 14
    2e70:	0e 94 4f 27 	call	0x4e9e	; 0x4e9e <__ashrdi3>
    2e74:	a2 2e       	mov	r10, r18
    2e76:	b3 2e       	mov	r11, r19
    2e78:	c4 2e       	mov	r12, r20
    2e7a:	d5 2e       	mov	r13, r21
    2e7c:	e6 2e       	mov	r14, r22
    2e7e:	f7 2e       	mov	r15, r23
    2e80:	08 2f       	mov	r16, r24
    2e82:	19 2f       	mov	r17, r25
    2e84:	d6 01       	movw	r26, r12
    2e86:	c5 01       	movw	r24, r10
    2e88:	80 93 1c 08 	sts	0x081C, r24
    2e8c:	90 93 1d 08 	sts	0x081D, r25
    2e90:	a0 93 1e 08 	sts	0x081E, r26
    2e94:	b0 93 1f 08 	sts	0x081F, r27
/home/becker/async/wcet-benchmarks/benchmarks/adpcm-decode/adpcm.c:596
    2e98:	8f 89       	ldd	r24, Y+23	; 0x17
    2e9a:	98 8d       	ldd	r25, Y+24	; 0x18
    2e9c:	04 97       	sbiw	r24, 0x04	; 4
    2e9e:	9a 8f       	std	Y+26, r25	; 0x1a
    2ea0:	89 8f       	std	Y+25, r24	; 0x19
/home/becker/async/wcet-benchmarks/benchmarks/adpcm-decode/adpcm.c:597
    2ea2:	8b 8d       	ldd	r24, Y+27	; 0x1b
    2ea4:	9c 8d       	ldd	r25, Y+28	; 0x1c
    2ea6:	04 97       	sbiw	r24, 0x04	; 4
    2ea8:	9e 8f       	std	Y+30, r25	; 0x1e
    2eaa:	8d 8f       	std	Y+29, r24	; 0x1d
/home/becker/async/wcet-benchmarks/benchmarks/adpcm-decode/adpcm.c:598
    2eac:	19 82       	std	Y+1, r1	; 0x01
    2eae:	1a 82       	std	Y+2, r1	; 0x02
    2eb0:	1b 82       	std	Y+3, r1	; 0x03
    2eb2:	1c 82       	std	Y+4, r1	; 0x04
    2eb4:	39 c0       	rjmp	.+114    	; 0x2f28 <decode+0x13f8>
/home/becker/async/wcet-benchmarks/benchmarks/adpcm-decode/adpcm.c:599 (discriminator 2)
    2eb6:	2f 89       	ldd	r18, Y+23	; 0x17
    2eb8:	38 8d       	ldd	r19, Y+24	; 0x18
    2eba:	c9 01       	movw	r24, r18
    2ebc:	04 97       	sbiw	r24, 0x04	; 4
    2ebe:	98 8f       	std	Y+24, r25	; 0x18
    2ec0:	8f 8b       	std	Y+23, r24	; 0x17
    2ec2:	89 8d       	ldd	r24, Y+25	; 0x19
    2ec4:	9a 8d       	ldd	r25, Y+26	; 0x1a
    2ec6:	ac 01       	movw	r20, r24
    2ec8:	44 50       	subi	r20, 0x04	; 4
    2eca:	51 09       	sbc	r21, r1
    2ecc:	5a 8f       	std	Y+26, r21	; 0x1a
    2ece:	49 8f       	std	Y+25, r20	; 0x19
    2ed0:	fc 01       	movw	r30, r24
    2ed2:	80 81       	ld	r24, Z
    2ed4:	91 81       	ldd	r25, Z+1	; 0x01
    2ed6:	a2 81       	ldd	r26, Z+2	; 0x02
    2ed8:	b3 81       	ldd	r27, Z+3	; 0x03
    2eda:	f9 01       	movw	r30, r18
    2edc:	80 83       	st	Z, r24
    2ede:	91 83       	std	Z+1, r25	; 0x01
    2ee0:	a2 83       	std	Z+2, r26	; 0x02
    2ee2:	b3 83       	std	Z+3, r27	; 0x03
/home/becker/async/wcet-benchmarks/benchmarks/adpcm-decode/adpcm.c:600 (discriminator 2)
    2ee4:	2b 8d       	ldd	r18, Y+27	; 0x1b
    2ee6:	3c 8d       	ldd	r19, Y+28	; 0x1c
    2ee8:	c9 01       	movw	r24, r18
    2eea:	04 97       	sbiw	r24, 0x04	; 4
    2eec:	9c 8f       	std	Y+28, r25	; 0x1c
    2eee:	8b 8f       	std	Y+27, r24	; 0x1b
    2ef0:	8d 8d       	ldd	r24, Y+29	; 0x1d
    2ef2:	9e 8d       	ldd	r25, Y+30	; 0x1e
    2ef4:	ac 01       	movw	r20, r24
    2ef6:	44 50       	subi	r20, 0x04	; 4
    2ef8:	51 09       	sbc	r21, r1
    2efa:	5e 8f       	std	Y+30, r21	; 0x1e
    2efc:	4d 8f       	std	Y+29, r20	; 0x1d
    2efe:	fc 01       	movw	r30, r24
    2f00:	80 81       	ld	r24, Z
    2f02:	91 81       	ldd	r25, Z+1	; 0x01
    2f04:	a2 81       	ldd	r26, Z+2	; 0x02
    2f06:	b3 81       	ldd	r27, Z+3	; 0x03
    2f08:	f9 01       	movw	r30, r18
    2f0a:	80 83       	st	Z, r24
    2f0c:	91 83       	std	Z+1, r25	; 0x01
    2f0e:	a2 83       	std	Z+2, r26	; 0x02
    2f10:	b3 83       	std	Z+3, r27	; 0x03
/home/becker/async/wcet-benchmarks/benchmarks/adpcm-decode/adpcm.c:598 (discriminator 2)
    2f12:	89 81       	ldd	r24, Y+1	; 0x01
    2f14:	9a 81       	ldd	r25, Y+2	; 0x02
    2f16:	ab 81       	ldd	r26, Y+3	; 0x03
    2f18:	bc 81       	ldd	r27, Y+4	; 0x04
    2f1a:	01 96       	adiw	r24, 0x01	; 1
    2f1c:	a1 1d       	adc	r26, r1
    2f1e:	b1 1d       	adc	r27, r1
    2f20:	89 83       	std	Y+1, r24	; 0x01
    2f22:	9a 83       	std	Y+2, r25	; 0x02
    2f24:	ab 83       	std	Y+3, r26	; 0x03
    2f26:	bc 83       	std	Y+4, r27	; 0x04
/home/becker/async/wcet-benchmarks/benchmarks/adpcm-decode/adpcm.c:598 (discriminator 1)
    2f28:	89 81       	ldd	r24, Y+1	; 0x01
    2f2a:	9a 81       	ldd	r25, Y+2	; 0x02
    2f2c:	ab 81       	ldd	r26, Y+3	; 0x03
    2f2e:	bc 81       	ldd	r27, Y+4	; 0x04
    2f30:	8a 30       	cpi	r24, 0x0A	; 10
    2f32:	91 05       	cpc	r25, r1
    2f34:	a1 05       	cpc	r26, r1
    2f36:	b1 05       	cpc	r27, r1
    2f38:	0c f4       	brge	.+2      	; 0x2f3c <decode+0x140c>
    2f3a:	bd cf       	rjmp	.-134    	; 0x2eb6 <decode+0x1386>
/home/becker/async/wcet-benchmarks/benchmarks/adpcm-decode/adpcm.c:602
    2f3c:	80 91 f8 08 	lds	r24, 0x08F8
    2f40:	90 91 f9 08 	lds	r25, 0x08F9
    2f44:	a0 91 fa 08 	lds	r26, 0x08FA
    2f48:	b0 91 fb 08 	lds	r27, 0x08FB
    2f4c:	2f 89       	ldd	r18, Y+23	; 0x17
    2f4e:	38 8d       	ldd	r19, Y+24	; 0x18
    2f50:	f9 01       	movw	r30, r18
    2f52:	80 83       	st	Z, r24
    2f54:	91 83       	std	Z+1, r25	; 0x01
    2f56:	a2 83       	std	Z+2, r26	; 0x02
    2f58:	b3 83       	std	Z+3, r27	; 0x03
/home/becker/async/wcet-benchmarks/benchmarks/adpcm-decode/adpcm.c:603
    2f5a:	80 91 94 09 	lds	r24, 0x0994
    2f5e:	90 91 95 09 	lds	r25, 0x0995
    2f62:	a0 91 96 09 	lds	r26, 0x0996
    2f66:	b0 91 97 09 	lds	r27, 0x0997
    2f6a:	2b 8d       	ldd	r18, Y+27	; 0x1b
    2f6c:	3c 8d       	ldd	r19, Y+28	; 0x1c
    2f6e:	f9 01       	movw	r30, r18
    2f70:	80 83       	st	Z, r24
    2f72:	91 83       	std	Z+1, r25	; 0x01
    2f74:	a2 83       	std	Z+2, r26	; 0x02
    2f76:	b3 83       	std	Z+3, r27	; 0x03
/home/becker/async/wcet-benchmarks/benchmarks/adpcm-decode/adpcm.c:605
    2f78:	00 00       	nop
/home/becker/async/wcet-benchmarks/benchmarks/adpcm-decode/adpcm.c:606
    2f7a:	c6 55       	subi	r28, 0x56	; 86
    2f7c:	df 4f       	sbci	r29, 0xFF	; 255
    2f7e:	0f b6       	in	r0, 0x3f	; 63
    2f80:	f8 94       	cli
    2f82:	de bf       	out	0x3e, r29	; 62
    2f84:	0f be       	out	0x3f, r0	; 63
    2f86:	cd bf       	out	0x3d, r28	; 61
    2f88:	df 91       	pop	r29
    2f8a:	cf 91       	pop	r28
    2f8c:	1f 91       	pop	r17
    2f8e:	0f 91       	pop	r16
    2f90:	ff 90       	pop	r15
    2f92:	ef 90       	pop	r14
    2f94:	df 90       	pop	r13
    2f96:	cf 90       	pop	r12
    2f98:	bf 90       	pop	r11
    2f9a:	af 90       	pop	r10
    2f9c:	9f 90       	pop	r9
    2f9e:	8f 90       	pop	r8
    2fa0:	7f 90       	pop	r7
    2fa2:	6f 90       	pop	r6
    2fa4:	5f 90       	pop	r5
    2fa6:	4f 90       	pop	r4
    2fa8:	3f 90       	pop	r3
    2faa:	2f 90       	pop	r2
    2fac:	08 95       	ret

00002fae <reset>:
reset():
/home/becker/async/wcet-benchmarks/benchmarks/adpcm-decode/adpcm.c:611
    2fae:	cf 93       	push	r28
    2fb0:	df 93       	push	r29
    2fb2:	00 d0       	rcall	.+0      	; 0x2fb4 <reset+0x6>
    2fb4:	00 d0       	rcall	.+0      	; 0x2fb6 <reset+0x8>
    2fb6:	cd b7       	in	r28, 0x3d	; 61
    2fb8:	de b7       	in	r29, 0x3e	; 62
/home/becker/async/wcet-benchmarks/benchmarks/adpcm-decode/adpcm.c:614
    2fba:	80 e2       	ldi	r24, 0x20	; 32
    2fbc:	90 e0       	ldi	r25, 0x00	; 0
    2fbe:	a0 e0       	ldi	r26, 0x00	; 0
    2fc0:	b0 e0       	ldi	r27, 0x00	; 0
    2fc2:	80 93 00 09 	sts	0x0900, r24
    2fc6:	90 93 01 09 	sts	0x0901, r25
    2fca:	a0 93 02 09 	sts	0x0902, r26
    2fce:	b0 93 03 09 	sts	0x0903, r27
    2fd2:	80 91 00 09 	lds	r24, 0x0900
    2fd6:	90 91 01 09 	lds	r25, 0x0901
    2fda:	a0 91 02 09 	lds	r26, 0x0902
    2fde:	b0 91 03 09 	lds	r27, 0x0903
    2fe2:	80 93 b8 07 	sts	0x07B8, r24
    2fe6:	90 93 b9 07 	sts	0x07B9, r25
    2fea:	a0 93 ba 07 	sts	0x07BA, r26
    2fee:	b0 93 bb 07 	sts	0x07BB, r27
/home/becker/async/wcet-benchmarks/benchmarks/adpcm-decode/adpcm.c:615
    2ff2:	88 e0       	ldi	r24, 0x08	; 8
    2ff4:	90 e0       	ldi	r25, 0x00	; 0
    2ff6:	a0 e0       	ldi	r26, 0x00	; 0
    2ff8:	b0 e0       	ldi	r27, 0x00	; 0
    2ffa:	80 93 20 08 	sts	0x0820, r24
    2ffe:	90 93 21 08 	sts	0x0821, r25
    3002:	a0 93 22 08 	sts	0x0822, r26
    3006:	b0 93 23 08 	sts	0x0823, r27
    300a:	80 91 20 08 	lds	r24, 0x0820
    300e:	90 91 21 08 	lds	r25, 0x0821
    3012:	a0 91 22 08 	lds	r26, 0x0822
    3016:	b0 91 23 08 	lds	r27, 0x0823
    301a:	80 93 08 08 	sts	0x0808, r24
    301e:	90 93 09 08 	sts	0x0809, r25
    3022:	a0 93 0a 08 	sts	0x080A, r26
    3026:	b0 93 0b 08 	sts	0x080B, r27
/home/becker/async/wcet-benchmarks/benchmarks/adpcm-decode/adpcm.c:616
    302a:	10 92 24 08 	sts	0x0824, r1
    302e:	10 92 25 08 	sts	0x0825, r1
    3032:	10 92 26 08 	sts	0x0826, r1
    3036:	10 92 27 08 	sts	0x0827, r1
    303a:	80 91 24 08 	lds	r24, 0x0824
    303e:	90 91 25 08 	lds	r25, 0x0825
    3042:	a0 91 26 08 	lds	r26, 0x0826
    3046:	b0 91 27 08 	lds	r27, 0x0827
    304a:	80 93 68 09 	sts	0x0968, r24
    304e:	90 93 69 09 	sts	0x0969, r25
    3052:	a0 93 6a 09 	sts	0x096A, r26
    3056:	b0 93 6b 09 	sts	0x096B, r27
    305a:	80 91 68 09 	lds	r24, 0x0968
    305e:	90 91 69 09 	lds	r25, 0x0969
    3062:	a0 91 6a 09 	lds	r26, 0x096A
    3066:	b0 91 6b 09 	lds	r27, 0x096B
    306a:	80 93 fc 08 	sts	0x08FC, r24
    306e:	90 93 fd 08 	sts	0x08FD, r25
    3072:	a0 93 fe 08 	sts	0x08FE, r26
    3076:	b0 93 ff 08 	sts	0x08FF, r27
    307a:	80 91 fc 08 	lds	r24, 0x08FC
    307e:	90 91 fd 08 	lds	r25, 0x08FD
    3082:	a0 91 fe 08 	lds	r26, 0x08FE
    3086:	b0 91 ff 08 	lds	r27, 0x08FF
    308a:	80 93 34 09 	sts	0x0934, r24
    308e:	90 93 35 09 	sts	0x0935, r25
    3092:	a0 93 36 09 	sts	0x0936, r26
    3096:	b0 93 37 09 	sts	0x0937, r27
    309a:	80 91 34 09 	lds	r24, 0x0934
    309e:	90 91 35 09 	lds	r25, 0x0935
    30a2:	a0 91 36 09 	lds	r26, 0x0936
    30a6:	b0 91 37 09 	lds	r27, 0x0937
    30aa:	80 93 40 09 	sts	0x0940, r24
    30ae:	90 93 41 09 	sts	0x0941, r25
    30b2:	a0 93 42 09 	sts	0x0942, r26
    30b6:	b0 93 43 09 	sts	0x0943, r27
    30ba:	80 91 40 09 	lds	r24, 0x0940
    30be:	90 91 41 09 	lds	r25, 0x0941
    30c2:	a0 91 42 09 	lds	r26, 0x0942
    30c6:	b0 91 43 09 	lds	r27, 0x0943
    30ca:	80 93 98 09 	sts	0x0998, r24
    30ce:	90 93 99 09 	sts	0x0999, r25
    30d2:	a0 93 9a 09 	sts	0x099A, r26
    30d6:	b0 93 9b 09 	sts	0x099B, r27
    30da:	80 91 98 09 	lds	r24, 0x0998
    30de:	90 91 99 09 	lds	r25, 0x0999
    30e2:	a0 91 9a 09 	lds	r26, 0x099A
    30e6:	b0 91 9b 09 	lds	r27, 0x099B
    30ea:	80 93 40 07 	sts	0x0740, r24
    30ee:	90 93 41 07 	sts	0x0741, r25
    30f2:	a0 93 42 07 	sts	0x0742, r26
    30f6:	b0 93 43 07 	sts	0x0743, r27
/home/becker/async/wcet-benchmarks/benchmarks/adpcm-decode/adpcm.c:617
    30fa:	10 92 28 07 	sts	0x0728, r1
    30fe:	10 92 29 07 	sts	0x0729, r1
    3102:	10 92 2a 07 	sts	0x072A, r1
    3106:	10 92 2b 07 	sts	0x072B, r1
    310a:	80 91 28 07 	lds	r24, 0x0728
    310e:	90 91 29 07 	lds	r25, 0x0729
    3112:	a0 91 2a 07 	lds	r26, 0x072A
    3116:	b0 91 2b 07 	lds	r27, 0x072B
    311a:	80 93 d8 08 	sts	0x08D8, r24
    311e:	90 93 d9 08 	sts	0x08D9, r25
    3122:	a0 93 da 08 	sts	0x08DA, r26
    3126:	b0 93 db 08 	sts	0x08DB, r27
    312a:	80 91 d8 08 	lds	r24, 0x08D8
    312e:	90 91 d9 08 	lds	r25, 0x08D9
    3132:	a0 91 da 08 	lds	r26, 0x08DA
    3136:	b0 91 db 08 	lds	r27, 0x08DB
    313a:	80 93 28 08 	sts	0x0828, r24
    313e:	90 93 29 08 	sts	0x0829, r25
    3142:	a0 93 2a 08 	sts	0x082A, r26
    3146:	b0 93 2b 08 	sts	0x082B, r27
    314a:	80 91 28 08 	lds	r24, 0x0828
    314e:	90 91 29 08 	lds	r25, 0x0829
    3152:	a0 91 2a 08 	lds	r26, 0x082A
    3156:	b0 91 2b 08 	lds	r27, 0x082B
    315a:	80 93 74 08 	sts	0x0874, r24
    315e:	90 93 75 08 	sts	0x0875, r25
    3162:	a0 93 76 08 	sts	0x0876, r26
    3166:	b0 93 77 08 	sts	0x0877, r27
    316a:	80 91 74 08 	lds	r24, 0x0874
    316e:	90 91 75 08 	lds	r25, 0x0875
    3172:	a0 91 76 08 	lds	r26, 0x0876
    3176:	b0 91 77 08 	lds	r27, 0x0877
    317a:	80 93 30 08 	sts	0x0830, r24
    317e:	90 93 31 08 	sts	0x0831, r25
    3182:	a0 93 32 08 	sts	0x0832, r26
    3186:	b0 93 33 08 	sts	0x0833, r27
    318a:	80 91 30 08 	lds	r24, 0x0830
    318e:	90 91 31 08 	lds	r25, 0x0831
    3192:	a0 91 32 08 	lds	r26, 0x0832
    3196:	b0 91 33 08 	lds	r27, 0x0833
    319a:	80 93 c4 07 	sts	0x07C4, r24
    319e:	90 93 c5 07 	sts	0x07C5, r25
    31a2:	a0 93 c6 07 	sts	0x07C6, r26
    31a6:	b0 93 c7 07 	sts	0x07C7, r27
    31aa:	80 91 c4 07 	lds	r24, 0x07C4
    31ae:	90 91 c5 07 	lds	r25, 0x07C5
    31b2:	a0 91 c6 07 	lds	r26, 0x07C6
    31b6:	b0 91 c7 07 	lds	r27, 0x07C7
    31ba:	80 93 4c 09 	sts	0x094C, r24
    31be:	90 93 4d 09 	sts	0x094D, r25
    31c2:	a0 93 4e 09 	sts	0x094E, r26
    31c6:	b0 93 4f 09 	sts	0x094F, r27
/home/becker/async/wcet-benchmarks/benchmarks/adpcm-decode/adpcm.c:618
    31ca:	10 92 0c 08 	sts	0x080C, r1
    31ce:	10 92 0d 08 	sts	0x080D, r1
    31d2:	10 92 0e 08 	sts	0x080E, r1
    31d6:	10 92 0f 08 	sts	0x080F, r1
    31da:	80 91 0c 08 	lds	r24, 0x080C
    31de:	90 91 0d 08 	lds	r25, 0x080D
    31e2:	a0 91 0e 08 	lds	r26, 0x080E
    31e6:	b0 91 0f 08 	lds	r27, 0x080F
    31ea:	80 93 10 08 	sts	0x0810, r24
    31ee:	90 93 11 08 	sts	0x0811, r25
    31f2:	a0 93 12 08 	sts	0x0812, r26
    31f6:	b0 93 13 08 	sts	0x0813, r27
    31fa:	80 91 10 08 	lds	r24, 0x0810
    31fe:	90 91 11 08 	lds	r25, 0x0811
    3202:	a0 91 12 08 	lds	r26, 0x0812
    3206:	b0 91 13 08 	lds	r27, 0x0813
    320a:	80 93 24 07 	sts	0x0724, r24
    320e:	90 93 25 07 	sts	0x0725, r25
    3212:	a0 93 26 07 	sts	0x0726, r26
    3216:	b0 93 27 07 	sts	0x0727, r27
    321a:	80 91 24 07 	lds	r24, 0x0724
    321e:	90 91 25 07 	lds	r25, 0x0725
    3222:	a0 91 26 07 	lds	r26, 0x0726
    3226:	b0 91 27 07 	lds	r27, 0x0727
    322a:	80 93 3c 07 	sts	0x073C, r24
    322e:	90 93 3d 07 	sts	0x073D, r25
    3232:	a0 93 3e 07 	sts	0x073E, r26
    3236:	b0 93 3f 07 	sts	0x073F, r27
    323a:	80 91 3c 07 	lds	r24, 0x073C
    323e:	90 91 3d 07 	lds	r25, 0x073D
    3242:	a0 91 3e 07 	lds	r26, 0x073E
    3246:	b0 91 3f 07 	lds	r27, 0x073F
    324a:	80 93 04 09 	sts	0x0904, r24
    324e:	90 93 05 09 	sts	0x0905, r25
    3252:	a0 93 06 09 	sts	0x0906, r26
    3256:	b0 93 07 09 	sts	0x0907, r27
    325a:	80 91 04 09 	lds	r24, 0x0904
    325e:	90 91 05 09 	lds	r25, 0x0905
    3262:	a0 91 06 09 	lds	r26, 0x0906
    3266:	b0 91 07 09 	lds	r27, 0x0907
    326a:	80 93 84 09 	sts	0x0984, r24
    326e:	90 93 85 09 	sts	0x0985, r25
    3272:	a0 93 86 09 	sts	0x0986, r26
    3276:	b0 93 87 09 	sts	0x0987, r27
    327a:	80 91 84 09 	lds	r24, 0x0984
    327e:	90 91 85 09 	lds	r25, 0x0985
    3282:	a0 91 86 09 	lds	r26, 0x0986
    3286:	b0 91 87 09 	lds	r27, 0x0987
    328a:	80 93 60 08 	sts	0x0860, r24
    328e:	90 93 61 08 	sts	0x0861, r25
    3292:	a0 93 62 08 	sts	0x0862, r26
    3296:	b0 93 63 08 	sts	0x0863, r27
/home/becker/async/wcet-benchmarks/benchmarks/adpcm-decode/adpcm.c:619
    329a:	10 92 3c 09 	sts	0x093C, r1
    329e:	10 92 3d 09 	sts	0x093D, r1
    32a2:	10 92 3e 09 	sts	0x093E, r1
    32a6:	10 92 3f 09 	sts	0x093F, r1
    32aa:	80 91 3c 09 	lds	r24, 0x093C
    32ae:	90 91 3d 09 	lds	r25, 0x093D
    32b2:	a0 91 3e 09 	lds	r26, 0x093E
    32b6:	b0 91 3f 09 	lds	r27, 0x093F
    32ba:	80 93 44 09 	sts	0x0944, r24
    32be:	90 93 45 09 	sts	0x0945, r25
    32c2:	a0 93 46 09 	sts	0x0946, r26
    32c6:	b0 93 47 09 	sts	0x0947, r27
    32ca:	80 91 44 09 	lds	r24, 0x0944
    32ce:	90 91 45 09 	lds	r25, 0x0945
    32d2:	a0 91 46 09 	lds	r26, 0x0946
    32d6:	b0 91 47 09 	lds	r27, 0x0947
    32da:	80 93 dc 07 	sts	0x07DC, r24
    32de:	90 93 dd 07 	sts	0x07DD, r25
    32e2:	a0 93 de 07 	sts	0x07DE, r26
    32e6:	b0 93 df 07 	sts	0x07DF, r27
    32ea:	80 91 dc 07 	lds	r24, 0x07DC
    32ee:	90 91 dd 07 	lds	r25, 0x07DD
    32f2:	a0 91 de 07 	lds	r26, 0x07DE
    32f6:	b0 91 df 07 	lds	r27, 0x07DF
    32fa:	80 93 78 07 	sts	0x0778, r24
    32fe:	90 93 79 07 	sts	0x0779, r25
    3302:	a0 93 7a 07 	sts	0x077A, r26
    3306:	b0 93 7b 07 	sts	0x077B, r27
    330a:	80 91 78 07 	lds	r24, 0x0778
    330e:	90 91 79 07 	lds	r25, 0x0779
    3312:	a0 91 7a 07 	lds	r26, 0x077A
    3316:	b0 91 7b 07 	lds	r27, 0x077B
    331a:	80 93 90 09 	sts	0x0990, r24
    331e:	90 93 91 09 	sts	0x0991, r25
    3322:	a0 93 92 09 	sts	0x0992, r26
    3326:	b0 93 93 09 	sts	0x0993, r27
    332a:	80 91 90 09 	lds	r24, 0x0990
    332e:	90 91 91 09 	lds	r25, 0x0991
    3332:	a0 91 92 09 	lds	r26, 0x0992
    3336:	b0 91 93 09 	lds	r27, 0x0993
    333a:	80 93 f8 07 	sts	0x07F8, r24
    333e:	90 93 f9 07 	sts	0x07F9, r25
    3342:	a0 93 fa 07 	sts	0x07FA, r26
    3346:	b0 93 fb 07 	sts	0x07FB, r27
    334a:	80 91 f8 07 	lds	r24, 0x07F8
    334e:	90 91 f9 07 	lds	r25, 0x07F9
    3352:	a0 91 fa 07 	lds	r26, 0x07FA
    3356:	b0 91 fb 07 	lds	r27, 0x07FB
    335a:	80 93 44 07 	sts	0x0744, r24
    335e:	90 93 45 07 	sts	0x0745, r25
    3362:	a0 93 46 07 	sts	0x0746, r26
    3366:	b0 93 47 07 	sts	0x0747, r27
/home/becker/async/wcet-benchmarks/benchmarks/adpcm-decode/adpcm.c:621
    336a:	19 82       	std	Y+1, r1	; 0x01
    336c:	1a 82       	std	Y+2, r1	; 0x02
    336e:	1b 82       	std	Y+3, r1	; 0x03
    3370:	1c 82       	std	Y+4, r1	; 0x04
    3372:	3f c0       	rjmp	.+126    	; 0x33f2 <reset+0x444>
/home/becker/async/wcet-benchmarks/benchmarks/adpcm-decode/adpcm.c:622 (discriminator 2)
    3374:	89 81       	ldd	r24, Y+1	; 0x01
    3376:	9a 81       	ldd	r25, Y+2	; 0x02
    3378:	88 0f       	add	r24, r24
    337a:	99 1f       	adc	r25, r25
    337c:	88 0f       	add	r24, r24
    337e:	99 1f       	adc	r25, r25
    3380:	88 5b       	subi	r24, 0xB8	; 184
    3382:	98 4f       	sbci	r25, 0xF8	; 248
    3384:	fc 01       	movw	r30, r24
    3386:	10 82       	st	Z, r1
    3388:	11 82       	std	Z+1, r1	; 0x01
    338a:	12 82       	std	Z+2, r1	; 0x02
    338c:	13 82       	std	Z+3, r1	; 0x03
/home/becker/async/wcet-benchmarks/benchmarks/adpcm-decode/adpcm.c:623 (discriminator 2)
    338e:	89 81       	ldd	r24, Y+1	; 0x01
    3390:	9a 81       	ldd	r25, Y+2	; 0x02
    3392:	88 0f       	add	r24, r24
    3394:	99 1f       	adc	r25, r25
    3396:	88 0f       	add	r24, r24
    3398:	99 1f       	adc	r25, r25
    339a:	8c 5b       	subi	r24, 0xBC	; 188
    339c:	97 4f       	sbci	r25, 0xF7	; 247
    339e:	fc 01       	movw	r30, r24
    33a0:	10 82       	st	Z, r1
    33a2:	11 82       	std	Z+1, r1	; 0x01
    33a4:	12 82       	std	Z+2, r1	; 0x02
    33a6:	13 82       	std	Z+3, r1	; 0x03
/home/becker/async/wcet-benchmarks/benchmarks/adpcm-decode/adpcm.c:624 (discriminator 2)
    33a8:	89 81       	ldd	r24, Y+1	; 0x01
    33aa:	9a 81       	ldd	r25, Y+2	; 0x02
    33ac:	88 0f       	add	r24, r24
    33ae:	99 1f       	adc	r25, r25
    33b0:	88 0f       	add	r24, r24
    33b2:	99 1f       	adc	r25, r25
    33b4:	80 5a       	subi	r24, 0xA0	; 160
    33b6:	98 4f       	sbci	r25, 0xF8	; 248
    33b8:	fc 01       	movw	r30, r24
    33ba:	10 82       	st	Z, r1
    33bc:	11 82       	std	Z+1, r1	; 0x01
    33be:	12 82       	std	Z+2, r1	; 0x02
    33c0:	13 82       	std	Z+3, r1	; 0x03
/home/becker/async/wcet-benchmarks/benchmarks/adpcm-decode/adpcm.c:625 (discriminator 2)
    33c2:	89 81       	ldd	r24, Y+1	; 0x01
    33c4:	9a 81       	ldd	r25, Y+2	; 0x02
    33c6:	88 0f       	add	r24, r24
    33c8:	99 1f       	adc	r25, r25
    33ca:	88 0f       	add	r24, r24
    33cc:	99 1f       	adc	r25, r25
    33ce:	80 52       	subi	r24, 0x20	; 32
    33d0:	98 4f       	sbci	r25, 0xF8	; 248
    33d2:	fc 01       	movw	r30, r24
    33d4:	10 82       	st	Z, r1
    33d6:	11 82       	std	Z+1, r1	; 0x01
    33d8:	12 82       	std	Z+2, r1	; 0x02
    33da:	13 82       	std	Z+3, r1	; 0x03
/home/becker/async/wcet-benchmarks/benchmarks/adpcm-decode/adpcm.c:621 (discriminator 2)
    33dc:	89 81       	ldd	r24, Y+1	; 0x01
    33de:	9a 81       	ldd	r25, Y+2	; 0x02
    33e0:	ab 81       	ldd	r26, Y+3	; 0x03
    33e2:	bc 81       	ldd	r27, Y+4	; 0x04
    33e4:	01 96       	adiw	r24, 0x01	; 1
    33e6:	a1 1d       	adc	r26, r1
    33e8:	b1 1d       	adc	r27, r1
    33ea:	89 83       	std	Y+1, r24	; 0x01
    33ec:	9a 83       	std	Y+2, r25	; 0x02
    33ee:	ab 83       	std	Y+3, r26	; 0x03
    33f0:	bc 83       	std	Y+4, r27	; 0x04
/home/becker/async/wcet-benchmarks/benchmarks/adpcm-decode/adpcm.c:621 (discriminator 1)
    33f2:	89 81       	ldd	r24, Y+1	; 0x01
    33f4:	9a 81       	ldd	r25, Y+2	; 0x02
    33f6:	ab 81       	ldd	r26, Y+3	; 0x03
    33f8:	bc 81       	ldd	r27, Y+4	; 0x04
    33fa:	86 30       	cpi	r24, 0x06	; 6
    33fc:	91 05       	cpc	r25, r1
    33fe:	a1 05       	cpc	r26, r1
    3400:	b1 05       	cpc	r27, r1
    3402:	0c f4       	brge	.+2      	; 0x3406 <reset+0x458>
    3404:	b7 cf       	rjmp	.-146    	; 0x3374 <reset+0x3c6>
/home/becker/async/wcet-benchmarks/benchmarks/adpcm-decode/adpcm.c:628
    3406:	19 82       	std	Y+1, r1	; 0x01
    3408:	1a 82       	std	Y+2, r1	; 0x02
    340a:	1b 82       	std	Y+3, r1	; 0x03
    340c:	1c 82       	std	Y+4, r1	; 0x04
    340e:	3f c0       	rjmp	.+126    	; 0x348e <reset+0x4e0>
/home/becker/async/wcet-benchmarks/benchmarks/adpcm-decode/adpcm.c:629 (discriminator 2)
    3410:	89 81       	ldd	r24, Y+1	; 0x01
    3412:	9a 81       	ldd	r25, Y+2	; 0x02
    3414:	88 0f       	add	r24, r24
    3416:	99 1f       	adc	r25, r25
    3418:	88 0f       	add	r24, r24
    341a:	99 1f       	adc	r25, r25
    341c:	80 5b       	subi	r24, 0xB0	; 176
    341e:	96 4f       	sbci	r25, 0xF6	; 246
    3420:	fc 01       	movw	r30, r24
    3422:	10 82       	st	Z, r1
    3424:	11 82       	std	Z+1, r1	; 0x01
    3426:	12 82       	std	Z+2, r1	; 0x02
    3428:	13 82       	std	Z+3, r1	; 0x03
/home/becker/async/wcet-benchmarks/benchmarks/adpcm-decode/adpcm.c:630 (discriminator 2)
    342a:	89 81       	ldd	r24, Y+1	; 0x01
    342c:	9a 81       	ldd	r25, Y+2	; 0x02
    342e:	88 0f       	add	r24, r24
    3430:	99 1f       	adc	r25, r25
    3432:	88 0f       	add	r24, r24
    3434:	99 1f       	adc	r25, r25
    3436:	80 56       	subi	r24, 0x60	; 96
    3438:	96 4f       	sbci	r25, 0xF6	; 246
    343a:	fc 01       	movw	r30, r24
    343c:	10 82       	st	Z, r1
    343e:	11 82       	std	Z+1, r1	; 0x01
    3440:	12 82       	std	Z+2, r1	; 0x02
    3442:	13 82       	std	Z+3, r1	; 0x03
/home/becker/async/wcet-benchmarks/benchmarks/adpcm-decode/adpcm.c:631 (discriminator 2)
    3444:	89 81       	ldd	r24, Y+1	; 0x01
    3446:	9a 81       	ldd	r25, Y+2	; 0x02
    3448:	88 0f       	add	r24, r24
    344a:	99 1f       	adc	r25, r25
    344c:	88 0f       	add	r24, r24
    344e:	99 1f       	adc	r25, r25
    3450:	84 59       	subi	r24, 0x94	; 148
    3452:	96 4f       	sbci	r25, 0xF6	; 246
    3454:	fc 01       	movw	r30, r24
    3456:	10 82       	st	Z, r1
    3458:	11 82       	std	Z+1, r1	; 0x01
    345a:	12 82       	std	Z+2, r1	; 0x02
    345c:	13 82       	std	Z+3, r1	; 0x03
/home/becker/async/wcet-benchmarks/benchmarks/adpcm-decode/adpcm.c:632 (discriminator 2)
    345e:	89 81       	ldd	r24, Y+1	; 0x01
    3460:	9a 81       	ldd	r25, Y+2	; 0x02
    3462:	88 0f       	add	r24, r24
    3464:	99 1f       	adc	r25, r25
    3466:	88 0f       	add	r24, r24
    3468:	99 1f       	adc	r25, r25
    346a:	80 52       	subi	r24, 0x20	; 32
    346c:	97 4f       	sbci	r25, 0xF7	; 247
    346e:	fc 01       	movw	r30, r24
    3470:	10 82       	st	Z, r1
    3472:	11 82       	std	Z+1, r1	; 0x01
    3474:	12 82       	std	Z+2, r1	; 0x02
    3476:	13 82       	std	Z+3, r1	; 0x03
/home/becker/async/wcet-benchmarks/benchmarks/adpcm-decode/adpcm.c:628 (discriminator 2)
    3478:	89 81       	ldd	r24, Y+1	; 0x01
    347a:	9a 81       	ldd	r25, Y+2	; 0x02
    347c:	ab 81       	ldd	r26, Y+3	; 0x03
    347e:	bc 81       	ldd	r27, Y+4	; 0x04
    3480:	01 96       	adiw	r24, 0x01	; 1
    3482:	a1 1d       	adc	r26, r1
    3484:	b1 1d       	adc	r27, r1
    3486:	89 83       	std	Y+1, r24	; 0x01
    3488:	9a 83       	std	Y+2, r25	; 0x02
    348a:	ab 83       	std	Y+3, r26	; 0x03
    348c:	bc 83       	std	Y+4, r27	; 0x04
/home/becker/async/wcet-benchmarks/benchmarks/adpcm-decode/adpcm.c:628 (discriminator 1)
    348e:	89 81       	ldd	r24, Y+1	; 0x01
    3490:	9a 81       	ldd	r25, Y+2	; 0x02
    3492:	ab 81       	ldd	r26, Y+3	; 0x03
    3494:	bc 81       	ldd	r27, Y+4	; 0x04
    3496:	86 30       	cpi	r24, 0x06	; 6
    3498:	91 05       	cpc	r25, r1
    349a:	a1 05       	cpc	r26, r1
    349c:	b1 05       	cpc	r27, r1
    349e:	0c f4       	brge	.+2      	; 0x34a2 <reset+0x4f4>
    34a0:	b7 cf       	rjmp	.-146    	; 0x3410 <reset+0x462>
/home/becker/async/wcet-benchmarks/benchmarks/adpcm-decode/adpcm.c:635
    34a2:	19 82       	std	Y+1, r1	; 0x01
    34a4:	1a 82       	std	Y+2, r1	; 0x02
    34a6:	1b 82       	std	Y+3, r1	; 0x03
    34a8:	1c 82       	std	Y+4, r1	; 0x04
    34aa:	18 c0       	rjmp	.+48     	; 0x34dc <reset+0x52e>
/home/becker/async/wcet-benchmarks/benchmarks/adpcm-decode/adpcm.c:635 (discriminator 2)
    34ac:	89 81       	ldd	r24, Y+1	; 0x01
    34ae:	9a 81       	ldd	r25, Y+2	; 0x02
    34b0:	88 0f       	add	r24, r24
    34b2:	99 1f       	adc	r25, r25
    34b4:	88 0f       	add	r24, r24
    34b6:	99 1f       	adc	r25, r25
    34b8:	88 58       	subi	r24, 0x88	; 136
    34ba:	97 4f       	sbci	r25, 0xF7	; 247
    34bc:	fc 01       	movw	r30, r24
    34be:	10 82       	st	Z, r1
    34c0:	11 82       	std	Z+1, r1	; 0x01
    34c2:	12 82       	std	Z+2, r1	; 0x02
    34c4:	13 82       	std	Z+3, r1	; 0x03
    34c6:	89 81       	ldd	r24, Y+1	; 0x01
    34c8:	9a 81       	ldd	r25, Y+2	; 0x02
    34ca:	ab 81       	ldd	r26, Y+3	; 0x03
    34cc:	bc 81       	ldd	r27, Y+4	; 0x04
    34ce:	01 96       	adiw	r24, 0x01	; 1
    34d0:	a1 1d       	adc	r26, r1
    34d2:	b1 1d       	adc	r27, r1
    34d4:	89 83       	std	Y+1, r24	; 0x01
    34d6:	9a 83       	std	Y+2, r25	; 0x02
    34d8:	ab 83       	std	Y+3, r26	; 0x03
    34da:	bc 83       	std	Y+4, r27	; 0x04
/home/becker/async/wcet-benchmarks/benchmarks/adpcm-decode/adpcm.c:635 (discriminator 1)
    34dc:	89 81       	ldd	r24, Y+1	; 0x01
    34de:	9a 81       	ldd	r25, Y+2	; 0x02
    34e0:	ab 81       	ldd	r26, Y+3	; 0x03
    34e2:	bc 81       	ldd	r27, Y+4	; 0x04
    34e4:	87 31       	cpi	r24, 0x17	; 23
    34e6:	91 05       	cpc	r25, r1
    34e8:	a1 05       	cpc	r26, r1
    34ea:	b1 05       	cpc	r27, r1
    34ec:	fc f2       	brlt	.-66     	; 0x34ac <reset+0x4fe>
/home/becker/async/wcet-benchmarks/benchmarks/adpcm-decode/adpcm.c:637
    34ee:	19 82       	std	Y+1, r1	; 0x01
    34f0:	1a 82       	std	Y+2, r1	; 0x02
    34f2:	1b 82       	std	Y+3, r1	; 0x03
    34f4:	1c 82       	std	Y+4, r1	; 0x04
    34f6:	25 c0       	rjmp	.+74     	; 0x3542 <reset+0x594>
/home/becker/async/wcet-benchmarks/benchmarks/adpcm-decode/adpcm.c:638 (discriminator 2)
    34f8:	89 81       	ldd	r24, Y+1	; 0x01
    34fa:	9a 81       	ldd	r25, Y+2	; 0x02
    34fc:	88 0f       	add	r24, r24
    34fe:	99 1f       	adc	r25, r25
    3500:	88 0f       	add	r24, r24
    3502:	99 1f       	adc	r25, r25
    3504:	88 5f       	subi	r24, 0xF8	; 248
    3506:	96 4f       	sbci	r25, 0xF6	; 246
    3508:	fc 01       	movw	r30, r24
    350a:	10 82       	st	Z, r1
    350c:	11 82       	std	Z+1, r1	; 0x01
    350e:	12 82       	std	Z+2, r1	; 0x02
    3510:	13 82       	std	Z+3, r1	; 0x03
/home/becker/async/wcet-benchmarks/benchmarks/adpcm-decode/adpcm.c:639 (discriminator 2)
    3512:	89 81       	ldd	r24, Y+1	; 0x01
    3514:	9a 81       	ldd	r25, Y+2	; 0x02
    3516:	88 0f       	add	r24, r24
    3518:	99 1f       	adc	r25, r25
    351a:	88 0f       	add	r24, r24
    351c:	99 1f       	adc	r25, r25
    351e:	84 57       	subi	r24, 0x74	; 116
    3520:	98 4f       	sbci	r25, 0xF8	; 248
    3522:	fc 01       	movw	r30, r24
    3524:	10 82       	st	Z, r1
    3526:	11 82       	std	Z+1, r1	; 0x01
    3528:	12 82       	std	Z+2, r1	; 0x02
    352a:	13 82       	std	Z+3, r1	; 0x03
/home/becker/async/wcet-benchmarks/benchmarks/adpcm-decode/adpcm.c:637 (discriminator 2)
    352c:	89 81       	ldd	r24, Y+1	; 0x01
    352e:	9a 81       	ldd	r25, Y+2	; 0x02
    3530:	ab 81       	ldd	r26, Y+3	; 0x03
    3532:	bc 81       	ldd	r27, Y+4	; 0x04
    3534:	01 96       	adiw	r24, 0x01	; 1
    3536:	a1 1d       	adc	r26, r1
    3538:	b1 1d       	adc	r27, r1
    353a:	89 83       	std	Y+1, r24	; 0x01
    353c:	9a 83       	std	Y+2, r25	; 0x02
    353e:	ab 83       	std	Y+3, r26	; 0x03
    3540:	bc 83       	std	Y+4, r27	; 0x04
/home/becker/async/wcet-benchmarks/benchmarks/adpcm-decode/adpcm.c:637 (discriminator 1)
    3542:	89 81       	ldd	r24, Y+1	; 0x01
    3544:	9a 81       	ldd	r25, Y+2	; 0x02
    3546:	ab 81       	ldd	r26, Y+3	; 0x03
    3548:	bc 81       	ldd	r27, Y+4	; 0x04
    354a:	8b 30       	cpi	r24, 0x0B	; 11
    354c:	91 05       	cpc	r25, r1
    354e:	a1 05       	cpc	r26, r1
    3550:	b1 05       	cpc	r27, r1
    3552:	94 f2       	brlt	.-92     	; 0x34f8 <reset+0x54a>
/home/becker/async/wcet-benchmarks/benchmarks/adpcm-decode/adpcm.c:641
    3554:	00 00       	nop
/home/becker/async/wcet-benchmarks/benchmarks/adpcm-decode/adpcm.c:642
    3556:	0f 90       	pop	r0
    3558:	0f 90       	pop	r0
    355a:	0f 90       	pop	r0
    355c:	0f 90       	pop	r0
    355e:	df 91       	pop	r29
    3560:	cf 91       	pop	r28
    3562:	08 95       	ret

00003564 <filtez>:
filtez():
/home/becker/async/wcet-benchmarks/benchmarks/adpcm-decode/adpcm.c:648
    3564:	2f 92       	push	r2
    3566:	3f 92       	push	r3
    3568:	4f 92       	push	r4
    356a:	5f 92       	push	r5
    356c:	6f 92       	push	r6
    356e:	7f 92       	push	r7
    3570:	8f 92       	push	r8
    3572:	9f 92       	push	r9
    3574:	af 92       	push	r10
    3576:	bf 92       	push	r11
    3578:	cf 92       	push	r12
    357a:	df 92       	push	r13
    357c:	ef 92       	push	r14
    357e:	ff 92       	push	r15
    3580:	0f 93       	push	r16
    3582:	1f 93       	push	r17
    3584:	cf 93       	push	r28
    3586:	df 93       	push	r29
    3588:	cd b7       	in	r28, 0x3d	; 61
    358a:	de b7       	in	r29, 0x3e	; 62
    358c:	a8 97       	sbiw	r28, 0x28	; 40
    358e:	0f b6       	in	r0, 0x3f	; 63
    3590:	f8 94       	cli
    3592:	de bf       	out	0x3e, r29	; 62
    3594:	0f be       	out	0x3f, r0	; 63
    3596:	cd bf       	out	0x3d, r28	; 61
    3598:	9e 87       	std	Y+14, r25	; 0x0e
    359a:	8d 87       	std	Y+13, r24	; 0x0d
    359c:	78 8b       	std	Y+16, r23	; 0x10
    359e:	6f 87       	std	Y+15, r22	; 0x0f
/home/becker/async/wcet-benchmarks/benchmarks/adpcm-decode/adpcm.c:651
    35a0:	2d 85       	ldd	r18, Y+13	; 0x0d
    35a2:	3e 85       	ldd	r19, Y+14	; 0x0e
    35a4:	c9 01       	movw	r24, r18
    35a6:	04 96       	adiw	r24, 0x04	; 4
    35a8:	9e 87       	std	Y+14, r25	; 0x0e
    35aa:	8d 87       	std	Y+13, r24	; 0x0d
    35ac:	f9 01       	movw	r30, r18
    35ae:	80 81       	ld	r24, Z
    35b0:	91 81       	ldd	r25, Z+1	; 0x01
    35b2:	a2 81       	ldd	r26, Z+2	; 0x02
    35b4:	b3 81       	ldd	r27, Z+3	; 0x03
    35b6:	89 8b       	std	Y+17, r24	; 0x11
    35b8:	9a 8b       	std	Y+18, r25	; 0x12
    35ba:	ab 8b       	std	Y+19, r26	; 0x13
    35bc:	bc 8b       	std	Y+20, r27	; 0x14
    35be:	bb 0f       	add	r27, r27
    35c0:	88 0b       	sbc	r24, r24
    35c2:	98 2f       	mov	r25, r24
    35c4:	dc 01       	movw	r26, r24
    35c6:	8d 8b       	std	Y+21, r24	; 0x15
    35c8:	8e 8b       	std	Y+22, r24	; 0x16
    35ca:	8f 8b       	std	Y+23, r24	; 0x17
    35cc:	88 8f       	std	Y+24, r24	; 0x18
    35ce:	2f 85       	ldd	r18, Y+15	; 0x0f
    35d0:	38 89       	ldd	r19, Y+16	; 0x10
    35d2:	c9 01       	movw	r24, r18
    35d4:	04 96       	adiw	r24, 0x04	; 4
    35d6:	98 8b       	std	Y+16, r25	; 0x10
    35d8:	8f 87       	std	Y+15, r24	; 0x0f
    35da:	f9 01       	movw	r30, r18
    35dc:	80 81       	ld	r24, Z
    35de:	91 81       	ldd	r25, Z+1	; 0x01
    35e0:	a2 81       	ldd	r26, Z+2	; 0x02
    35e2:	b3 81       	ldd	r27, Z+3	; 0x03
    35e4:	1c 01       	movw	r2, r24
    35e6:	2d 01       	movw	r4, r26
    35e8:	bb 0f       	add	r27, r27
    35ea:	88 0b       	sbc	r24, r24
    35ec:	98 2f       	mov	r25, r24
    35ee:	dc 01       	movw	r26, r24
    35f0:	68 2e       	mov	r6, r24
    35f2:	78 2e       	mov	r7, r24
    35f4:	88 2e       	mov	r8, r24
    35f6:	98 2e       	mov	r9, r24
    35f8:	a2 2c       	mov	r10, r2
    35fa:	b3 2c       	mov	r11, r3
    35fc:	c4 2c       	mov	r12, r4
    35fe:	d5 2c       	mov	r13, r5
    3600:	e6 2c       	mov	r14, r6
    3602:	f7 2c       	mov	r15, r7
    3604:	08 2d       	mov	r16, r8
    3606:	19 2d       	mov	r17, r9
    3608:	29 89       	ldd	r18, Y+17	; 0x11
    360a:	3a 89       	ldd	r19, Y+18	; 0x12
    360c:	4b 89       	ldd	r20, Y+19	; 0x13
    360e:	5c 89       	ldd	r21, Y+20	; 0x14
    3610:	6d 89       	ldd	r22, Y+21	; 0x15
    3612:	7e 89       	ldd	r23, Y+22	; 0x16
    3614:	8f 89       	ldd	r24, Y+23	; 0x17
    3616:	98 8d       	ldd	r25, Y+24	; 0x18
    3618:	0e 94 cd 26 	call	0x4d9a	; 0x4d9a <__muldi3>
    361c:	a2 2e       	mov	r10, r18
    361e:	b3 2e       	mov	r11, r19
    3620:	c4 2e       	mov	r12, r20
    3622:	d5 2e       	mov	r13, r21
    3624:	e6 2e       	mov	r14, r22
    3626:	f7 2e       	mov	r15, r23
    3628:	08 2f       	mov	r16, r24
    362a:	19 2f       	mov	r17, r25
    362c:	ad 82       	std	Y+5, r10	; 0x05
    362e:	be 82       	std	Y+6, r11	; 0x06
    3630:	cf 82       	std	Y+7, r12	; 0x07
    3632:	d8 86       	std	Y+8, r13	; 0x08
    3634:	e9 86       	std	Y+9, r14	; 0x09
    3636:	fa 86       	std	Y+10, r15	; 0x0a
    3638:	0b 87       	std	Y+11, r16	; 0x0b
    363a:	1c 87       	std	Y+12, r17	; 0x0c
/home/becker/async/wcet-benchmarks/benchmarks/adpcm-decode/adpcm.c:653
    363c:	81 e0       	ldi	r24, 0x01	; 1
    363e:	90 e0       	ldi	r25, 0x00	; 0
    3640:	a0 e0       	ldi	r26, 0x00	; 0
    3642:	b0 e0       	ldi	r27, 0x00	; 0
    3644:	89 83       	std	Y+1, r24	; 0x01
    3646:	9a 83       	std	Y+2, r25	; 0x02
    3648:	ab 83       	std	Y+3, r26	; 0x03
    364a:	bc 83       	std	Y+4, r27	; 0x04
    364c:	7f c0       	rjmp	.+254    	; 0x374c <filtez+0x1e8>
/home/becker/async/wcet-benchmarks/benchmarks/adpcm-decode/adpcm.c:654 (discriminator 2)
    364e:	8d 85       	ldd	r24, Y+13	; 0x0d
    3650:	9e 85       	ldd	r25, Y+14	; 0x0e
    3652:	9c 01       	movw	r18, r24
    3654:	2c 5f       	subi	r18, 0xFC	; 252
    3656:	3f 4f       	sbci	r19, 0xFF	; 255
    3658:	3e 87       	std	Y+14, r19	; 0x0e
    365a:	2d 87       	std	Y+13, r18	; 0x0d
    365c:	fc 01       	movw	r30, r24
    365e:	80 81       	ld	r24, Z
    3660:	91 81       	ldd	r25, Z+1	; 0x01
    3662:	a2 81       	ldd	r26, Z+2	; 0x02
    3664:	b3 81       	ldd	r27, Z+3	; 0x03
    3666:	89 8f       	std	Y+25, r24	; 0x19
    3668:	9a 8f       	std	Y+26, r25	; 0x1a
    366a:	ab 8f       	std	Y+27, r26	; 0x1b
    366c:	bc 8f       	std	Y+28, r27	; 0x1c
    366e:	bb 0f       	add	r27, r27
    3670:	88 0b       	sbc	r24, r24
    3672:	98 2f       	mov	r25, r24
    3674:	dc 01       	movw	r26, r24
    3676:	8d 8f       	std	Y+29, r24	; 0x1d
    3678:	8e 8f       	std	Y+30, r24	; 0x1e
    367a:	8f 8f       	std	Y+31, r24	; 0x1f
    367c:	88 a3       	std	Y+32, r24	; 0x20
    367e:	8f 85       	ldd	r24, Y+15	; 0x0f
    3680:	98 89       	ldd	r25, Y+16	; 0x10
    3682:	9c 01       	movw	r18, r24
    3684:	2c 5f       	subi	r18, 0xFC	; 252
    3686:	3f 4f       	sbci	r19, 0xFF	; 255
    3688:	38 8b       	std	Y+16, r19	; 0x10
    368a:	2f 87       	std	Y+15, r18	; 0x0f
    368c:	fc 01       	movw	r30, r24
    368e:	80 81       	ld	r24, Z
    3690:	91 81       	ldd	r25, Z+1	; 0x01
    3692:	a2 81       	ldd	r26, Z+2	; 0x02
    3694:	b3 81       	ldd	r27, Z+3	; 0x03
    3696:	89 a3       	std	Y+33, r24	; 0x21
    3698:	9a a3       	std	Y+34, r25	; 0x22
    369a:	ab a3       	std	Y+35, r26	; 0x23
    369c:	bc a3       	std	Y+36, r27	; 0x24
    369e:	bb 0f       	add	r27, r27
    36a0:	88 0b       	sbc	r24, r24
    36a2:	98 2f       	mov	r25, r24
    36a4:	dc 01       	movw	r26, r24
    36a6:	8d a3       	std	Y+37, r24	; 0x25
    36a8:	8e a3       	std	Y+38, r24	; 0x26
    36aa:	8f a3       	std	Y+39, r24	; 0x27
    36ac:	88 a7       	std	Y+40, r24	; 0x28
    36ae:	a9 a0       	ldd	r10, Y+33	; 0x21
    36b0:	ba a0       	ldd	r11, Y+34	; 0x22
    36b2:	cb a0       	ldd	r12, Y+35	; 0x23
    36b4:	dc a0       	ldd	r13, Y+36	; 0x24
    36b6:	ed a0       	ldd	r14, Y+37	; 0x25
    36b8:	fe a0       	ldd	r15, Y+38	; 0x26
    36ba:	0f a1       	ldd	r16, Y+39	; 0x27
    36bc:	18 a5       	ldd	r17, Y+40	; 0x28
    36be:	29 8d       	ldd	r18, Y+25	; 0x19
    36c0:	3a 8d       	ldd	r19, Y+26	; 0x1a
    36c2:	4b 8d       	ldd	r20, Y+27	; 0x1b
    36c4:	5c 8d       	ldd	r21, Y+28	; 0x1c
    36c6:	6d 8d       	ldd	r22, Y+29	; 0x1d
    36c8:	7e 8d       	ldd	r23, Y+30	; 0x1e
    36ca:	8f 8d       	ldd	r24, Y+31	; 0x1f
    36cc:	98 a1       	ldd	r25, Y+32	; 0x20
    36ce:	0e 94 cd 26 	call	0x4d9a	; 0x4d9a <__muldi3>
    36d2:	22 2e       	mov	r2, r18
    36d4:	33 2e       	mov	r3, r19
    36d6:	44 2e       	mov	r4, r20
    36d8:	55 2e       	mov	r5, r21
    36da:	66 2e       	mov	r6, r22
    36dc:	77 2e       	mov	r7, r23
    36de:	88 2e       	mov	r8, r24
    36e0:	99 2e       	mov	r9, r25
    36e2:	a2 2c       	mov	r10, r2
    36e4:	b3 2c       	mov	r11, r3
    36e6:	c4 2c       	mov	r12, r4
    36e8:	d5 2c       	mov	r13, r5
    36ea:	e6 2c       	mov	r14, r6
    36ec:	f7 2c       	mov	r15, r7
    36ee:	08 2d       	mov	r16, r8
    36f0:	19 2d       	mov	r17, r9
    36f2:	2a 2d       	mov	r18, r10
    36f4:	3b 2d       	mov	r19, r11
    36f6:	4c 2d       	mov	r20, r12
    36f8:	5d 2d       	mov	r21, r13
    36fa:	6e 2d       	mov	r22, r14
    36fc:	7f 2d       	mov	r23, r15
    36fe:	80 2f       	mov	r24, r16
    3700:	91 2f       	mov	r25, r17
    3702:	ad 80       	ldd	r10, Y+5	; 0x05
    3704:	be 80       	ldd	r11, Y+6	; 0x06
