
main.elf:     file format elf32-avr


Disassembly of section .text:

00000000 <__vectors>:
__vectors():
../../../../crt1/gcrt1.S:52
   0:	0c 94 46 00 	jmp	0x8c	; 0x8c <__ctors_end>
../../../../crt1/gcrt1.S:53
   4:	0c 94 58 00 	jmp	0xb0	; 0xb0 <__bad_interrupt>
../../../../crt1/gcrt1.S:54
   8:	0c 94 58 00 	jmp	0xb0	; 0xb0 <__bad_interrupt>
../../../../crt1/gcrt1.S:55
   c:	0c 94 58 00 	jmp	0xb0	; 0xb0 <__bad_interrupt>
../../../../crt1/gcrt1.S:56
  10:	0c 94 58 00 	jmp	0xb0	; 0xb0 <__bad_interrupt>
../../../../crt1/gcrt1.S:57
  14:	0c 94 58 00 	jmp	0xb0	; 0xb0 <__bad_interrupt>
../../../../crt1/gcrt1.S:58
  18:	0c 94 58 00 	jmp	0xb0	; 0xb0 <__bad_interrupt>
../../../../crt1/gcrt1.S:59
  1c:	0c 94 58 00 	jmp	0xb0	; 0xb0 <__bad_interrupt>
../../../../crt1/gcrt1.S:60
  20:	0c 94 58 00 	jmp	0xb0	; 0xb0 <__bad_interrupt>
../../../../crt1/gcrt1.S:61
  24:	0c 94 58 00 	jmp	0xb0	; 0xb0 <__bad_interrupt>
../../../../crt1/gcrt1.S:62
  28:	0c 94 58 00 	jmp	0xb0	; 0xb0 <__bad_interrupt>
../../../../crt1/gcrt1.S:63
  2c:	0c 94 58 00 	jmp	0xb0	; 0xb0 <__bad_interrupt>
../../../../crt1/gcrt1.S:64
  30:	0c 94 58 00 	jmp	0xb0	; 0xb0 <__bad_interrupt>
../../../../crt1/gcrt1.S:65
  34:	0c 94 58 00 	jmp	0xb0	; 0xb0 <__bad_interrupt>
../../../../crt1/gcrt1.S:66
  38:	0c 94 58 00 	jmp	0xb0	; 0xb0 <__bad_interrupt>
../../../../crt1/gcrt1.S:67
  3c:	0c 94 58 00 	jmp	0xb0	; 0xb0 <__bad_interrupt>
../../../../crt1/gcrt1.S:68
  40:	0c 94 58 00 	jmp	0xb0	; 0xb0 <__bad_interrupt>
../../../../crt1/gcrt1.S:69
  44:	0c 94 58 00 	jmp	0xb0	; 0xb0 <__bad_interrupt>
../../../../crt1/gcrt1.S:70
  48:	0c 94 58 00 	jmp	0xb0	; 0xb0 <__bad_interrupt>
../../../../crt1/gcrt1.S:71
  4c:	0c 94 58 00 	jmp	0xb0	; 0xb0 <__bad_interrupt>
../../../../crt1/gcrt1.S:72
  50:	0c 94 58 00 	jmp	0xb0	; 0xb0 <__bad_interrupt>
../../../../crt1/gcrt1.S:73
  54:	0c 94 58 00 	jmp	0xb0	; 0xb0 <__bad_interrupt>
../../../../crt1/gcrt1.S:74
  58:	0c 94 58 00 	jmp	0xb0	; 0xb0 <__bad_interrupt>
../../../../crt1/gcrt1.S:75
  5c:	0c 94 58 00 	jmp	0xb0	; 0xb0 <__bad_interrupt>
../../../../crt1/gcrt1.S:76
  60:	0c 94 58 00 	jmp	0xb0	; 0xb0 <__bad_interrupt>
../../../../crt1/gcrt1.S:77
  64:	0c 94 58 00 	jmp	0xb0	; 0xb0 <__bad_interrupt>
../../../../crt1/gcrt1.S:78
  68:	0c 94 58 00 	jmp	0xb0	; 0xb0 <__bad_interrupt>
../../../../crt1/gcrt1.S:79
  6c:	0c 94 58 00 	jmp	0xb0	; 0xb0 <__bad_interrupt>
../../../../crt1/gcrt1.S:80
  70:	0c 94 58 00 	jmp	0xb0	; 0xb0 <__bad_interrupt>
../../../../crt1/gcrt1.S:81
  74:	0c 94 58 00 	jmp	0xb0	; 0xb0 <__bad_interrupt>
../../../../crt1/gcrt1.S:82
  78:	0c 94 58 00 	jmp	0xb0	; 0xb0 <__bad_interrupt>
../../../../crt1/gcrt1.S:83
  7c:	0c 94 58 00 	jmp	0xb0	; 0xb0 <__bad_interrupt>
../../../../crt1/gcrt1.S:84
  80:	0c 94 58 00 	jmp	0xb0	; 0xb0 <__bad_interrupt>
../../../../crt1/gcrt1.S:85
  84:	0c 94 58 00 	jmp	0xb0	; 0xb0 <__bad_interrupt>
../../../../crt1/gcrt1.S:86
  88:	0c 94 58 00 	jmp	0xb0	; 0xb0 <__bad_interrupt>

0000008c <__ctors_end>:
../../../../crt1/gcrt1.S:179
  8c:	11 24       	eor	r1, r1
  8e:	1f be       	out	0x3f, r1	; 63
  90:	cf ef       	ldi	r28, 0xFF	; 255
  92:	d0 e1       	ldi	r29, 0x10	; 16
  94:	de bf       	out	0x3e, r29	; 62
  96:	cd bf       	out	0x3d, r28	; 61

00000098 <__do_clear_bss>:
  98:	1a e0       	ldi	r17, 0x0A	; 10
  9a:	a0 e0       	ldi	r26, 0x00	; 0
  9c:	b1 e0       	ldi	r27, 0x01	; 1
  9e:	01 c0       	rjmp	.+2      	; 0xa2 <.do_clear_bss_start>

000000a0 <.do_clear_bss_loop>:
  a0:	1d 92       	st	X+, r1

000000a2 <.do_clear_bss_start>:
  a2:	a2 36       	cpi	r26, 0x62	; 98
  a4:	b1 07       	cpc	r27, r17
  a6:	e1 f7       	brne	.-8      	; 0xa0 <.do_clear_bss_loop>
  a8:	0e 94 5a 00 	call	0xb4	; 0xb4 <main>
  ac:	0c 94 da 01 	jmp	0x3b4	; 0x3b4 <_exit>

000000b0 <__bad_interrupt>:
__bad_interrupt():
../../../../crt1/gcrt1.S:195
  b0:	0c 94 00 00 	jmp	0	; 0x0 <__vectors>

000000b4 <main>:
main():
/home/becker/async/autosafe/trunk/tum/wcet-cbmc/benchmarks/matmult/matmult.c:53
  b4:	cf 93       	push	r28
  b6:	df 93       	push	r29
  b8:	cd b7       	in	r28, 0x3d	; 61
  ba:	de b7       	in	r29, 0x3e	; 62
/home/becker/async/autosafe/trunk/tum/wcet-cbmc/benchmarks/matmult/matmult.c:54
  bc:	0e 94 6b 00 	call	0xd6	; 0xd6 <InitSeed>
/home/becker/async/autosafe/trunk/tum/wcet-cbmc/benchmarks/matmult/matmult.c:61
  c0:	42 e0       	ldi	r20, 0x02	; 2
  c2:	51 e0       	ldi	r21, 0x01	; 1
  c4:	62 e2       	ldi	r22, 0x22	; 34
  c6:	74 e0       	ldi	r23, 0x04	; 4
  c8:	82 e4       	ldi	r24, 0x42	; 66
  ca:	97 e0       	ldi	r25, 0x07	; 7
  cc:	0e 94 76 00 	call	0xec	; 0xec <Test>
/home/becker/async/autosafe/trunk/tum/wcet-cbmc/benchmarks/matmult/matmult.c:62
  d0:	df 91       	pop	r29
  d2:	cf 91       	pop	r28
  d4:	08 95       	ret

000000d6 <InitSeed>:
InitSeed():
/home/becker/async/autosafe/trunk/tum/wcet-cbmc/benchmarks/matmult/matmult.c:69
  d6:	cf 93       	push	r28
  d8:	df 93       	push	r29
  da:	cd b7       	in	r28, 0x3d	; 61
  dc:	de b7       	in	r29, 0x3e	; 62
/home/becker/async/autosafe/trunk/tum/wcet-cbmc/benchmarks/matmult/matmult.c:73
  de:	10 92 01 01 	sts	0x0101, r1
  e2:	10 92 00 01 	sts	0x0100, r1
/home/becker/async/autosafe/trunk/tum/wcet-cbmc/benchmarks/matmult/matmult.c:74
  e6:	df 91       	pop	r29
  e8:	cf 91       	pop	r28
  ea:	08 95       	ret

000000ec <Test>:
Test():
/home/becker/async/autosafe/trunk/tum/wcet-cbmc/benchmarks/matmult/matmult.c:82
  ec:	cf 93       	push	r28
  ee:	df 93       	push	r29
  f0:	00 d0       	rcall	.+0      	; 0xf2 <Test+0x6>
  f2:	00 d0       	rcall	.+0      	; 0xf4 <Test+0x8>
  f4:	00 d0       	rcall	.+0      	; 0xf6 <Test+0xa>
  f6:	cd b7       	in	r28, 0x3d	; 61
  f8:	de b7       	in	r29, 0x3e	; 62
  fa:	9a 83       	std	Y+2, r25	; 0x02
  fc:	89 83       	std	Y+1, r24	; 0x01
  fe:	7c 83       	std	Y+4, r23	; 0x04
 100:	6b 83       	std	Y+3, r22	; 0x03
 102:	5e 83       	std	Y+6, r21	; 0x06
 104:	4d 83       	std	Y+5, r20	; 0x05
/home/becker/async/autosafe/trunk/tum/wcet-cbmc/benchmarks/matmult/matmult.c:88
 106:	89 81       	ldd	r24, Y+1	; 0x01
 108:	9a 81       	ldd	r25, Y+2	; 0x02
 10a:	0e 94 9d 00 	call	0x13a	; 0x13a <Initialize>
/home/becker/async/autosafe/trunk/tum/wcet-cbmc/benchmarks/matmult/matmult.c:89
 10e:	8b 81       	ldd	r24, Y+3	; 0x03
 110:	9c 81       	ldd	r25, Y+4	; 0x04
 112:	0e 94 9d 00 	call	0x13a	; 0x13a <Initialize>
/home/becker/async/autosafe/trunk/tum/wcet-cbmc/benchmarks/matmult/matmult.c:96
 116:	4d 81       	ldd	r20, Y+5	; 0x05
 118:	5e 81       	ldd	r21, Y+6	; 0x06
 11a:	2b 81       	ldd	r18, Y+3	; 0x03
 11c:	3c 81       	ldd	r19, Y+4	; 0x04
 11e:	89 81       	ldd	r24, Y+1	; 0x01
 120:	9a 81       	ldd	r25, Y+2	; 0x02
 122:	b9 01       	movw	r22, r18
 124:	0e 94 06 01 	call	0x20c	; 0x20c <Multiply>
/home/becker/async/autosafe/trunk/tum/wcet-cbmc/benchmarks/matmult/matmult.c:105
 128:	26 96       	adiw	r28, 0x06	; 6
 12a:	0f b6       	in	r0, 0x3f	; 63
 12c:	f8 94       	cli
 12e:	de bf       	out	0x3e, r29	; 62
 130:	0f be       	out	0x3f, r0	; 63
 132:	cd bf       	out	0x3d, r28	; 61
 134:	df 91       	pop	r29
 136:	cf 91       	pop	r28
 138:	08 95       	ret

0000013a <Initialize>:
Initialize():
/home/becker/async/autosafe/trunk/tum/wcet-cbmc/benchmarks/matmult/matmult.c:112
 13a:	0f 93       	push	r16
 13c:	1f 93       	push	r17
 13e:	cf 93       	push	r28
 140:	df 93       	push	r29
 142:	00 d0       	rcall	.+0      	; 0x144 <Initialize+0xa>
 144:	00 d0       	rcall	.+0      	; 0x146 <Initialize+0xc>
 146:	00 d0       	rcall	.+0      	; 0x148 <Initialize+0xe>
 148:	cd b7       	in	r28, 0x3d	; 61
 14a:	de b7       	in	r29, 0x3e	; 62
 14c:	9e 83       	std	Y+6, r25	; 0x06
 14e:	8d 83       	std	Y+5, r24	; 0x05
/home/becker/async/autosafe/trunk/tum/wcet-cbmc/benchmarks/matmult/matmult.c:115
 150:	1a 82       	std	Y+2, r1	; 0x02
 152:	19 82       	std	Y+1, r1	; 0x01
 154:	2b c0       	rjmp	.+86     	; 0x1ac <Initialize+0x72>
/home/becker/async/autosafe/trunk/tum/wcet-cbmc/benchmarks/matmult/matmult.c:116
 156:	1c 82       	std	Y+4, r1	; 0x04
 158:	1b 82       	std	Y+3, r1	; 0x03
 15a:	1e c0       	rjmp	.+60     	; 0x198 <Initialize+0x5e>
/home/becker/async/autosafe/trunk/tum/wcet-cbmc/benchmarks/matmult/matmult.c:117
 15c:	29 81       	ldd	r18, Y+1	; 0x01
 15e:	3a 81       	ldd	r19, Y+2	; 0x02
 160:	48 e2       	ldi	r20, 0x28	; 40
 162:	42 9f       	mul	r20, r18
 164:	c0 01       	movw	r24, r0
 166:	43 9f       	mul	r20, r19
 168:	90 0d       	add	r25, r0
 16a:	11 24       	eor	r1, r1
 16c:	2d 81       	ldd	r18, Y+5	; 0x05
 16e:	3e 81       	ldd	r19, Y+6	; 0x06
 170:	89 01       	movw	r16, r18
 172:	08 0f       	add	r16, r24
 174:	19 1f       	adc	r17, r25
 176:	0e 94 e6 00 	call	0x1cc	; 0x1cc <RandomInteger>
 17a:	9c 01       	movw	r18, r24
 17c:	8b 81       	ldd	r24, Y+3	; 0x03
 17e:	9c 81       	ldd	r25, Y+4	; 0x04
 180:	88 0f       	add	r24, r24
 182:	99 1f       	adc	r25, r25
 184:	80 0f       	add	r24, r16
 186:	91 1f       	adc	r25, r17
 188:	fc 01       	movw	r30, r24
 18a:	31 83       	std	Z+1, r19	; 0x01
 18c:	20 83       	st	Z, r18
/home/becker/async/autosafe/trunk/tum/wcet-cbmc/benchmarks/matmult/matmult.c:116
 18e:	8b 81       	ldd	r24, Y+3	; 0x03
 190:	9c 81       	ldd	r25, Y+4	; 0x04
 192:	01 96       	adiw	r24, 0x01	; 1
 194:	9c 83       	std	Y+4, r25	; 0x04
 196:	8b 83       	std	Y+3, r24	; 0x03
 198:	8b 81       	ldd	r24, Y+3	; 0x03
 19a:	9c 81       	ldd	r25, Y+4	; 0x04
 19c:	84 31       	cpi	r24, 0x14	; 20
 19e:	91 05       	cpc	r25, r1
 1a0:	ec f2       	brlt	.-70     	; 0x15c <Initialize+0x22>
/home/becker/async/autosafe/trunk/tum/wcet-cbmc/benchmarks/matmult/matmult.c:115
 1a2:	89 81       	ldd	r24, Y+1	; 0x01
 1a4:	9a 81       	ldd	r25, Y+2	; 0x02
 1a6:	01 96       	adiw	r24, 0x01	; 1
 1a8:	9a 83       	std	Y+2, r25	; 0x02
 1aa:	89 83       	std	Y+1, r24	; 0x01
 1ac:	89 81       	ldd	r24, Y+1	; 0x01
 1ae:	9a 81       	ldd	r25, Y+2	; 0x02
 1b0:	84 31       	cpi	r24, 0x14	; 20
 1b2:	91 05       	cpc	r25, r1
 1b4:	84 f2       	brlt	.-96     	; 0x156 <Initialize+0x1c>
/home/becker/async/autosafe/trunk/tum/wcet-cbmc/benchmarks/matmult/matmult.c:118
 1b6:	26 96       	adiw	r28, 0x06	; 6
 1b8:	0f b6       	in	r0, 0x3f	; 63
 1ba:	f8 94       	cli
 1bc:	de bf       	out	0x3e, r29	; 62
 1be:	0f be       	out	0x3f, r0	; 63
 1c0:	cd bf       	out	0x3d, r28	; 61
 1c2:	df 91       	pop	r29
 1c4:	cf 91       	pop	r28
 1c6:	1f 91       	pop	r17
 1c8:	0f 91       	pop	r16
 1ca:	08 95       	ret

000001cc <RandomInteger>:
RandomInteger():
/home/becker/async/autosafe/trunk/tum/wcet-cbmc/benchmarks/matmult/matmult.c:125
 1cc:	cf 93       	push	r28
 1ce:	df 93       	push	r29
 1d0:	cd b7       	in	r28, 0x3d	; 61
 1d2:	de b7       	in	r29, 0x3e	; 62
/home/becker/async/autosafe/trunk/tum/wcet-cbmc/benchmarks/matmult/matmult.c:126
 1d4:	20 91 00 01 	lds	r18, 0x0100
 1d8:	30 91 01 01 	lds	r19, 0x0101
 1dc:	45 e8       	ldi	r20, 0x85	; 133
 1de:	42 9f       	mul	r20, r18
 1e0:	c0 01       	movw	r24, r0
 1e2:	43 9f       	mul	r20, r19
 1e4:	90 0d       	add	r25, r0
 1e6:	11 24       	eor	r1, r1
 1e8:	8f 5a       	subi	r24, 0xAF	; 175
 1ea:	9f 4f       	sbci	r25, 0xFF	; 255
 1ec:	2f e9       	ldi	r18, 0x9F	; 159
 1ee:	3f e1       	ldi	r19, 0x1F	; 31
 1f0:	b9 01       	movw	r22, r18
 1f2:	0e 94 b2 01 	call	0x364	; 0x364 <__divmodhi4>
 1f6:	90 93 01 01 	sts	0x0101, r25
 1fa:	80 93 00 01 	sts	0x0100, r24
/home/becker/async/autosafe/trunk/tum/wcet-cbmc/benchmarks/matmult/matmult.c:127
 1fe:	80 91 00 01 	lds	r24, 0x0100
 202:	90 91 01 01 	lds	r25, 0x0101
/home/becker/async/autosafe/trunk/tum/wcet-cbmc/benchmarks/matmult/matmult.c:128
 206:	df 91       	pop	r29
 208:	cf 91       	pop	r28
 20a:	08 95       	ret

0000020c <Multiply>:
Multiply():
/home/becker/async/autosafe/trunk/tum/wcet-cbmc/benchmarks/matmult/matmult.c:151
 20c:	cf 92       	push	r12
 20e:	df 92       	push	r13
 210:	ef 92       	push	r14
 212:	ff 92       	push	r15
 214:	0f 93       	push	r16
 216:	1f 93       	push	r17
 218:	cf 93       	push	r28
 21a:	df 93       	push	r29
 21c:	00 d0       	rcall	.+0      	; 0x21e <Multiply+0x12>
 21e:	00 d0       	rcall	.+0      	; 0x220 <Multiply+0x14>
 220:	00 d0       	rcall	.+0      	; 0x222 <Multiply+0x16>
 222:	cd b7       	in	r28, 0x3d	; 61
 224:	de b7       	in	r29, 0x3e	; 62
 226:	9a 83       	std	Y+2, r25	; 0x02
 228:	89 83       	std	Y+1, r24	; 0x01
 22a:	7c 83       	std	Y+4, r23	; 0x04
 22c:	6b 83       	std	Y+3, r22	; 0x03
 22e:	5e 83       	std	Y+6, r21	; 0x06
 230:	4d 83       	std	Y+5, r20	; 0x05
/home/becker/async/autosafe/trunk/tum/wcet-cbmc/benchmarks/matmult/matmult.c:154
 232:	00 e0       	ldi	r16, 0x00	; 0
 234:	10 e0       	ldi	r17, 0x00	; 0
 236:	83 c0       	rjmp	.+262    	; 0x33e <Multiply+0x132>
/home/becker/async/autosafe/trunk/tum/wcet-cbmc/benchmarks/matmult/matmult.c:155
 238:	e1 2c       	mov	r14, r1
 23a:	f1 2c       	mov	r15, r1
 23c:	79 c0       	rjmp	.+242    	; 0x330 <Multiply+0x124>
/home/becker/async/autosafe/trunk/tum/wcet-cbmc/benchmarks/matmult/matmult.c:157
 23e:	98 01       	movw	r18, r16
 240:	48 e2       	ldi	r20, 0x28	; 40
 242:	42 9f       	mul	r20, r18
 244:	c0 01       	movw	r24, r0
 246:	43 9f       	mul	r20, r19
 248:	90 0d       	add	r25, r0
 24a:	11 24       	eor	r1, r1
 24c:	2d 81       	ldd	r18, Y+5	; 0x05
 24e:	3e 81       	ldd	r19, Y+6	; 0x06
 250:	28 0f       	add	r18, r24
 252:	39 1f       	adc	r19, r25
 254:	c7 01       	movw	r24, r14
 256:	88 0f       	add	r24, r24
 258:	99 1f       	adc	r25, r25
 25a:	82 0f       	add	r24, r18
 25c:	93 1f       	adc	r25, r19
 25e:	dc 01       	movw	r26, r24
 260:	11 96       	adiw	r26, 0x01	; 1
 262:	1c 92       	st	X, r1
 264:	1e 92       	st	-X, r1
/home/becker/async/autosafe/trunk/tum/wcet-cbmc/benchmarks/matmult/matmult.c:158
 266:	c1 2c       	mov	r12, r1
 268:	d1 2c       	mov	r13, r1
 26a:	5a c0       	rjmp	.+180    	; 0x320 <Multiply+0x114>
/home/becker/async/autosafe/trunk/tum/wcet-cbmc/benchmarks/matmult/matmult.c:159
 26c:	98 01       	movw	r18, r16
 26e:	48 e2       	ldi	r20, 0x28	; 40
 270:	42 9f       	mul	r20, r18
 272:	c0 01       	movw	r24, r0
 274:	43 9f       	mul	r20, r19
 276:	90 0d       	add	r25, r0
 278:	11 24       	eor	r1, r1
 27a:	2d 81       	ldd	r18, Y+5	; 0x05
 27c:	3e 81       	ldd	r19, Y+6	; 0x06
 27e:	a9 01       	movw	r20, r18
 280:	48 0f       	add	r20, r24
 282:	59 1f       	adc	r21, r25
 284:	98 01       	movw	r18, r16
 286:	68 e2       	ldi	r22, 0x28	; 40
 288:	62 9f       	mul	r22, r18
 28a:	c0 01       	movw	r24, r0
 28c:	63 9f       	mul	r22, r19
 28e:	90 0d       	add	r25, r0
 290:	11 24       	eor	r1, r1
 292:	2d 81       	ldd	r18, Y+5	; 0x05
 294:	3e 81       	ldd	r19, Y+6	; 0x06
 296:	28 0f       	add	r18, r24
 298:	39 1f       	adc	r19, r25
 29a:	c7 01       	movw	r24, r14
 29c:	88 0f       	add	r24, r24
 29e:	99 1f       	adc	r25, r25
 2a0:	82 0f       	add	r24, r18
 2a2:	93 1f       	adc	r25, r19
 2a4:	fc 01       	movw	r30, r24
 2a6:	20 81       	ld	r18, Z
 2a8:	31 81       	ldd	r19, Z+1	; 0x01
/home/becker/async/autosafe/trunk/tum/wcet-cbmc/benchmarks/matmult/matmult.c:160
 2aa:	b8 01       	movw	r22, r16
 2ac:	e8 e2       	ldi	r30, 0x28	; 40
 2ae:	e6 9f       	mul	r30, r22
 2b0:	c0 01       	movw	r24, r0
 2b2:	e7 9f       	mul	r30, r23
 2b4:	90 0d       	add	r25, r0
 2b6:	11 24       	eor	r1, r1
 2b8:	69 81       	ldd	r22, Y+1	; 0x01
 2ba:	7a 81       	ldd	r23, Y+2	; 0x02
 2bc:	68 0f       	add	r22, r24
 2be:	79 1f       	adc	r23, r25
 2c0:	c6 01       	movw	r24, r12
 2c2:	88 0f       	add	r24, r24
 2c4:	99 1f       	adc	r25, r25
 2c6:	86 0f       	add	r24, r22
 2c8:	97 1f       	adc	r25, r23
 2ca:	dc 01       	movw	r26, r24
 2cc:	ed 91       	ld	r30, X+
 2ce:	fc 91       	ld	r31, X
 2d0:	b6 01       	movw	r22, r12
 2d2:	a8 e2       	ldi	r26, 0x28	; 40
 2d4:	a6 9f       	mul	r26, r22
 2d6:	c0 01       	movw	r24, r0
 2d8:	a7 9f       	mul	r26, r23
 2da:	90 0d       	add	r25, r0
 2dc:	11 24       	eor	r1, r1
 2de:	6b 81       	ldd	r22, Y+3	; 0x03
 2e0:	7c 81       	ldd	r23, Y+4	; 0x04
 2e2:	68 0f       	add	r22, r24
 2e4:	79 1f       	adc	r23, r25
 2e6:	c7 01       	movw	r24, r14
 2e8:	88 0f       	add	r24, r24
 2ea:	99 1f       	adc	r25, r25
 2ec:	86 0f       	add	r24, r22
 2ee:	97 1f       	adc	r25, r23
 2f0:	dc 01       	movw	r26, r24
 2f2:	6d 91       	ld	r22, X+
 2f4:	7c 91       	ld	r23, X
 2f6:	11 97       	sbiw	r26, 0x01	; 1
 2f8:	e6 9f       	mul	r30, r22
 2fa:	c0 01       	movw	r24, r0
 2fc:	e7 9f       	mul	r30, r23
 2fe:	90 0d       	add	r25, r0
 300:	f6 9f       	mul	r31, r22
 302:	90 0d       	add	r25, r0
 304:	11 24       	eor	r1, r1
/home/becker/async/autosafe/trunk/tum/wcet-cbmc/benchmarks/matmult/matmult.c:159
 306:	28 0f       	add	r18, r24
 308:	39 1f       	adc	r19, r25
 30a:	c7 01       	movw	r24, r14
 30c:	88 0f       	add	r24, r24
 30e:	99 1f       	adc	r25, r25
 310:	84 0f       	add	r24, r20
 312:	95 1f       	adc	r25, r21
 314:	fc 01       	movw	r30, r24
 316:	31 83       	std	Z+1, r19	; 0x01
 318:	20 83       	st	Z, r18
/home/becker/async/autosafe/trunk/tum/wcet-cbmc/benchmarks/matmult/matmult.c:158
 31a:	ff ef       	ldi	r31, 0xFF	; 255
 31c:	cf 1a       	sub	r12, r31
 31e:	df 0a       	sbc	r13, r31
 320:	84 e1       	ldi	r24, 0x14	; 20
 322:	c8 16       	cp	r12, r24
 324:	d1 04       	cpc	r13, r1
 326:	0c f4       	brge	.+2      	; 0x32a <Multiply+0x11e>
 328:	a1 cf       	rjmp	.-190    	; 0x26c <Multiply+0x60>
/home/becker/async/autosafe/trunk/tum/wcet-cbmc/benchmarks/matmult/matmult.c:155
 32a:	af ef       	ldi	r26, 0xFF	; 255
 32c:	ea 1a       	sub	r14, r26
 32e:	fa 0a       	sbc	r15, r26
 330:	b4 e1       	ldi	r27, 0x14	; 20
 332:	eb 16       	cp	r14, r27
 334:	f1 04       	cpc	r15, r1
 336:	0c f4       	brge	.+2      	; 0x33a <Multiply+0x12e>
 338:	82 cf       	rjmp	.-252    	; 0x23e <Multiply+0x32>
/home/becker/async/autosafe/trunk/tum/wcet-cbmc/benchmarks/matmult/matmult.c:154
 33a:	0f 5f       	subi	r16, 0xFF	; 255
 33c:	1f 4f       	sbci	r17, 0xFF	; 255
 33e:	04 31       	cpi	r16, 0x14	; 20
 340:	11 05       	cpc	r17, r1
 342:	0c f4       	brge	.+2      	; 0x346 <Multiply+0x13a>
 344:	79 cf       	rjmp	.-270    	; 0x238 <Multiply+0x2c>
/home/becker/async/autosafe/trunk/tum/wcet-cbmc/benchmarks/matmult/matmult.c:162
 346:	26 96       	adiw	r28, 0x06	; 6
 348:	0f b6       	in	r0, 0x3f	; 63
 34a:	f8 94       	cli
 34c:	de bf       	out	0x3e, r29	; 62
 34e:	0f be       	out	0x3f, r0	; 63
 350:	cd bf       	out	0x3d, r28	; 61
 352:	df 91       	pop	r29
 354:	cf 91       	pop	r28
 356:	1f 91       	pop	r17
 358:	0f 91       	pop	r16
 35a:	ff 90       	pop	r15
 35c:	ef 90       	pop	r14
 35e:	df 90       	pop	r13
 360:	cf 90       	pop	r12
 362:	08 95       	ret

00000364 <__divmodhi4>:
__bad_interrupt():
../../../../crt1/gcrt1.S:195
 364:	97 fb       	bst	r25, 7
 366:	07 2e       	mov	r0, r23
 368:	16 f4       	brtc	.+4      	; 0x36e <__divmodhi4+0xa>
 36a:	00 94       	com	r0
 36c:	07 d0       	rcall	.+14     	; 0x37c <__divmodhi4_neg1>
 36e:	77 fd       	sbrc	r23, 7
 370:	09 d0       	rcall	.+18     	; 0x384 <__divmodhi4_neg2>
 372:	0e 94 c6 01 	call	0x38c	; 0x38c <__udivmodhi4>
 376:	07 fc       	sbrc	r0, 7
 378:	05 d0       	rcall	.+10     	; 0x384 <__divmodhi4_neg2>
 37a:	3e f4       	brtc	.+14     	; 0x38a <__divmodhi4_exit>

0000037c <__divmodhi4_neg1>:
 37c:	90 95       	com	r25
 37e:	81 95       	neg	r24
 380:	9f 4f       	sbci	r25, 0xFF	; 255
 382:	08 95       	ret

00000384 <__divmodhi4_neg2>:
 384:	70 95       	com	r23
 386:	61 95       	neg	r22
 388:	7f 4f       	sbci	r23, 0xFF	; 255

0000038a <__divmodhi4_exit>:
 38a:	08 95       	ret

0000038c <__udivmodhi4>:
 38c:	aa 1b       	sub	r26, r26
 38e:	bb 1b       	sub	r27, r27
 390:	51 e1       	ldi	r21, 0x11	; 17
 392:	07 c0       	rjmp	.+14     	; 0x3a2 <__udivmodhi4_ep>

00000394 <__udivmodhi4_loop>:
 394:	aa 1f       	adc	r26, r26
 396:	bb 1f       	adc	r27, r27
 398:	a6 17       	cp	r26, r22
 39a:	b7 07       	cpc	r27, r23
 39c:	10 f0       	brcs	.+4      	; 0x3a2 <__udivmodhi4_ep>
 39e:	a6 1b       	sub	r26, r22
 3a0:	b7 0b       	sbc	r27, r23

000003a2 <__udivmodhi4_ep>:
 3a2:	88 1f       	adc	r24, r24
 3a4:	99 1f       	adc	r25, r25
 3a6:	5a 95       	dec	r21
 3a8:	a9 f7       	brne	.-22     	; 0x394 <__udivmodhi4_loop>
 3aa:	80 95       	com	r24
 3ac:	90 95       	com	r25
 3ae:	bc 01       	movw	r22, r24
 3b0:	cd 01       	movw	r24, r26
 3b2:	08 95       	ret

000003b4 <_exit>:
 3b4:	f8 94       	cli

000003b6 <__stop_program>:
 3b6:	ff cf       	rjmp	.-2      	; 0x3b6 <__stop_program>
