
main.elf:     file format elf32-avr


Disassembly of section .text:

00000000 <__vectors>:
__vectors():
../../../../crt1/gcrt1.S:52
       0:	0c 94 46 00 	jmp	0x8c	; 0x8c <__ctors_end>
../../../../crt1/gcrt1.S:53
       4:	0c 94 65 00 	jmp	0xca	; 0xca <__bad_interrupt>
../../../../crt1/gcrt1.S:54
       8:	0c 94 65 00 	jmp	0xca	; 0xca <__bad_interrupt>
../../../../crt1/gcrt1.S:55
       c:	0c 94 65 00 	jmp	0xca	; 0xca <__bad_interrupt>
../../../../crt1/gcrt1.S:56
      10:	0c 94 65 00 	jmp	0xca	; 0xca <__bad_interrupt>
../../../../crt1/gcrt1.S:57
      14:	0c 94 65 00 	jmp	0xca	; 0xca <__bad_interrupt>
../../../../crt1/gcrt1.S:58
      18:	0c 94 65 00 	jmp	0xca	; 0xca <__bad_interrupt>
../../../../crt1/gcrt1.S:59
      1c:	0c 94 65 00 	jmp	0xca	; 0xca <__bad_interrupt>
../../../../crt1/gcrt1.S:60
      20:	0c 94 65 00 	jmp	0xca	; 0xca <__bad_interrupt>
../../../../crt1/gcrt1.S:61
      24:	0c 94 65 00 	jmp	0xca	; 0xca <__bad_interrupt>
../../../../crt1/gcrt1.S:62
      28:	0c 94 65 00 	jmp	0xca	; 0xca <__bad_interrupt>
../../../../crt1/gcrt1.S:63
      2c:	0c 94 65 00 	jmp	0xca	; 0xca <__bad_interrupt>
../../../../crt1/gcrt1.S:64
      30:	0c 94 65 00 	jmp	0xca	; 0xca <__bad_interrupt>
../../../../crt1/gcrt1.S:65
      34:	0c 94 65 00 	jmp	0xca	; 0xca <__bad_interrupt>
../../../../crt1/gcrt1.S:66
      38:	0c 94 65 00 	jmp	0xca	; 0xca <__bad_interrupt>
../../../../crt1/gcrt1.S:67
      3c:	0c 94 65 00 	jmp	0xca	; 0xca <__bad_interrupt>
../../../../crt1/gcrt1.S:68
      40:	0c 94 65 00 	jmp	0xca	; 0xca <__bad_interrupt>
../../../../crt1/gcrt1.S:69
      44:	0c 94 65 00 	jmp	0xca	; 0xca <__bad_interrupt>
../../../../crt1/gcrt1.S:70
      48:	0c 94 65 00 	jmp	0xca	; 0xca <__bad_interrupt>
../../../../crt1/gcrt1.S:71
      4c:	0c 94 65 00 	jmp	0xca	; 0xca <__bad_interrupt>
../../../../crt1/gcrt1.S:72
      50:	0c 94 65 00 	jmp	0xca	; 0xca <__bad_interrupt>
../../../../crt1/gcrt1.S:73
      54:	0c 94 65 00 	jmp	0xca	; 0xca <__bad_interrupt>
../../../../crt1/gcrt1.S:74
      58:	0c 94 65 00 	jmp	0xca	; 0xca <__bad_interrupt>
../../../../crt1/gcrt1.S:75
      5c:	0c 94 65 00 	jmp	0xca	; 0xca <__bad_interrupt>
../../../../crt1/gcrt1.S:76
      60:	0c 94 65 00 	jmp	0xca	; 0xca <__bad_interrupt>
../../../../crt1/gcrt1.S:77
      64:	0c 94 65 00 	jmp	0xca	; 0xca <__bad_interrupt>
../../../../crt1/gcrt1.S:78
      68:	0c 94 65 00 	jmp	0xca	; 0xca <__bad_interrupt>
../../../../crt1/gcrt1.S:79
      6c:	0c 94 65 00 	jmp	0xca	; 0xca <__bad_interrupt>
../../../../crt1/gcrt1.S:80
      70:	0c 94 65 00 	jmp	0xca	; 0xca <__bad_interrupt>
../../../../crt1/gcrt1.S:81
      74:	0c 94 65 00 	jmp	0xca	; 0xca <__bad_interrupt>
../../../../crt1/gcrt1.S:82
      78:	0c 94 65 00 	jmp	0xca	; 0xca <__bad_interrupt>
../../../../crt1/gcrt1.S:83
      7c:	0c 94 65 00 	jmp	0xca	; 0xca <__bad_interrupt>
../../../../crt1/gcrt1.S:84
      80:	0c 94 65 00 	jmp	0xca	; 0xca <__bad_interrupt>
../../../../crt1/gcrt1.S:85
      84:	0c 94 65 00 	jmp	0xca	; 0xca <__bad_interrupt>
../../../../crt1/gcrt1.S:86
      88:	0c 94 65 00 	jmp	0xca	; 0xca <__bad_interrupt>

0000008c <__ctors_end>:
../../../../crt1/gcrt1.S:179
      8c:	11 24       	eor	r1, r1
      8e:	1f be       	out	0x3f, r1	; 63
      90:	cf ef       	ldi	r28, 0xFF	; 255
      92:	d0 e1       	ldi	r29, 0x10	; 16
      94:	de bf       	out	0x3e, r29	; 62
      96:	cd bf       	out	0x3d, r28	; 61

00000098 <__do_copy_data>:
      98:	11 e0       	ldi	r17, 0x01	; 1
      9a:	a0 e0       	ldi	r26, 0x00	; 0
      9c:	b1 e0       	ldi	r27, 0x01	; 1
      9e:	e6 e2       	ldi	r30, 0x26	; 38
      a0:	ff ee       	ldi	r31, 0xEF	; 239
      a2:	00 e0       	ldi	r16, 0x00	; 0
      a4:	0b bf       	out	0x3b, r16	; 59
      a6:	02 c0       	rjmp	.+4      	; 0xac <__do_copy_data+0x14>
      a8:	07 90       	elpm	r0, Z+
      aa:	0d 92       	st	X+, r0
      ac:	a4 30       	cpi	r26, 0x04	; 4
      ae:	b1 07       	cpc	r27, r17
      b0:	d9 f7       	brne	.-10     	; 0xa8 <__do_copy_data+0x10>

000000b2 <__do_clear_bss>:
      b2:	11 e0       	ldi	r17, 0x01	; 1
      b4:	a4 e0       	ldi	r26, 0x04	; 4
      b6:	b1 e0       	ldi	r27, 0x01	; 1
      b8:	01 c0       	rjmp	.+2      	; 0xbc <.do_clear_bss_start>

000000ba <.do_clear_bss_loop>:
      ba:	1d 92       	st	X+, r1

000000bc <.do_clear_bss_start>:
      bc:	ae 33       	cpi	r26, 0x3E	; 62
      be:	b1 07       	cpc	r27, r17
      c0:	e1 f7       	brne	.-8      	; 0xba <.do_clear_bss_loop>
      c2:	0e 94 67 00 	call	0xce	; 0xce <main>
      c6:	0c 94 91 77 	jmp	0xef22	; 0xef22 <_exit>

000000ca <__bad_interrupt>:
__bad_interrupt():
../../../../crt1/gcrt1.S:195
      ca:	0c 94 00 00 	jmp	0	; 0x0 <__vectors>

000000ce <main>:
main():
/home/becker/async/autosafe/trunk/tum/wcet-cbmc/benchmarks/nsichneu/nsichneu.c:56
      ce:	ef 92       	push	r14
      d0:	ff 92       	push	r15
      d2:	0f 93       	push	r16
      d4:	1f 93       	push	r17
      d6:	cf 93       	push	r28
      d8:	df 93       	push	r29
      da:	cd b7       	in	r28, 0x3d	; 61
      dc:	de b7       	in	r29, 0x3e	; 62
      de:	ca 5e       	subi	r28, 0xEA	; 234
      e0:	d5 40       	sbci	r29, 0x05	; 5
      e2:	0f b6       	in	r0, 0x3f	; 63
      e4:	f8 94       	cli
      e6:	de bf       	out	0x3e, r29	; 62
      e8:	0f be       	out	0x3f, r0	; 63
      ea:	cd bf       	out	0x3d, r28	; 61
/home/becker/async/autosafe/trunk/tum/wcet-cbmc/benchmarks/nsichneu/nsichneu.c:59
      ec:	82 e0       	ldi	r24, 0x02	; 2
      ee:	90 e0       	ldi	r25, 0x00	; 0
      f0:	9a 83       	std	Y+2, r25	; 0x02
      f2:	89 83       	std	Y+1, r24	; 0x01
/home/becker/async/autosafe/trunk/tum/wcet-cbmc/benchmarks/nsichneu/nsichneu.c:61
      f4:	0c 94 76 77 	jmp	0xeeec	; 0xeeec <__stack+0xdded>
/home/becker/async/autosafe/trunk/tum/wcet-cbmc/benchmarks/nsichneu/nsichneu.c:63
      f8:	89 81       	ldd	r24, Y+1	; 0x01
      fa:	9a 81       	ldd	r25, Y+2	; 0x02
      fc:	01 97       	sbiw	r24, 0x01	; 1
      fe:	9a 83       	std	Y+2, r25	; 0x02
     100:	89 83       	std	Y+1, r24	; 0x01
/home/becker/async/autosafe/trunk/tum/wcet-cbmc/benchmarks/nsichneu/nsichneu.c:66
     102:	80 91 00 01 	lds	r24, 0x0100
     106:	90 91 01 01 	lds	r25, 0x0101
     10a:	83 30       	cpi	r24, 0x03	; 3
     10c:	91 05       	cpc	r25, r1
     10e:	0c f4       	brge	.+2      	; 0x112 <main+0x44>
     110:	a9 c0       	rjmp	.+338    	; 0x264 <main+0x196>
/home/becker/async/autosafe/trunk/tum/wcet-cbmc/benchmarks/nsichneu/nsichneu.c:67
     112:	80 91 04 01 	lds	r24, 0x0104
     116:	90 91 05 01 	lds	r25, 0x0105
     11a:	03 96       	adiw	r24, 0x03	; 3
/home/becker/async/autosafe/trunk/tum/wcet-cbmc/benchmarks/nsichneu/nsichneu.c:66
     11c:	87 30       	cpi	r24, 0x07	; 7
     11e:	91 05       	cpc	r25, r1
     120:	0c f0       	brlt	.+2      	; 0x124 <main+0x56>
     122:	a0 c0       	rjmp	.+320    	; 0x264 <main+0x196>
/home/becker/async/autosafe/trunk/tum/wcet-cbmc/benchmarks/nsichneu/nsichneu.c:68
     124:	20 91 22 01 	lds	r18, 0x0122
     128:	30 91 23 01 	lds	r19, 0x0123
     12c:	40 91 24 01 	lds	r20, 0x0124
     130:	50 91 25 01 	lds	r21, 0x0125
     134:	80 91 26 01 	lds	r24, 0x0126
     138:	90 91 27 01 	lds	r25, 0x0127
     13c:	a0 91 28 01 	lds	r26, 0x0128
     140:	b0 91 29 01 	lds	r27, 0x0129
/home/becker/async/autosafe/trunk/tum/wcet-cbmc/benchmarks/nsichneu/nsichneu.c:67
     144:	28 17       	cp	r18, r24
     146:	39 07       	cpc	r19, r25
     148:	4a 07       	cpc	r20, r26
     14a:	5b 07       	cpc	r21, r27
     14c:	09 f0       	breq	.+2      	; 0x150 <main+0x82>
     14e:	8a c0       	rjmp	.+276    	; 0x264 <main+0x196>
/home/becker/async/autosafe/trunk/tum/wcet-cbmc/benchmarks/nsichneu/nsichneu.c:74
     150:	80 91 1e 01 	lds	r24, 0x011E
     154:	90 91 1f 01 	lds	r25, 0x011F
     158:	a0 91 20 01 	lds	r26, 0x0120
     15c:	b0 91 21 01 	lds	r27, 0x0121
     160:	8b 83       	std	Y+3, r24	; 0x03
     162:	9c 83       	std	Y+4, r25	; 0x04
     164:	ad 83       	std	Y+5, r26	; 0x05
     166:	be 83       	std	Y+6, r27	; 0x06
/home/becker/async/autosafe/trunk/tum/wcet-cbmc/benchmarks/nsichneu/nsichneu.c:75
     168:	80 91 22 01 	lds	r24, 0x0122
     16c:	90 91 23 01 	lds	r25, 0x0123
     170:	a0 91 24 01 	lds	r26, 0x0124
     174:	b0 91 25 01 	lds	r27, 0x0125
     178:	8f 83       	std	Y+7, r24	; 0x07
     17a:	98 87       	std	Y+8, r25	; 0x08
     17c:	a9 87       	std	Y+9, r26	; 0x09
     17e:	ba 87       	std	Y+10, r27	; 0x0a
/home/becker/async/autosafe/trunk/tum/wcet-cbmc/benchmarks/nsichneu/nsichneu.c:78
     180:	2b 81       	ldd	r18, Y+3	; 0x03
     182:	3c 81       	ldd	r19, Y+4	; 0x04
     184:	4d 81       	ldd	r20, Y+5	; 0x05
     186:	5e 81       	ldd	r21, Y+6	; 0x06
     188:	8f 81       	ldd	r24, Y+7	; 0x07
     18a:	98 85       	ldd	r25, Y+8	; 0x08
     18c:	a9 85       	ldd	r26, Y+9	; 0x09
     18e:	ba 85       	ldd	r27, Y+10	; 0x0a
     190:	28 17       	cp	r18, r24
     192:	39 07       	cpc	r19, r25
     194:	4a 07       	cpc	r20, r26
     196:	5b 07       	cpc	r21, r27
     198:	0c f0       	brlt	.+2      	; 0x19c <main+0xce>
     19a:	64 c0       	rjmp	.+200    	; 0x264 <main+0x196>
/home/becker/async/autosafe/trunk/tum/wcet-cbmc/benchmarks/nsichneu/nsichneu.c:81
     19c:	80 91 00 01 	lds	r24, 0x0100
     1a0:	90 91 01 01 	lds	r25, 0x0101
     1a4:	03 97       	sbiw	r24, 0x03	; 3
     1a6:	90 93 01 01 	sts	0x0101, r25
     1aa:	80 93 00 01 	sts	0x0100, r24
/home/becker/async/autosafe/trunk/tum/wcet-cbmc/benchmarks/nsichneu/nsichneu.c:84
     1ae:	2b 81       	ldd	r18, Y+3	; 0x03
     1b0:	3c 81       	ldd	r19, Y+4	; 0x04
     1b2:	4d 81       	ldd	r20, Y+5	; 0x05
     1b4:	5e 81       	ldd	r21, Y+6	; 0x06
     1b6:	8f 81       	ldd	r24, Y+7	; 0x07
     1b8:	98 85       	ldd	r25, Y+8	; 0x08
     1ba:	a9 85       	ldd	r26, Y+9	; 0x09
     1bc:	ba 85       	ldd	r27, Y+10	; 0x0a
     1be:	79 01       	movw	r14, r18
     1c0:	8a 01       	movw	r16, r20
     1c2:	e8 1a       	sub	r14, r24
     1c4:	f9 0a       	sbc	r15, r25
     1c6:	0a 0b       	sbc	r16, r26
     1c8:	1b 0b       	sbc	r17, r27
     1ca:	d8 01       	movw	r26, r16
     1cc:	c7 01       	movw	r24, r14
     1ce:	8b 87       	std	Y+11, r24	; 0x0b
     1d0:	9c 87       	std	Y+12, r25	; 0x0c
     1d2:	ad 87       	std	Y+13, r26	; 0x0d
     1d4:	be 87       	std	Y+14, r27	; 0x0e
/home/becker/async/autosafe/trunk/tum/wcet-cbmc/benchmarks/nsichneu/nsichneu.c:87
     1d6:	80 91 04 01 	lds	r24, 0x0104
     1da:	90 91 05 01 	lds	r25, 0x0105
     1de:	88 0f       	add	r24, r24
     1e0:	99 1f       	adc	r25, r25
     1e2:	88 0f       	add	r24, r24
     1e4:	99 1f       	adc	r25, r25
     1e6:	9c 01       	movw	r18, r24
     1e8:	2a 5f       	subi	r18, 0xFA	; 250
     1ea:	3e 4f       	sbci	r19, 0xFE	; 254
     1ec:	8b 81       	ldd	r24, Y+3	; 0x03
     1ee:	9c 81       	ldd	r25, Y+4	; 0x04
     1f0:	ad 81       	ldd	r26, Y+5	; 0x05
     1f2:	be 81       	ldd	r27, Y+6	; 0x06
     1f4:	f9 01       	movw	r30, r18
     1f6:	80 83       	st	Z, r24
     1f8:	91 83       	std	Z+1, r25	; 0x01
     1fa:	a2 83       	std	Z+2, r26	; 0x02
     1fc:	b3 83       	std	Z+3, r27	; 0x03
/home/becker/async/autosafe/trunk/tum/wcet-cbmc/benchmarks/nsichneu/nsichneu.c:88
     1fe:	80 91 04 01 	lds	r24, 0x0104
     202:	90 91 05 01 	lds	r25, 0x0105
     206:	01 96       	adiw	r24, 0x01	; 1
     208:	88 0f       	add	r24, r24
     20a:	99 1f       	adc	r25, r25
     20c:	88 0f       	add	r24, r24
     20e:	99 1f       	adc	r25, r25
     210:	9c 01       	movw	r18, r24
     212:	2a 5f       	subi	r18, 0xFA	; 250
     214:	3e 4f       	sbci	r19, 0xFE	; 254
     216:	8f 81       	ldd	r24, Y+7	; 0x07
     218:	98 85       	ldd	r25, Y+8	; 0x08
     21a:	a9 85       	ldd	r26, Y+9	; 0x09
     21c:	ba 85       	ldd	r27, Y+10	; 0x0a
     21e:	f9 01       	movw	r30, r18
     220:	80 83       	st	Z, r24
     222:	91 83       	std	Z+1, r25	; 0x01
     224:	a2 83       	std	Z+2, r26	; 0x02
     226:	b3 83       	std	Z+3, r27	; 0x03
/home/becker/async/autosafe/trunk/tum/wcet-cbmc/benchmarks/nsichneu/nsichneu.c:89
     228:	80 91 04 01 	lds	r24, 0x0104
     22c:	90 91 05 01 	lds	r25, 0x0105
     230:	02 96       	adiw	r24, 0x02	; 2
     232:	88 0f       	add	r24, r24
     234:	99 1f       	adc	r25, r25
     236:	88 0f       	add	r24, r24
     238:	99 1f       	adc	r25, r25
     23a:	9c 01       	movw	r18, r24
     23c:	2a 5f       	subi	r18, 0xFA	; 250
     23e:	3e 4f       	sbci	r19, 0xFE	; 254
     240:	8b 85       	ldd	r24, Y+11	; 0x0b
     242:	9c 85       	ldd	r25, Y+12	; 0x0c
     244:	ad 85       	ldd	r26, Y+13	; 0x0d
     246:	be 85       	ldd	r27, Y+14	; 0x0e
     248:	f9 01       	movw	r30, r18
     24a:	80 83       	st	Z, r24
     24c:	91 83       	std	Z+1, r25	; 0x01
     24e:	a2 83       	std	Z+2, r26	; 0x02
     250:	b3 83       	std	Z+3, r27	; 0x03
/home/becker/async/autosafe/trunk/tum/wcet-cbmc/benchmarks/nsichneu/nsichneu.c:90
     252:	80 91 04 01 	lds	r24, 0x0104
     256:	90 91 05 01 	lds	r25, 0x0105
     25a:	03 96       	adiw	r24, 0x03	; 3
     25c:	90 93 05 01 	sts	0x0105, r25
     260:	80 93 04 01 	sts	0x0104, r24
/home/becker/async/autosafe/trunk/tum/wcet-cbmc/benchmarks/nsichneu/nsichneu.c:97
     264:	80 91 00 01 	lds	r24, 0x0100
     268:	90 91 01 01 	lds	r25, 0x0101
     26c:	83 30       	cpi	r24, 0x03	; 3
     26e:	91 05       	cpc	r25, r1
     270:	0c f4       	brge	.+2      	; 0x274 <main+0x1a6>
     272:	a9 c0       	rjmp	.+338    	; 0x3c6 <main+0x2f8>
/home/becker/async/autosafe/trunk/tum/wcet-cbmc/benchmarks/nsichneu/nsichneu.c:98
     274:	80 91 04 01 	lds	r24, 0x0104
     278:	90 91 05 01 	lds	r25, 0x0105
     27c:	03 96       	adiw	r24, 0x03	; 3
/home/becker/async/autosafe/trunk/tum/wcet-cbmc/benchmarks/nsichneu/nsichneu.c:97
     27e:	87 30       	cpi	r24, 0x07	; 7
     280:	91 05       	cpc	r25, r1
     282:	0c f0       	brlt	.+2      	; 0x286 <main+0x1b8>
     284:	a0 c0       	rjmp	.+320    	; 0x3c6 <main+0x2f8>
/home/becker/async/autosafe/trunk/tum/wcet-cbmc/benchmarks/nsichneu/nsichneu.c:99
     286:	20 91 26 01 	lds	r18, 0x0126
     28a:	30 91 27 01 	lds	r19, 0x0127
     28e:	40 91 28 01 	lds	r20, 0x0128
     292:	50 91 29 01 	lds	r21, 0x0129
     296:	80 91 22 01 	lds	r24, 0x0122
     29a:	90 91 23 01 	lds	r25, 0x0123
     29e:	a0 91 24 01 	lds	r26, 0x0124
     2a2:	b0 91 25 01 	lds	r27, 0x0125
/home/becker/async/autosafe/trunk/tum/wcet-cbmc/benchmarks/nsichneu/nsichneu.c:98
     2a6:	28 17       	cp	r18, r24
     2a8:	39 07       	cpc	r19, r25
     2aa:	4a 07       	cpc	r20, r26
     2ac:	5b 07       	cpc	r21, r27
     2ae:	09 f0       	breq	.+2      	; 0x2b2 <main+0x1e4>
     2b0:	8a c0       	rjmp	.+276    	; 0x3c6 <main+0x2f8>
/home/becker/async/autosafe/trunk/tum/wcet-cbmc/benchmarks/nsichneu/nsichneu.c:105
     2b2:	80 91 1e 01 	lds	r24, 0x011E
     2b6:	90 91 1f 01 	lds	r25, 0x011F
     2ba:	a0 91 20 01 	lds	r26, 0x0120
     2be:	b0 91 21 01 	lds	r27, 0x0121
     2c2:	8f 87       	std	Y+15, r24	; 0x0f
     2c4:	98 8b       	std	Y+16, r25	; 0x10
     2c6:	a9 8b       	std	Y+17, r26	; 0x11
     2c8:	ba 8b       	std	Y+18, r27	; 0x12
/home/becker/async/autosafe/trunk/tum/wcet-cbmc/benchmarks/nsichneu/nsichneu.c:106
     2ca:	80 91 26 01 	lds	r24, 0x0126
     2ce:	90 91 27 01 	lds	r25, 0x0127
     2d2:	a0 91 28 01 	lds	r26, 0x0128
     2d6:	b0 91 29 01 	lds	r27, 0x0129
     2da:	8b 8b       	std	Y+19, r24	; 0x13
     2dc:	9c 8b       	std	Y+20, r25	; 0x14
     2de:	ad 8b       	std	Y+21, r26	; 0x15
     2e0:	be 8b       	std	Y+22, r27	; 0x16
/home/becker/async/autosafe/trunk/tum/wcet-cbmc/benchmarks/nsichneu/nsichneu.c:109
     2e2:	2f 85       	ldd	r18, Y+15	; 0x0f
     2e4:	38 89       	ldd	r19, Y+16	; 0x10
     2e6:	49 89       	ldd	r20, Y+17	; 0x11
     2e8:	5a 89       	ldd	r21, Y+18	; 0x12
     2ea:	8b 89       	ldd	r24, Y+19	; 0x13
     2ec:	9c 89       	ldd	r25, Y+20	; 0x14
     2ee:	ad 89       	ldd	r26, Y+21	; 0x15
     2f0:	be 89       	ldd	r27, Y+22	; 0x16
     2f2:	28 17       	cp	r18, r24
     2f4:	39 07       	cpc	r19, r25
     2f6:	4a 07       	cpc	r20, r26
     2f8:	5b 07       	cpc	r21, r27
     2fa:	0c f0       	brlt	.+2      	; 0x2fe <main+0x230>
     2fc:	64 c0       	rjmp	.+200    	; 0x3c6 <main+0x2f8>
/home/becker/async/autosafe/trunk/tum/wcet-cbmc/benchmarks/nsichneu/nsichneu.c:113
     2fe:	80 91 00 01 	lds	r24, 0x0100
     302:	90 91 01 01 	lds	r25, 0x0101
     306:	03 97       	sbiw	r24, 0x03	; 3
     308:	90 93 01 01 	sts	0x0101, r25
     30c:	80 93 00 01 	sts	0x0100, r24
/home/becker/async/autosafe/trunk/tum/wcet-cbmc/benchmarks/nsichneu/nsichneu.c:116
     310:	2f 85       	ldd	r18, Y+15	; 0x0f
     312:	38 89       	ldd	r19, Y+16	; 0x10
     314:	49 89       	ldd	r20, Y+17	; 0x11
     316:	5a 89       	ldd	r21, Y+18	; 0x12
     318:	8b 89       	ldd	r24, Y+19	; 0x13
     31a:	9c 89       	ldd	r25, Y+20	; 0x14
     31c:	ad 89       	ldd	r26, Y+21	; 0x15
     31e:	be 89       	ldd	r27, Y+22	; 0x16
     320:	79 01       	movw	r14, r18
     322:	8a 01       	movw	r16, r20
     324:	e8 1a       	sub	r14, r24
     326:	f9 0a       	sbc	r15, r25
     328:	0a 0b       	sbc	r16, r26
     32a:	1b 0b       	sbc	r17, r27
     32c:	d8 01       	movw	r26, r16
     32e:	c7 01       	movw	r24, r14
     330:	8f 8b       	std	Y+23, r24	; 0x17
     332:	98 8f       	std	Y+24, r25	; 0x18
     334:	a9 8f       	std	Y+25, r26	; 0x19
     336:	ba 8f       	std	Y+26, r27	; 0x1a
/home/becker/async/autosafe/trunk/tum/wcet-cbmc/benchmarks/nsichneu/nsichneu.c:119
     338:	80 91 04 01 	lds	r24, 0x0104
     33c:	90 91 05 01 	lds	r25, 0x0105
     340:	88 0f       	add	r24, r24
     342:	99 1f       	adc	r25, r25
     344:	88 0f       	add	r24, r24
     346:	99 1f       	adc	r25, r25
     348:	9c 01       	movw	r18, r24
     34a:	2a 5f       	subi	r18, 0xFA	; 250
     34c:	3e 4f       	sbci	r19, 0xFE	; 254
     34e:	8f 85       	ldd	r24, Y+15	; 0x0f
     350:	98 89       	ldd	r25, Y+16	; 0x10
     352:	a9 89       	ldd	r26, Y+17	; 0x11
     354:	ba 89       	ldd	r27, Y+18	; 0x12
     356:	f9 01       	movw	r30, r18
     358:	80 83       	st	Z, r24
     35a:	91 83       	std	Z+1, r25	; 0x01
     35c:	a2 83       	std	Z+2, r26	; 0x02
     35e:	b3 83       	std	Z+3, r27	; 0x03
/home/becker/async/autosafe/trunk/tum/wcet-cbmc/benchmarks/nsichneu/nsichneu.c:120
     360:	80 91 04 01 	lds	r24, 0x0104
     364:	90 91 05 01 	lds	r25, 0x0105
     368:	01 96       	adiw	r24, 0x01	; 1
     36a:	88 0f       	add	r24, r24
     36c:	99 1f       	adc	r25, r25
     36e:	88 0f       	add	r24, r24
     370:	99 1f       	adc	r25, r25
     372:	9c 01       	movw	r18, r24
     374:	2a 5f       	subi	r18, 0xFA	; 250
     376:	3e 4f       	sbci	r19, 0xFE	; 254
     378:	8b 89       	ldd	r24, Y+19	; 0x13
     37a:	9c 89       	ldd	r25, Y+20	; 0x14
     37c:	ad 89       	ldd	r26, Y+21	; 0x15
     37e:	be 89       	ldd	r27, Y+22	; 0x16
     380:	f9 01       	movw	r30, r18
     382:	80 83       	st	Z, r24
     384:	91 83       	std	Z+1, r25	; 0x01
     386:	a2 83       	std	Z+2, r26	; 0x02
     388:	b3 83       	std	Z+3, r27	; 0x03
/home/becker/async/autosafe/trunk/tum/wcet-cbmc/benchmarks/nsichneu/nsichneu.c:121
     38a:	80 91 04 01 	lds	r24, 0x0104
     38e:	90 91 05 01 	lds	r25, 0x0105
     392:	02 96       	adiw	r24, 0x02	; 2
     394:	88 0f       	add	r24, r24
     396:	99 1f       	adc	r25, r25
     398:	88 0f       	add	r24, r24
     39a:	99 1f       	adc	r25, r25
     39c:	9c 01       	movw	r18, r24
     39e:	2a 5f       	subi	r18, 0xFA	; 250
     3a0:	3e 4f       	sbci	r19, 0xFE	; 254
     3a2:	8f 89       	ldd	r24, Y+23	; 0x17
     3a4:	98 8d       	ldd	r25, Y+24	; 0x18
     3a6:	a9 8d       	ldd	r26, Y+25	; 0x19
     3a8:	ba 8d       	ldd	r27, Y+26	; 0x1a
     3aa:	f9 01       	movw	r30, r18
     3ac:	80 83       	st	Z, r24
     3ae:	91 83       	std	Z+1, r25	; 0x01
     3b0:	a2 83       	std	Z+2, r26	; 0x02
     3b2:	b3 83       	std	Z+3, r27	; 0x03
/home/becker/async/autosafe/trunk/tum/wcet-cbmc/benchmarks/nsichneu/nsichneu.c:122
     3b4:	80 91 04 01 	lds	r24, 0x0104
     3b8:	90 91 05 01 	lds	r25, 0x0105
     3bc:	03 96       	adiw	r24, 0x03	; 3
     3be:	90 93 05 01 	sts	0x0105, r25
     3c2:	80 93 04 01 	sts	0x0104, r24
/home/becker/async/autosafe/trunk/tum/wcet-cbmc/benchmarks/nsichneu/nsichneu.c:129
     3c6:	80 91 00 01 	lds	r24, 0x0100
     3ca:	90 91 01 01 	lds	r25, 0x0101
     3ce:	83 30       	cpi	r24, 0x03	; 3
     3d0:	91 05       	cpc	r25, r1
     3d2:	0c f4       	brge	.+2      	; 0x3d6 <main+0x308>
     3d4:	a9 c0       	rjmp	.+338    	; 0x528 <main+0x45a>
/home/becker/async/autosafe/trunk/tum/wcet-cbmc/benchmarks/nsichneu/nsichneu.c:130
     3d6:	80 91 04 01 	lds	r24, 0x0104
     3da:	90 91 05 01 	lds	r25, 0x0105
     3de:	03 96       	adiw	r24, 0x03	; 3
/home/becker/async/autosafe/trunk/tum/wcet-cbmc/benchmarks/nsichneu/nsichneu.c:129
     3e0:	87 30       	cpi	r24, 0x07	; 7
     3e2:	91 05       	cpc	r25, r1
     3e4:	0c f0       	brlt	.+2      	; 0x3e8 <main+0x31a>
     3e6:	a0 c0       	rjmp	.+320    	; 0x528 <main+0x45a>
/home/becker/async/autosafe/trunk/tum/wcet-cbmc/benchmarks/nsichneu/nsichneu.c:131
     3e8:	20 91 1e 01 	lds	r18, 0x011E
     3ec:	30 91 1f 01 	lds	r19, 0x011F
     3f0:	40 91 20 01 	lds	r20, 0x0120
     3f4:	50 91 21 01 	lds	r21, 0x0121
     3f8:	80 91 26 01 	lds	r24, 0x0126
     3fc:	90 91 27 01 	lds	r25, 0x0127
     400:	a0 91 28 01 	lds	r26, 0x0128
     404:	b0 91 29 01 	lds	r27, 0x0129
/home/becker/async/autosafe/trunk/tum/wcet-cbmc/benchmarks/nsichneu/nsichneu.c:130
     408:	28 17       	cp	r18, r24
     40a:	39 07       	cpc	r19, r25
     40c:	4a 07       	cpc	r20, r26
     40e:	5b 07       	cpc	r21, r27
     410:	09 f0       	breq	.+2      	; 0x414 <main+0x346>
     412:	8a c0       	rjmp	.+276    	; 0x528 <main+0x45a>
/home/becker/async/autosafe/trunk/tum/wcet-cbmc/benchmarks/nsichneu/nsichneu.c:137
     414:	80 91 22 01 	lds	r24, 0x0122
     418:	90 91 23 01 	lds	r25, 0x0123
     41c:	a0 91 24 01 	lds	r26, 0x0124
     420:	b0 91 25 01 	lds	r27, 0x0125
     424:	8b 8f       	std	Y+27, r24	; 0x1b
     426:	9c 8f       	std	Y+28, r25	; 0x1c
     428:	ad 8f       	std	Y+29, r26	; 0x1d
     42a:	be 8f       	std	Y+30, r27	; 0x1e
/home/becker/async/autosafe/trunk/tum/wcet-cbmc/benchmarks/nsichneu/nsichneu.c:138
     42c:	80 91 1e 01 	lds	r24, 0x011E
     430:	90 91 1f 01 	lds	r25, 0x011F
     434:	a0 91 20 01 	lds	r26, 0x0120
     438:	b0 91 21 01 	lds	r27, 0x0121
     43c:	8f 8f       	std	Y+31, r24	; 0x1f
     43e:	98 a3       	std	Y+32, r25	; 0x20
     440:	a9 a3       	std	Y+33, r26	; 0x21
     442:	ba a3       	std	Y+34, r27	; 0x22
/home/becker/async/autosafe/trunk/tum/wcet-cbmc/benchmarks/nsichneu/nsichneu.c:141
     444:	2b 8d       	ldd	r18, Y+27	; 0x1b
     446:	3c 8d       	ldd	r19, Y+28	; 0x1c
     448:	4d 8d       	ldd	r20, Y+29	; 0x1d
     44a:	5e 8d       	ldd	r21, Y+30	; 0x1e
     44c:	8f 8d       	ldd	r24, Y+31	; 0x1f
     44e:	98 a1       	ldd	r25, Y+32	; 0x20
     450:	a9 a1       	ldd	r26, Y+33	; 0x21
     452:	ba a1       	ldd	r27, Y+34	; 0x22
     454:	28 17       	cp	r18, r24
     456:	39 07       	cpc	r19, r25
     458:	4a 07       	cpc	r20, r26
     45a:	5b 07       	cpc	r21, r27
     45c:	0c f0       	brlt	.+2      	; 0x460 <main+0x392>
     45e:	64 c0       	rjmp	.+200    	; 0x528 <main+0x45a>
/home/becker/async/autosafe/trunk/tum/wcet-cbmc/benchmarks/nsichneu/nsichneu.c:145
     460:	80 91 00 01 	lds	r24, 0x0100
     464:	90 91 01 01 	lds	r25, 0x0101
     468:	03 97       	sbiw	r24, 0x03	; 3
     46a:	90 93 01 01 	sts	0x0101, r25
     46e:	80 93 00 01 	sts	0x0100, r24
/home/becker/async/autosafe/trunk/tum/wcet-cbmc/benchmarks/nsichneu/nsichneu.c:148
     472:	2b 8d       	ldd	r18, Y+27	; 0x1b
     474:	3c 8d       	ldd	r19, Y+28	; 0x1c
     476:	4d 8d       	ldd	r20, Y+29	; 0x1d
     478:	5e 8d       	ldd	r21, Y+30	; 0x1e
     47a:	8f 8d       	ldd	r24, Y+31	; 0x1f
     47c:	98 a1       	ldd	r25, Y+32	; 0x20
     47e:	a9 a1       	ldd	r26, Y+33	; 0x21
     480:	ba a1       	ldd	r27, Y+34	; 0x22
     482:	79 01       	movw	r14, r18
     484:	8a 01       	movw	r16, r20
     486:	e8 1a       	sub	r14, r24
     488:	f9 0a       	sbc	r15, r25
     48a:	0a 0b       	sbc	r16, r26
     48c:	1b 0b       	sbc	r17, r27
     48e:	d8 01       	movw	r26, r16
     490:	c7 01       	movw	r24, r14
     492:	8b a3       	std	Y+35, r24	; 0x23
     494:	9c a3       	std	Y+36, r25	; 0x24
     496:	ad a3       	std	Y+37, r26	; 0x25
     498:	be a3       	std	Y+38, r27	; 0x26
/home/becker/async/autosafe/trunk/tum/wcet-cbmc/benchmarks/nsichneu/nsichneu.c:151
     49a:	80 91 04 01 	lds	r24, 0x0104
     49e:	90 91 05 01 	lds	r25, 0x0105
     4a2:	88 0f       	add	r24, r24
     4a4:	99 1f       	adc	r25, r25
     4a6:	88 0f       	add	r24, r24
     4a8:	99 1f       	adc	r25, r25
     4aa:	9c 01       	movw	r18, r24
     4ac:	2a 5f       	subi	r18, 0xFA	; 250
     4ae:	3e 4f       	sbci	r19, 0xFE	; 254
     4b0:	8b 8d       	ldd	r24, Y+27	; 0x1b
     4b2:	9c 8d       	ldd	r25, Y+28	; 0x1c
     4b4:	ad 8d       	ldd	r26, Y+29	; 0x1d
     4b6:	be 8d       	ldd	r27, Y+30	; 0x1e
     4b8:	f9 01       	movw	r30, r18
     4ba:	80 83       	st	Z, r24
     4bc:	91 83       	std	Z+1, r25	; 0x01
     4be:	a2 83       	std	Z+2, r26	; 0x02
     4c0:	b3 83       	std	Z+3, r27	; 0x03
/home/becker/async/autosafe/trunk/tum/wcet-cbmc/benchmarks/nsichneu/nsichneu.c:152
     4c2:	80 91 04 01 	lds	r24, 0x0104
     4c6:	90 91 05 01 	lds	r25, 0x0105
     4ca:	01 96       	adiw	r24, 0x01	; 1
     4cc:	88 0f       	add	r24, r24
     4ce:	99 1f       	adc	r25, r25
     4d0:	88 0f       	add	r24, r24
     4d2:	99 1f       	adc	r25, r25
     4d4:	9c 01       	movw	r18, r24
     4d6:	2a 5f       	subi	r18, 0xFA	; 250
     4d8:	3e 4f       	sbci	r19, 0xFE	; 254
     4da:	8f 8d       	ldd	r24, Y+31	; 0x1f
     4dc:	98 a1       	ldd	r25, Y+32	; 0x20
     4de:	a9 a1       	ldd	r26, Y+33	; 0x21
     4e0:	ba a1       	ldd	r27, Y+34	; 0x22
     4e2:	f9 01       	movw	r30, r18
     4e4:	80 83       	st	Z, r24
     4e6:	91 83       	std	Z+1, r25	; 0x01
     4e8:	a2 83       	std	Z+2, r26	; 0x02
     4ea:	b3 83       	std	Z+3, r27	; 0x03
/home/becker/async/autosafe/trunk/tum/wcet-cbmc/benchmarks/nsichneu/nsichneu.c:153
     4ec:	80 91 04 01 	lds	r24, 0x0104
     4f0:	90 91 05 01 	lds	r25, 0x0105
     4f4:	02 96       	adiw	r24, 0x02	; 2
     4f6:	88 0f       	add	r24, r24
     4f8:	99 1f       	adc	r25, r25
     4fa:	88 0f       	add	r24, r24
     4fc:	99 1f       	adc	r25, r25
     4fe:	9c 01       	movw	r18, r24
     500:	2a 5f       	subi	r18, 0xFA	; 250
     502:	3e 4f       	sbci	r19, 0xFE	; 254
     504:	8b a1       	ldd	r24, Y+35	; 0x23
     506:	9c a1       	ldd	r25, Y+36	; 0x24
     508:	ad a1       	ldd	r26, Y+37	; 0x25
     50a:	be a1       	ldd	r27, Y+38	; 0x26
     50c:	f9 01       	movw	r30, r18
     50e:	80 83       	st	Z, r24
     510:	91 83       	std	Z+1, r25	; 0x01
     512:	a2 83       	std	Z+2, r26	; 0x02
     514:	b3 83       	std	Z+3, r27	; 0x03
/home/becker/async/autosafe/trunk/tum/wcet-cbmc/benchmarks/nsichneu/nsichneu.c:154
     516:	80 91 04 01 	lds	r24, 0x0104
     51a:	90 91 05 01 	lds	r25, 0x0105
     51e:	03 96       	adiw	r24, 0x03	; 3
     520:	90 93 05 01 	sts	0x0105, r25
     524:	80 93 04 01 	sts	0x0104, r24
/home/becker/async/autosafe/trunk/tum/wcet-cbmc/benchmarks/nsichneu/nsichneu.c:161
     528:	80 91 00 01 	lds	r24, 0x0100
     52c:	90 91 01 01 	lds	r25, 0x0101
     530:	83 30       	cpi	r24, 0x03	; 3
     532:	91 05       	cpc	r25, r1
     534:	0c f4       	brge	.+2      	; 0x538 <main+0x46a>
     536:	a9 c0       	rjmp	.+338    	; 0x68a <main+0x5bc>
/home/becker/async/autosafe/trunk/tum/wcet-cbmc/benchmarks/nsichneu/nsichneu.c:162
     538:	80 91 04 01 	lds	r24, 0x0104
     53c:	90 91 05 01 	lds	r25, 0x0105
     540:	03 96       	adiw	r24, 0x03	; 3
/home/becker/async/autosafe/trunk/tum/wcet-cbmc/benchmarks/nsichneu/nsichneu.c:161
     542:	87 30       	cpi	r24, 0x07	; 7
     544:	91 05       	cpc	r25, r1
     546:	0c f0       	brlt	.+2      	; 0x54a <main+0x47c>
     548:	a0 c0       	rjmp	.+320    	; 0x68a <main+0x5bc>
/home/becker/async/autosafe/trunk/tum/wcet-cbmc/benchmarks/nsichneu/nsichneu.c:163
     54a:	20 91 26 01 	lds	r18, 0x0126
     54e:	30 91 27 01 	lds	r19, 0x0127
     552:	40 91 28 01 	lds	r20, 0x0128
     556:	50 91 29 01 	lds	r21, 0x0129
     55a:	80 91 1e 01 	lds	r24, 0x011E
     55e:	90 91 1f 01 	lds	r25, 0x011F
     562:	a0 91 20 01 	lds	r26, 0x0120
     566:	b0 91 21 01 	lds	r27, 0x0121
/home/becker/async/autosafe/trunk/tum/wcet-cbmc/benchmarks/nsichneu/nsichneu.c:162
     56a:	28 17       	cp	r18, r24
     56c:	39 07       	cpc	r19, r25
     56e:	4a 07       	cpc	r20, r26
     570:	5b 07       	cpc	r21, r27
     572:	09 f0       	breq	.+2      	; 0x576 <main+0x4a8>
     574:	8a c0       	rjmp	.+276    	; 0x68a <main+0x5bc>
/home/becker/async/autosafe/trunk/tum/wcet-cbmc/benchmarks/nsichneu/nsichneu.c:169
     576:	80 91 22 01 	lds	r24, 0x0122
     57a:	90 91 23 01 	lds	r25, 0x0123
     57e:	a0 91 24 01 	lds	r26, 0x0124
     582:	b0 91 25 01 	lds	r27, 0x0125
     586:	8f a3       	std	Y+39, r24	; 0x27
     588:	98 a7       	std	Y+40, r25	; 0x28
     58a:	a9 a7       	std	Y+41, r26	; 0x29
     58c:	ba a7       	std	Y+42, r27	; 0x2a
/home/becker/async/autosafe/trunk/tum/wcet-cbmc/benchmarks/nsichneu/nsichneu.c:170
     58e:	80 91 26 01 	lds	r24, 0x0126
     592:	90 91 27 01 	lds	r25, 0x0127
     596:	a0 91 28 01 	lds	r26, 0x0128
     59a:	b0 91 29 01 	lds	r27, 0x0129
     59e:	8b a7       	std	Y+43, r24	; 0x2b
     5a0:	9c a7       	std	Y+44, r25	; 0x2c
     5a2:	ad a7       	std	Y+45, r26	; 0x2d
     5a4:	be a7       	std	Y+46, r27	; 0x2e
/home/becker/async/autosafe/trunk/tum/wcet-cbmc/benchmarks/nsichneu/nsichneu.c:173
     5a6:	2f a1       	ldd	r18, Y+39	; 0x27
     5a8:	38 a5       	ldd	r19, Y+40	; 0x28
     5aa:	49 a5       	ldd	r20, Y+41	; 0x29
     5ac:	5a a5       	ldd	r21, Y+42	; 0x2a
     5ae:	8b a5       	ldd	r24, Y+43	; 0x2b
     5b0:	9c a5       	ldd	r25, Y+44	; 0x2c
     5b2:	ad a5       	ldd	r26, Y+45	; 0x2d
     5b4:	be a5       	ldd	r27, Y+46	; 0x2e
     5b6:	28 17       	cp	r18, r24
     5b8:	39 07       	cpc	r19, r25
     5ba:	4a 07       	cpc	r20, r26
     5bc:	5b 07       	cpc	r21, r27
     5be:	0c f0       	brlt	.+2      	; 0x5c2 <main+0x4f4>
     5c0:	64 c0       	rjmp	.+200    	; 0x68a <main+0x5bc>
/home/becker/async/autosafe/trunk/tum/wcet-cbmc/benchmarks/nsichneu/nsichneu.c:177
     5c2:	80 91 00 01 	lds	r24, 0x0100
     5c6:	90 91 01 01 	lds	r25, 0x0101
     5ca:	03 97       	sbiw	r24, 0x03	; 3
     5cc:	90 93 01 01 	sts	0x0101, r25
     5d0:	80 93 00 01 	sts	0x0100, r24
/home/becker/async/autosafe/trunk/tum/wcet-cbmc/benchmarks/nsichneu/nsichneu.c:180
     5d4:	2f a1       	ldd	r18, Y+39	; 0x27
     5d6:	38 a5       	ldd	r19, Y+40	; 0x28
     5d8:	49 a5       	ldd	r20, Y+41	; 0x29
     5da:	5a a5       	ldd	r21, Y+42	; 0x2a
     5dc:	8b a5       	ldd	r24, Y+43	; 0x2b
     5de:	9c a5       	ldd	r25, Y+44	; 0x2c
     5e0:	ad a5       	ldd	r26, Y+45	; 0x2d
     5e2:	be a5       	ldd	r27, Y+46	; 0x2e
     5e4:	79 01       	movw	r14, r18
     5e6:	8a 01       	movw	r16, r20
     5e8:	e8 1a       	sub	r14, r24
     5ea:	f9 0a       	sbc	r15, r25
     5ec:	0a 0b       	sbc	r16, r26
     5ee:	1b 0b       	sbc	r17, r27
     5f0:	d8 01       	movw	r26, r16
     5f2:	c7 01       	movw	r24, r14
     5f4:	8f a7       	std	Y+47, r24	; 0x2f
     5f6:	98 ab       	std	Y+48, r25	; 0x30
     5f8:	a9 ab       	std	Y+49, r26	; 0x31
     5fa:	ba ab       	std	Y+50, r27	; 0x32
/home/becker/async/autosafe/trunk/tum/wcet-cbmc/benchmarks/nsichneu/nsichneu.c:183
     5fc:	80 91 04 01 	lds	r24, 0x0104
     600:	90 91 05 01 	lds	r25, 0x0105
     604:	88 0f       	add	r24, r24
     606:	99 1f       	adc	r25, r25
     608:	88 0f       	add	r24, r24
     60a:	99 1f       	adc	r25, r25
     60c:	9c 01       	movw	r18, r24
     60e:	2a 5f       	subi	r18, 0xFA	; 250
     610:	3e 4f       	sbci	r19, 0xFE	; 254
     612:	8f a1       	ldd	r24, Y+39	; 0x27
     614:	98 a5       	ldd	r25, Y+40	; 0x28
     616:	a9 a5       	ldd	r26, Y+41	; 0x29
     618:	ba a5       	ldd	r27, Y+42	; 0x2a
     61a:	f9 01       	movw	r30, r18
     61c:	80 83       	st	Z, r24
     61e:	91 83       	std	Z+1, r25	; 0x01
     620:	a2 83       	std	Z+2, r26	; 0x02
     622:	b3 83       	std	Z+3, r27	; 0x03
/home/becker/async/autosafe/trunk/tum/wcet-cbmc/benchmarks/nsichneu/nsichneu.c:184
     624:	80 91 04 01 	lds	r24, 0x0104
     628:	90 91 05 01 	lds	r25, 0x0105
     62c:	01 96       	adiw	r24, 0x01	; 1
     62e:	88 0f       	add	r24, r24
     630:	99 1f       	adc	r25, r25
     632:	88 0f       	add	r24, r24
     634:	99 1f       	adc	r25, r25
     636:	9c 01       	movw	r18, r24
     638:	2a 5f       	subi	r18, 0xFA	; 250
     63a:	3e 4f       	sbci	r19, 0xFE	; 254
     63c:	8b a5       	ldd	r24, Y+43	; 0x2b
     63e:	9c a5       	ldd	r25, Y+44	; 0x2c
     640:	ad a5       	ldd	r26, Y+45	; 0x2d
     642:	be a5       	ldd	r27, Y+46	; 0x2e
     644:	f9 01       	movw	r30, r18
     646:	80 83       	st	Z, r24
     648:	91 83       	std	Z+1, r25	; 0x01
     64a:	a2 83       	std	Z+2, r26	; 0x02
     64c:	b3 83       	std	Z+3, r27	; 0x03
/home/becker/async/autosafe/trunk/tum/wcet-cbmc/benchmarks/nsichneu/nsichneu.c:185
     64e:	80 91 04 01 	lds	r24, 0x0104
     652:	90 91 05 01 	lds	r25, 0x0105
     656:	02 96       	adiw	r24, 0x02	; 2
     658:	88 0f       	add	r24, r24
     65a:	99 1f       	adc	r25, r25
     65c:	88 0f       	add	r24, r24
     65e:	99 1f       	adc	r25, r25
     660:	9c 01       	movw	r18, r24
     662:	2a 5f       	subi	r18, 0xFA	; 250
     664:	3e 4f       	sbci	r19, 0xFE	; 254
     666:	8f a5       	ldd	r24, Y+47	; 0x2f
     668:	98 a9       	ldd	r25, Y+48	; 0x30
     66a:	a9 a9       	ldd	r26, Y+49	; 0x31
     66c:	ba a9       	ldd	r27, Y+50	; 0x32
     66e:	f9 01       	movw	r30, r18
     670:	80 83       	st	Z, r24
     672:	91 83       	std	Z+1, r25	; 0x01
     674:	a2 83       	std	Z+2, r26	; 0x02
     676:	b3 83       	std	Z+3, r27	; 0x03
/home/becker/async/autosafe/trunk/tum/wcet-cbmc/benchmarks/nsichneu/nsichneu.c:186
     678:	80 91 04 01 	lds	r24, 0x0104
     67c:	90 91 05 01 	lds	r25, 0x0105
     680:	03 96       	adiw	r24, 0x03	; 3
     682:	90 93 05 01 	sts	0x0105, r25
     686:	80 93 04 01 	sts	0x0104, r24
/home/becker/async/autosafe/trunk/tum/wcet-cbmc/benchmarks/nsichneu/nsichneu.c:193
     68a:	80 91 00 01 	lds	r24, 0x0100
     68e:	90 91 01 01 	lds	r25, 0x0101
     692:	83 30       	cpi	r24, 0x03	; 3
     694:	91 05       	cpc	r25, r1
     696:	0c f4       	brge	.+2      	; 0x69a <main+0x5cc>
     698:	a9 c0       	rjmp	.+338    	; 0x7ec <main+0x71e>
/home/becker/async/autosafe/trunk/tum/wcet-cbmc/benchmarks/nsichneu/nsichneu.c:194
     69a:	80 91 04 01 	lds	r24, 0x0104
     69e:	90 91 05 01 	lds	r25, 0x0105
     6a2:	03 96       	adiw	r24, 0x03	; 3
/home/becker/async/autosafe/trunk/tum/wcet-cbmc/benchmarks/nsichneu/nsichneu.c:193
     6a4:	87 30       	cpi	r24, 0x07	; 7
     6a6:	91 05       	cpc	r25, r1
     6a8:	0c f0       	brlt	.+2      	; 0x6ac <main+0x5de>
     6aa:	a0 c0       	rjmp	.+320    	; 0x7ec <main+0x71e>
/home/becker/async/autosafe/trunk/tum/wcet-cbmc/benchmarks/nsichneu/nsichneu.c:195
     6ac:	20 91 1e 01 	lds	r18, 0x011E
     6b0:	30 91 1f 01 	lds	r19, 0x011F
     6b4:	40 91 20 01 	lds	r20, 0x0120
     6b8:	50 91 21 01 	lds	r21, 0x0121
     6bc:	80 91 22 01 	lds	r24, 0x0122
     6c0:	90 91 23 01 	lds	r25, 0x0123
     6c4:	a0 91 24 01 	lds	r26, 0x0124
     6c8:	b0 91 25 01 	lds	r27, 0x0125
/home/becker/async/autosafe/trunk/tum/wcet-cbmc/benchmarks/nsichneu/nsichneu.c:194
     6cc:	28 17       	cp	r18, r24
     6ce:	39 07       	cpc	r19, r25
     6d0:	4a 07       	cpc	r20, r26
     6d2:	5b 07       	cpc	r21, r27
     6d4:	09 f0       	breq	.+2      	; 0x6d8 <main+0x60a>
     6d6:	8a c0       	rjmp	.+276    	; 0x7ec <main+0x71e>
/home/becker/async/autosafe/trunk/tum/wcet-cbmc/benchmarks/nsichneu/nsichneu.c:200
     6d8:	80 91 26 01 	lds	r24, 0x0126
     6dc:	90 91 27 01 	lds	r25, 0x0127
     6e0:	a0 91 28 01 	lds	r26, 0x0128
     6e4:	b0 91 29 01 	lds	r27, 0x0129
     6e8:	8b ab       	std	Y+51, r24	; 0x33
     6ea:	9c ab       	std	Y+52, r25	; 0x34
     6ec:	ad ab       	std	Y+53, r26	; 0x35
     6ee:	be ab       	std	Y+54, r27	; 0x36
/home/becker/async/autosafe/trunk/tum/wcet-cbmc/benchmarks/nsichneu/nsichneu.c:201
     6f0:	80 91 1e 01 	lds	r24, 0x011E
     6f4:	90 91 1f 01 	lds	r25, 0x011F
     6f8:	a0 91 20 01 	lds	r26, 0x0120
     6fc:	b0 91 21 01 	lds	r27, 0x0121
     700:	8f ab       	std	Y+55, r24	; 0x37
     702:	98 af       	std	Y+56, r25	; 0x38
     704:	a9 af       	std	Y+57, r26	; 0x39
     706:	ba af       	std	Y+58, r27	; 0x3a
/home/becker/async/autosafe/trunk/tum/wcet-cbmc/benchmarks/nsichneu/nsichneu.c:204
     708:	2b a9       	ldd	r18, Y+51	; 0x33
     70a:	3c a9       	ldd	r19, Y+52	; 0x34
     70c:	4d a9       	ldd	r20, Y+53	; 0x35
     70e:	5e a9       	ldd	r21, Y+54	; 0x36
     710:	8f a9       	ldd	r24, Y+55	; 0x37
     712:	98 ad       	ldd	r25, Y+56	; 0x38
     714:	a9 ad       	ldd	r26, Y+57	; 0x39
     716:	ba ad       	ldd	r27, Y+58	; 0x3a
     718:	28 17       	cp	r18, r24
     71a:	39 07       	cpc	r19, r25
     71c:	4a 07       	cpc	r20, r26
     71e:	5b 07       	cpc	r21, r27
     720:	0c f0       	brlt	.+2      	; 0x724 <main+0x656>
     722:	64 c0       	rjmp	.+200    	; 0x7ec <main+0x71e>
/home/becker/async/autosafe/trunk/tum/wcet-cbmc/benchmarks/nsichneu/nsichneu.c:207
     724:	80 91 00 01 	lds	r24, 0x0100
     728:	90 91 01 01 	lds	r25, 0x0101
     72c:	03 97       	sbiw	r24, 0x03	; 3
     72e:	90 93 01 01 	sts	0x0101, r25
     732:	80 93 00 01 	sts	0x0100, r24
/home/becker/async/autosafe/trunk/tum/wcet-cbmc/benchmarks/nsichneu/nsichneu.c:210
     736:	2b a9       	ldd	r18, Y+51	; 0x33
     738:	3c a9       	ldd	r19, Y+52	; 0x34
     73a:	4d a9       	ldd	r20, Y+53	; 0x35
     73c:	5e a9       	ldd	r21, Y+54	; 0x36
     73e:	8f a9       	ldd	r24, Y+55	; 0x37
     740:	98 ad       	ldd	r25, Y+56	; 0x38
     742:	a9 ad       	ldd	r26, Y+57	; 0x39
     744:	ba ad       	ldd	r27, Y+58	; 0x3a
     746:	79 01       	movw	r14, r18
     748:	8a 01       	movw	r16, r20
     74a:	e8 1a       	sub	r14, r24
     74c:	f9 0a       	sbc	r15, r25
     74e:	0a 0b       	sbc	r16, r26
     750:	1b 0b       	sbc	r17, r27
     752:	d8 01       	movw	r26, r16
     754:	c7 01       	movw	r24, r14
     756:	8b af       	std	Y+59, r24	; 0x3b
     758:	9c af       	std	Y+60, r25	; 0x3c
     75a:	ad af       	std	Y+61, r26	; 0x3d
     75c:	be af       	std	Y+62, r27	; 0x3e
/home/becker/async/autosafe/trunk/tum/wcet-cbmc/benchmarks/nsichneu/nsichneu.c:213
     75e:	80 91 04 01 	lds	r24, 0x0104
     762:	90 91 05 01 	lds	r25, 0x0105
     766:	88 0f       	add	r24, r24
     768:	99 1f       	adc	r25, r25
     76a:	88 0f       	add	r24, r24
     76c:	99 1f       	adc	r25, r25
     76e:	9c 01       	movw	r18, r24
     770:	2a 5f       	subi	r18, 0xFA	; 250
     772:	3e 4f       	sbci	r19, 0xFE	; 254
     774:	8b a9       	ldd	r24, Y+51	; 0x33
     776:	9c a9       	ldd	r25, Y+52	; 0x34
     778:	ad a9       	ldd	r26, Y+53	; 0x35
     77a:	be a9       	ldd	r27, Y+54	; 0x36
     77c:	f9 01       	movw	r30, r18
     77e:	80 83       	st	Z, r24
     780:	91 83       	std	Z+1, r25	; 0x01
     782:	a2 83       	std	Z+2, r26	; 0x02
     784:	b3 83       	std	Z+3, r27	; 0x03
/home/becker/async/autosafe/trunk/tum/wcet-cbmc/benchmarks/nsichneu/nsichneu.c:214
     786:	80 91 04 01 	lds	r24, 0x0104
     78a:	90 91 05 01 	lds	r25, 0x0105
     78e:	01 96       	adiw	r24, 0x01	; 1
     790:	88 0f       	add	r24, r24
     792:	99 1f       	adc	r25, r25
     794:	88 0f       	add	r24, r24
     796:	99 1f       	adc	r25, r25
     798:	9c 01       	movw	r18, r24
     79a:	2a 5f       	subi	r18, 0xFA	; 250
     79c:	3e 4f       	sbci	r19, 0xFE	; 254
     79e:	8f a9       	ldd	r24, Y+55	; 0x37
     7a0:	98 ad       	ldd	r25, Y+56	; 0x38
     7a2:	a9 ad       	ldd	r26, Y+57	; 0x39
     7a4:	ba ad       	ldd	r27, Y+58	; 0x3a
     7a6:	f9 01       	movw	r30, r18
     7a8:	80 83       	st	Z, r24
     7aa:	91 83       	std	Z+1, r25	; 0x01
     7ac:	a2 83       	std	Z+2, r26	; 0x02
     7ae:	b3 83       	std	Z+3, r27	; 0x03
/home/becker/async/autosafe/trunk/tum/wcet-cbmc/benchmarks/nsichneu/nsichneu.c:215
     7b0:	80 91 04 01 	lds	r24, 0x0104
     7b4:	90 91 05 01 	lds	r25, 0x0105
     7b8:	02 96       	adiw	r24, 0x02	; 2
     7ba:	88 0f       	add	r24, r24
     7bc:	99 1f       	adc	r25, r25
     7be:	88 0f       	add	r24, r24
     7c0:	99 1f       	adc	r25, r25
     7c2:	9c 01       	movw	r18, r24
     7c4:	2a 5f       	subi	r18, 0xFA	; 250
     7c6:	3e 4f       	sbci	r19, 0xFE	; 254
     7c8:	8b ad       	ldd	r24, Y+59	; 0x3b
     7ca:	9c ad       	ldd	r25, Y+60	; 0x3c
     7cc:	ad ad       	ldd	r26, Y+61	; 0x3d
     7ce:	be ad       	ldd	r27, Y+62	; 0x3e
     7d0:	f9 01       	movw	r30, r18
     7d2:	80 83       	st	Z, r24
     7d4:	91 83       	std	Z+1, r25	; 0x01
     7d6:	a2 83       	std	Z+2, r26	; 0x02
     7d8:	b3 83       	std	Z+3, r27	; 0x03
/home/becker/async/autosafe/trunk/tum/wcet-cbmc/benchmarks/nsichneu/nsichneu.c:216
     7da:	80 91 04 01 	lds	r24, 0x0104
     7de:	90 91 05 01 	lds	r25, 0x0105
     7e2:	03 96       	adiw	r24, 0x03	; 3
     7e4:	90 93 05 01 	sts	0x0105, r25
     7e8:	80 93 04 01 	sts	0x0104, r24
/home/becker/async/autosafe/trunk/tum/wcet-cbmc/benchmarks/nsichneu/nsichneu.c:223
     7ec:	80 91 00 01 	lds	r24, 0x0100
     7f0:	90 91 01 01 	lds	r25, 0x0101
     7f4:	83 30       	cpi	r24, 0x03	; 3
     7f6:	91 05       	cpc	r25, r1
     7f8:	0c f4       	brge	.+2      	; 0x7fc <main+0x72e>
     7fa:	d0 c0       	rjmp	.+416    	; 0x99c <main+0x8ce>
/home/becker/async/autosafe/trunk/tum/wcet-cbmc/benchmarks/nsichneu/nsichneu.c:224
     7fc:	80 91 04 01 	lds	r24, 0x0104
     800:	90 91 05 01 	lds	r25, 0x0105
     804:	03 96       	adiw	r24, 0x03	; 3
/home/becker/async/autosafe/trunk/tum/wcet-cbmc/benchmarks/nsichneu/nsichneu.c:223
     806:	87 30       	cpi	r24, 0x07	; 7
     808:	91 05       	cpc	r25, r1
     80a:	0c f0       	brlt	.+2      	; 0x80e <main+0x740>
     80c:	c7 c0       	rjmp	.+398    	; 0x99c <main+0x8ce>
/home/becker/async/autosafe/trunk/tum/wcet-cbmc/benchmarks/nsichneu/nsichneu.c:225
     80e:	20 91 22 01 	lds	r18, 0x0122
     812:	30 91 23 01 	lds	r19, 0x0123
     816:	40 91 24 01 	lds	r20, 0x0124
     81a:	50 91 25 01 	lds	r21, 0x0125
     81e:	80 91 1e 01 	lds	r24, 0x011E
     822:	90 91 1f 01 	lds	r25, 0x011F
     826:	a0 91 20 01 	lds	r26, 0x0120
     82a:	b0 91 21 01 	lds	r27, 0x0121
/home/becker/async/autosafe/trunk/tum/wcet-cbmc/benchmarks/nsichneu/nsichneu.c:224
     82e:	28 17       	cp	r18, r24
     830:	39 07       	cpc	r19, r25
     832:	4a 07       	cpc	r20, r26
     834:	5b 07       	cpc	r21, r27
     836:	09 f0       	breq	.+2      	; 0x83a <main+0x76c>
     838:	b1 c0       	rjmp	.+354    	; 0x99c <main+0x8ce>
/home/becker/async/autosafe/trunk/tum/wcet-cbmc/benchmarks/nsichneu/nsichneu.c:230
     83a:	9e 01       	movw	r18, r28
     83c:	21 5c       	subi	r18, 0xC1	; 193
     83e:	3f 4f       	sbci	r19, 0xFF	; 255
     840:	80 91 26 01 	lds	r24, 0x0126
     844:	90 91 27 01 	lds	r25, 0x0127
     848:	a0 91 28 01 	lds	r26, 0x0128
     84c:	b0 91 29 01 	lds	r27, 0x0129
     850:	f9 01       	movw	r30, r18
     852:	80 83       	st	Z, r24
     854:	91 83       	std	Z+1, r25	; 0x01
     856:	a2 83       	std	Z+2, r26	; 0x02
     858:	b3 83       	std	Z+3, r27	; 0x03
/home/becker/async/autosafe/trunk/tum/wcet-cbmc/benchmarks/nsichneu/nsichneu.c:231
     85a:	9e 01       	movw	r18, r28
     85c:	2d 5b       	subi	r18, 0xBD	; 189
     85e:	3f 4f       	sbci	r19, 0xFF	; 255
     860:	80 91 22 01 	lds	r24, 0x0122
     864:	90 91 23 01 	lds	r25, 0x0123
     868:	a0 91 24 01 	lds	r26, 0x0124
     86c:	b0 91 25 01 	lds	r27, 0x0125
     870:	f9 01       	movw	r30, r18
     872:	80 83       	st	Z, r24
     874:	91 83       	std	Z+1, r25	; 0x01
     876:	a2 83       	std	Z+2, r26	; 0x02
     878:	b3 83       	std	Z+3, r27	; 0x03
/home/becker/async/autosafe/trunk/tum/wcet-cbmc/benchmarks/nsichneu/nsichneu.c:234
     87a:	9e 01       	movw	r18, r28
     87c:	21 5c       	subi	r18, 0xC1	; 193
     87e:	3f 4f       	sbci	r19, 0xFF	; 255
     880:	ce 01       	movw	r24, r28
     882:	8d 5b       	subi	r24, 0xBD	; 189
     884:	9f 4f       	sbci	r25, 0xFF	; 255
     886:	f9 01       	movw	r30, r18
     888:	20 81       	ld	r18, Z
     88a:	31 81       	ldd	r19, Z+1	; 0x01
     88c:	42 81       	ldd	r20, Z+2	; 0x02
     88e:	53 81       	ldd	r21, Z+3	; 0x03
     890:	fc 01       	movw	r30, r24
     892:	80 81       	ld	r24, Z
     894:	91 81       	ldd	r25, Z+1	; 0x01
     896:	a2 81       	ldd	r26, Z+2	; 0x02
     898:	b3 81       	ldd	r27, Z+3	; 0x03
     89a:	28 17       	cp	r18, r24
     89c:	39 07       	cpc	r19, r25
     89e:	4a 07       	cpc	r20, r26
     8a0:	5b 07       	cpc	r21, r27
     8a2:	0c f0       	brlt	.+2      	; 0x8a6 <main+0x7d8>
     8a4:	7b c0       	rjmp	.+246    	; 0x99c <main+0x8ce>
/home/becker/async/autosafe/trunk/tum/wcet-cbmc/benchmarks/nsichneu/nsichneu.c:237
     8a6:	80 91 00 01 	lds	r24, 0x0100
     8aa:	90 91 01 01 	lds	r25, 0x0101
     8ae:	03 97       	sbiw	r24, 0x03	; 3
     8b0:	90 93 01 01 	sts	0x0101, r25
     8b4:	80 93 00 01 	sts	0x0100, r24
/home/becker/async/autosafe/trunk/tum/wcet-cbmc/benchmarks/nsichneu/nsichneu.c:240
     8b8:	be 01       	movw	r22, r28
     8ba:	69 5b       	subi	r22, 0xB9	; 185
     8bc:	7f 4f       	sbci	r23, 0xFF	; 255
     8be:	9e 01       	movw	r18, r28
     8c0:	21 5c       	subi	r18, 0xC1	; 193
     8c2:	3f 4f       	sbci	r19, 0xFF	; 255
     8c4:	ce 01       	movw	r24, r28
     8c6:	8d 5b       	subi	r24, 0xBD	; 189
     8c8:	9f 4f       	sbci	r25, 0xFF	; 255
     8ca:	f9 01       	movw	r30, r18
     8cc:	20 81       	ld	r18, Z
     8ce:	31 81       	ldd	r19, Z+1	; 0x01
     8d0:	42 81       	ldd	r20, Z+2	; 0x02
     8d2:	53 81       	ldd	r21, Z+3	; 0x03
     8d4:	fc 01       	movw	r30, r24
     8d6:	80 81       	ld	r24, Z
     8d8:	91 81       	ldd	r25, Z+1	; 0x01
     8da:	a2 81       	ldd	r26, Z+2	; 0x02
     8dc:	b3 81       	ldd	r27, Z+3	; 0x03
     8de:	79 01       	movw	r14, r18
     8e0:	8a 01       	movw	r16, r20
     8e2:	e8 1a       	sub	r14, r24
     8e4:	f9 0a       	sbc	r15, r25
     8e6:	0a 0b       	sbc	r16, r26
     8e8:	1b 0b       	sbc	r17, r27
     8ea:	d8 01       	movw	r26, r16
     8ec:	c7 01       	movw	r24, r14
     8ee:	fb 01       	movw	r30, r22
     8f0:	80 83       	st	Z, r24
     8f2:	91 83       	std	Z+1, r25	; 0x01
     8f4:	a2 83       	std	Z+2, r26	; 0x02
     8f6:	b3 83       	std	Z+3, r27	; 0x03
/home/becker/async/autosafe/trunk/tum/wcet-cbmc/benchmarks/nsichneu/nsichneu.c:243
     8f8:	80 91 04 01 	lds	r24, 0x0104
     8fc:	90 91 05 01 	lds	r25, 0x0105
     900:	88 0f       	add	r24, r24
     902:	99 1f       	adc	r25, r25
     904:	88 0f       	add	r24, r24
     906:	99 1f       	adc	r25, r25
     908:	9c 01       	movw	r18, r24
     90a:	2a 5f       	subi	r18, 0xFA	; 250
     90c:	3e 4f       	sbci	r19, 0xFE	; 254
     90e:	ce 01       	movw	r24, r28
     910:	cf 96       	adiw	r24, 0x3f	; 63
     912:	fc 01       	movw	r30, r24
     914:	80 81       	ld	r24, Z
     916:	91 81       	ldd	r25, Z+1	; 0x01
     918:	a2 81       	ldd	r26, Z+2	; 0x02
     91a:	b3 81       	ldd	r27, Z+3	; 0x03
     91c:	f9 01       	movw	r30, r18
     91e:	80 83       	st	Z, r24
     920:	91 83       	std	Z+1, r25	; 0x01
     922:	a2 83       	std	Z+2, r26	; 0x02
     924:	b3 83       	std	Z+3, r27	; 0x03
/home/becker/async/autosafe/trunk/tum/wcet-cbmc/benchmarks/nsichneu/nsichneu.c:244
     926:	80 91 04 01 	lds	r24, 0x0104
     92a:	90 91 05 01 	lds	r25, 0x0105
     92e:	01 96       	adiw	r24, 0x01	; 1
     930:	88 0f       	add	r24, r24
     932:	99 1f       	adc	r25, r25
     934:	88 0f       	add	r24, r24
     936:	99 1f       	adc	r25, r25
     938:	9c 01       	movw	r18, r24
     93a:	2a 5f       	subi	r18, 0xFA	; 250
     93c:	3e 4f       	sbci	r19, 0xFE	; 254
     93e:	ce 01       	movw	r24, r28
     940:	8d 5b       	subi	r24, 0xBD	; 189
     942:	9f 4f       	sbci	r25, 0xFF	; 255
     944:	fc 01       	movw	r30, r24
     946:	80 81       	ld	r24, Z
     948:	91 81       	ldd	r25, Z+1	; 0x01
     94a:	a2 81       	ldd	r26, Z+2	; 0x02
     94c:	b3 81       	ldd	r27, Z+3	; 0x03
     94e:	f9 01       	movw	r30, r18
     950:	80 83       	st	Z, r24
     952:	91 83       	std	Z+1, r25	; 0x01
     954:	a2 83       	std	Z+2, r26	; 0x02
     956:	b3 83       	std	Z+3, r27	; 0x03
/home/becker/async/autosafe/trunk/tum/wcet-cbmc/benchmarks/nsichneu/nsichneu.c:245
     958:	80 91 04 01 	lds	r24, 0x0104
     95c:	90 91 05 01 	lds	r25, 0x0105
     960:	02 96       	adiw	r24, 0x02	; 2
     962:	88 0f       	add	r24, r24
     964:	99 1f       	adc	r25, r25
     966:	88 0f       	add	r24, r24
     968:	99 1f       	adc	r25, r25
     96a:	9c 01       	movw	r18, r24
     96c:	2a 5f       	subi	r18, 0xFA	; 250
     96e:	3e 4f       	sbci	r19, 0xFE	; 254
     970:	ce 01       	movw	r24, r28
     972:	89 5b       	subi	r24, 0xB9	; 185
     974:	9f 4f       	sbci	r25, 0xFF	; 255
     976:	fc 01       	movw	r30, r24
     978:	80 81       	ld	r24, Z
     97a:	91 81       	ldd	r25, Z+1	; 0x01
     97c:	a2 81       	ldd	r26, Z+2	; 0x02
     97e:	b3 81       	ldd	r27, Z+3	; 0x03
     980:	f9 01       	movw	r30, r18
     982:	80 83       	st	Z, r24
     984:	91 83       	std	Z+1, r25	; 0x01
     986:	a2 83       	std	Z+2, r26	; 0x02
     988:	b3 83       	std	Z+3, r27	; 0x03
/home/becker/async/autosafe/trunk/tum/wcet-cbmc/benchmarks/nsichneu/nsichneu.c:246
     98a:	80 91 04 01 	lds	r24, 0x0104
     98e:	90 91 05 01 	lds	r25, 0x0105
     992:	03 96       	adiw	r24, 0x03	; 3
     994:	90 93 05 01 	sts	0x0105, r25
     998:	80 93 04 01 	sts	0x0104, r24
/home/becker/async/autosafe/trunk/tum/wcet-cbmc/benchmarks/nsichneu/nsichneu.c:253
     99c:	80 91 02 01 	lds	r24, 0x0102
     9a0:	90 91 03 01 	lds	r25, 0x0103
     9a4:	84 30       	cpi	r24, 0x04	; 4
     9a6:	91 05       	cpc	r25, r1
     9a8:	0c f4       	brge	.+2      	; 0x9ac <main+0x8de>
     9aa:	e3 c0       	rjmp	.+454    	; 0xb72 <main+0xaa4>
/home/becker/async/autosafe/trunk/tum/wcet-cbmc/benchmarks/nsichneu/nsichneu.c:254
     9ac:	80 91 04 01 	lds	r24, 0x0104
     9b0:	90 91 05 01 	lds	r25, 0x0105
     9b4:	03 96       	adiw	r24, 0x03	; 3
/home/becker/async/autosafe/trunk/tum/wcet-cbmc/benchmarks/nsichneu/nsichneu.c:253
     9b6:	87 30       	cpi	r24, 0x07	; 7
     9b8:	91 05       	cpc	r25, r1
     9ba:	0c f0       	brlt	.+2      	; 0x9be <main+0x8f0>
     9bc:	da c0       	rjmp	.+436    	; 0xb72 <main+0xaa4>
/home/becker/async/autosafe/trunk/tum/wcet-cbmc/benchmarks/nsichneu/nsichneu.c:255
     9be:	20 91 2e 01 	lds	r18, 0x012E
     9c2:	30 91 2f 01 	lds	r19, 0x012F
     9c6:	40 91 30 01 	lds	r20, 0x0130
     9ca:	50 91 31 01 	lds	r21, 0x0131
     9ce:	80 91 32 01 	lds	r24, 0x0132
     9d2:	90 91 33 01 	lds	r25, 0x0133
     9d6:	a0 91 34 01 	lds	r26, 0x0134
     9da:	b0 91 35 01 	lds	r27, 0x0135
/home/becker/async/autosafe/trunk/tum/wcet-cbmc/benchmarks/nsichneu/nsichneu.c:254
     9de:	28 17       	cp	r18, r24
     9e0:	39 07       	cpc	r19, r25
     9e2:	4a 07       	cpc	r20, r26
     9e4:	5b 07       	cpc	r21, r27
     9e6:	09 f0       	breq	.+2      	; 0x9ea <main+0x91c>
     9e8:	c4 c0       	rjmp	.+392    	; 0xb72 <main+0xaa4>
/home/becker/async/autosafe/trunk/tum/wcet-cbmc/benchmarks/nsichneu/nsichneu.c:256
     9ea:	20 91 2e 01 	lds	r18, 0x012E
     9ee:	30 91 2f 01 	lds	r19, 0x012F
     9f2:	40 91 30 01 	lds	r20, 0x0130
     9f6:	50 91 31 01 	lds	r21, 0x0131
     9fa:	80 91 36 01 	lds	r24, 0x0136
     9fe:	90 91 37 01 	lds	r25, 0x0137
     a02:	a0 91 38 01 	lds	r26, 0x0138
     a06:	b0 91 39 01 	lds	r27, 0x0139
/home/becker/async/autosafe/trunk/tum/wcet-cbmc/benchmarks/nsichneu/nsichneu.c:255
     a0a:	28 17       	cp	r18, r24
     a0c:	39 07       	cpc	r19, r25
     a0e:	4a 07       	cpc	r20, r26
     a10:	5b 07       	cpc	r21, r27
     a12:	09 f0       	breq	.+2      	; 0xa16 <main+0x948>
     a14:	ae c0       	rjmp	.+348    	; 0xb72 <main+0xaa4>
/home/becker/async/autosafe/trunk/tum/wcet-cbmc/benchmarks/nsichneu/nsichneu.c:261
     a16:	9e 01       	movw	r18, r28
     a18:	25 5b       	subi	r18, 0xB5	; 181
     a1a:	3f 4f       	sbci	r19, 0xFF	; 255
     a1c:	80 91 2a 01 	lds	r24, 0x012A
     a20:	90 91 2b 01 	lds	r25, 0x012B
     a24:	a0 91 2c 01 	lds	r26, 0x012C
     a28:	b0 91 2d 01 	lds	r27, 0x012D
     a2c:	f9 01       	movw	r30, r18
     a2e:	80 83       	st	Z, r24
     a30:	91 83       	std	Z+1, r25	; 0x01
     a32:	a2 83       	std	Z+2, r26	; 0x02
     a34:	b3 83       	std	Z+3, r27	; 0x03
/home/becker/async/autosafe/trunk/tum/wcet-cbmc/benchmarks/nsichneu/nsichneu.c:262
     a36:	9e 01       	movw	r18, r28
     a38:	21 5b       	subi	r18, 0xB1	; 177
     a3a:	3f 4f       	sbci	r19, 0xFF	; 255
     a3c:	80 91 2e 01 	lds	r24, 0x012E
     a40:	90 91 2f 01 	lds	r25, 0x012F
     a44:	a0 91 30 01 	lds	r26, 0x0130
     a48:	b0 91 31 01 	lds	r27, 0x0131
     a4c:	f9 01       	movw	r30, r18
     a4e:	80 83       	st	Z, r24
     a50:	91 83       	std	Z+1, r25	; 0x01
     a52:	a2 83       	std	Z+2, r26	; 0x02
     a54:	b3 83       	std	Z+3, r27	; 0x03
/home/becker/async/autosafe/trunk/tum/wcet-cbmc/benchmarks/nsichneu/nsichneu.c:265
     a56:	9e 01       	movw	r18, r28
     a58:	21 5b       	subi	r18, 0xB1	; 177
     a5a:	3f 4f       	sbci	r19, 0xFF	; 255
     a5c:	ce 01       	movw	r24, r28
     a5e:	85 5b       	subi	r24, 0xB5	; 181
     a60:	9f 4f       	sbci	r25, 0xFF	; 255
     a62:	f9 01       	movw	r30, r18
     a64:	20 81       	ld	r18, Z
     a66:	31 81       	ldd	r19, Z+1	; 0x01
     a68:	42 81       	ldd	r20, Z+2	; 0x02
     a6a:	53 81       	ldd	r21, Z+3	; 0x03
     a6c:	fc 01       	movw	r30, r24
     a6e:	80 81       	ld	r24, Z
     a70:	91 81       	ldd	r25, Z+1	; 0x01
     a72:	a2 81       	ldd	r26, Z+2	; 0x02
     a74:	b3 81       	ldd	r27, Z+3	; 0x03
     a76:	82 17       	cp	r24, r18
     a78:	93 07       	cpc	r25, r19
     a7a:	a4 07       	cpc	r26, r20
     a7c:	b5 07       	cpc	r27, r21
     a7e:	0c f0       	brlt	.+2      	; 0xa82 <main+0x9b4>
     a80:	78 c0       	rjmp	.+240    	; 0xb72 <main+0xaa4>
/home/becker/async/autosafe/trunk/tum/wcet-cbmc/benchmarks/nsichneu/nsichneu.c:268
     a82:	80 91 02 01 	lds	r24, 0x0102
     a86:	90 91 03 01 	lds	r25, 0x0103
     a8a:	04 97       	sbiw	r24, 0x04	; 4
     a8c:	90 93 03 01 	sts	0x0103, r25
     a90:	80 93 02 01 	sts	0x0102, r24
/home/becker/async/autosafe/trunk/tum/wcet-cbmc/benchmarks/nsichneu/nsichneu.c:271
     a94:	be 01       	movw	r22, r28
     a96:	6d 5a       	subi	r22, 0xAD	; 173
     a98:	7f 4f       	sbci	r23, 0xFF	; 255
     a9a:	9e 01       	movw	r18, r28
     a9c:	25 5b       	subi	r18, 0xB5	; 181
     a9e:	3f 4f       	sbci	r19, 0xFF	; 255
     aa0:	ce 01       	movw	r24, r28
     aa2:	81 5b       	subi	r24, 0xB1	; 177
     aa4:	9f 4f       	sbci	r25, 0xFF	; 255
     aa6:	f9 01       	movw	r30, r18
     aa8:	20 81       	ld	r18, Z
     aaa:	31 81       	ldd	r19, Z+1	; 0x01
     aac:	42 81       	ldd	r20, Z+2	; 0x02
     aae:	53 81       	ldd	r21, Z+3	; 0x03
     ab0:	fc 01       	movw	r30, r24
     ab2:	80 81       	ld	r24, Z
     ab4:	91 81       	ldd	r25, Z+1	; 0x01
     ab6:	a2 81       	ldd	r26, Z+2	; 0x02
     ab8:	b3 81       	ldd	r27, Z+3	; 0x03
     aba:	82 0f       	add	r24, r18
     abc:	93 1f       	adc	r25, r19
     abe:	a4 1f       	adc	r26, r20
     ac0:	b5 1f       	adc	r27, r21
     ac2:	fb 01       	movw	r30, r22
     ac4:	80 83       	st	Z, r24
     ac6:	91 83       	std	Z+1, r25	; 0x01
     ac8:	a2 83       	std	Z+2, r26	; 0x02
     aca:	b3 83       	std	Z+3, r27	; 0x03
/home/becker/async/autosafe/trunk/tum/wcet-cbmc/benchmarks/nsichneu/nsichneu.c:274
     acc:	80 91 04 01 	lds	r24, 0x0104
     ad0:	90 91 05 01 	lds	r25, 0x0105
     ad4:	88 0f       	add	r24, r24
     ad6:	99 1f       	adc	r25, r25
     ad8:	88 0f       	add	r24, r24
     ada:	99 1f       	adc	r25, r25
     adc:	9c 01       	movw	r18, r24
     ade:	2a 5f       	subi	r18, 0xFA	; 250
     ae0:	3e 4f       	sbci	r19, 0xFE	; 254
     ae2:	ce 01       	movw	r24, r28
     ae4:	85 5b       	subi	r24, 0xB5	; 181
     ae6:	9f 4f       	sbci	r25, 0xFF	; 255
     ae8:	fc 01       	movw	r30, r24
     aea:	80 81       	ld	r24, Z
     aec:	91 81       	ldd	r25, Z+1	; 0x01
     aee:	a2 81       	ldd	r26, Z+2	; 0x02
     af0:	b3 81       	ldd	r27, Z+3	; 0x03
     af2:	f9 01       	movw	r30, r18
     af4:	80 83       	st	Z, r24
     af6:	91 83       	std	Z+1, r25	; 0x01
     af8:	a2 83       	std	Z+2, r26	; 0x02
     afa:	b3 83       	std	Z+3, r27	; 0x03
/home/becker/async/autosafe/trunk/tum/wcet-cbmc/benchmarks/nsichneu/nsichneu.c:275
     afc:	80 91 04 01 	lds	r24, 0x0104
     b00:	90 91 05 01 	lds	r25, 0x0105
     b04:	01 96       	adiw	r24, 0x01	; 1
     b06:	88 0f       	add	r24, r24
     b08:	99 1f       	adc	r25, r25
     b0a:	88 0f       	add	r24, r24
     b0c:	99 1f       	adc	r25, r25
     b0e:	9c 01       	movw	r18, r24
     b10:	2a 5f       	subi	r18, 0xFA	; 250
     b12:	3e 4f       	sbci	r19, 0xFE	; 254
     b14:	ce 01       	movw	r24, r28
     b16:	81 5b       	subi	r24, 0xB1	; 177
     b18:	9f 4f       	sbci	r25, 0xFF	; 255
     b1a:	fc 01       	movw	r30, r24
     b1c:	80 81       	ld	r24, Z
     b1e:	91 81       	ldd	r25, Z+1	; 0x01
     b20:	a2 81       	ldd	r26, Z+2	; 0x02
     b22:	b3 81       	ldd	r27, Z+3	; 0x03
     b24:	f9 01       	movw	r30, r18
     b26:	80 83       	st	Z, r24
     b28:	91 83       	std	Z+1, r25	; 0x01
     b2a:	a2 83       	std	Z+2, r26	; 0x02
     b2c:	b3 83       	std	Z+3, r27	; 0x03
/home/becker/async/autosafe/trunk/tum/wcet-cbmc/benchmarks/nsichneu/nsichneu.c:276
     b2e:	80 91 04 01 	lds	r24, 0x0104
     b32:	90 91 05 01 	lds	r25, 0x0105
     b36:	02 96       	adiw	r24, 0x02	; 2
     b38:	88 0f       	add	r24, r24
     b3a:	99 1f       	adc	r25, r25
     b3c:	88 0f       	add	r24, r24
     b3e:	99 1f       	adc	r25, r25
     b40:	9c 01       	movw	r18, r24
     b42:	2a 5f       	subi	r18, 0xFA	; 250
     b44:	3e 4f       	sbci	r19, 0xFE	; 254
     b46:	ce 01       	movw	r24, r28
     b48:	8d 5a       	subi	r24, 0xAD	; 173
     b4a:	9f 4f       	sbci	r25, 0xFF	; 255
     b4c:	fc 01       	movw	r30, r24
     b4e:	80 81       	ld	r24, Z
     b50:	91 81       	ldd	r25, Z+1	; 0x01
     b52:	a2 81       	ldd	r26, Z+2	; 0x02
     b54:	b3 81       	ldd	r27, Z+3	; 0x03
     b56:	f9 01       	movw	r30, r18
     b58:	80 83       	st	Z, r24
     b5a:	91 83       	std	Z+1, r25	; 0x01
     b5c:	a2 83       	std	Z+2, r26	; 0x02
     b5e:	b3 83       	std	Z+3, r27	; 0x03
/home/becker/async/autosafe/trunk/tum/wcet-cbmc/benchmarks/nsichneu/nsichneu.c:277
     b60:	80 91 04 01 	lds	r24, 0x0104
     b64:	90 91 05 01 	lds	r25, 0x0105
     b68:	03 96       	adiw	r24, 0x03	; 3
     b6a:	90 93 05 01 	sts	0x0105, r25
     b6e:	80 93 04 01 	sts	0x0104, r24
/home/becker/async/autosafe/trunk/tum/wcet-cbmc/benchmarks/nsichneu/nsichneu.c:284
     b72:	80 91 02 01 	lds	r24, 0x0102
     b76:	90 91 03 01 	lds	r25, 0x0103
     b7a:	84 30       	cpi	r24, 0x04	; 4
     b7c:	91 05       	cpc	r25, r1
     b7e:	0c f4       	brge	.+2      	; 0xb82 <main+0xab4>
     b80:	e3 c0       	rjmp	.+454    	; 0xd48 <main+0xc7a>
/home/becker/async/autosafe/trunk/tum/wcet-cbmc/benchmarks/nsichneu/nsichneu.c:285
     b82:	80 91 04 01 	lds	r24, 0x0104
     b86:	90 91 05 01 	lds	r25, 0x0105
     b8a:	03 96       	adiw	r24, 0x03	; 3
/home/becker/async/autosafe/trunk/tum/wcet-cbmc/benchmarks/nsichneu/nsichneu.c:284
     b8c:	87 30       	cpi	r24, 0x07	; 7
     b8e:	91 05       	cpc	r25, r1
     b90:	0c f0       	brlt	.+2      	; 0xb94 <main+0xac6>
     b92:	da c0       	rjmp	.+436    	; 0xd48 <main+0xc7a>
/home/becker/async/autosafe/trunk/tum/wcet-cbmc/benchmarks/nsichneu/nsichneu.c:286
     b94:	20 91 2e 01 	lds	r18, 0x012E
     b98:	30 91 2f 01 	lds	r19, 0x012F
     b9c:	40 91 30 01 	lds	r20, 0x0130
     ba0:	50 91 31 01 	lds	r21, 0x0131
     ba4:	80 91 36 01 	lds	r24, 0x0136
     ba8:	90 91 37 01 	lds	r25, 0x0137
     bac:	a0 91 38 01 	lds	r26, 0x0138
     bb0:	b0 91 39 01 	lds	r27, 0x0139
/home/becker/async/autosafe/trunk/tum/wcet-cbmc/benchmarks/nsichneu/nsichneu.c:285
     bb4:	28 17       	cp	r18, r24
     bb6:	39 07       	cpc	r19, r25
     bb8:	4a 07       	cpc	r20, r26
     bba:	5b 07       	cpc	r21, r27
     bbc:	09 f0       	breq	.+2      	; 0xbc0 <main+0xaf2>
     bbe:	c4 c0       	rjmp	.+392    	; 0xd48 <main+0xc7a>
/home/becker/async/autosafe/trunk/tum/wcet-cbmc/benchmarks/nsichneu/nsichneu.c:287
     bc0:	20 91 2e 01 	lds	r18, 0x012E
     bc4:	30 91 2f 01 	lds	r19, 0x012F
     bc8:	40 91 30 01 	lds	r20, 0x0130
     bcc:	50 91 31 01 	lds	r21, 0x0131
     bd0:	80 91 32 01 	lds	r24, 0x0132
     bd4:	90 91 33 01 	lds	r25, 0x0133
     bd8:	a0 91 34 01 	lds	r26, 0x0134
     bdc:	b0 91 35 01 	lds	r27, 0x0135
/home/becker/async/autosafe/trunk/tum/wcet-cbmc/benchmarks/nsichneu/nsichneu.c:286
     be0:	28 17       	cp	r18, r24
     be2:	39 07       	cpc	r19, r25
     be4:	4a 07       	cpc	r20, r26
     be6:	5b 07       	cpc	r21, r27
     be8:	09 f0       	breq	.+2      	; 0xbec <main+0xb1e>
     bea:	ae c0       	rjmp	.+348    	; 0xd48 <main+0xc7a>
/home/becker/async/autosafe/trunk/tum/wcet-cbmc/benchmarks/nsichneu/nsichneu.c:292
     bec:	9e 01       	movw	r18, r28
     bee:	29 5a       	subi	r18, 0xA9	; 169
     bf0:	3f 4f       	sbci	r19, 0xFF	; 255
     bf2:	80 91 2a 01 	lds	r24, 0x012A
     bf6:	90 91 2b 01 	lds	r25, 0x012B
     bfa:	a0 91 2c 01 	lds	r26, 0x012C
     bfe:	b0 91 2d 01 	lds	r27, 0x012D
     c02:	f9 01       	movw	r30, r18
     c04:	80 83       	st	Z, r24
     c06:	91 83       	std	Z+1, r25	; 0x01
     c08:	a2 83       	std	Z+2, r26	; 0x02
     c0a:	b3 83       	std	Z+3, r27	; 0x03
/home/becker/async/autosafe/trunk/tum/wcet-cbmc/benchmarks/nsichneu/nsichneu.c:293
     c0c:	9e 01       	movw	r18, r28
     c0e:	25 5a       	subi	r18, 0xA5	; 165
     c10:	3f 4f       	sbci	r19, 0xFF	; 255
     c12:	80 91 2e 01 	lds	r24, 0x012E
     c16:	90 91 2f 01 	lds	r25, 0x012F
     c1a:	a0 91 30 01 	lds	r26, 0x0130
     c1e:	b0 91 31 01 	lds	r27, 0x0131
     c22:	f9 01       	movw	r30, r18
     c24:	80 83       	st	Z, r24
     c26:	91 83       	std	Z+1, r25	; 0x01
     c28:	a2 83       	std	Z+2, r26	; 0x02
     c2a:	b3 83       	std	Z+3, r27	; 0x03
/home/becker/async/autosafe/trunk/tum/wcet-cbmc/benchmarks/nsichneu/nsichneu.c:296
     c2c:	9e 01       	movw	r18, r28
     c2e:	25 5a       	subi	r18, 0xA5	; 165
     c30:	3f 4f       	sbci	r19, 0xFF	; 255
     c32:	ce 01       	movw	r24, r28
     c34:	89 5a       	subi	r24, 0xA9	; 169
     c36:	9f 4f       	sbci	r25, 0xFF	; 255
     c38:	f9 01       	movw	r30, r18
     c3a:	20 81       	ld	r18, Z
     c3c:	31 81       	ldd	r19, Z+1	; 0x01
     c3e:	42 81       	ldd	r20, Z+2	; 0x02
     c40:	53 81       	ldd	r21, Z+3	; 0x03
     c42:	fc 01       	movw	r30, r24
     c44:	80 81       	ld	r24, Z
     c46:	91 81       	ldd	r25, Z+1	; 0x01
     c48:	a2 81       	ldd	r26, Z+2	; 0x02
     c4a:	b3 81       	ldd	r27, Z+3	; 0x03
     c4c:	82 17       	cp	r24, r18
     c4e:	93 07       	cpc	r25, r19
     c50:	a4 07       	cpc	r26, r20
     c52:	b5 07       	cpc	r27, r21
     c54:	0c f0       	brlt	.+2      	; 0xc58 <main+0xb8a>
     c56:	78 c0       	rjmp	.+240    	; 0xd48 <main+0xc7a>
/home/becker/async/autosafe/trunk/tum/wcet-cbmc/benchmarks/nsichneu/nsichneu.c:299
     c58:	80 91 02 01 	lds	r24, 0x0102
     c5c:	90 91 03 01 	lds	r25, 0x0103
     c60:	04 97       	sbiw	r24, 0x04	; 4
     c62:	90 93 03 01 	sts	0x0103, r25
     c66:	80 93 02 01 	sts	0x0102, r24
/home/becker/async/autosafe/trunk/tum/wcet-cbmc/benchmarks/nsichneu/nsichneu.c:302
     c6a:	be 01       	movw	r22, r28
     c6c:	61 5a       	subi	r22, 0xA1	; 161
     c6e:	7f 4f       	sbci	r23, 0xFF	; 255
     c70:	9e 01       	movw	r18, r28
     c72:	29 5a       	subi	r18, 0xA9	; 169
     c74:	3f 4f       	sbci	r19, 0xFF	; 255
     c76:	ce 01       	movw	r24, r28
     c78:	85 5a       	subi	r24, 0xA5	; 165
     c7a:	9f 4f       	sbci	r25, 0xFF	; 255
     c7c:	f9 01       	movw	r30, r18
     c7e:	20 81       	ld	r18, Z
     c80:	31 81       	ldd	r19, Z+1	; 0x01
     c82:	42 81       	ldd	r20, Z+2	; 0x02
     c84:	53 81       	ldd	r21, Z+3	; 0x03
     c86:	fc 01       	movw	r30, r24
     c88:	80 81       	ld	r24, Z
     c8a:	91 81       	ldd	r25, Z+1	; 0x01
     c8c:	a2 81       	ldd	r26, Z+2	; 0x02
     c8e:	b3 81       	ldd	r27, Z+3	; 0x03
     c90:	82 0f       	add	r24, r18
     c92:	93 1f       	adc	r25, r19
     c94:	a4 1f       	adc	r26, r20
     c96:	b5 1f       	adc	r27, r21
     c98:	fb 01       	movw	r30, r22
     c9a:	80 83       	st	Z, r24
     c9c:	91 83       	std	Z+1, r25	; 0x01
     c9e:	a2 83       	std	Z+2, r26	; 0x02
     ca0:	b3 83       	std	Z+3, r27	; 0x03
/home/becker/async/autosafe/trunk/tum/wcet-cbmc/benchmarks/nsichneu/nsichneu.c:305
     ca2:	80 91 04 01 	lds	r24, 0x0104
     ca6:	90 91 05 01 	lds	r25, 0x0105
     caa:	88 0f       	add	r24, r24
     cac:	99 1f       	adc	r25, r25
     cae:	88 0f       	add	r24, r24
     cb0:	99 1f       	adc	r25, r25
     cb2:	9c 01       	movw	r18, r24
     cb4:	2a 5f       	subi	r18, 0xFA	; 250
     cb6:	3e 4f       	sbci	r19, 0xFE	; 254
     cb8:	ce 01       	movw	r24, r28
     cba:	89 5a       	subi	r24, 0xA9	; 169
     cbc:	9f 4f       	sbci	r25, 0xFF	; 255
     cbe:	fc 01       	movw	r30, r24
     cc0:	80 81       	ld	r24, Z
     cc2:	91 81       	ldd	r25, Z+1	; 0x01
     cc4:	a2 81       	ldd	r26, Z+2	; 0x02
     cc6:	b3 81       	ldd	r27, Z+3	; 0x03
     cc8:	f9 01       	movw	r30, r18
     cca:	80 83       	st	Z, r24
     ccc:	91 83       	std	Z+1, r25	; 0x01
     cce:	a2 83       	std	Z+2, r26	; 0x02
     cd0:	b3 83       	std	Z+3, r27	; 0x03
/home/becker/async/autosafe/trunk/tum/wcet-cbmc/benchmarks/nsichneu/nsichneu.c:306
     cd2:	80 91 04 01 	lds	r24, 0x0104
     cd6:	90 91 05 01 	lds	r25, 0x0105
     cda:	01 96       	adiw	r24, 0x01	; 1
     cdc:	88 0f       	add	r24, r24
     cde:	99 1f       	adc	r25, r25
     ce0:	88 0f       	add	r24, r24
     ce2:	99 1f       	adc	r25, r25
     ce4:	9c 01       	movw	r18, r24
     ce6:	2a 5f       	subi	r18, 0xFA	; 250
     ce8:	3e 4f       	sbci	r19, 0xFE	; 254
     cea:	ce 01       	movw	r24, r28
     cec:	85 5a       	subi	r24, 0xA5	; 165
     cee:	9f 4f       	sbci	r25, 0xFF	; 255
     cf0:	fc 01       	movw	r30, r24
     cf2:	80 81       	ld	r24, Z
     cf4:	91 81       	ldd	r25, Z+1	; 0x01
     cf6:	a2 81       	ldd	r26, Z+2	; 0x02
     cf8:	b3 81       	ldd	r27, Z+3	; 0x03
     cfa:	f9 01       	movw	r30, r18
     cfc:	80 83       	st	Z, r24
     cfe:	91 83       	std	Z+1, r25	; 0x01
     d00:	a2 83       	std	Z+2, r26	; 0x02
     d02:	b3 83       	std	Z+3, r27	; 0x03
/home/becker/async/autosafe/trunk/tum/wcet-cbmc/benchmarks/nsichneu/nsichneu.c:307
     d04:	80 91 04 01 	lds	r24, 0x0104
     d08:	90 91 05 01 	lds	r25, 0x0105
     d0c:	02 96       	adiw	r24, 0x02	; 2
     d0e:	88 0f       	add	r24, r24
     d10:	99 1f       	adc	r25, r25
     d12:	88 0f       	add	r24, r24
     d14:	99 1f       	adc	r25, r25
     d16:	9c 01       	movw	r18, r24
     d18:	2a 5f       	subi	r18, 0xFA	; 250
     d1a:	3e 4f       	sbci	r19, 0xFE	; 254
     d1c:	ce 01       	movw	r24, r28
     d1e:	81 5a       	subi	r24, 0xA1	; 161
     d20:	9f 4f       	sbci	r25, 0xFF	; 255
     d22:	fc 01       	movw	r30, r24
     d24:	80 81       	ld	r24, Z
     d26:	91 81       	ldd	r25, Z+1	; 0x01
     d28:	a2 81       	ldd	r26, Z+2	; 0x02
     d2a:	b3 81       	ldd	r27, Z+3	; 0x03
     d2c:	f9 01       	movw	r30, r18
     d2e:	80 83       	st	Z, r24
     d30:	91 83       	std	Z+1, r25	; 0x01
     d32:	a2 83       	std	Z+2, r26	; 0x02
     d34:	b3 83       	std	Z+3, r27	; 0x03
/home/becker/async/autosafe/trunk/tum/wcet-cbmc/benchmarks/nsichneu/nsichneu.c:308
     d36:	80 91 04 01 	lds	r24, 0x0104
     d3a:	90 91 05 01 	lds	r25, 0x0105
     d3e:	03 96       	adiw	r24, 0x03	; 3
     d40:	90 93 05 01 	sts	0x0105, r25
     d44:	80 93 04 01 	sts	0x0104, r24
/home/becker/async/autosafe/trunk/tum/wcet-cbmc/benchmarks/nsichneu/nsichneu.c:315
     d48:	80 91 02 01 	lds	r24, 0x0102
     d4c:	90 91 03 01 	lds	r25, 0x0103
     d50:	84 30       	cpi	r24, 0x04	; 4
     d52:	91 05       	cpc	r25, r1
     d54:	0c f4       	brge	.+2      	; 0xd58 <main+0xc8a>
     d56:	e3 c0       	rjmp	.+454    	; 0xf1e <main+0xe50>
/home/becker/async/autosafe/trunk/tum/wcet-cbmc/benchmarks/nsichneu/nsichneu.c:316
     d58:	80 91 04 01 	lds	r24, 0x0104
     d5c:	90 91 05 01 	lds	r25, 0x0105
     d60:	03 96       	adiw	r24, 0x03	; 3
/home/becker/async/autosafe/trunk/tum/wcet-cbmc/benchmarks/nsichneu/nsichneu.c:315
     d62:	87 30       	cpi	r24, 0x07	; 7
     d64:	91 05       	cpc	r25, r1
     d66:	0c f0       	brlt	.+2      	; 0xd6a <main+0xc9c>
     d68:	da c0       	rjmp	.+436    	; 0xf1e <main+0xe50>
/home/becker/async/autosafe/trunk/tum/wcet-cbmc/benchmarks/nsichneu/nsichneu.c:317
     d6a:	20 91 32 01 	lds	r18, 0x0132
     d6e:	30 91 33 01 	lds	r19, 0x0133
     d72:	40 91 34 01 	lds	r20, 0x0134
     d76:	50 91 35 01 	lds	r21, 0x0135
     d7a:	80 91 2e 01 	lds	r24, 0x012E
     d7e:	90 91 2f 01 	lds	r25, 0x012F
     d82:	a0 91 30 01 	lds	r26, 0x0130
     d86:	b0 91 31 01 	lds	r27, 0x0131
/home/becker/async/autosafe/trunk/tum/wcet-cbmc/benchmarks/nsichneu/nsichneu.c:316
     d8a:	28 17       	cp	r18, r24
     d8c:	39 07       	cpc	r19, r25
     d8e:	4a 07       	cpc	r20, r26
     d90:	5b 07       	cpc	r21, r27
     d92:	09 f0       	breq	.+2      	; 0xd96 <main+0xcc8>
     d94:	c4 c0       	rjmp	.+392    	; 0xf1e <main+0xe50>
/home/becker/async/autosafe/trunk/tum/wcet-cbmc/benchmarks/nsichneu/nsichneu.c:318
     d96:	20 91 32 01 	lds	r18, 0x0132
     d9a:	30 91 33 01 	lds	r19, 0x0133
     d9e:	40 91 34 01 	lds	r20, 0x0134
     da2:	50 91 35 01 	lds	r21, 0x0135
     da6:	80 91 36 01 	lds	r24, 0x0136
     daa:	90 91 37 01 	lds	r25, 0x0137
     dae:	a0 91 38 01 	lds	r26, 0x0138
     db2:	b0 91 39 01 	lds	r27, 0x0139
/home/becker/async/autosafe/trunk/tum/wcet-cbmc/benchmarks/nsichneu/nsichneu.c:317
     db6:	28 17       	cp	r18, r24
     db8:	39 07       	cpc	r19, r25
     dba:	4a 07       	cpc	r20, r26
     dbc:	5b 07       	cpc	r21, r27
     dbe:	09 f0       	breq	.+2      	; 0xdc2 <main+0xcf4>
     dc0:	ae c0       	rjmp	.+348    	; 0xf1e <main+0xe50>
/home/becker/async/autosafe/trunk/tum/wcet-cbmc/benchmarks/nsichneu/nsichneu.c:323
     dc2:	9e 01       	movw	r18, r28
     dc4:	2d 59       	subi	r18, 0x9D	; 157
     dc6:	3f 4f       	sbci	r19, 0xFF	; 255
     dc8:	80 91 2a 01 	lds	r24, 0x012A
     dcc:	90 91 2b 01 	lds	r25, 0x012B
     dd0:	a0 91 2c 01 	lds	r26, 0x012C
     dd4:	b0 91 2d 01 	lds	r27, 0x012D
     dd8:	f9 01       	movw	r30, r18
     dda:	80 83       	st	Z, r24
     ddc:	91 83       	std	Z+1, r25	; 0x01
     dde:	a2 83       	std	Z+2, r26	; 0x02
     de0:	b3 83       	std	Z+3, r27	; 0x03
/home/becker/async/autosafe/trunk/tum/wcet-cbmc/benchmarks/nsichneu/nsichneu.c:324
     de2:	9e 01       	movw	r18, r28
     de4:	29 59       	subi	r18, 0x99	; 153
     de6:	3f 4f       	sbci	r19, 0xFF	; 255
     de8:	80 91 32 01 	lds	r24, 0x0132
     dec:	90 91 33 01 	lds	r25, 0x0133
     df0:	a0 91 34 01 	lds	r26, 0x0134
     df4:	b0 91 35 01 	lds	r27, 0x0135
     df8:	f9 01       	movw	r30, r18
     dfa:	80 83       	st	Z, r24
     dfc:	91 83       	std	Z+1, r25	; 0x01
     dfe:	a2 83       	std	Z+2, r26	; 0x02
     e00:	b3 83       	std	Z+3, r27	; 0x03
/home/becker/async/autosafe/trunk/tum/wcet-cbmc/benchmarks/nsichneu/nsichneu.c:327
     e02:	9e 01       	movw	r18, r28
     e04:	29 59       	subi	r18, 0x99	; 153
     e06:	3f 4f       	sbci	r19, 0xFF	; 255
     e08:	ce 01       	movw	r24, r28
     e0a:	8d 59       	subi	r24, 0x9D	; 157
     e0c:	9f 4f       	sbci	r25, 0xFF	; 255
     e0e:	f9 01       	movw	r30, r18
     e10:	20 81       	ld	r18, Z
     e12:	31 81       	ldd	r19, Z+1	; 0x01
     e14:	42 81       	ldd	r20, Z+2	; 0x02
     e16:	53 81       	ldd	r21, Z+3	; 0x03
     e18:	fc 01       	movw	r30, r24
     e1a:	80 81       	ld	r24, Z
     e1c:	91 81       	ldd	r25, Z+1	; 0x01
     e1e:	a2 81       	ldd	r26, Z+2	; 0x02
     e20:	b3 81       	ldd	r27, Z+3	; 0x03
     e22:	82 17       	cp	r24, r18
     e24:	93 07       	cpc	r25, r19
     e26:	a4 07       	cpc	r26, r20
     e28:	b5 07       	cpc	r27, r21
     e2a:	0c f0       	brlt	.+2      	; 0xe2e <main+0xd60>
     e2c:	78 c0       	rjmp	.+240    	; 0xf1e <main+0xe50>
/home/becker/async/autosafe/trunk/tum/wcet-cbmc/benchmarks/nsichneu/nsichneu.c:330
     e2e:	80 91 02 01 	lds	r24, 0x0102
     e32:	90 91 03 01 	lds	r25, 0x0103
     e36:	04 97       	sbiw	r24, 0x04	; 4
     e38:	90 93 03 01 	sts	0x0103, r25
     e3c:	80 93 02 01 	sts	0x0102, r24
/home/becker/async/autosafe/trunk/tum/wcet-cbmc/benchmarks/nsichneu/nsichneu.c:333
     e40:	be 01       	movw	r22, r28
     e42:	65 59       	subi	r22, 0x95	; 149
     e44:	7f 4f       	sbci	r23, 0xFF	; 255
     e46:	9e 01       	movw	r18, r28
     e48:	2d 59       	subi	r18, 0x9D	; 157
     e4a:	3f 4f       	sbci	r19, 0xFF	; 255
     e4c:	ce 01       	movw	r24, r28
     e4e:	89 59       	subi	r24, 0x99	; 153
     e50:	9f 4f       	sbci	r25, 0xFF	; 255
     e52:	f9 01       	movw	r30, r18
     e54:	20 81       	ld	r18, Z
     e56:	31 81       	ldd	r19, Z+1	; 0x01
     e58:	42 81       	ldd	r20, Z+2	; 0x02
     e5a:	53 81       	ldd	r21, Z+3	; 0x03
     e5c:	fc 01       	movw	r30, r24
     e5e:	80 81       	ld	r24, Z
     e60:	91 81       	ldd	r25, Z+1	; 0x01
     e62:	a2 81       	ldd	r26, Z+2	; 0x02
     e64:	b3 81       	ldd	r27, Z+3	; 0x03
     e66:	82 0f       	add	r24, r18
     e68:	93 1f       	adc	r25, r19
     e6a:	a4 1f       	adc	r26, r20
     e6c:	b5 1f       	adc	r27, r21
     e6e:	fb 01       	movw	r30, r22
     e70:	80 83       	st	Z, r24
     e72:	91 83       	std	Z+1, r25	; 0x01
     e74:	a2 83       	std	Z+2, r26	; 0x02
     e76:	b3 83       	std	Z+3, r27	; 0x03
/home/becker/async/autosafe/trunk/tum/wcet-cbmc/benchmarks/nsichneu/nsichneu.c:336
     e78:	80 91 04 01 	lds	r24, 0x0104
     e7c:	90 91 05 01 	lds	r25, 0x0105
     e80:	88 0f       	add	r24, r24
     e82:	99 1f       	adc	r25, r25
     e84:	88 0f       	add	r24, r24
     e86:	99 1f       	adc	r25, r25
     e88:	9c 01       	movw	r18, r24
     e8a:	2a 5f       	subi	r18, 0xFA	; 250
     e8c:	3e 4f       	sbci	r19, 0xFE	; 254
     e8e:	ce 01       	movw	r24, r28
     e90:	8d 59       	subi	r24, 0x9D	; 157
     e92:	9f 4f       	sbci	r25, 0xFF	; 255
     e94:	fc 01       	movw	r30, r24
     e96:	80 81       	ld	r24, Z
     e98:	91 81       	ldd	r25, Z+1	; 0x01
     e9a:	a2 81       	ldd	r26, Z+2	; 0x02
     e9c:	b3 81       	ldd	r27, Z+3	; 0x03
     e9e:	f9 01       	movw	r30, r18
     ea0:	80 83       	st	Z, r24
     ea2:	91 83       	std	Z+1, r25	; 0x01
     ea4:	a2 83       	std	Z+2, r26	; 0x02
     ea6:	b3 83       	std	Z+3, r27	; 0x03
/home/becker/async/autosafe/trunk/tum/wcet-cbmc/benchmarks/nsichneu/nsichneu.c:337
     ea8:	80 91 04 01 	lds	r24, 0x0104
     eac:	90 91 05 01 	lds	r25, 0x0105
     eb0:	01 96       	adiw	r24, 0x01	; 1
     eb2:	88 0f       	add	r24, r24
     eb4:	99 1f       	adc	r25, r25
     eb6:	88 0f       	add	r24, r24
     eb8:	99 1f       	adc	r25, r25
     eba:	9c 01       	movw	r18, r24
     ebc:	2a 5f       	subi	r18, 0xFA	; 250
     ebe:	3e 4f       	sbci	r19, 0xFE	; 254
     ec0:	ce 01       	movw	r24, r28
     ec2:	89 59       	subi	r24, 0x99	; 153
     ec4:	9f 4f       	sbci	r25, 0xFF	; 255
     ec6:	fc 01       	movw	r30, r24
     ec8:	80 81       	ld	r24, Z
     eca:	91 81       	ldd	r25, Z+1	; 0x01
     ecc:	a2 81       	ldd	r26, Z+2	; 0x02
     ece:	b3 81       	ldd	r27, Z+3	; 0x03
     ed0:	f9 01       	movw	r30, r18
     ed2:	80 83       	st	Z, r24
     ed4:	91 83       	std	Z+1, r25	; 0x01
     ed6:	a2 83       	std	Z+2, r26	; 0x02
     ed8:	b3 83       	std	Z+3, r27	; 0x03
/home/becker/async/autosafe/trunk/tum/wcet-cbmc/benchmarks/nsichneu/nsichneu.c:338
     eda:	80 91 04 01 	lds	r24, 0x0104
     ede:	90 91 05 01 	lds	r25, 0x0105
     ee2:	02 96       	adiw	r24, 0x02	; 2
     ee4:	88 0f       	add	r24, r24
     ee6:	99 1f       	adc	r25, r25
     ee8:	88 0f       	add	r24, r24
     eea:	99 1f       	adc	r25, r25
     eec:	9c 01       	movw	r18, r24
     eee:	2a 5f       	subi	r18, 0xFA	; 250
     ef0:	3e 4f       	sbci	r19, 0xFE	; 254
     ef2:	ce 01       	movw	r24, r28
     ef4:	85 59       	subi	r24, 0x95	; 149
     ef6:	9f 4f       	sbci	r25, 0xFF	; 255
     ef8:	fc 01       	movw	r30, r24
     efa:	80 81       	ld	r24, Z
     efc:	91 81       	ldd	r25, Z+1	; 0x01
     efe:	a2 81       	ldd	r26, Z+2	; 0x02
     f00:	b3 81       	ldd	r27, Z+3	; 0x03
     f02:	f9 01       	movw	r30, r18
     f04:	80 83       	st	Z, r24
     f06:	91 83       	std	Z+1, r25	; 0x01
     f08:	a2 83       	std	Z+2, r26	; 0x02
     f0a:	b3 83       	std	Z+3, r27	; 0x03
/home/becker/async/autosafe/trunk/tum/wcet-cbmc/benchmarks/nsichneu/nsichneu.c:339
     f0c:	80 91 04 01 	lds	r24, 0x0104
     f10:	90 91 05 01 	lds	r25, 0x0105
     f14:	03 96       	adiw	r24, 0x03	; 3
     f16:	90 93 05 01 	sts	0x0105, r25
     f1a:	80 93 04 01 	sts	0x0104, r24
/home/becker/async/autosafe/trunk/tum/wcet-cbmc/benchmarks/nsichneu/nsichneu.c:346
     f1e:	80 91 02 01 	lds	r24, 0x0102
     f22:	90 91 03 01 	lds	r25, 0x0103
     f26:	84 30       	cpi	r24, 0x04	; 4
     f28:	91 05       	cpc	r25, r1
     f2a:	0c f4       	brge	.+2      	; 0xf2e <main+0xe60>
     f2c:	e3 c0       	rjmp	.+454    	; 0x10f4 <main+0x1026>
/home/becker/async/autosafe/trunk/tum/wcet-cbmc/benchmarks/nsichneu/nsichneu.c:347
     f2e:	80 91 04 01 	lds	r24, 0x0104
     f32:	90 91 05 01 	lds	r25, 0x0105
     f36:	03 96       	adiw	r24, 0x03	; 3
/home/becker/async/autosafe/trunk/tum/wcet-cbmc/benchmarks/nsichneu/nsichneu.c:346
     f38:	87 30       	cpi	r24, 0x07	; 7
     f3a:	91 05       	cpc	r25, r1
     f3c:	0c f0       	brlt	.+2      	; 0xf40 <main+0xe72>
     f3e:	da c0       	rjmp	.+436    	; 0x10f4 <main+0x1026>
/home/becker/async/autosafe/trunk/tum/wcet-cbmc/benchmarks/nsichneu/nsichneu.c:348
     f40:	20 91 32 01 	lds	r18, 0x0132
     f44:	30 91 33 01 	lds	r19, 0x0133
     f48:	40 91 34 01 	lds	r20, 0x0134
     f4c:	50 91 35 01 	lds	r21, 0x0135
     f50:	80 91 36 01 	lds	r24, 0x0136
     f54:	90 91 37 01 	lds	r25, 0x0137
     f58:	a0 91 38 01 	lds	r26, 0x0138
     f5c:	b0 91 39 01 	lds	r27, 0x0139
/home/becker/async/autosafe/trunk/tum/wcet-cbmc/benchmarks/nsichneu/nsichneu.c:347
     f60:	28 17       	cp	r18, r24
     f62:	39 07       	cpc	r19, r25
     f64:	4a 07       	cpc	r20, r26
     f66:	5b 07       	cpc	r21, r27
     f68:	09 f0       	breq	.+2      	; 0xf6c <main+0xe9e>
     f6a:	c4 c0       	rjmp	.+392    	; 0x10f4 <main+0x1026>
/home/becker/async/autosafe/trunk/tum/wcet-cbmc/benchmarks/nsichneu/nsichneu.c:349
     f6c:	20 91 32 01 	lds	r18, 0x0132
     f70:	30 91 33 01 	lds	r19, 0x0133
     f74:	40 91 34 01 	lds	r20, 0x0134
     f78:	50 91 35 01 	lds	r21, 0x0135
     f7c:	80 91 2e 01 	lds	r24, 0x012E
     f80:	90 91 2f 01 	lds	r25, 0x012F
     f84:	a0 91 30 01 	lds	r26, 0x0130
     f88:	b0 91 31 01 	lds	r27, 0x0131
/home/becker/async/autosafe/trunk/tum/wcet-cbmc/benchmarks/nsichneu/nsichneu.c:348
     f8c:	28 17       	cp	r18, r24
     f8e:	39 07       	cpc	r19, r25
     f90:	4a 07       	cpc	r20, r26
     f92:	5b 07       	cpc	r21, r27
     f94:	09 f0       	breq	.+2      	; 0xf98 <main+0xeca>
     f96:	ae c0       	rjmp	.+348    	; 0x10f4 <main+0x1026>
/home/becker/async/autosafe/trunk/tum/wcet-cbmc/benchmarks/nsichneu/nsichneu.c:354
     f98:	9e 01       	movw	r18, r28
     f9a:	21 59       	subi	r18, 0x91	; 145
     f9c:	3f 4f       	sbci	r19, 0xFF	; 255
     f9e:	80 91 2a 01 	lds	r24, 0x012A
     fa2:	90 91 2b 01 	lds	r25, 0x012B
     fa6:	a0 91 2c 01 	lds	r26, 0x012C
     faa:	b0 91 2d 01 	lds	r27, 0x012D
     fae:	f9 01       	movw	r30, r18
     fb0:	80 83       	st	Z, r24
     fb2:	91 83       	std	Z+1, r25	; 0x01
     fb4:	a2 83       	std	Z+2, r26	; 0x02
     fb6:	b3 83       	std	Z+3, r27	; 0x03
/home/becker/async/autosafe/trunk/tum/wcet-cbmc/benchmarks/nsichneu/nsichneu.c:355
     fb8:	9e 01       	movw	r18, r28
     fba:	2d 58       	subi	r18, 0x8D	; 141
     fbc:	3f 4f       	sbci	r19, 0xFF	; 255
     fbe:	80 91 32 01 	lds	r24, 0x0132
     fc2:	90 91 33 01 	lds	r25, 0x0133
     fc6:	a0 91 34 01 	lds	r26, 0x0134
     fca:	b0 91 35 01 	lds	r27, 0x0135
     fce:	f9 01       	movw	r30, r18
     fd0:	80 83       	st	Z, r24
     fd2:	91 83       	std	Z+1, r25	; 0x01
     fd4:	a2 83       	std	Z+2, r26	; 0x02
     fd6:	b3 83       	std	Z+3, r27	; 0x03
/home/becker/async/autosafe/trunk/tum/wcet-cbmc/benchmarks/nsichneu/nsichneu.c:358
     fd8:	9e 01       	movw	r18, r28
     fda:	2d 58       	subi	r18, 0x8D	; 141
     fdc:	3f 4f       	sbci	r19, 0xFF	; 255
     fde:	ce 01       	movw	r24, r28
     fe0:	81 59       	subi	r24, 0x91	; 145
     fe2:	9f 4f       	sbci	r25, 0xFF	; 255
     fe4:	f9 01       	movw	r30, r18
     fe6:	20 81       	ld	r18, Z
     fe8:	31 81       	ldd	r19, Z+1	; 0x01
     fea:	42 81       	ldd	r20, Z+2	; 0x02
     fec:	53 81       	ldd	r21, Z+3	; 0x03
     fee:	fc 01       	movw	r30, r24
     ff0:	80 81       	ld	r24, Z
     ff2:	91 81       	ldd	r25, Z+1	; 0x01
     ff4:	a2 81       	ldd	r26, Z+2	; 0x02
     ff6:	b3 81       	ldd	r27, Z+3	; 0x03
     ff8:	82 17       	cp	r24, r18
     ffa:	93 07       	cpc	r25, r19
     ffc:	a4 07       	cpc	r26, r20
     ffe:	b5 07       	cpc	r27, r21
    1000:	0c f0       	brlt	.+2      	; 0x1004 <main+0xf36>
    1002:	78 c0       	rjmp	.+240    	; 0x10f4 <main+0x1026>
/home/becker/async/autosafe/trunk/tum/wcet-cbmc/benchmarks/nsichneu/nsichneu.c:361
    1004:	80 91 02 01 	lds	r24, 0x0102
    1008:	90 91 03 01 	lds	r25, 0x0103
    100c:	04 97       	sbiw	r24, 0x04	; 4
    100e:	90 93 03 01 	sts	0x0103, r25
    1012:	80 93 02 01 	sts	0x0102, r24
/home/becker/async/autosafe/trunk/tum/wcet-cbmc/benchmarks/nsichneu/nsichneu.c:364
    1016:	be 01       	movw	r22, r28
    1018:	69 58       	subi	r22, 0x89	; 137
    101a:	7f 4f       	sbci	r23, 0xFF	; 255
    101c:	9e 01       	movw	r18, r28
    101e:	21 59       	subi	r18, 0x91	; 145
    1020:	3f 4f       	sbci	r19, 0xFF	; 255
    1022:	ce 01       	movw	r24, r28
    1024:	8d 58       	subi	r24, 0x8D	; 141
    1026:	9f 4f       	sbci	r25, 0xFF	; 255
    1028:	f9 01       	movw	r30, r18
    102a:	20 81       	ld	r18, Z
    102c:	31 81       	ldd	r19, Z+1	; 0x01
    102e:	42 81       	ldd	r20, Z+2	; 0x02
    1030:	53 81       	ldd	r21, Z+3	; 0x03
    1032:	fc 01       	movw	r30, r24
    1034:	80 81       	ld	r24, Z
    1036:	91 81       	ldd	r25, Z+1	; 0x01
    1038:	a2 81       	ldd	r26, Z+2	; 0x02
    103a:	b3 81       	ldd	r27, Z+3	; 0x03
    103c:	82 0f       	add	r24, r18
    103e:	93 1f       	adc	r25, r19
    1040:	a4 1f       	adc	r26, r20
    1042:	b5 1f       	adc	r27, r21
    1044:	fb 01       	movw	r30, r22
    1046:	80 83       	st	Z, r24
    1048:	91 83       	std	Z+1, r25	; 0x01
    104a:	a2 83       	std	Z+2, r26	; 0x02
    104c:	b3 83       	std	Z+3, r27	; 0x03
/home/becker/async/autosafe/trunk/tum/wcet-cbmc/benchmarks/nsichneu/nsichneu.c:367
    104e:	80 91 04 01 	lds	r24, 0x0104
    1052:	90 91 05 01 	lds	r25, 0x0105
    1056:	88 0f       	add	r24, r24
    1058:	99 1f       	adc	r25, r25
    105a:	88 0f       	add	r24, r24
    105c:	99 1f       	adc	r25, r25
    105e:	9c 01       	movw	r18, r24
    1060:	2a 5f       	subi	r18, 0xFA	; 250
    1062:	3e 4f       	sbci	r19, 0xFE	; 254
    1064:	ce 01       	movw	r24, r28
    1066:	81 59       	subi	r24, 0x91	; 145
    1068:	9f 4f       	sbci	r25, 0xFF	; 255
    106a:	fc 01       	movw	r30, r24
    106c:	80 81       	ld	r24, Z
    106e:	91 81       	ldd	r25, Z+1	; 0x01
    1070:	a2 81       	ldd	r26, Z+2	; 0x02
    1072:	b3 81       	ldd	r27, Z+3	; 0x03
    1074:	f9 01       	movw	r30, r18
    1076:	80 83       	st	Z, r24
    1078:	91 83       	std	Z+1, r25	; 0x01
    107a:	a2 83       	std	Z+2, r26	; 0x02
    107c:	b3 83       	std	Z+3, r27	; 0x03
/home/becker/async/autosafe/trunk/tum/wcet-cbmc/benchmarks/nsichneu/nsichneu.c:368
    107e:	80 91 04 01 	lds	r24, 0x0104
    1082:	90 91 05 01 	lds	r25, 0x0105
    1086:	01 96       	adiw	r24, 0x01	; 1
    1088:	88 0f       	add	r24, r24
    108a:	99 1f       	adc	r25, r25
    108c:	88 0f       	add	r24, r24
    108e:	99 1f       	adc	r25, r25
    1090:	9c 01       	movw	r18, r24
    1092:	2a 5f       	subi	r18, 0xFA	; 250
    1094:	3e 4f       	sbci	r19, 0xFE	; 254
    1096:	ce 01       	movw	r24, r28
    1098:	8d 58       	subi	r24, 0x8D	; 141
    109a:	9f 4f       	sbci	r25, 0xFF	; 255
    109c:	fc 01       	movw	r30, r24
    109e:	80 81       	ld	r24, Z
    10a0:	91 81       	ldd	r25, Z+1	; 0x01
    10a2:	a2 81       	ldd	r26, Z+2	; 0x02
    10a4:	b3 81       	ldd	r27, Z+3	; 0x03
    10a6:	f9 01       	movw	r30, r18
    10a8:	80 83       	st	Z, r24
    10aa:	91 83       	std	Z+1, r25	; 0x01
    10ac:	a2 83       	std	Z+2, r26	; 0x02
    10ae:	b3 83       	std	Z+3, r27	; 0x03
/home/becker/async/autosafe/trunk/tum/wcet-cbmc/benchmarks/nsichneu/nsichneu.c:369
    10b0:	80 91 04 01 	lds	r24, 0x0104
    10b4:	90 91 05 01 	lds	r25, 0x0105
    10b8:	02 96       	adiw	r24, 0x02	; 2
    10ba:	88 0f       	add	r24, r24
    10bc:	99 1f       	adc	r25, r25
    10be:	88 0f       	add	r24, r24
    10c0:	99 1f       	adc	r25, r25
    10c2:	9c 01       	movw	r18, r24
    10c4:	2a 5f       	subi	r18, 0xFA	; 250
    10c6:	3e 4f       	sbci	r19, 0xFE	; 254
    10c8:	ce 01       	movw	r24, r28
    10ca:	89 58       	subi	r24, 0x89	; 137
    10cc:	9f 4f       	sbci	r25, 0xFF	; 255
    10ce:	fc 01       	movw	r30, r24
    10d0:	80 81       	ld	r24, Z
    10d2:	91 81       	ldd	r25, Z+1	; 0x01
    10d4:	a2 81       	ldd	r26, Z+2	; 0x02
    10d6:	b3 81       	ldd	r27, Z+3	; 0x03
    10d8:	f9 01       	movw	r30, r18
    10da:	80 83       	st	Z, r24
    10dc:	91 83       	std	Z+1, r25	; 0x01
    10de:	a2 83       	std	Z+2, r26	; 0x02
    10e0:	b3 83       	std	Z+3, r27	; 0x03
/home/becker/async/autosafe/trunk/tum/wcet-cbmc/benchmarks/nsichneu/nsichneu.c:370
    10e2:	80 91 04 01 	lds	r24, 0x0104
    10e6:	90 91 05 01 	lds	r25, 0x0105
    10ea:	03 96       	adiw	r24, 0x03	; 3
    10ec:	90 93 05 01 	sts	0x0105, r25
    10f0:	80 93 04 01 	sts	0x0104, r24
/home/becker/async/autosafe/trunk/tum/wcet-cbmc/benchmarks/nsichneu/nsichneu.c:377
    10f4:	80 91 02 01 	lds	r24, 0x0102
    10f8:	90 91 03 01 	lds	r25, 0x0103
    10fc:	84 30       	cpi	r24, 0x04	; 4
    10fe:	91 05       	cpc	r25, r1
    1100:	0c f4       	brge	.+2      	; 0x1104 <__stack+0x5>
    1102:	e3 c0       	rjmp	.+454    	; 0x12ca <__stack+0x1cb>
/home/becker/async/autosafe/trunk/tum/wcet-cbmc/benchmarks/nsichneu/nsichneu.c:378
    1104:	80 91 04 01 	lds	r24, 0x0104
    1108:	90 91 05 01 	lds	r25, 0x0105
    110c:	03 96       	adiw	r24, 0x03	; 3
/home/becker/async/autosafe/trunk/tum/wcet-cbmc/benchmarks/nsichneu/nsichneu.c:377
    110e:	87 30       	cpi	r24, 0x07	; 7
    1110:	91 05       	cpc	r25, r1
    1112:	0c f0       	brlt	.+2      	; 0x1116 <__stack+0x17>
    1114:	da c0       	rjmp	.+436    	; 0x12ca <__stack+0x1cb>
/home/becker/async/autosafe/trunk/tum/wcet-cbmc/benchmarks/nsichneu/nsichneu.c:379
    1116:	20 91 36 01 	lds	r18, 0x0136
    111a:	30 91 37 01 	lds	r19, 0x0137
    111e:	40 91 38 01 	lds	r20, 0x0138
    1122:	50 91 39 01 	lds	r21, 0x0139
    1126:	80 91 2e 01 	lds	r24, 0x012E
    112a:	90 91 2f 01 	lds	r25, 0x012F
    112e:	a0 91 30 01 	lds	r26, 0x0130
    1132:	b0 91 31 01 	lds	r27, 0x0131
/home/becker/async/autosafe/trunk/tum/wcet-cbmc/benchmarks/nsichneu/nsichneu.c:378
    1136:	28 17       	cp	r18, r24
    1138:	39 07       	cpc	r19, r25
    113a:	4a 07       	cpc	r20, r26
    113c:	5b 07       	cpc	r21, r27
    113e:	09 f0       	breq	.+2      	; 0x1142 <__stack+0x43>
    1140:	c4 c0       	rjmp	.+392    	; 0x12ca <__stack+0x1cb>
/home/becker/async/autosafe/trunk/tum/wcet-cbmc/benchmarks/nsichneu/nsichneu.c:380
    1142:	20 91 36 01 	lds	r18, 0x0136
    1146:	30 91 37 01 	lds	r19, 0x0137
    114a:	40 91 38 01 	lds	r20, 0x0138
    114e:	50 91 39 01 	lds	r21, 0x0139
    1152:	80 91 32 01 	lds	r24, 0x0132
    1156:	90 91 33 01 	lds	r25, 0x0133
    115a:	a0 91 34 01 	lds	r26, 0x0134
    115e:	b0 91 35 01 	lds	r27, 0x0135
/home/becker/async/autosafe/trunk/tum/wcet-cbmc/benchmarks/nsichneu/nsichneu.c:379
    1162:	28 17       	cp	r18, r24
    1164:	39 07       	cpc	r19, r25
    1166:	4a 07       	cpc	r20, r26
    1168:	5b 07       	cpc	r21, r27
    116a:	09 f0       	breq	.+2      	; 0x116e <__stack+0x6f>
    116c:	ae c0       	rjmp	.+348    	; 0x12ca <__stack+0x1cb>
/home/becker/async/autosafe/trunk/tum/wcet-cbmc/benchmarks/nsichneu/nsichneu.c:385
    116e:	9e 01       	movw	r18, r28
    1170:	25 58       	subi	r18, 0x85	; 133
    1172:	3f 4f       	sbci	r19, 0xFF	; 255
    1174:	80 91 2a 01 	lds	r24, 0x012A
    1178:	90 91 2b 01 	lds	r25, 0x012B
    117c:	a0 91 2c 01 	lds	r26, 0x012C
    1180:	b0 91 2d 01 	lds	r27, 0x012D
    1184:	f9 01       	movw	r30, r18
    1186:	80 83       	st	Z, r24
    1188:	91 83       	std	Z+1, r25	; 0x01
    118a:	a2 83       	std	Z+2, r26	; 0x02
    118c:	b3 83       	std	Z+3, r27	; 0x03
/home/becker/async/autosafe/trunk/tum/wcet-cbmc/benchmarks/nsichneu/nsichneu.c:386
    118e:	9e 01       	movw	r18, r28
    1190:	21 58       	subi	r18, 0x81	; 129
    1192:	3f 4f       	sbci	r19, 0xFF	; 255
    1194:	80 91 36 01 	lds	r24, 0x0136
    1198:	90 91 37 01 	lds	r25, 0x0137
    119c:	a0 91 38 01 	lds	r26, 0x0138
    11a0:	b0 91 39 01 	lds	r27, 0x0139
    11a4:	f9 01       	movw	r30, r18
    11a6:	80 83       	st	Z, r24
    11a8:	91 83       	std	Z+1, r25	; 0x01
    11aa:	a2 83       	std	Z+2, r26	; 0x02
    11ac:	b3 83       	std	Z+3, r27	; 0x03
/home/becker/async/autosafe/trunk/tum/wcet-cbmc/benchmarks/nsichneu/nsichneu.c:389
    11ae:	9e 01       	movw	r18, r28
    11b0:	21 58       	subi	r18, 0x81	; 129
    11b2:	3f 4f       	sbci	r19, 0xFF	; 255
    11b4:	ce 01       	movw	r24, r28
    11b6:	85 58       	subi	r24, 0x85	; 133
    11b8:	9f 4f       	sbci	r25, 0xFF	; 255
    11ba:	f9 01       	movw	r30, r18
    11bc:	20 81       	ld	r18, Z
    11be:	31 81       	ldd	r19, Z+1	; 0x01
    11c0:	42 81       	ldd	r20, Z+2	; 0x02
    11c2:	53 81       	ldd	r21, Z+3	; 0x03
    11c4:	fc 01       	movw	r30, r24
    11c6:	80 81       	ld	r24, Z
    11c8:	91 81       	ldd	r25, Z+1	; 0x01
    11ca:	a2 81       	ldd	r26, Z+2	; 0x02
    11cc:	b3 81       	ldd	r27, Z+3	; 0x03
    11ce:	82 17       	cp	r24, r18
    11d0:	93 07       	cpc	r25, r19
    11d2:	a4 07       	cpc	r26, r20
    11d4:	b5 07       	cpc	r27, r21
    11d6:	0c f0       	brlt	.+2      	; 0x11da <__stack+0xdb>
    11d8:	78 c0       	rjmp	.+240    	; 0x12ca <__stack+0x1cb>
/home/becker/async/autosafe/trunk/tum/wcet-cbmc/benchmarks/nsichneu/nsichneu.c:392
    11da:	80 91 02 01 	lds	r24, 0x0102
    11de:	90 91 03 01 	lds	r25, 0x0103
    11e2:	04 97       	sbiw	r24, 0x04	; 4
    11e4:	90 93 03 01 	sts	0x0103, r25
    11e8:	80 93 02 01 	sts	0x0102, r24
/home/becker/async/autosafe/trunk/tum/wcet-cbmc/benchmarks/nsichneu/nsichneu.c:395
    11ec:	be 01       	movw	r22, r28
    11ee:	6d 57       	subi	r22, 0x7D	; 125
    11f0:	7f 4f       	sbci	r23, 0xFF	; 255
    11f2:	9e 01       	movw	r18, r28
    11f4:	25 58       	subi	r18, 0x85	; 133
    11f6:	3f 4f       	sbci	r19, 0xFF	; 255
    11f8:	ce 01       	movw	r24, r28
    11fa:	81 58       	subi	r24, 0x81	; 129
    11fc:	9f 4f       	sbci	r25, 0xFF	; 255
    11fe:	f9 01       	movw	r30, r18
    1200:	20 81       	ld	r18, Z
    1202:	31 81       	ldd	r19, Z+1	; 0x01
    1204:	42 81       	ldd	r20, Z+2	; 0x02
    1206:	53 81       	ldd	r21, Z+3	; 0x03
    1208:	fc 01       	movw	r30, r24
    120a:	80 81       	ld	r24, Z
    120c:	91 81       	ldd	r25, Z+1	; 0x01
    120e:	a2 81       	ldd	r26, Z+2	; 0x02
    1210:	b3 81       	ldd	r27, Z+3	; 0x03
    1212:	82 0f       	add	r24, r18
    1214:	93 1f       	adc	r25, r19
    1216:	a4 1f       	adc	r26, r20
    1218:	b5 1f       	adc	r27, r21
    121a:	fb 01       	movw	r30, r22
    121c:	80 83       	st	Z, r24
    121e:	91 83       	std	Z+1, r25	; 0x01
    1220:	a2 83       	std	Z+2, r26	; 0x02
    1222:	b3 83       	std	Z+3, r27	; 0x03
/home/becker/async/autosafe/trunk/tum/wcet-cbmc/benchmarks/nsichneu/nsichneu.c:398
    1224:	80 91 04 01 	lds	r24, 0x0104
    1228:	90 91 05 01 	lds	r25, 0x0105
    122c:	88 0f       	add	r24, r24
    122e:	99 1f       	adc	r25, r25
    1230:	88 0f       	add	r24, r24
    1232:	99 1f       	adc	r25, r25
    1234:	9c 01       	movw	r18, r24
    1236:	2a 5f       	subi	r18, 0xFA	; 250
    1238:	3e 4f       	sbci	r19, 0xFE	; 254
    123a:	ce 01       	movw	r24, r28
    123c:	85 58       	subi	r24, 0x85	; 133
    123e:	9f 4f       	sbci	r25, 0xFF	; 255
    1240:	fc 01       	movw	r30, r24
    1242:	80 81       	ld	r24, Z
    1244:	91 81       	ldd	r25, Z+1	; 0x01
    1246:	a2 81       	ldd	r26, Z+2	; 0x02
    1248:	b3 81       	ldd	r27, Z+3	; 0x03
    124a:	f9 01       	movw	r30, r18
    124c:	80 83       	st	Z, r24
    124e:	91 83       	std	Z+1, r25	; 0x01
    1250:	a2 83       	std	Z+2, r26	; 0x02
    1252:	b3 83       	std	Z+3, r27	; 0x03
/home/becker/async/autosafe/trunk/tum/wcet-cbmc/benchmarks/nsichneu/nsichneu.c:399
    1254:	80 91 04 01 	lds	r24, 0x0104
    1258:	90 91 05 01 	lds	r25, 0x0105
    125c:	01 96       	adiw	r24, 0x01	; 1
    125e:	88 0f       	add	r24, r24
    1260:	99 1f       	adc	r25, r25
    1262:	88 0f       	add	r24, r24
    1264:	99 1f       	adc	r25, r25
    1266:	9c 01       	movw	r18, r24
    1268:	2a 5f       	subi	r18, 0xFA	; 250
    126a:	3e 4f       	sbci	r19, 0xFE	; 254
    126c:	ce 01       	movw	r24, r28
    126e:	81 58       	subi	r24, 0x81	; 129
    1270:	9f 4f       	sbci	r25, 0xFF	; 255
    1272:	fc 01       	movw	r30, r24
    1274:	80 81       	ld	r24, Z
    1276:	91 81       	ldd	r25, Z+1	; 0x01
    1278:	a2 81       	ldd	r26, Z+2	; 0x02
    127a:	b3 81       	ldd	r27, Z+3	; 0x03
    127c:	f9 01       	movw	r30, r18
    127e:	80 83       	st	Z, r24
    1280:	91 83       	std	Z+1, r25	; 0x01
    1282:	a2 83       	std	Z+2, r26	; 0x02
    1284:	b3 83       	std	Z+3, r27	; 0x03
/home/becker/async/autosafe/trunk/tum/wcet-cbmc/benchmarks/nsichneu/nsichneu.c:400
    1286:	80 91 04 01 	lds	r24, 0x0104
    128a:	90 91 05 01 	lds	r25, 0x0105
    128e:	02 96       	adiw	r24, 0x02	; 2
    1290:	88 0f       	add	r24, r24
    1292:	99 1f       	adc	r25, r25
    1294:	88 0f       	add	r24, r24
    1296:	99 1f       	adc	r25, r25
    1298:	9c 01       	movw	r18, r24
    129a:	2a 5f       	subi	r18, 0xFA	; 250
    129c:	3e 4f       	sbci	r19, 0xFE	; 254
    129e:	ce 01       	movw	r24, r28
    12a0:	8d 57       	subi	r24, 0x7D	; 125
    12a2:	9f 4f       	sbci	r25, 0xFF	; 255
    12a4:	fc 01       	movw	r30, r24
    12a6:	80 81       	ld	r24, Z
    12a8:	91 81       	ldd	r25, Z+1	; 0x01
    12aa:	a2 81       	ldd	r26, Z+2	; 0x02
    12ac:	b3 81       	ldd	r27, Z+3	; 0x03
    12ae:	f9 01       	movw	r30, r18
    12b0:	80 83       	st	Z, r24
    12b2:	91 83       	std	Z+1, r25	; 0x01
    12b4:	a2 83       	std	Z+2, r26	; 0x02
    12b6:	b3 83       	std	Z+3, r27	; 0x03
/home/becker/async/autosafe/trunk/tum/wcet-cbmc/benchmarks/nsichneu/nsichneu.c:401
    12b8:	80 91 04 01 	lds	r24, 0x0104
    12bc:	90 91 05 01 	lds	r25, 0x0105
    12c0:	03 96       	adiw	r24, 0x03	; 3
    12c2:	90 93 05 01 	sts	0x0105, r25
    12c6:	80 93 04 01 	sts	0x0104, r24
/home/becker/async/autosafe/trunk/tum/wcet-cbmc/benchmarks/nsichneu/nsichneu.c:408
    12ca:	80 91 02 01 	lds	r24, 0x0102
    12ce:	90 91 03 01 	lds	r25, 0x0103
    12d2:	84 30       	cpi	r24, 0x04	; 4
    12d4:	91 05       	cpc	r25, r1
    12d6:	0c f4       	brge	.+2      	; 0x12da <__stack+0x1db>
    12d8:	e3 c0       	rjmp	.+454    	; 0x14a0 <__stack+0x3a1>
/home/becker/async/autosafe/trunk/tum/wcet-cbmc/benchmarks/nsichneu/nsichneu.c:409
    12da:	80 91 04 01 	lds	r24, 0x0104
    12de:	90 91 05 01 	lds	r25, 0x0105
    12e2:	03 96       	adiw	r24, 0x03	; 3
/home/becker/async/autosafe/trunk/tum/wcet-cbmc/benchmarks/nsichneu/nsichneu.c:408
    12e4:	87 30       	cpi	r24, 0x07	; 7
    12e6:	91 05       	cpc	r25, r1
    12e8:	0c f0       	brlt	.+2      	; 0x12ec <__stack+0x1ed>
    12ea:	da c0       	rjmp	.+436    	; 0x14a0 <__stack+0x3a1>
/home/becker/async/autosafe/trunk/tum/wcet-cbmc/benchmarks/nsichneu/nsichneu.c:410
    12ec:	20 91 36 01 	lds	r18, 0x0136
    12f0:	30 91 37 01 	lds	r19, 0x0137
    12f4:	40 91 38 01 	lds	r20, 0x0138
    12f8:	50 91 39 01 	lds	r21, 0x0139
    12fc:	80 91 32 01 	lds	r24, 0x0132
    1300:	90 91 33 01 	lds	r25, 0x0133
    1304:	a0 91 34 01 	lds	r26, 0x0134
    1308:	b0 91 35 01 	lds	r27, 0x0135
/home/becker/async/autosafe/trunk/tum/wcet-cbmc/benchmarks/nsichneu/nsichneu.c:409
    130c:	28 17       	cp	r18, r24
    130e:	39 07       	cpc	r19, r25
    1310:	4a 07       	cpc	r20, r26
    1312:	5b 07       	cpc	r21, r27
    1314:	09 f0       	breq	.+2      	; 0x1318 <__stack+0x219>
    1316:	c4 c0       	rjmp	.+392    	; 0x14a0 <__stack+0x3a1>
/home/becker/async/autosafe/trunk/tum/wcet-cbmc/benchmarks/nsichneu/nsichneu.c:411
    1318:	20 91 36 01 	lds	r18, 0x0136
    131c:	30 91 37 01 	lds	r19, 0x0137
    1320:	40 91 38 01 	lds	r20, 0x0138
    1324:	50 91 39 01 	lds	r21, 0x0139
    1328:	80 91 2e 01 	lds	r24, 0x012E
    132c:	90 91 2f 01 	lds	r25, 0x012F
    1330:	a0 91 30 01 	lds	r26, 0x0130
    1334:	b0 91 31 01 	lds	r27, 0x0131
/home/becker/async/autosafe/trunk/tum/wcet-cbmc/benchmarks/nsichneu/nsichneu.c:410
    1338:	28 17       	cp	r18, r24
    133a:	39 07       	cpc	r19, r25
    133c:	4a 07       	cpc	r20, r26
    133e:	5b 07       	cpc	r21, r27
    1340:	09 f0       	breq	.+2      	; 0x1344 <__stack+0x245>
    1342:	ae c0       	rjmp	.+348    	; 0x14a0 <__stack+0x3a1>
/home/becker/async/autosafe/trunk/tum/wcet-cbmc/benchmarks/nsichneu/nsichneu.c:416
    1344:	9e 01       	movw	r18, r28
    1346:	29 57       	subi	r18, 0x79	; 121
    1348:	3f 4f       	sbci	r19, 0xFF	; 255
    134a:	80 91 2a 01 	lds	r24, 0x012A
    134e:	90 91 2b 01 	lds	r25, 0x012B
    1352:	a0 91 2c 01 	lds	r26, 0x012C
    1356:	b0 91 2d 01 	lds	r27, 0x012D
    135a:	f9 01       	movw	r30, r18
    135c:	80 83       	st	Z, r24
    135e:	91 83       	std	Z+1, r25	; 0x01
    1360:	a2 83       	std	Z+2, r26	; 0x02
    1362:	b3 83       	std	Z+3, r27	; 0x03
/home/becker/async/autosafe/trunk/tum/wcet-cbmc/benchmarks/nsichneu/nsichneu.c:417
    1364:	9e 01       	movw	r18, r28
    1366:	25 57       	subi	r18, 0x75	; 117
    1368:	3f 4f       	sbci	r19, 0xFF	; 255
    136a:	80 91 36 01 	lds	r24, 0x0136
    136e:	90 91 37 01 	lds	r25, 0x0137
    1372:	a0 91 38 01 	lds	r26, 0x0138
    1376:	b0 91 39 01 	lds	r27, 0x0139
    137a:	f9 01       	movw	r30, r18
    137c:	80 83       	st	Z, r24
    137e:	91 83       	std	Z+1, r25	; 0x01
    1380:	a2 83       	std	Z+2, r26	; 0x02
    1382:	b3 83       	std	Z+3, r27	; 0x03
/home/becker/async/autosafe/trunk/tum/wcet-cbmc/benchmarks/nsichneu/nsichneu.c:420
    1384:	9e 01       	movw	r18, r28
    1386:	25 57       	subi	r18, 0x75	; 117
    1388:	3f 4f       	sbci	r19, 0xFF	; 255
    138a:	ce 01       	movw	r24, r28
    138c:	89 57       	subi	r24, 0x79	; 121
    138e:	9f 4f       	sbci	r25, 0xFF	; 255
    1390:	f9 01       	movw	r30, r18
    1392:	20 81       	ld	r18, Z
    1394:	31 81       	ldd	r19, Z+1	; 0x01
    1396:	42 81       	ldd	r20, Z+2	; 0x02
    1398:	53 81       	ldd	r21, Z+3	; 0x03
    139a:	fc 01       	movw	r30, r24
    139c:	80 81       	ld	r24, Z
    139e:	91 81       	ldd	r25, Z+1	; 0x01
    13a0:	a2 81       	ldd	r26, Z+2	; 0x02
    13a2:	b3 81       	ldd	r27, Z+3	; 0x03
    13a4:	82 17       	cp	r24, r18
    13a6:	93 07       	cpc	r25, r19
    13a8:	a4 07       	cpc	r26, r20
    13aa:	b5 07       	cpc	r27, r21
    13ac:	0c f0       	brlt	.+2      	; 0x13b0 <__stack+0x2b1>
    13ae:	78 c0       	rjmp	.+240    	; 0x14a0 <__stack+0x3a1>
/home/becker/async/autosafe/trunk/tum/wcet-cbmc/benchmarks/nsichneu/nsichneu.c:423
    13b0:	80 91 02 01 	lds	r24, 0x0102
    13b4:	90 91 03 01 	lds	r25, 0x0103
    13b8:	04 97       	sbiw	r24, 0x04	; 4
    13ba:	90 93 03 01 	sts	0x0103, r25
    13be:	80 93 02 01 	sts	0x0102, r24
/home/becker/async/autosafe/trunk/tum/wcet-cbmc/benchmarks/nsichneu/nsichneu.c:426
    13c2:	be 01       	movw	r22, r28
    13c4:	61 57       	subi	r22, 0x71	; 113
    13c6:	7f 4f       	sbci	r23, 0xFF	; 255
    13c8:	9e 01       	movw	r18, r28
    13ca:	29 57       	subi	r18, 0x79	; 121
    13cc:	3f 4f       	sbci	r19, 0xFF	; 255
    13ce:	ce 01       	movw	r24, r28
    13d0:	85 57       	subi	r24, 0x75	; 117
    13d2:	9f 4f       	sbci	r25, 0xFF	; 255
    13d4:	f9 01       	movw	r30, r18
    13d6:	20 81       	ld	r18, Z
    13d8:	31 81       	ldd	r19, Z+1	; 0x01
    13da:	42 81       	ldd	r20, Z+2	; 0x02
    13dc:	53 81       	ldd	r21, Z+3	; 0x03
    13de:	fc 01       	movw	r30, r24
    13e0:	80 81       	ld	r24, Z
    13e2:	91 81       	ldd	r25, Z+1	; 0x01
    13e4:	a2 81       	ldd	r26, Z+2	; 0x02
    13e6:	b3 81       	ldd	r27, Z+3	; 0x03
    13e8:	82 0f       	add	r24, r18
    13ea:	93 1f       	adc	r25, r19
    13ec:	a4 1f       	adc	r26, r20
    13ee:	b5 1f       	adc	r27, r21
    13f0:	fb 01       	movw	r30, r22
    13f2:	80 83       	st	Z, r24
    13f4:	91 83       	std	Z+1, r25	; 0x01
    13f6:	a2 83       	std	Z+2, r26	; 0x02
    13f8:	b3 83       	std	Z+3, r27	; 0x03
/home/becker/async/autosafe/trunk/tum/wcet-cbmc/benchmarks/nsichneu/nsichneu.c:429
    13fa:	80 91 04 01 	lds	r24, 0x0104
    13fe:	90 91 05 01 	lds	r25, 0x0105
    1402:	88 0f       	add	r24, r24
    1404:	99 1f       	adc	r25, r25
    1406:	88 0f       	add	r24, r24
    1408:	99 1f       	adc	r25, r25
    140a:	9c 01       	movw	r18, r24
    140c:	2a 5f       	subi	r18, 0xFA	; 250
    140e:	3e 4f       	sbci	r19, 0xFE	; 254
    1410:	ce 01       	movw	r24, r28
    1412:	89 57       	subi	r24, 0x79	; 121
    1414:	9f 4f       	sbci	r25, 0xFF	; 255
    1416:	fc 01       	movw	r30, r24
    1418:	80 81       	ld	r24, Z
    141a:	91 81       	ldd	r25, Z+1	; 0x01
    141c:	a2 81       	ldd	r26, Z+2	; 0x02
    141e:	b3 81       	ldd	r27, Z+3	; 0x03
    1420:	f9 01       	movw	r30, r18
    1422:	80 83       	st	Z, r24
    1424:	91 83       	std	Z+1, r25	; 0x01
    1426:	a2 83       	std	Z+2, r26	; 0x02
    1428:	b3 83       	std	Z+3, r27	; 0x03
/home/becker/async/autosafe/trunk/tum/wcet-cbmc/benchmarks/nsichneu/nsichneu.c:430
    142a:	80 91 04 01 	lds	r24, 0x0104
    142e:	90 91 05 01 	lds	r25, 0x0105
    1432:	01 96       	adiw	r24, 0x01	; 1
    1434:	88 0f       	add	r24, r24
    1436:	99 1f       	adc	r25, r25
    1438:	88 0f       	add	r24, r24
    143a:	99 1f       	adc	r25, r25
    143c:	9c 01       	movw	r18, r24
    143e:	2a 5f       	subi	r18, 0xFA	; 250
    1440:	3e 4f       	sbci	r19, 0xFE	; 254
    1442:	ce 01       	movw	r24, r28
    1444:	85 57       	subi	r24, 0x75	; 117
    1446:	9f 4f       	sbci	r25, 0xFF	; 255
    1448:	fc 01       	movw	r30, r24
    144a:	80 81       	ld	r24, Z
    144c:	91 81       	ldd	r25, Z+1	; 0x01
    144e:	a2 81       	ldd	r26, Z+2	; 0x02
    1450:	b3 81       	ldd	r27, Z+3	; 0x03
    1452:	f9 01       	movw	r30, r18
    1454:	80 83       	st	Z, r24
    1456:	91 83       	std	Z+1, r25	; 0x01
    1458:	a2 83       	std	Z+2, r26	; 0x02
    145a:	b3 83       	std	Z+3, r27	; 0x03
/home/becker/async/autosafe/trunk/tum/wcet-cbmc/benchmarks/nsichneu/nsichneu.c:431
    145c:	80 91 04 01 	lds	r24, 0x0104
    1460:	90 91 05 01 	lds	r25, 0x0105
    1464:	02 96       	adiw	r24, 0x02	; 2
    1466:	88 0f       	add	r24, r24
    1468:	99 1f       	adc	r25, r25
    146a:	88 0f       	add	r24, r24
    146c:	99 1f       	adc	r25, r25
    146e:	9c 01       	movw	r18, r24
    1470:	2a 5f       	subi	r18, 0xFA	; 250
    1472:	3e 4f       	sbci	r19, 0xFE	; 254
    1474:	ce 01       	movw	r24, r28
    1476:	81 57       	subi	r24, 0x71	; 113
    1478:	9f 4f       	sbci	r25, 0xFF	; 255
    147a:	fc 01       	movw	r30, r24
    147c:	80 81       	ld	r24, Z
    147e:	91 81       	ldd	r25, Z+1	; 0x01
    1480:	a2 81       	ldd	r26, Z+2	; 0x02
    1482:	b3 81       	ldd	r27, Z+3	; 0x03
    1484:	f9 01       	movw	r30, r18
    1486:	80 83       	st	Z, r24
    1488:	91 83       	std	Z+1, r25	; 0x01
    148a:	a2 83       	std	Z+2, r26	; 0x02
    148c:	b3 83       	std	Z+3, r27	; 0x03
/home/becker/async/autosafe/trunk/tum/wcet-cbmc/benchmarks/nsichneu/nsichneu.c:432
    148e:	80 91 04 01 	lds	r24, 0x0104
    1492:	90 91 05 01 	lds	r25, 0x0105
    1496:	03 96       	adiw	r24, 0x03	; 3
    1498:	90 93 05 01 	sts	0x0105, r25
    149c:	80 93 04 01 	sts	0x0104, r24
/home/becker/async/autosafe/trunk/tum/wcet-cbmc/benchmarks/nsichneu/nsichneu.c:439
    14a0:	80 91 02 01 	lds	r24, 0x0102
    14a4:	90 91 03 01 	lds	r25, 0x0103
    14a8:	84 30       	cpi	r24, 0x04	; 4
    14aa:	91 05       	cpc	r25, r1
    14ac:	0c f4       	brge	.+2      	; 0x14b0 <__stack+0x3b1>
    14ae:	e3 c0       	rjmp	.+454    	; 0x1676 <__stack+0x577>
/home/becker/async/autosafe/trunk/tum/wcet-cbmc/benchmarks/nsichneu/nsichneu.c:440
    14b0:	80 91 04 01 	lds	r24, 0x0104
    14b4:	90 91 05 01 	lds	r25, 0x0105
    14b8:	03 96       	adiw	r24, 0x03	; 3
/home/becker/async/autosafe/trunk/tum/wcet-cbmc/benchmarks/nsichneu/nsichneu.c:439
    14ba:	87 30       	cpi	r24, 0x07	; 7
    14bc:	91 05       	cpc	r25, r1
    14be:	0c f0       	brlt	.+2      	; 0x14c2 <__stack+0x3c3>
    14c0:	da c0       	rjmp	.+436    	; 0x1676 <__stack+0x577>
/home/becker/async/autosafe/trunk/tum/wcet-cbmc/benchmarks/nsichneu/nsichneu.c:441
    14c2:	20 91 2a 01 	lds	r18, 0x012A
    14c6:	30 91 2b 01 	lds	r19, 0x012B
    14ca:	40 91 2c 01 	lds	r20, 0x012C
    14ce:	50 91 2d 01 	lds	r21, 0x012D
    14d2:	80 91 32 01 	lds	r24, 0x0132
    14d6:	90 91 33 01 	lds	r25, 0x0133
    14da:	a0 91 34 01 	lds	r26, 0x0134
    14de:	b0 91 35 01 	lds	r27, 0x0135
/home/becker/async/autosafe/trunk/tum/wcet-cbmc/benchmarks/nsichneu/nsichneu.c:440
    14e2:	28 17       	cp	r18, r24
    14e4:	39 07       	cpc	r19, r25
    14e6:	4a 07       	cpc	r20, r26
    14e8:	5b 07       	cpc	r21, r27
    14ea:	09 f0       	breq	.+2      	; 0x14ee <__stack+0x3ef>
    14ec:	c4 c0       	rjmp	.+392    	; 0x1676 <__stack+0x577>
/home/becker/async/autosafe/trunk/tum/wcet-cbmc/benchmarks/nsichneu/nsichneu.c:442
    14ee:	20 91 2a 01 	lds	r18, 0x012A
    14f2:	30 91 2b 01 	lds	r19, 0x012B
    14f6:	40 91 2c 01 	lds	r20, 0x012C
    14fa:	50 91 2d 01 	lds	r21, 0x012D
    14fe:	80 91 36 01 	lds	r24, 0x0136
    1502:	90 91 37 01 	lds	r25, 0x0137
    1506:	a0 91 38 01 	lds	r26, 0x0138
    150a:	b0 91 39 01 	lds	r27, 0x0139
/home/becker/async/autosafe/trunk/tum/wcet-cbmc/benchmarks/nsichneu/nsichneu.c:441
    150e:	28 17       	cp	r18, r24
    1510:	39 07       	cpc	r19, r25
    1512:	4a 07       	cpc	r20, r26
    1514:	5b 07       	cpc	r21, r27
    1516:	09 f0       	breq	.+2      	; 0x151a <__stack+0x41b>
    1518:	ae c0       	rjmp	.+348    	; 0x1676 <__stack+0x577>
/home/becker/async/autosafe/trunk/tum/wcet-cbmc/benchmarks/nsichneu/nsichneu.c:447
    151a:	9e 01       	movw	r18, r28
    151c:	2d 56       	subi	r18, 0x6D	; 109
    151e:	3f 4f       	sbci	r19, 0xFF	; 255
    1520:	80 91 2e 01 	lds	r24, 0x012E
    1524:	90 91 2f 01 	lds	r25, 0x012F
    1528:	a0 91 30 01 	lds	r26, 0x0130
    152c:	b0 91 31 01 	lds	r27, 0x0131
    1530:	f9 01       	movw	r30, r18
    1532:	80 83       	st	Z, r24
    1534:	91 83       	std	Z+1, r25	; 0x01
    1536:	a2 83       	std	Z+2, r26	; 0x02
    1538:	b3 83       	std	Z+3, r27	; 0x03
/home/becker/async/autosafe/trunk/tum/wcet-cbmc/benchmarks/nsichneu/nsichneu.c:448
    153a:	9e 01       	movw	r18, r28
    153c:	29 56       	subi	r18, 0x69	; 105
    153e:	3f 4f       	sbci	r19, 0xFF	; 255
    1540:	80 91 2a 01 	lds	r24, 0x012A
    1544:	90 91 2b 01 	lds	r25, 0x012B
    1548:	a0 91 2c 01 	lds	r26, 0x012C
    154c:	b0 91 2d 01 	lds	r27, 0x012D
    1550:	f9 01       	movw	r30, r18
    1552:	80 83       	st	Z, r24
    1554:	91 83       	std	Z+1, r25	; 0x01
    1556:	a2 83       	std	Z+2, r26	; 0x02
    1558:	b3 83       	std	Z+3, r27	; 0x03
/home/becker/async/autosafe/trunk/tum/wcet-cbmc/benchmarks/nsichneu/nsichneu.c:451
    155a:	9e 01       	movw	r18, r28
    155c:	29 56       	subi	r18, 0x69	; 105
    155e:	3f 4f       	sbci	r19, 0xFF	; 255
    1560:	ce 01       	movw	r24, r28
    1562:	8d 56       	subi	r24, 0x6D	; 109
    1564:	9f 4f       	sbci	r25, 0xFF	; 255
    1566:	f9 01       	movw	r30, r18
    1568:	20 81       	ld	r18, Z
    156a:	31 81       	ldd	r19, Z+1	; 0x01
    156c:	42 81       	ldd	r20, Z+2	; 0x02
    156e:	53 81       	ldd	r21, Z+3	; 0x03
    1570:	fc 01       	movw	r30, r24
    1572:	80 81       	ld	r24, Z
    1574:	91 81       	ldd	r25, Z+1	; 0x01
    1576:	a2 81       	ldd	r26, Z+2	; 0x02
    1578:	b3 81       	ldd	r27, Z+3	; 0x03
    157a:	82 17       	cp	r24, r18
    157c:	93 07       	cpc	r25, r19
    157e:	a4 07       	cpc	r26, r20
    1580:	b5 07       	cpc	r27, r21
    1582:	0c f0       	brlt	.+2      	; 0x1586 <__stack+0x487>
    1584:	78 c0       	rjmp	.+240    	; 0x1676 <__stack+0x577>
/home/becker/async/autosafe/trunk/tum/wcet-cbmc/benchmarks/nsichneu/nsichneu.c:454
    1586:	80 91 02 01 	lds	r24, 0x0102
    158a:	90 91 03 01 	lds	r25, 0x0103
    158e:	04 97       	sbiw	r24, 0x04	; 4
    1590:	90 93 03 01 	sts	0x0103, r25
    1594:	80 93 02 01 	sts	0x0102, r24
/home/becker/async/autosafe/trunk/tum/wcet-cbmc/benchmarks/nsichneu/nsichneu.c:457
    1598:	be 01       	movw	r22, r28
    159a:	65 56       	subi	r22, 0x65	; 101
    159c:	7f 4f       	sbci	r23, 0xFF	; 255
    159e:	9e 01       	movw	r18, r28
    15a0:	2d 56       	subi	r18, 0x6D	; 109
    15a2:	3f 4f       	sbci	r19, 0xFF	; 255
    15a4:	ce 01       	movw	r24, r28
    15a6:	89 56       	subi	r24, 0x69	; 105
    15a8:	9f 4f       	sbci	r25, 0xFF	; 255
    15aa:	f9 01       	movw	r30, r18
    15ac:	20 81       	ld	r18, Z
    15ae:	31 81       	ldd	r19, Z+1	; 0x01
    15b0:	42 81       	ldd	r20, Z+2	; 0x02
    15b2:	53 81       	ldd	r21, Z+3	; 0x03
    15b4:	fc 01       	movw	r30, r24
    15b6:	80 81       	ld	r24, Z
    15b8:	91 81       	ldd	r25, Z+1	; 0x01
    15ba:	a2 81       	ldd	r26, Z+2	; 0x02
    15bc:	b3 81       	ldd	r27, Z+3	; 0x03
    15be:	82 0f       	add	r24, r18
    15c0:	93 1f       	adc	r25, r19
    15c2:	a4 1f       	adc	r26, r20
    15c4:	b5 1f       	adc	r27, r21
    15c6:	fb 01       	movw	r30, r22
    15c8:	80 83       	st	Z, r24
    15ca:	91 83       	std	Z+1, r25	; 0x01
    15cc:	a2 83       	std	Z+2, r26	; 0x02
    15ce:	b3 83       	std	Z+3, r27	; 0x03
/home/becker/async/autosafe/trunk/tum/wcet-cbmc/benchmarks/nsichneu/nsichneu.c:460
    15d0:	80 91 04 01 	lds	r24, 0x0104
    15d4:	90 91 05 01 	lds	r25, 0x0105
    15d8:	88 0f       	add	r24, r24
    15da:	99 1f       	adc	r25, r25
    15dc:	88 0f       	add	r24, r24
    15de:	99 1f       	adc	r25, r25
    15e0:	9c 01       	movw	r18, r24
    15e2:	2a 5f       	subi	r18, 0xFA	; 250
    15e4:	3e 4f       	sbci	r19, 0xFE	; 254
    15e6:	ce 01       	movw	r24, r28
    15e8:	8d 56       	subi	r24, 0x6D	; 109
    15ea:	9f 4f       	sbci	r25, 0xFF	; 255
    15ec:	fc 01       	movw	r30, r24
    15ee:	80 81       	ld	r24, Z
    15f0:	91 81       	ldd	r25, Z+1	; 0x01
    15f2:	a2 81       	ldd	r26, Z+2	; 0x02
    15f4:	b3 81       	ldd	r27, Z+3	; 0x03
    15f6:	f9 01       	movw	r30, r18
    15f8:	80 83       	st	Z, r24
    15fa:	91 83       	std	Z+1, r25	; 0x01
    15fc:	a2 83       	std	Z+2, r26	; 0x02
    15fe:	b3 83       	std	Z+3, r27	; 0x03
/home/becker/async/autosafe/trunk/tum/wcet-cbmc/benchmarks/nsichneu/nsichneu.c:461
    1600:	80 91 04 01 	lds	r24, 0x0104
    1604:	90 91 05 01 	lds	r25, 0x0105
    1608:	01 96       	adiw	r24, 0x01	; 1
    160a:	88 0f       	add	r24, r24
    160c:	99 1f       	adc	r25, r25
    160e:	88 0f       	add	r24, r24
    1610:	99 1f       	adc	r25, r25
    1612:	9c 01       	movw	r18, r24
    1614:	2a 5f       	subi	r18, 0xFA	; 250
    1616:	3e 4f       	sbci	r19, 0xFE	; 254
    1618:	ce 01       	movw	r24, r28
    161a:	89 56       	subi	r24, 0x69	; 105
    161c:	9f 4f       	sbci	r25, 0xFF	; 255
    161e:	fc 01       	movw	r30, r24
    1620:	80 81       	ld	r24, Z
    1622:	91 81       	ldd	r25, Z+1	; 0x01
    1624:	a2 81       	ldd	r26, Z+2	; 0x02
    1626:	b3 81       	ldd	r27, Z+3	; 0x03
    1628:	f9 01       	movw	r30, r18
    162a:	80 83       	st	Z, r24
    162c:	91 83       	std	Z+1, r25	; 0x01
    162e:	a2 83       	std	Z+2, r26	; 0x02
    1630:	b3 83       	std	Z+3, r27	; 0x03
/home/becker/async/autosafe/trunk/tum/wcet-cbmc/benchmarks/nsichneu/nsichneu.c:462
    1632:	80 91 04 01 	lds	r24, 0x0104
    1636:	90 91 05 01 	lds	r25, 0x0105
    163a:	02 96       	adiw	r24, 0x02	; 2
    163c:	88 0f       	add	r24, r24
    163e:	99 1f       	adc	r25, r25
    1640:	88 0f       	add	r24, r24
    1642:	99 1f       	adc	r25, r25
    1644:	9c 01       	movw	r18, r24
    1646:	2a 5f       	subi	r18, 0xFA	; 250
    1648:	3e 4f       	sbci	r19, 0xFE	; 254
    164a:	ce 01       	movw	r24, r28
    164c:	85 56       	subi	r24, 0x65	; 101
    164e:	9f 4f       	sbci	r25, 0xFF	; 255
    1650:	fc 01       	movw	r30, r24
    1652:	80 81       	ld	r24, Z
    1654:	91 81       	ldd	r25, Z+1	; 0x01
    1656:	a2 81       	ldd	r26, Z+2	; 0x02
    1658:	b3 81       	ldd	r27, Z+3	; 0x03
    165a:	f9 01       	movw	r30, r18
    165c:	80 83       	st	Z, r24
    165e:	91 83       	std	Z+1, r25	; 0x01
    1660:	a2 83       	std	Z+2, r26	; 0x02
    1662:	b3 83       	std	Z+3, r27	; 0x03
/home/becker/async/autosafe/trunk/tum/wcet-cbmc/benchmarks/nsichneu/nsichneu.c:463
    1664:	80 91 04 01 	lds	r24, 0x0104
    1668:	90 91 05 01 	lds	r25, 0x0105
    166c:	03 96       	adiw	r24, 0x03	; 3
    166e:	90 93 05 01 	sts	0x0105, r25
    1672:	80 93 04 01 	sts	0x0104, r24
/home/becker/async/autosafe/trunk/tum/wcet-cbmc/benchmarks/nsichneu/nsichneu.c:470
    1676:	80 91 02 01 	lds	r24, 0x0102
    167a:	90 91 03 01 	lds	r25, 0x0103
    167e:	84 30       	cpi	r24, 0x04	; 4
    1680:	91 05       	cpc	r25, r1
    1682:	0c f4       	brge	.+2      	; 0x1686 <__stack+0x587>
    1684:	e3 c0       	rjmp	.+454    	; 0x184c <__stack+0x74d>
/home/becker/async/autosafe/trunk/tum/wcet-cbmc/benchmarks/nsichneu/nsichneu.c:471
    1686:	80 91 04 01 	lds	r24, 0x0104
    168a:	90 91 05 01 	lds	r25, 0x0105
    168e:	03 96       	adiw	r24, 0x03	; 3
/home/becker/async/autosafe/trunk/tum/wcet-cbmc/benchmarks/nsichneu/nsichneu.c:470
    1690:	87 30       	cpi	r24, 0x07	; 7
    1692:	91 05       	cpc	r25, r1
    1694:	0c f0       	brlt	.+2      	; 0x1698 <__stack+0x599>
    1696:	da c0       	rjmp	.+436    	; 0x184c <__stack+0x74d>
/home/becker/async/autosafe/trunk/tum/wcet-cbmc/benchmarks/nsichneu/nsichneu.c:472
    1698:	20 91 2a 01 	lds	r18, 0x012A
    169c:	30 91 2b 01 	lds	r19, 0x012B
    16a0:	40 91 2c 01 	lds	r20, 0x012C
    16a4:	50 91 2d 01 	lds	r21, 0x012D
    16a8:	80 91 36 01 	lds	r24, 0x0136
    16ac:	90 91 37 01 	lds	r25, 0x0137
    16b0:	a0 91 38 01 	lds	r26, 0x0138
    16b4:	b0 91 39 01 	lds	r27, 0x0139
/home/becker/async/autosafe/trunk/tum/wcet-cbmc/benchmarks/nsichneu/nsichneu.c:471
    16b8:	28 17       	cp	r18, r24
    16ba:	39 07       	cpc	r19, r25
    16bc:	4a 07       	cpc	r20, r26
    16be:	5b 07       	cpc	r21, r27
    16c0:	09 f0       	breq	.+2      	; 0x16c4 <__stack+0x5c5>
    16c2:	c4 c0       	rjmp	.+392    	; 0x184c <__stack+0x74d>
/home/becker/async/autosafe/trunk/tum/wcet-cbmc/benchmarks/nsichneu/nsichneu.c:473
    16c4:	20 91 2a 01 	lds	r18, 0x012A
    16c8:	30 91 2b 01 	lds	r19, 0x012B
    16cc:	40 91 2c 01 	lds	r20, 0x012C
    16d0:	50 91 2d 01 	lds	r21, 0x012D
    16d4:	80 91 32 01 	lds	r24, 0x0132
    16d8:	90 91 33 01 	lds	r25, 0x0133
    16dc:	a0 91 34 01 	lds	r26, 0x0134
    16e0:	b0 91 35 01 	lds	r27, 0x0135
/home/becker/async/autosafe/trunk/tum/wcet-cbmc/benchmarks/nsichneu/nsichneu.c:472
    16e4:	28 17       	cp	r18, r24
    16e6:	39 07       	cpc	r19, r25
    16e8:	4a 07       	cpc	r20, r26
    16ea:	5b 07       	cpc	r21, r27
    16ec:	09 f0       	breq	.+2      	; 0x16f0 <__stack+0x5f1>
    16ee:	ae c0       	rjmp	.+348    	; 0x184c <__stack+0x74d>
/home/becker/async/autosafe/trunk/tum/wcet-cbmc/benchmarks/nsichneu/nsichneu.c:478
    16f0:	9e 01       	movw	r18, r28
    16f2:	21 56       	subi	r18, 0x61	; 97
    16f4:	3f 4f       	sbci	r19, 0xFF	; 255
    16f6:	80 91 2e 01 	lds	r24, 0x012E
    16fa:	90 91 2f 01 	lds	r25, 0x012F
    16fe:	a0 91 30 01 	lds	r26, 0x0130
    1702:	b0 91 31 01 	lds	r27, 0x0131
    1706:	f9 01       	movw	r30, r18
    1708:	80 83       	st	Z, r24
    170a:	91 83       	std	Z+1, r25	; 0x01
    170c:	a2 83       	std	Z+2, r26	; 0x02
    170e:	b3 83       	std	Z+3, r27	; 0x03
/home/becker/async/autosafe/trunk/tum/wcet-cbmc/benchmarks/nsichneu/nsichneu.c:479
    1710:	9e 01       	movw	r18, r28
    1712:	2d 55       	subi	r18, 0x5D	; 93
    1714:	3f 4f       	sbci	r19, 0xFF	; 255
    1716:	80 91 2a 01 	lds	r24, 0x012A
    171a:	90 91 2b 01 	lds	r25, 0x012B
    171e:	a0 91 2c 01 	lds	r26, 0x012C
    1722:	b0 91 2d 01 	lds	r27, 0x012D
    1726:	f9 01       	movw	r30, r18
    1728:	80 83       	st	Z, r24
    172a:	91 83       	std	Z+1, r25	; 0x01
    172c:	a2 83       	std	Z+2, r26	; 0x02
    172e:	b3 83       	std	Z+3, r27	; 0x03
/home/becker/async/autosafe/trunk/tum/wcet-cbmc/benchmarks/nsichneu/nsichneu.c:482
    1730:	9e 01       	movw	r18, r28
    1732:	2d 55       	subi	r18, 0x5D	; 93
    1734:	3f 4f       	sbci	r19, 0xFF	; 255
    1736:	ce 01       	movw	r24, r28
    1738:	81 56       	subi	r24, 0x61	; 97
    173a:	9f 4f       	sbci	r25, 0xFF	; 255
    173c:	f9 01       	movw	r30, r18
    173e:	20 81       	ld	r18, Z
    1740:	31 81       	ldd	r19, Z+1	; 0x01
    1742:	42 81       	ldd	r20, Z+2	; 0x02
    1744:	53 81       	ldd	r21, Z+3	; 0x03
    1746:	fc 01       	movw	r30, r24
    1748:	80 81       	ld	r24, Z
    174a:	91 81       	ldd	r25, Z+1	; 0x01
    174c:	a2 81       	ldd	r26, Z+2	; 0x02
    174e:	b3 81       	ldd	r27, Z+3	; 0x03
    1750:	82 17       	cp	r24, r18
    1752:	93 07       	cpc	r25, r19
    1754:	a4 07       	cpc	r26, r20
    1756:	b5 07       	cpc	r27, r21
    1758:	0c f0       	brlt	.+2      	; 0x175c <__stack+0x65d>
    175a:	78 c0       	rjmp	.+240    	; 0x184c <__stack+0x74d>
/home/becker/async/autosafe/trunk/tum/wcet-cbmc/benchmarks/nsichneu/nsichneu.c:485
    175c:	80 91 02 01 	lds	r24, 0x0102
    1760:	90 91 03 01 	lds	r25, 0x0103
    1764:	04 97       	sbiw	r24, 0x04	; 4
    1766:	90 93 03 01 	sts	0x0103, r25
    176a:	80 93 02 01 	sts	0x0102, r24
/home/becker/async/autosafe/trunk/tum/wcet-cbmc/benchmarks/nsichneu/nsichneu.c:488
    176e:	be 01       	movw	r22, r28
    1770:	69 55       	subi	r22, 0x59	; 89
    1772:	7f 4f       	sbci	r23, 0xFF	; 255
    1774:	9e 01       	movw	r18, r28
    1776:	21 56       	subi	r18, 0x61	; 97
    1778:	3f 4f       	sbci	r19, 0xFF	; 255
    177a:	ce 01       	movw	r24, r28
    177c:	8d 55       	subi	r24, 0x5D	; 93
    177e:	9f 4f       	sbci	r25, 0xFF	; 255
    1780:	f9 01       	movw	r30, r18
    1782:	20 81       	ld	r18, Z
    1784:	31 81       	ldd	r19, Z+1	; 0x01
    1786:	42 81       	ldd	r20, Z+2	; 0x02
    1788:	53 81       	ldd	r21, Z+3	; 0x03
    178a:	fc 01       	movw	r30, r24
    178c:	80 81       	ld	r24, Z
    178e:	91 81       	ldd	r25, Z+1	; 0x01
    1790:	a2 81       	ldd	r26, Z+2	; 0x02
    1792:	b3 81       	ldd	r27, Z+3	; 0x03
    1794:	82 0f       	add	r24, r18
    1796:	93 1f       	adc	r25, r19
    1798:	a4 1f       	adc	r26, r20
    179a:	b5 1f       	adc	r27, r21
    179c:	fb 01       	movw	r30, r22
    179e:	80 83       	st	Z, r24
    17a0:	91 83       	std	Z+1, r25	; 0x01
    17a2:	a2 83       	std	Z+2, r26	; 0x02
    17a4:	b3 83       	std	Z+3, r27	; 0x03
/home/becker/async/autosafe/trunk/tum/wcet-cbmc/benchmarks/nsichneu/nsichneu.c:491
    17a6:	80 91 04 01 	lds	r24, 0x0104
    17aa:	90 91 05 01 	lds	r25, 0x0105
    17ae:	88 0f       	add	r24, r24
    17b0:	99 1f       	adc	r25, r25
    17b2:	88 0f       	add	r24, r24
    17b4:	99 1f       	adc	r25, r25
    17b6:	9c 01       	movw	r18, r24
    17b8:	2a 5f       	subi	r18, 0xFA	; 250
    17ba:	3e 4f       	sbci	r19, 0xFE	; 254
    17bc:	ce 01       	movw	r24, r28
    17be:	81 56       	subi	r24, 0x61	; 97
    17c0:	9f 4f       	sbci	r25, 0xFF	; 255
    17c2:	fc 01       	movw	r30, r24
    17c4:	80 81       	ld	r24, Z
    17c6:	91 81       	ldd	r25, Z+1	; 0x01
    17c8:	a2 81       	ldd	r26, Z+2	; 0x02
    17ca:	b3 81       	ldd	r27, Z+3	; 0x03
    17cc:	f9 01       	movw	r30, r18
    17ce:	80 83       	st	Z, r24
    17d0:	91 83       	std	Z+1, r25	; 0x01
    17d2:	a2 83       	std	Z+2, r26	; 0x02
    17d4:	b3 83       	std	Z+3, r27	; 0x03
/home/becker/async/autosafe/trunk/tum/wcet-cbmc/benchmarks/nsichneu/nsichneu.c:492
    17d6:	80 91 04 01 	lds	r24, 0x0104
    17da:	90 91 05 01 	lds	r25, 0x0105
    17de:	01 96       	adiw	r24, 0x01	; 1
    17e0:	88 0f       	add	r24, r24
    17e2:	99 1f       	adc	r25, r25
    17e4:	88 0f       	add	r24, r24
    17e6:	99 1f       	adc	r25, r25
    17e8:	9c 01       	movw	r18, r24
    17ea:	2a 5f       	subi	r18, 0xFA	; 250
    17ec:	3e 4f       	sbci	r19, 0xFE	; 254
    17ee:	ce 01       	movw	r24, r28
    17f0:	8d 55       	subi	r24, 0x5D	; 93
    17f2:	9f 4f       	sbci	r25, 0xFF	; 255
    17f4:	fc 01       	movw	r30, r24
    17f6:	80 81       	ld	r24, Z
    17f8:	91 81       	ldd	r25, Z+1	; 0x01
    17fa:	a2 81       	ldd	r26, Z+2	; 0x02
    17fc:	b3 81       	ldd	r27, Z+3	; 0x03
    17fe:	f9 01       	movw	r30, r18
    1800:	80 83       	st	Z, r24
    1802:	91 83       	std	Z+1, r25	; 0x01
    1804:	a2 83       	std	Z+2, r26	; 0x02
    1806:	b3 83       	std	Z+3, r27	; 0x03
/home/becker/async/autosafe/trunk/tum/wcet-cbmc/benchmarks/nsichneu/nsichneu.c:493
    1808:	80 91 04 01 	lds	r24, 0x0104
    180c:	90 91 05 01 	lds	r25, 0x0105
    1810:	02 96       	adiw	r24, 0x02	; 2
    1812:	88 0f       	add	r24, r24
    1814:	99 1f       	adc	r25, r25
    1816:	88 0f       	add	r24, r24
    1818:	99 1f       	adc	r25, r25
    181a:	9c 01       	movw	r18, r24
    181c:	2a 5f       	subi	r18, 0xFA	; 250
    181e:	3e 4f       	sbci	r19, 0xFE	; 254
    1820:	ce 01       	movw	r24, r28
    1822:	89 55       	subi	r24, 0x59	; 89
    1824:	9f 4f       	sbci	r25, 0xFF	; 255
    1826:	fc 01       	movw	r30, r24
    1828:	80 81       	ld	r24, Z
    182a:	91 81       	ldd	r25, Z+1	; 0x01
    182c:	a2 81       	ldd	r26, Z+2	; 0x02
    182e:	b3 81       	ldd	r27, Z+3	; 0x03
    1830:	f9 01       	movw	r30, r18
    1832:	80 83       	st	Z, r24
    1834:	91 83       	std	Z+1, r25	; 0x01
    1836:	a2 83       	std	Z+2, r26	; 0x02
    1838:	b3 83       	std	Z+3, r27	; 0x03
/home/becker/async/autosafe/trunk/tum/wcet-cbmc/benchmarks/nsichneu/nsichneu.c:494
    183a:	80 91 04 01 	lds	r24, 0x0104
    183e:	90 91 05 01 	lds	r25, 0x0105
    1842:	03 96       	adiw	r24, 0x03	; 3
    1844:	90 93 05 01 	sts	0x0105, r25
    1848:	80 93 04 01 	sts	0x0104, r24
/home/becker/async/autosafe/trunk/tum/wcet-cbmc/benchmarks/nsichneu/nsichneu.c:501
    184c:	80 91 02 01 	lds	r24, 0x0102
    1850:	90 91 03 01 	lds	r25, 0x0103
    1854:	84 30       	cpi	r24, 0x04	; 4
    1856:	91 05       	cpc	r25, r1
    1858:	0c f4       	brge	.+2      	; 0x185c <__stack+0x75d>
    185a:	e3 c0       	rjmp	.+454    	; 0x1a22 <__stack+0x923>
/home/becker/async/autosafe/trunk/tum/wcet-cbmc/benchmarks/nsichneu/nsichneu.c:502
    185c:	80 91 04 01 	lds	r24, 0x0104
    1860:	90 91 05 01 	lds	r25, 0x0105
    1864:	03 96       	adiw	r24, 0x03	; 3
/home/becker/async/autosafe/trunk/tum/wcet-cbmc/benchmarks/nsichneu/nsichneu.c:501
    1866:	87 30       	cpi	r24, 0x07	; 7
    1868:	91 05       	cpc	r25, r1
    186a:	0c f0       	brlt	.+2      	; 0x186e <__stack+0x76f>
    186c:	da c0       	rjmp	.+436    	; 0x1a22 <__stack+0x923>
/home/becker/async/autosafe/trunk/tum/wcet-cbmc/benchmarks/nsichneu/nsichneu.c:503
    186e:	20 91 32 01 	lds	r18, 0x0132
    1872:	30 91 33 01 	lds	r19, 0x0133
    1876:	40 91 34 01 	lds	r20, 0x0134
    187a:	50 91 35 01 	lds	r21, 0x0135
    187e:	80 91 2a 01 	lds	r24, 0x012A
    1882:	90 91 2b 01 	lds	r25, 0x012B
    1886:	a0 91 2c 01 	lds	r26, 0x012C
    188a:	b0 91 2d 01 	lds	r27, 0x012D
/home/becker/async/autosafe/trunk/tum/wcet-cbmc/benchmarks/nsichneu/nsichneu.c:502
    188e:	28 17       	cp	r18, r24
    1890:	39 07       	cpc	r19, r25
    1892:	4a 07       	cpc	r20, r26
    1894:	5b 07       	cpc	r21, r27
    1896:	09 f0       	breq	.+2      	; 0x189a <__stack+0x79b>
    1898:	c4 c0       	rjmp	.+392    	; 0x1a22 <__stack+0x923>
/home/becker/async/autosafe/trunk/tum/wcet-cbmc/benchmarks/nsichneu/nsichneu.c:504
    189a:	20 91 32 01 	lds	r18, 0x0132
    189e:	30 91 33 01 	lds	r19, 0x0133
    18a2:	40 91 34 01 	lds	r20, 0x0134
    18a6:	50 91 35 01 	lds	r21, 0x0135
    18aa:	80 91 36 01 	lds	r24, 0x0136
    18ae:	90 91 37 01 	lds	r25, 0x0137
    18b2:	a0 91 38 01 	lds	r26, 0x0138
    18b6:	b0 91 39 01 	lds	r27, 0x0139
/home/becker/async/autosafe/trunk/tum/wcet-cbmc/benchmarks/nsichneu/nsichneu.c:503
    18ba:	28 17       	cp	r18, r24
    18bc:	39 07       	cpc	r19, r25
    18be:	4a 07       	cpc	r20, r26
    18c0:	5b 07       	cpc	r21, r27
    18c2:	09 f0       	breq	.+2      	; 0x18c6 <__stack+0x7c7>
    18c4:	ae c0       	rjmp	.+348    	; 0x1a22 <__stack+0x923>
/home/becker/async/autosafe/trunk/tum/wcet-cbmc/benchmarks/nsichneu/nsichneu.c:509
    18c6:	9e 01       	movw	r18, r28
    18c8:	25 55       	subi	r18, 0x55	; 85
    18ca:	3f 4f       	sbci	r19, 0xFF	; 255
    18cc:	80 91 2e 01 	lds	r24, 0x012E
    18d0:	90 91 2f 01 	lds	r25, 0x012F
    18d4:	a0 91 30 01 	lds	r26, 0x0130
    18d8:	b0 91 31 01 	lds	r27, 0x0131
    18dc:	f9 01       	movw	r30, r18
    18de:	80 83       	st	Z, r24
    18e0:	91 83       	std	Z+1, r25	; 0x01
    18e2:	a2 83       	std	Z+2, r26	; 0x02
    18e4:	b3 83       	std	Z+3, r27	; 0x03
/home/becker/async/autosafe/trunk/tum/wcet-cbmc/benchmarks/nsichneu/nsichneu.c:510
    18e6:	9e 01       	movw	r18, r28
    18e8:	21 55       	subi	r18, 0x51	; 81
    18ea:	3f 4f       	sbci	r19, 0xFF	; 255
    18ec:	80 91 32 01 	lds	r24, 0x0132
    18f0:	90 91 33 01 	lds	r25, 0x0133
    18f4:	a0 91 34 01 	lds	r26, 0x0134
    18f8:	b0 91 35 01 	lds	r27, 0x0135
    18fc:	f9 01       	movw	r30, r18
    18fe:	80 83       	st	Z, r24
    1900:	91 83       	std	Z+1, r25	; 0x01
    1902:	a2 83       	std	Z+2, r26	; 0x02
    1904:	b3 83       	std	Z+3, r27	; 0x03
/home/becker/async/autosafe/trunk/tum/wcet-cbmc/benchmarks/nsichneu/nsichneu.c:513
    1906:	9e 01       	movw	r18, r28
    1908:	21 55       	subi	r18, 0x51	; 81
    190a:	3f 4f       	sbci	r19, 0xFF	; 255
    190c:	ce 01       	movw	r24, r28
    190e:	85 55       	subi	r24, 0x55	; 85
    1910:	9f 4f       	sbci	r25, 0xFF	; 255
    1912:	f9 01       	movw	r30, r18
    1914:	20 81       	ld	r18, Z
    1916:	31 81       	ldd	r19, Z+1	; 0x01
    1918:	42 81       	ldd	r20, Z+2	; 0x02
    191a:	53 81       	ldd	r21, Z+3	; 0x03
    191c:	fc 01       	movw	r30, r24
    191e:	80 81       	ld	r24, Z
    1920:	91 81       	ldd	r25, Z+1	; 0x01
    1922:	a2 81       	ldd	r26, Z+2	; 0x02
    1924:	b3 81       	ldd	r27, Z+3	; 0x03
    1926:	82 17       	cp	r24, r18
    1928:	93 07       	cpc	r25, r19
    192a:	a4 07       	cpc	r26, r20
    192c:	b5 07       	cpc	r27, r21
    192e:	0c f0       	brlt	.+2      	; 0x1932 <__stack+0x833>
    1930:	78 c0       	rjmp	.+240    	; 0x1a22 <__stack+0x923>
/home/becker/async/autosafe/trunk/tum/wcet-cbmc/benchmarks/nsichneu/nsichneu.c:516
    1932:	80 91 02 01 	lds	r24, 0x0102
    1936:	90 91 03 01 	lds	r25, 0x0103
    193a:	04 97       	sbiw	r24, 0x04	; 4
    193c:	90 93 03 01 	sts	0x0103, r25
    1940:	80 93 02 01 	sts	0x0102, r24
/home/becker/async/autosafe/trunk/tum/wcet-cbmc/benchmarks/nsichneu/nsichneu.c:519
    1944:	be 01       	movw	r22, r28
    1946:	6d 54       	subi	r22, 0x4D	; 77
    1948:	7f 4f       	sbci	r23, 0xFF	; 255
    194a:	9e 01       	movw	r18, r28
    194c:	25 55       	subi	r18, 0x55	; 85
    194e:	3f 4f       	sbci	r19, 0xFF	; 255
    1950:	ce 01       	movw	r24, r28
    1952:	81 55       	subi	r24, 0x51	; 81
    1954:	9f 4f       	sbci	r25, 0xFF	; 255
    1956:	f9 01       	movw	r30, r18
    1958:	20 81       	ld	r18, Z
    195a:	31 81       	ldd	r19, Z+1	; 0x01
    195c:	42 81       	ldd	r20, Z+2	; 0x02
    195e:	53 81       	ldd	r21, Z+3	; 0x03
    1960:	fc 01       	movw	r30, r24
    1962:	80 81       	ld	r24, Z
    1964:	91 81       	ldd	r25, Z+1	; 0x01
    1966:	a2 81       	ldd	r26, Z+2	; 0x02
    1968:	b3 81       	ldd	r27, Z+3	; 0x03
    196a:	82 0f       	add	r24, r18
    196c:	93 1f       	adc	r25, r19
    196e:	a4 1f       	adc	r26, r20
    1970:	b5 1f       	adc	r27, r21
    1972:	fb 01       	movw	r30, r22
    1974:	80 83       	st	Z, r24
    1976:	91 83       	std	Z+1, r25	; 0x01
    1978:	a2 83       	std	Z+2, r26	; 0x02
    197a:	b3 83       	std	Z+3, r27	; 0x03
/home/becker/async/autosafe/trunk/tum/wcet-cbmc/benchmarks/nsichneu/nsichneu.c:522
    197c:	80 91 04 01 	lds	r24, 0x0104
    1980:	90 91 05 01 	lds	r25, 0x0105
    1984:	88 0f       	add	r24, r24
    1986:	99 1f       	adc	r25, r25
    1988:	88 0f       	add	r24, r24
    198a:	99 1f       	adc	r25, r25
    198c:	9c 01       	movw	r18, r24
    198e:	2a 5f       	subi	r18, 0xFA	; 250
    1990:	3e 4f       	sbci	r19, 0xFE	; 254
    1992:	ce 01       	movw	r24, r28
    1994:	85 55       	subi	r24, 0x55	; 85
    1996:	9f 4f       	sbci	r25, 0xFF	; 255
    1998:	fc 01       	movw	r30, r24
    199a:	80 81       	ld	r24, Z
    199c:	91 81       	ldd	r25, Z+1	; 0x01
    199e:	a2 81       	ldd	r26, Z+2	; 0x02
    19a0:	b3 81       	ldd	r27, Z+3	; 0x03
    19a2:	f9 01       	movw	r30, r18
    19a4:	80 83       	st	Z, r24
    19a6:	91 83       	std	Z+1, r25	; 0x01
    19a8:	a2 83       	std	Z+2, r26	; 0x02
    19aa:	b3 83       	std	Z+3, r27	; 0x03
/home/becker/async/autosafe/trunk/tum/wcet-cbmc/benchmarks/nsichneu/nsichneu.c:523
    19ac:	80 91 04 01 	lds	r24, 0x0104
    19b0:	90 91 05 01 	lds	r25, 0x0105
    19b4:	01 96       	adiw	r24, 0x01	; 1
    19b6:	88 0f       	add	r24, r24
    19b8:	99 1f       	adc	r25, r25
    19ba:	88 0f       	add	r24, r24
    19bc:	99 1f       	adc	r25, r25
    19be:	9c 01       	movw	r18, r24
    19c0:	2a 5f       	subi	r18, 0xFA	; 250
    19c2:	3e 4f       	sbci	r19, 0xFE	; 254
    19c4:	ce 01       	movw	r24, r28
    19c6:	81 55       	subi	r24, 0x51	; 81
    19c8:	9f 4f       	sbci	r25, 0xFF	; 255
    19ca:	fc 01       	movw	r30, r24
    19cc:	80 81       	ld	r24, Z
    19ce:	91 81       	ldd	r25, Z+1	; 0x01
    19d0:	a2 81       	ldd	r26, Z+2	; 0x02
    19d2:	b3 81       	ldd	r27, Z+3	; 0x03
    19d4:	f9 01       	movw	r30, r18
    19d6:	80 83       	st	Z, r24
    19d8:	91 83       	std	Z+1, r25	; 0x01
    19da:	a2 83       	std	Z+2, r26	; 0x02
    19dc:	b3 83       	std	Z+3, r27	; 0x03
/home/becker/async/autosafe/trunk/tum/wcet-cbmc/benchmarks/nsichneu/nsichneu.c:524
    19de:	80 91 04 01 	lds	r24, 0x0104
    19e2:	90 91 05 01 	lds	r25, 0x0105
    19e6:	02 96       	adiw	r24, 0x02	; 2
    19e8:	88 0f       	add	r24, r24
    19ea:	99 1f       	adc	r25, r25
    19ec:	88 0f       	add	r24, r24
    19ee:	99 1f       	adc	r25, r25
    19f0:	9c 01       	movw	r18, r24
    19f2:	2a 5f       	subi	r18, 0xFA	; 250
    19f4:	3e 4f       	sbci	r19, 0xFE	; 254
    19f6:	ce 01       	movw	r24, r28
    19f8:	8d 54       	subi	r24, 0x4D	; 77
    19fa:	9f 4f       	sbci	r25, 0xFF	; 255
    19fc:	fc 01       	movw	r30, r24
    19fe:	80 81       	ld	r24, Z
    1a00:	91 81       	ldd	r25, Z+1	; 0x01
    1a02:	a2 81       	ldd	r26, Z+2	; 0x02
    1a04:	b3 81       	ldd	r27, Z+3	; 0x03
    1a06:	f9 01       	movw	r30, r18
    1a08:	80 83       	st	Z, r24
    1a0a:	91 83       	std	Z+1, r25	; 0x01
    1a0c:	a2 83       	std	Z+2, r26	; 0x02
    1a0e:	b3 83       	std	Z+3, r27	; 0x03
/home/becker/async/autosafe/trunk/tum/wcet-cbmc/benchmarks/nsichneu/nsichneu.c:525
    1a10:	80 91 04 01 	lds	r24, 0x0104
    1a14:	90 91 05 01 	lds	r25, 0x0105
    1a18:	03 96       	adiw	r24, 0x03	; 3
    1a1a:	90 93 05 01 	sts	0x0105, r25
    1a1e:	80 93 04 01 	sts	0x0104, r24
/home/becker/async/autosafe/trunk/tum/wcet-cbmc/benchmarks/nsichneu/nsichneu.c:532
    1a22:	80 91 02 01 	lds	r24, 0x0102
    1a26:	90 91 03 01 	lds	r25, 0x0103
    1a2a:	84 30       	cpi	r24, 0x04	; 4
    1a2c:	91 05       	cpc	r25, r1
    1a2e:	0c f4       	brge	.+2      	; 0x1a32 <__stack+0x933>
    1a30:	e3 c0       	rjmp	.+454    	; 0x1bf8 <__stack+0xaf9>
/home/becker/async/autosafe/trunk/tum/wcet-cbmc/benchmarks/nsichneu/nsichneu.c:533
    1a32:	80 91 04 01 	lds	r24, 0x0104
    1a36:	90 91 05 01 	lds	r25, 0x0105
    1a3a:	03 96       	adiw	r24, 0x03	; 3
/home/becker/async/autosafe/trunk/tum/wcet-cbmc/benchmarks/nsichneu/nsichneu.c:532
    1a3c:	87 30       	cpi	r24, 0x07	; 7
    1a3e:	91 05       	cpc	r25, r1
    1a40:	0c f0       	brlt	.+2      	; 0x1a44 <__stack+0x945>
    1a42:	da c0       	rjmp	.+436    	; 0x1bf8 <__stack+0xaf9>
/home/becker/async/autosafe/trunk/tum/wcet-cbmc/benchmarks/nsichneu/nsichneu.c:534
    1a44:	20 91 32 01 	lds	r18, 0x0132
    1a48:	30 91 33 01 	lds	r19, 0x0133
    1a4c:	40 91 34 01 	lds	r20, 0x0134
    1a50:	50 91 35 01 	lds	r21, 0x0135
    1a54:	80 91 36 01 	lds	r24, 0x0136
    1a58:	90 91 37 01 	lds	r25, 0x0137
    1a5c:	a0 91 38 01 	lds	r26, 0x0138
    1a60:	b0 91 39 01 	lds	r27, 0x0139
/home/becker/async/autosafe/trunk/tum/wcet-cbmc/benchmarks/nsichneu/nsichneu.c:533
    1a64:	28 17       	cp	r18, r24
    1a66:	39 07       	cpc	r19, r25
    1a68:	4a 07       	cpc	r20, r26
    1a6a:	5b 07       	cpc	r21, r27
    1a6c:	09 f0       	breq	.+2      	; 0x1a70 <__stack+0x971>
    1a6e:	c4 c0       	rjmp	.+392    	; 0x1bf8 <__stack+0xaf9>
/home/becker/async/autosafe/trunk/tum/wcet-cbmc/benchmarks/nsichneu/nsichneu.c:535
    1a70:	20 91 32 01 	lds	r18, 0x0132
    1a74:	30 91 33 01 	lds	r19, 0x0133
    1a78:	40 91 34 01 	lds	r20, 0x0134
    1a7c:	50 91 35 01 	lds	r21, 0x0135
    1a80:	80 91 2a 01 	lds	r24, 0x012A
    1a84:	90 91 2b 01 	lds	r25, 0x012B
    1a88:	a0 91 2c 01 	lds	r26, 0x012C
    1a8c:	b0 91 2d 01 	lds	r27, 0x012D
/home/becker/async/autosafe/trunk/tum/wcet-cbmc/benchmarks/nsichneu/nsichneu.c:534
    1a90:	28 17       	cp	r18, r24
    1a92:	39 07       	cpc	r19, r25
    1a94:	4a 07       	cpc	r20, r26
    1a96:	5b 07       	cpc	r21, r27
    1a98:	09 f0       	breq	.+2      	; 0x1a9c <__stack+0x99d>
    1a9a:	ae c0       	rjmp	.+348    	; 0x1bf8 <__stack+0xaf9>
/home/becker/async/autosafe/trunk/tum/wcet-cbmc/benchmarks/nsichneu/nsichneu.c:540
    1a9c:	9e 01       	movw	r18, r28
    1a9e:	29 54       	subi	r18, 0x49	; 73
    1aa0:	3f 4f       	sbci	r19, 0xFF	; 255
    1aa2:	80 91 2e 01 	lds	r24, 0x012E
    1aa6:	90 91 2f 01 	lds	r25, 0x012F
    1aaa:	a0 91 30 01 	lds	r26, 0x0130
    1aae:	b0 91 31 01 	lds	r27, 0x0131
    1ab2:	f9 01       	movw	r30, r18
    1ab4:	80 83       	st	Z, r24
    1ab6:	91 83       	std	Z+1, r25	; 0x01
    1ab8:	a2 83       	std	Z+2, r26	; 0x02
    1aba:	b3 83       	std	Z+3, r27	; 0x03
/home/becker/async/autosafe/trunk/tum/wcet-cbmc/benchmarks/nsichneu/nsichneu.c:541
    1abc:	9e 01       	movw	r18, r28
    1abe:	25 54       	subi	r18, 0x45	; 69
    1ac0:	3f 4f       	sbci	r19, 0xFF	; 255
    1ac2:	80 91 32 01 	lds	r24, 0x0132
    1ac6:	90 91 33 01 	lds	r25, 0x0133
    1aca:	a0 91 34 01 	lds	r26, 0x0134
    1ace:	b0 91 35 01 	lds	r27, 0x0135
    1ad2:	f9 01       	movw	r30, r18
    1ad4:	80 83       	st	Z, r24
    1ad6:	91 83       	std	Z+1, r25	; 0x01
    1ad8:	a2 83       	std	Z+2, r26	; 0x02
    1ada:	b3 83       	std	Z+3, r27	; 0x03
/home/becker/async/autosafe/trunk/tum/wcet-cbmc/benchmarks/nsichneu/nsichneu.c:544
    1adc:	9e 01       	movw	r18, r28
    1ade:	25 54       	subi	r18, 0x45	; 69
    1ae0:	3f 4f       	sbci	r19, 0xFF	; 255
    1ae2:	ce 01       	movw	r24, r28
    1ae4:	89 54       	subi	r24, 0x49	; 73
    1ae6:	9f 4f       	sbci	r25, 0xFF	; 255
    1ae8:	f9 01       	movw	r30, r18
    1aea:	20 81       	ld	r18, Z
    1aec:	31 81       	ldd	r19, Z+1	; 0x01
    1aee:	42 81       	ldd	r20, Z+2	; 0x02
    1af0:	53 81       	ldd	r21, Z+3	; 0x03
    1af2:	fc 01       	movw	r30, r24
    1af4:	80 81       	ld	r24, Z
    1af6:	91 81       	ldd	r25, Z+1	; 0x01
    1af8:	a2 81       	ldd	r26, Z+2	; 0x02
    1afa:	b3 81       	ldd	r27, Z+3	; 0x03
    1afc:	82 17       	cp	r24, r18
    1afe:	93 07       	cpc	r25, r19
    1b00:	a4 07       	cpc	r26, r20
    1b02:	b5 07       	cpc	r27, r21
    1b04:	0c f0       	brlt	.+2      	; 0x1b08 <__stack+0xa09>
    1b06:	78 c0       	rjmp	.+240    	; 0x1bf8 <__stack+0xaf9>
/home/becker/async/autosafe/trunk/tum/wcet-cbmc/benchmarks/nsichneu/nsichneu.c:546
    1b08:	80 91 02 01 	lds	r24, 0x0102
    1b0c:	90 91 03 01 	lds	r25, 0x0103
    1b10:	04 97       	sbiw	r24, 0x04	; 4
    1b12:	90 93 03 01 	sts	0x0103, r25
    1b16:	80 93 02 01 	sts	0x0102, r24
/home/becker/async/autosafe/trunk/tum/wcet-cbmc/benchmarks/nsichneu/nsichneu.c:549
    1b1a:	be 01       	movw	r22, r28
    1b1c:	61 54       	subi	r22, 0x41	; 65
    1b1e:	7f 4f       	sbci	r23, 0xFF	; 255
    1b20:	9e 01       	movw	r18, r28
    1b22:	29 54       	subi	r18, 0x49	; 73
    1b24:	3f 4f       	sbci	r19, 0xFF	; 255
    1b26:	ce 01       	movw	r24, r28
    1b28:	85 54       	subi	r24, 0x45	; 69
    1b2a:	9f 4f       	sbci	r25, 0xFF	; 255
    1b2c:	f9 01       	movw	r30, r18
    1b2e:	20 81       	ld	r18, Z
    1b30:	31 81       	ldd	r19, Z+1	; 0x01
    1b32:	42 81       	ldd	r20, Z+2	; 0x02
    1b34:	53 81       	ldd	r21, Z+3	; 0x03
    1b36:	fc 01       	movw	r30, r24
    1b38:	80 81       	ld	r24, Z
    1b3a:	91 81       	ldd	r25, Z+1	; 0x01
    1b3c:	a2 81       	ldd	r26, Z+2	; 0x02
    1b3e:	b3 81       	ldd	r27, Z+3	; 0x03
    1b40:	82 0f       	add	r24, r18
    1b42:	93 1f       	adc	r25, r19
    1b44:	a4 1f       	adc	r26, r20
    1b46:	b5 1f       	adc	r27, r21
    1b48:	fb 01       	movw	r30, r22
    1b4a:	80 83       	st	Z, r24
    1b4c:	91 83       	std	Z+1, r25	; 0x01
    1b4e:	a2 83       	std	Z+2, r26	; 0x02
    1b50:	b3 83       	std	Z+3, r27	; 0x03
/home/becker/async/autosafe/trunk/tum/wcet-cbmc/benchmarks/nsichneu/nsichneu.c:552
    1b52:	80 91 04 01 	lds	r24, 0x0104
    1b56:	90 91 05 01 	lds	r25, 0x0105
    1b5a:	88 0f       	add	r24, r24
    1b5c:	99 1f       	adc	r25, r25
    1b5e:	88 0f       	add	r24, r24
    1b60:	99 1f       	adc	r25, r25
    1b62:	9c 01       	movw	r18, r24
    1b64:	2a 5f       	subi	r18, 0xFA	; 250
    1b66:	3e 4f       	sbci	r19, 0xFE	; 254
    1b68:	ce 01       	movw	r24, r28
    1b6a:	89 54       	subi	r24, 0x49	; 73
    1b6c:	9f 4f       	sbci	r25, 0xFF	; 255
    1b6e:	fc 01       	movw	r30, r24
    1b70:	80 81       	ld	r24, Z
    1b72:	91 81       	ldd	r25, Z+1	; 0x01
    1b74:	a2 81       	ldd	r26, Z+2	; 0x02
    1b76:	b3 81       	ldd	r27, Z+3	; 0x03
    1b78:	f9 01       	movw	r30, r18
    1b7a:	80 83       	st	Z, r24
    1b7c:	91 83       	std	Z+1, r25	; 0x01
    1b7e:	a2 83       	std	Z+2, r26	; 0x02
    1b80:	b3 83       	std	Z+3, r27	; 0x03
/home/becker/async/autosafe/trunk/tum/wcet-cbmc/benchmarks/nsichneu/nsichneu.c:553
    1b82:	80 91 04 01 	lds	r24, 0x0104
    1b86:	90 91 05 01 	lds	r25, 0x0105
    1b8a:	01 96       	adiw	r24, 0x01	; 1
    1b8c:	88 0f       	add	r24, r24
    1b8e:	99 1f       	adc	r25, r25
    1b90:	88 0f       	add	r24, r24
    1b92:	99 1f       	adc	r25, r25
    1b94:	9c 01       	movw	r18, r24
    1b96:	2a 5f       	subi	r18, 0xFA	; 250
    1b98:	3e 4f       	sbci	r19, 0xFE	; 254
    1b9a:	ce 01       	movw	r24, r28
    1b9c:	85 54       	subi	r24, 0x45	; 69
    1b9e:	9f 4f       	sbci	r25, 0xFF	; 255
    1ba0:	fc 01       	movw	r30, r24
    1ba2:	80 81       	ld	r24, Z
    1ba4:	91 81       	ldd	r25, Z+1	; 0x01
    1ba6:	a2 81       	ldd	r26, Z+2	; 0x02
    1ba8:	b3 81       	ldd	r27, Z+3	; 0x03
    1baa:	f9 01       	movw	r30, r18
    1bac:	80 83       	st	Z, r24
    1bae:	91 83       	std	Z+1, r25	; 0x01
    1bb0:	a2 83       	std	Z+2, r26	; 0x02
    1bb2:	b3 83       	std	Z+3, r27	; 0x03
/home/becker/async/autosafe/trunk/tum/wcet-cbmc/benchmarks/nsichneu/nsichneu.c:554
    1bb4:	80 91 04 01 	lds	r24, 0x0104
    1bb8:	90 91 05 01 	lds	r25, 0x0105
    1bbc:	02 96       	adiw	r24, 0x02	; 2
    1bbe:	88 0f       	add	r24, r24
    1bc0:	99 1f       	adc	r25, r25
    1bc2:	88 0f       	add	r24, r24
    1bc4:	99 1f       	adc	r25, r25
    1bc6:	9c 01       	movw	r18, r24
    1bc8:	2a 5f       	subi	r18, 0xFA	; 250
    1bca:	3e 4f       	sbci	r19, 0xFE	; 254
    1bcc:	ce 01       	movw	r24, r28
    1bce:	81 54       	subi	r24, 0x41	; 65
    1bd0:	9f 4f       	sbci	r25, 0xFF	; 255
    1bd2:	fc 01       	movw	r30, r24
    1bd4:	80 81       	ld	r24, Z
    1bd6:	91 81       	ldd	r25, Z+1	; 0x01
    1bd8:	a2 81       	ldd	r26, Z+2	; 0x02
    1bda:	b3 81       	ldd	r27, Z+3	; 0x03
    1bdc:	f9 01       	movw	r30, r18
    1bde:	80 83       	st	Z, r24
    1be0:	91 83       	std	Z+1, r25	; 0x01
    1be2:	a2 83       	std	Z+2, r26	; 0x02
    1be4:	b3 83       	std	Z+3, r27	; 0x03
/home/becker/async/autosafe/trunk/tum/wcet-cbmc/benchmarks/nsichneu/nsichneu.c:555
    1be6:	80 91 04 01 	lds	r24, 0x0104
    1bea:	90 91 05 01 	lds	r25, 0x0105
    1bee:	03 96       	adiw	r24, 0x03	; 3
    1bf0:	90 93 05 01 	sts	0x0105, r25
    1bf4:	80 93 04 01 	sts	0x0104, r24
/home/becker/async/autosafe/trunk/tum/wcet-cbmc/benchmarks/nsichneu/nsichneu.c:562
    1bf8:	80 91 02 01 	lds	r24, 0x0102
    1bfc:	90 91 03 01 	lds	r25, 0x0103
    1c00:	84 30       	cpi	r24, 0x04	; 4
    1c02:	91 05       	cpc	r25, r1
    1c04:	0c f4       	brge	.+2      	; 0x1c08 <__stack+0xb09>
    1c06:	e3 c0       	rjmp	.+454    	; 0x1dce <__stack+0xccf>
/home/becker/async/autosafe/trunk/tum/wcet-cbmc/benchmarks/nsichneu/nsichneu.c:563
    1c08:	80 91 04 01 	lds	r24, 0x0104
    1c0c:	90 91 05 01 	lds	r25, 0x0105
    1c10:	03 96       	adiw	r24, 0x03	; 3
/home/becker/async/autosafe/trunk/tum/wcet-cbmc/benchmarks/nsichneu/nsichneu.c:562
    1c12:	87 30       	cpi	r24, 0x07	; 7
    1c14:	91 05       	cpc	r25, r1
    1c16:	0c f0       	brlt	.+2      	; 0x1c1a <__stack+0xb1b>
    1c18:	da c0       	rjmp	.+436    	; 0x1dce <__stack+0xccf>
/home/becker/async/autosafe/trunk/tum/wcet-cbmc/benchmarks/nsichneu/nsichneu.c:564
    1c1a:	20 91 36 01 	lds	r18, 0x0136
    1c1e:	30 91 37 01 	lds	r19, 0x0137
    1c22:	40 91 38 01 	lds	r20, 0x0138
    1c26:	50 91 39 01 	lds	r21, 0x0139
    1c2a:	80 91 2a 01 	lds	r24, 0x012A
    1c2e:	90 91 2b 01 	lds	r25, 0x012B
    1c32:	a0 91 2c 01 	lds	r26, 0x012C
    1c36:	b0 91 2d 01 	lds	r27, 0x012D
/home/becker/async/autosafe/trunk/tum/wcet-cbmc/benchmarks/nsichneu/nsichneu.c:563
    1c3a:	28 17       	cp	r18, r24
    1c3c:	39 07       	cpc	r19, r25
    1c3e:	4a 07       	cpc	r20, r26
    1c40:	5b 07       	cpc	r21, r27
    1c42:	09 f0       	breq	.+2      	; 0x1c46 <__stack+0xb47>
    1c44:	c4 c0       	rjmp	.+392    	; 0x1dce <__stack+0xccf>
/home/becker/async/autosafe/trunk/tum/wcet-cbmc/benchmarks/nsichneu/nsichneu.c:565
    1c46:	20 91 36 01 	lds	r18, 0x0136
    1c4a:	30 91 37 01 	lds	r19, 0x0137
    1c4e:	40 91 38 01 	lds	r20, 0x0138
    1c52:	50 91 39 01 	lds	r21, 0x0139
    1c56:	80 91 32 01 	lds	r24, 0x0132
    1c5a:	90 91 33 01 	lds	r25, 0x0133
    1c5e:	a0 91 34 01 	lds	r26, 0x0134
    1c62:	b0 91 35 01 	lds	r27, 0x0135
/home/becker/async/autosafe/trunk/tum/wcet-cbmc/benchmarks/nsichneu/nsichneu.c:564
    1c66:	28 17       	cp	r18, r24
    1c68:	39 07       	cpc	r19, r25
    1c6a:	4a 07       	cpc	r20, r26
    1c6c:	5b 07       	cpc	r21, r27
    1c6e:	09 f0       	breq	.+2      	; 0x1c72 <__stack+0xb73>
    1c70:	ae c0       	rjmp	.+348    	; 0x1dce <__stack+0xccf>
/home/becker/async/autosafe/trunk/tum/wcet-cbmc/benchmarks/nsichneu/nsichneu.c:570
    1c72:	9e 01       	movw	r18, r28
    1c74:	2d 53       	subi	r18, 0x3D	; 61
    1c76:	3f 4f       	sbci	r19, 0xFF	; 255
    1c78:	80 91 2e 01 	lds	r24, 0x012E
    1c7c:	90 91 2f 01 	lds	r25, 0x012F
    1c80:	a0 91 30 01 	lds	r26, 0x0130
    1c84:	b0 91 31 01 	lds	r27, 0x0131
    1c88:	f9 01       	movw	r30, r18
    1c8a:	80 83       	st	Z, r24
    1c8c:	91 83       	std	Z+1, r25	; 0x01
    1c8e:	a2 83       	std	Z+2, r26	; 0x02
    1c90:	b3 83       	std	Z+3, r27	; 0x03
/home/becker/async/autosafe/trunk/tum/wcet-cbmc/benchmarks/nsichneu/nsichneu.c:571
    1c92:	9e 01       	movw	r18, r28
    1c94:	29 53       	subi	r18, 0x39	; 57
    1c96:	3f 4f       	sbci	r19, 0xFF	; 255
    1c98:	80 91 36 01 	lds	r24, 0x0136
    1c9c:	90 91 37 01 	lds	r25, 0x0137
    1ca0:	a0 91 38 01 	lds	r26, 0x0138
    1ca4:	b0 91 39 01 	lds	r27, 0x0139
    1ca8:	f9 01       	movw	r30, r18
    1caa:	80 83       	st	Z, r24
    1cac:	91 83       	std	Z+1, r25	; 0x01
    1cae:	a2 83       	std	Z+2, r26	; 0x02
    1cb0:	b3 83       	std	Z+3, r27	; 0x03
/home/becker/async/autosafe/trunk/tum/wcet-cbmc/benchmarks/nsichneu/nsichneu.c:574
    1cb2:	9e 01       	movw	r18, r28
    1cb4:	29 53       	subi	r18, 0x39	; 57
    1cb6:	3f 4f       	sbci	r19, 0xFF	; 255
    1cb8:	ce 01       	movw	r24, r28
    1cba:	8d 53       	subi	r24, 0x3D	; 61
    1cbc:	9f 4f       	sbci	r25, 0xFF	; 255
    1cbe:	f9 01       	movw	r30, r18
    1cc0:	20 81       	ld	r18, Z
    1cc2:	31 81       	ldd	r19, Z+1	; 0x01
    1cc4:	42 81       	ldd	r20, Z+2	; 0x02
    1cc6:	53 81       	ldd	r21, Z+3	; 0x03
    1cc8:	fc 01       	movw	r30, r24
    1cca:	80 81       	ld	r24, Z
    1ccc:	91 81       	ldd	r25, Z+1	; 0x01
    1cce:	a2 81       	ldd	r26, Z+2	; 0x02
    1cd0:	b3 81       	ldd	r27, Z+3	; 0x03
    1cd2:	82 17       	cp	r24, r18
    1cd4:	93 07       	cpc	r25, r19
    1cd6:	a4 07       	cpc	r26, r20
    1cd8:	b5 07       	cpc	r27, r21
    1cda:	0c f0       	brlt	.+2      	; 0x1cde <__stack+0xbdf>
    1cdc:	78 c0       	rjmp	.+240    	; 0x1dce <__stack+0xccf>
/home/becker/async/autosafe/trunk/tum/wcet-cbmc/benchmarks/nsichneu/nsichneu.c:576
    1cde:	80 91 02 01 	lds	r24, 0x0102
    1ce2:	90 91 03 01 	lds	r25, 0x0103
    1ce6:	04 97       	sbiw	r24, 0x04	; 4
    1ce8:	90 93 03 01 	sts	0x0103, r25
    1cec:	80 93 02 01 	sts	0x0102, r24
/home/becker/async/autosafe/trunk/tum/wcet-cbmc/benchmarks/nsichneu/nsichneu.c:579
    1cf0:	be 01       	movw	r22, r28
    1cf2:	65 53       	subi	r22, 0x35	; 53
    1cf4:	7f 4f       	sbci	r23, 0xFF	; 255
    1cf6:	9e 01       	movw	r18, r28
    1cf8:	2d 53       	subi	r18, 0x3D	; 61
    1cfa:	3f 4f       	sbci	r19, 0xFF	; 255
    1cfc:	ce 01       	movw	r24, r28
    1cfe:	89 53       	subi	r24, 0x39	; 57
    1d00:	9f 4f       	sbci	r25, 0xFF	; 255
    1d02:	f9 01       	movw	r30, r18
    1d04:	20 81       	ld	r18, Z
    1d06:	31 81       	ldd	r19, Z+1	; 0x01
    1d08:	42 81       	ldd	r20, Z+2	; 0x02
    1d0a:	53 81       	ldd	r21, Z+3	; 0x03
    1d0c:	fc 01       	movw	r30, r24
    1d0e:	80 81       	ld	r24, Z
    1d10:	91 81       	ldd	r25, Z+1	; 0x01
    1d12:	a2 81       	ldd	r26, Z+2	; 0x02
    1d14:	b3 81       	ldd	r27, Z+3	; 0x03
    1d16:	82 0f       	add	r24, r18
    1d18:	93 1f       	adc	r25, r19
    1d1a:	a4 1f       	adc	r26, r20
    1d1c:	b5 1f       	adc	r27, r21
    1d1e:	fb 01       	movw	r30, r22
    1d20:	80 83       	st	Z, r24
    1d22:	91 83       	std	Z+1, r25	; 0x01
    1d24:	a2 83       	std	Z+2, r26	; 0x02
    1d26:	b3 83       	std	Z+3, r27	; 0x03
/home/becker/async/autosafe/trunk/tum/wcet-cbmc/benchmarks/nsichneu/nsichneu.c:582
    1d28:	80 91 04 01 	lds	r24, 0x0104
    1d2c:	90 91 05 01 	lds	r25, 0x0105
    1d30:	88 0f       	add	r24, r24
    1d32:	99 1f       	adc	r25, r25
    1d34:	88 0f       	add	r24, r24
    1d36:	99 1f       	adc	r25, r25
    1d38:	9c 01       	movw	r18, r24
    1d3a:	2a 5f       	subi	r18, 0xFA	; 250
    1d3c:	3e 4f       	sbci	r19, 0xFE	; 254
    1d3e:	ce 01       	movw	r24, r28
    1d40:	8d 53       	subi	r24, 0x3D	; 61
    1d42:	9f 4f       	sbci	r25, 0xFF	; 255
    1d44:	fc 01       	movw	r30, r24
    1d46:	80 81       	ld	r24, Z
    1d48:	91 81       	ldd	r25, Z+1	; 0x01
    1d4a:	a2 81       	ldd	r26, Z+2	; 0x02
    1d4c:	b3 81       	ldd	r27, Z+3	; 0x03
    1d4e:	f9 01       	movw	r30, r18
    1d50:	80 83       	st	Z, r24
    1d52:	91 83       	std	Z+1, r25	; 0x01
    1d54:	a2 83       	std	Z+2, r26	; 0x02
    1d56:	b3 83       	std	Z+3, r27	; 0x03
/home/becker/async/autosafe/trunk/tum/wcet-cbmc/benchmarks/nsichneu/nsichneu.c:583
    1d58:	80 91 04 01 	lds	r24, 0x0104
    1d5c:	90 91 05 01 	lds	r25, 0x0105
    1d60:	01 96       	adiw	r24, 0x01	; 1
    1d62:	88 0f       	add	r24, r24
    1d64:	99 1f       	adc	r25, r25
    1d66:	88 0f       	add	r24, r24
    1d68:	99 1f       	adc	r25, r25
    1d6a:	9c 01       	movw	r18, r24
    1d6c:	2a 5f       	subi	r18, 0xFA	; 250
    1d6e:	3e 4f       	sbci	r19, 0xFE	; 254
    1d70:	ce 01       	movw	r24, r28
    1d72:	89 53       	subi	r24, 0x39	; 57
    1d74:	9f 4f       	sbci	r25, 0xFF	; 255
    1d76:	fc 01       	movw	r30, r24
    1d78:	80 81       	ld	r24, Z
    1d7a:	91 81       	ldd	r25, Z+1	; 0x01
    1d7c:	a2 81       	ldd	r26, Z+2	; 0x02
    1d7e:	b3 81       	ldd	r27, Z+3	; 0x03
    1d80:	f9 01       	movw	r30, r18
    1d82:	80 83       	st	Z, r24
    1d84:	91 83       	std	Z+1, r25	; 0x01
    1d86:	a2 83       	std	Z+2, r26	; 0x02
    1d88:	b3 83       	std	Z+3, r27	; 0x03
/home/becker/async/autosafe/trunk/tum/wcet-cbmc/benchmarks/nsichneu/nsichneu.c:584
    1d8a:	80 91 04 01 	lds	r24, 0x0104
    1d8e:	90 91 05 01 	lds	r25, 0x0105
    1d92:	02 96       	adiw	r24, 0x02	; 2
    1d94:	88 0f       	add	r24, r24
    1d96:	99 1f       	adc	r25, r25
    1d98:	88 0f       	add	r24, r24
    1d9a:	99 1f       	adc	r25, r25
    1d9c:	9c 01       	movw	r18, r24
    1d9e:	2a 5f       	subi	r18, 0xFA	; 250
    1da0:	3e 4f       	sbci	r19, 0xFE	; 254
    1da2:	ce 01       	movw	r24, r28
    1da4:	85 53       	subi	r24, 0x35	; 53
    1da6:	9f 4f       	sbci	r25, 0xFF	; 255
    1da8:	fc 01       	movw	r30, r24
    1daa:	80 81       	ld	r24, Z
    1dac:	91 81       	ldd	r25, Z+1	; 0x01
    1dae:	a2 81       	ldd	r26, Z+2	; 0x02
    1db0:	b3 81       	ldd	r27, Z+3	; 0x03
    1db2:	f9 01       	movw	r30, r18
    1db4:	80 83       	st	Z, r24
    1db6:	91 83       	std	Z+1, r25	; 0x01
    1db8:	a2 83       	std	Z+2, r26	; 0x02
    1dba:	b3 83       	std	Z+3, r27	; 0x03
/home/becker/async/autosafe/trunk/tum/wcet-cbmc/benchmarks/nsichneu/nsichneu.c:585
    1dbc:	80 91 04 01 	lds	r24, 0x0104
    1dc0:	90 91 05 01 	lds	r25, 0x0105
    1dc4:	03 96       	adiw	r24, 0x03	; 3
    1dc6:	90 93 05 01 	sts	0x0105, r25
    1dca:	80 93 04 01 	sts	0x0104, r24
/home/becker/async/autosafe/trunk/tum/wcet-cbmc/benchmarks/nsichneu/nsichneu.c:593
    1dce:	80 91 02 01 	lds	r24, 0x0102
    1dd2:	90 91 03 01 	lds	r25, 0x0103
    1dd6:	84 30       	cpi	r24, 0x04	; 4
    1dd8:	91 05       	cpc	r25, r1
    1dda:	0c f4       	brge	.+2      	; 0x1dde <__stack+0xcdf>
    1ddc:	e3 c0       	rjmp	.+454    	; 0x1fa4 <__stack+0xea5>
/home/becker/async/autosafe/trunk/tum/wcet-cbmc/benchmarks/nsichneu/nsichneu.c:594
    1dde:	80 91 04 01 	lds	r24, 0x0104
    1de2:	90 91 05 01 	lds	r25, 0x0105
    1de6:	03 96       	adiw	r24, 0x03	; 3
/home/becker/async/autosafe/trunk/tum/wcet-cbmc/benchmarks/nsichneu/nsichneu.c:593
    1de8:	87 30       	cpi	r24, 0x07	; 7
    1dea:	91 05       	cpc	r25, r1
    1dec:	0c f0       	brlt	.+2      	; 0x1df0 <__stack+0xcf1>
    1dee:	da c0       	rjmp	.+436    	; 0x1fa4 <__stack+0xea5>
/home/becker/async/autosafe/trunk/tum/wcet-cbmc/benchmarks/nsichneu/nsichneu.c:595
    1df0:	20 91 36 01 	lds	r18, 0x0136
    1df4:	30 91 37 01 	lds	r19, 0x0137
    1df8:	40 91 38 01 	lds	r20, 0x0138
    1dfc:	50 91 39 01 	lds	r21, 0x0139
    1e00:	80 91 32 01 	lds	r24, 0x0132
    1e04:	90 91 33 01 	lds	r25, 0x0133
    1e08:	a0 91 34 01 	lds	r26, 0x0134
    1e0c:	b0 91 35 01 	lds	r27, 0x0135
/home/becker/async/autosafe/trunk/tum/wcet-cbmc/benchmarks/nsichneu/nsichneu.c:594
    1e10:	28 17       	cp	r18, r24
    1e12:	39 07       	cpc	r19, r25
    1e14:	4a 07       	cpc	r20, r26
    1e16:	5b 07       	cpc	r21, r27
    1e18:	09 f0       	breq	.+2      	; 0x1e1c <__stack+0xd1d>
    1e1a:	c4 c0       	rjmp	.+392    	; 0x1fa4 <__stack+0xea5>
/home/becker/async/autosafe/trunk/tum/wcet-cbmc/benchmarks/nsichneu/nsichneu.c:596
    1e1c:	20 91 36 01 	lds	r18, 0x0136
    1e20:	30 91 37 01 	lds	r19, 0x0137
    1e24:	40 91 38 01 	lds	r20, 0x0138
    1e28:	50 91 39 01 	lds	r21, 0x0139
    1e2c:	80 91 2a 01 	lds	r24, 0x012A
    1e30:	90 91 2b 01 	lds	r25, 0x012B
    1e34:	a0 91 2c 01 	lds	r26, 0x012C
    1e38:	b0 91 2d 01 	lds	r27, 0x012D
/home/becker/async/autosafe/trunk/tum/wcet-cbmc/benchmarks/nsichneu/nsichneu.c:595
    1e3c:	28 17       	cp	r18, r24
    1e3e:	39 07       	cpc	r19, r25
    1e40:	4a 07       	cpc	r20, r26
    1e42:	5b 07       	cpc	r21, r27
    1e44:	09 f0       	breq	.+2      	; 0x1e48 <__stack+0xd49>
    1e46:	ae c0       	rjmp	.+348    	; 0x1fa4 <__stack+0xea5>
/home/becker/async/autosafe/trunk/tum/wcet-cbmc/benchmarks/nsichneu/nsichneu.c:601
    1e48:	9e 01       	movw	r18, r28
    1e4a:	21 53       	subi	r18, 0x31	; 49
    1e4c:	3f 4f       	sbci	r19, 0xFF	; 255
    1e4e:	80 91 2e 01 	lds	r24, 0x012E
    1e52:	90 91 2f 01 	lds	r25, 0x012F
    1e56:	a0 91 30 01 	lds	r26, 0x0130
    1e5a:	b0 91 31 01 	lds	r27, 0x0131
    1e5e:	f9 01       	movw	r30, r18
    1e60:	80 83       	st	Z, r24
    1e62:	91 83       	std	Z+1, r25	; 0x01
    1e64:	a2 83       	std	Z+2, r26	; 0x02
    1e66:	b3 83       	std	Z+3, r27	; 0x03
/home/becker/async/autosafe/trunk/tum/wcet-cbmc/benchmarks/nsichneu/nsichneu.c:602
    1e68:	9e 01       	movw	r18, r28
    1e6a:	2d 52       	subi	r18, 0x2D	; 45
    1e6c:	3f 4f       	sbci	r19, 0xFF	; 255
    1e6e:	80 91 36 01 	lds	r24, 0x0136
    1e72:	90 91 37 01 	lds	r25, 0x0137
    1e76:	a0 91 38 01 	lds	r26, 0x0138
    1e7a:	b0 91 39 01 	lds	r27, 0x0139
    1e7e:	f9 01       	movw	r30, r18
    1e80:	80 83       	st	Z, r24
    1e82:	91 83       	std	Z+1, r25	; 0x01
    1e84:	a2 83       	std	Z+2, r26	; 0x02
    1e86:	b3 83       	std	Z+3, r27	; 0x03
/home/becker/async/autosafe/trunk/tum/wcet-cbmc/benchmarks/nsichneu/nsichneu.c:605
    1e88:	9e 01       	movw	r18, r28
    1e8a:	2d 52       	subi	r18, 0x2D	; 45
    1e8c:	3f 4f       	sbci	r19, 0xFF	; 255
    1e8e:	ce 01       	movw	r24, r28
    1e90:	81 53       	subi	r24, 0x31	; 49
    1e92:	9f 4f       	sbci	r25, 0xFF	; 255
    1e94:	f9 01       	movw	r30, r18
    1e96:	20 81       	ld	r18, Z
    1e98:	31 81       	ldd	r19, Z+1	; 0x01
    1e9a:	42 81       	ldd	r20, Z+2	; 0x02
    1e9c:	53 81       	ldd	r21, Z+3	; 0x03
    1e9e:	fc 01       	movw	r30, r24
    1ea0:	80 81       	ld	r24, Z
    1ea2:	91 81       	ldd	r25, Z+1	; 0x01
    1ea4:	a2 81       	ldd	r26, Z+2	; 0x02
    1ea6:	b3 81       	ldd	r27, Z+3	; 0x03
    1ea8:	82 17       	cp	r24, r18
    1eaa:	93 07       	cpc	r25, r19
    1eac:	a4 07       	cpc	r26, r20
    1eae:	b5 07       	cpc	r27, r21
    1eb0:	0c f0       	brlt	.+2      	; 0x1eb4 <__stack+0xdb5>
    1eb2:	78 c0       	rjmp	.+240    	; 0x1fa4 <__stack+0xea5>
/home/becker/async/autosafe/trunk/tum/wcet-cbmc/benchmarks/nsichneu/nsichneu.c:608
    1eb4:	80 91 02 01 	lds	r24, 0x0102
    1eb8:	90 91 03 01 	lds	r25, 0x0103
    1ebc:	04 97       	sbiw	r24, 0x04	; 4
    1ebe:	90 93 03 01 	sts	0x0103, r25
    1ec2:	80 93 02 01 	sts	0x0102, r24
/home/becker/async/autosafe/trunk/tum/wcet-cbmc/benchmarks/nsichneu/nsichneu.c:611
    1ec6:	be 01       	movw	r22, r28
    1ec8:	69 52       	subi	r22, 0x29	; 41
    1eca:	7f 4f       	sbci	r23, 0xFF	; 255
    1ecc:	9e 01       	movw	r18, r28
    1ece:	21 53       	subi	r18, 0x31	; 49
    1ed0:	3f 4f       	sbci	r19, 0xFF	; 255
    1ed2:	ce 01       	movw	r24, r28
    1ed4:	8d 52       	subi	r24, 0x2D	; 45
    1ed6:	9f 4f       	sbci	r25, 0xFF	; 255
    1ed8:	f9 01       	movw	r30, r18
    1eda:	20 81       	ld	r18, Z
    1edc:	31 81       	ldd	r19, Z+1	; 0x01
    1ede:	42 81       	ldd	r20, Z+2	; 0x02
    1ee0:	53 81       	ldd	r21, Z+3	; 0x03
    1ee2:	fc 01       	movw	r30, r24
    1ee4:	80 81       	ld	r24, Z
    1ee6:	91 81       	ldd	r25, Z+1	; 0x01
    1ee8:	a2 81       	ldd	r26, Z+2	; 0x02
    1eea:	b3 81       	ldd	r27, Z+3	; 0x03
    1eec:	82 0f       	add	r24, r18
    1eee:	93 1f       	adc	r25, r19
    1ef0:	a4 1f       	adc	r26, r20
    1ef2:	b5 1f       	adc	r27, r21
    1ef4:	fb 01       	movw	r30, r22
    1ef6:	80 83       	st	Z, r24
    1ef8:	91 83       	std	Z+1, r25	; 0x01
    1efa:	a2 83       	std	Z+2, r26	; 0x02
    1efc:	b3 83       	std	Z+3, r27	; 0x03
/home/becker/async/autosafe/trunk/tum/wcet-cbmc/benchmarks/nsichneu/nsichneu.c:614
    1efe:	80 91 04 01 	lds	r24, 0x0104
    1f02:	90 91 05 01 	lds	r25, 0x0105
    1f06:	88 0f       	add	r24, r24
    1f08:	99 1f       	adc	r25, r25
    1f0a:	88 0f       	add	r24, r24
    1f0c:	99 1f       	adc	r25, r25
    1f0e:	9c 01       	movw	r18, r24
    1f10:	2a 5f       	subi	r18, 0xFA	; 250
    1f12:	3e 4f       	sbci	r19, 0xFE	; 254
    1f14:	ce 01       	movw	r24, r28
    1f16:	81 53       	subi	r24, 0x31	; 49
    1f18:	9f 4f       	sbci	r25, 0xFF	; 255
    1f1a:	fc 01       	movw	r30, r24
    1f1c:	80 81       	ld	r24, Z
    1f1e:	91 81       	ldd	r25, Z+1	; 0x01
    1f20:	a2 81       	ldd	r26, Z+2	; 0x02
    1f22:	b3 81       	ldd	r27, Z+3	; 0x03
    1f24:	f9 01       	movw	r30, r18
    1f26:	80 83       	st	Z, r24
    1f28:	91 83       	std	Z+1, r25	; 0x01
    1f2a:	a2 83       	std	Z+2, r26	; 0x02
    1f2c:	b3 83       	std	Z+3, r27	; 0x03
/home/becker/async/autosafe/trunk/tum/wcet-cbmc/benchmarks/nsichneu/nsichneu.c:615
    1f2e:	80 91 04 01 	lds	r24, 0x0104
    1f32:	90 91 05 01 	lds	r25, 0x0105
    1f36:	01 96       	adiw	r24, 0x01	; 1
    1f38:	88 0f       	add	r24, r24
    1f3a:	99 1f       	adc	r25, r25
    1f3c:	88 0f       	add	r24, r24
    1f3e:	99 1f       	adc	r25, r25
    1f40:	9c 01       	movw	r18, r24
    1f42:	2a 5f       	subi	r18, 0xFA	; 250
    1f44:	3e 4f       	sbci	r19, 0xFE	; 254
    1f46:	ce 01       	movw	r24, r28
    1f48:	8d 52       	subi	r24, 0x2D	; 45
    1f4a:	9f 4f       	sbci	r25, 0xFF	; 255
    1f4c:	fc 01       	movw	r30, r24
    1f4e:	80 81       	ld	r24, Z
    1f50:	91 81       	ldd	r25, Z+1	; 0x01
    1f52:	a2 81       	ldd	r26, Z+2	; 0x02
    1f54:	b3 81       	ldd	r27, Z+3	; 0x03
    1f56:	f9 01       	movw	r30, r18
    1f58:	80 83       	st	Z, r24
    1f5a:	91 83       	std	Z+1, r25	; 0x01
    1f5c:	a2 83       	std	Z+2, r26	; 0x02
    1f5e:	b3 83       	std	Z+3, r27	; 0x03
/home/becker/async/autosafe/trunk/tum/wcet-cbmc/benchmarks/nsichneu/nsichneu.c:616
    1f60:	80 91 04 01 	lds	r24, 0x0104
    1f64:	90 91 05 01 	lds	r25, 0x0105
    1f68:	02 96       	adiw	r24, 0x02	; 2
    1f6a:	88 0f       	add	r24, r24
    1f6c:	99 1f       	adc	r25, r25
    1f6e:	88 0f       	add	r24, r24
    1f70:	99 1f       	adc	r25, r25
    1f72:	9c 01       	movw	r18, r24
    1f74:	2a 5f       	subi	r18, 0xFA	; 250
    1f76:	3e 4f       	sbci	r19, 0xFE	; 254
    1f78:	ce 01       	movw	r24, r28
    1f7a:	89 52       	subi	r24, 0x29	; 41
    1f7c:	9f 4f       	sbci	r25, 0xFF	; 255
    1f7e:	fc 01       	movw	r30, r24
    1f80:	80 81       	ld	r24, Z
    1f82:	91 81       	ldd	r25, Z+1	; 0x01
    1f84:	a2 81       	ldd	r26, Z+2	; 0x02
    1f86:	b3 81       	ldd	r27, Z+3	; 0x03
    1f88:	f9 01       	movw	r30, r18
    1f8a:	80 83       	st	Z, r24
    1f8c:	91 83       	std	Z+1, r25	; 0x01
    1f8e:	a2 83       	std	Z+2, r26	; 0x02
    1f90:	b3 83       	std	Z+3, r27	; 0x03
/home/becker/async/autosafe/trunk/tum/wcet-cbmc/benchmarks/nsichneu/nsichneu.c:617
    1f92:	80 91 04 01 	lds	r24, 0x0104
    1f96:	90 91 05 01 	lds	r25, 0x0105
    1f9a:	03 96       	adiw	r24, 0x03	; 3
    1f9c:	90 93 05 01 	sts	0x0105, r25
    1fa0:	80 93 04 01 	sts	0x0104, r24
/home/becker/async/autosafe/trunk/tum/wcet-cbmc/benchmarks/nsichneu/nsichneu.c:625
    1fa4:	80 91 02 01 	lds	r24, 0x0102
    1fa8:	90 91 03 01 	lds	r25, 0x0103
    1fac:	84 30       	cpi	r24, 0x04	; 4
    1fae:	91 05       	cpc	r25, r1
    1fb0:	0c f4       	brge	.+2      	; 0x1fb4 <__stack+0xeb5>
    1fb2:	e3 c0       	rjmp	.+454    	; 0x217a <__stack+0x107b>
/home/becker/async/autosafe/trunk/tum/wcet-cbmc/benchmarks/nsichneu/nsichneu.c:626
    1fb4:	80 91 04 01 	lds	r24, 0x0104
    1fb8:	90 91 05 01 	lds	r25, 0x0105
    1fbc:	03 96       	adiw	r24, 0x03	; 3
/home/becker/async/autosafe/trunk/tum/wcet-cbmc/benchmarks/nsichneu/nsichneu.c:625
    1fbe:	87 30       	cpi	r24, 0x07	; 7
    1fc0:	91 05       	cpc	r25, r1
    1fc2:	0c f0       	brlt	.+2      	; 0x1fc6 <__stack+0xec7>
    1fc4:	da c0       	rjmp	.+436    	; 0x217a <__stack+0x107b>
/home/becker/async/autosafe/trunk/tum/wcet-cbmc/benchmarks/nsichneu/nsichneu.c:627
    1fc6:	20 91 2a 01 	lds	r18, 0x012A
    1fca:	30 91 2b 01 	lds	r19, 0x012B
    1fce:	40 91 2c 01 	lds	r20, 0x012C
    1fd2:	50 91 2d 01 	lds	r21, 0x012D
    1fd6:	80 91 2e 01 	lds	r24, 0x012E
    1fda:	90 91 2f 01 	lds	r25, 0x012F
    1fde:	a0 91 30 01 	lds	r26, 0x0130
    1fe2:	b0 91 31 01 	lds	r27, 0x0131
/home/becker/async/autosafe/trunk/tum/wcet-cbmc/benchmarks/nsichneu/nsichneu.c:626
    1fe6:	28 17       	cp	r18, r24
    1fe8:	39 07       	cpc	r19, r25
    1fea:	4a 07       	cpc	r20, r26
    1fec:	5b 07       	cpc	r21, r27
    1fee:	09 f0       	breq	.+2      	; 0x1ff2 <__stack+0xef3>
    1ff0:	c4 c0       	rjmp	.+392    	; 0x217a <__stack+0x107b>
/home/becker/async/autosafe/trunk/tum/wcet-cbmc/benchmarks/nsichneu/nsichneu.c:628
    1ff2:	20 91 2a 01 	lds	r18, 0x012A
    1ff6:	30 91 2b 01 	lds	r19, 0x012B
    1ffa:	40 91 2c 01 	lds	r20, 0x012C
    1ffe:	50 91 2d 01 	lds	r21, 0x012D
    2002:	80 91 36 01 	lds	r24, 0x0136
    2006:	90 91 37 01 	lds	r25, 0x0137
    200a:	a0 91 38 01 	lds	r26, 0x0138
    200e:	b0 91 39 01 	lds	r27, 0x0139
/home/becker/async/autosafe/trunk/tum/wcet-cbmc/benchmarks/nsichneu/nsichneu.c:627
    2012:	28 17       	cp	r18, r24
    2014:	39 07       	cpc	r19, r25
    2016:	4a 07       	cpc	r20, r26
    2018:	5b 07       	cpc	r21, r27
    201a:	09 f0       	breq	.+2      	; 0x201e <__stack+0xf1f>
    201c:	ae c0       	rjmp	.+348    	; 0x217a <__stack+0x107b>
/home/becker/async/autosafe/trunk/tum/wcet-cbmc/benchmarks/nsichneu/nsichneu.c:633
    201e:	9e 01       	movw	r18, r28
    2020:	25 52       	subi	r18, 0x25	; 37
    2022:	3f 4f       	sbci	r19, 0xFF	; 255
    2024:	80 91 32 01 	lds	r24, 0x0132
    2028:	90 91 33 01 	lds	r25, 0x0133
    202c:	a0 91 34 01 	lds	r26, 0x0134
    2030:	b0 91 35 01 	lds	r27, 0x0135
    2034:	f9 01       	movw	r30, r18
    2036:	80 83       	st	Z, r24
    2038:	91 83       	std	Z+1, r25	; 0x01
    203a:	a2 83       	std	Z+2, r26	; 0x02
    203c:	b3 83       	std	Z+3, r27	; 0x03
/home/becker/async/autosafe/trunk/tum/wcet-cbmc/benchmarks/nsichneu/nsichneu.c:634
    203e:	9e 01       	movw	r18, r28
    2040:	21 52       	subi	r18, 0x21	; 33
    2042:	3f 4f       	sbci	r19, 0xFF	; 255
    2044:	80 91 2a 01 	lds	r24, 0x012A
    2048:	90 91 2b 01 	lds	r25, 0x012B
    204c:	a0 91 2c 01 	lds	r26, 0x012C
    2050:	b0 91 2d 01 	lds	r27, 0x012D
    2054:	f9 01       	movw	r30, r18
    2056:	80 83       	st	Z, r24
    2058:	91 83       	std	Z+1, r25	; 0x01
    205a:	a2 83       	std	Z+2, r26	; 0x02
    205c:	b3 83       	std	Z+3, r27	; 0x03
/home/becker/async/autosafe/trunk/tum/wcet-cbmc/benchmarks/nsichneu/nsichneu.c:637
    205e:	9e 01       	movw	r18, r28
    2060:	21 52       	subi	r18, 0x21	; 33
    2062:	3f 4f       	sbci	r19, 0xFF	; 255
    2064:	ce 01       	movw	r24, r28
    2066:	85 52       	subi	r24, 0x25	; 37
    2068:	9f 4f       	sbci	r25, 0xFF	; 255
    206a:	f9 01       	movw	r30, r18
    206c:	20 81       	ld	r18, Z
    206e:	31 81       	ldd	r19, Z+1	; 0x01
    2070:	42 81       	ldd	r20, Z+2	; 0x02
    2072:	53 81       	ldd	r21, Z+3	; 0x03
    2074:	fc 01       	movw	r30, r24
    2076:	80 81       	ld	r24, Z
    2078:	91 81       	ldd	r25, Z+1	; 0x01
    207a:	a2 81       	ldd	r26, Z+2	; 0x02
    207c:	b3 81       	ldd	r27, Z+3	; 0x03
    207e:	82 17       	cp	r24, r18
    2080:	93 07       	cpc	r25, r19
    2082:	a4 07       	cpc	r26, r20
    2084:	b5 07       	cpc	r27, r21
    2086:	0c f0       	brlt	.+2      	; 0x208a <__stack+0xf8b>
    2088:	78 c0       	rjmp	.+240    	; 0x217a <__stack+0x107b>
/home/becker/async/autosafe/trunk/tum/wcet-cbmc/benchmarks/nsichneu/nsichneu.c:639
    208a:	80 91 02 01 	lds	r24, 0x0102
    208e:	90 91 03 01 	lds	r25, 0x0103
    2092:	04 97       	sbiw	r24, 0x04	; 4
    2094:	90 93 03 01 	sts	0x0103, r25
    2098:	80 93 02 01 	sts	0x0102, r24
/home/becker/async/autosafe/trunk/tum/wcet-cbmc/benchmarks/nsichneu/nsichneu.c:642
    209c:	be 01       	movw	r22, r28
    209e:	6d 51       	subi	r22, 0x1D	; 29
    20a0:	7f 4f       	sbci	r23, 0xFF	; 255
    20a2:	9e 01       	movw	r18, r28
    20a4:	25 52       	subi	r18, 0x25	; 37
    20a6:	3f 4f       	sbci	r19, 0xFF	; 255
    20a8:	ce 01       	movw	r24, r28
    20aa:	81 52       	subi	r24, 0x21	; 33
    20ac:	9f 4f       	sbci	r25, 0xFF	; 255
    20ae:	f9 01       	movw	r30, r18
    20b0:	20 81       	ld	r18, Z
    20b2:	31 81       	ldd	r19, Z+1	; 0x01
    20b4:	42 81       	ldd	r20, Z+2	; 0x02
    20b6:	53 81       	ldd	r21, Z+3	; 0x03
    20b8:	fc 01       	movw	r30, r24
    20ba:	80 81       	ld	r24, Z
    20bc:	91 81       	ldd	r25, Z+1	; 0x01
    20be:	a2 81       	ldd	r26, Z+2	; 0x02
    20c0:	b3 81       	ldd	r27, Z+3	; 0x03
    20c2:	82 0f       	add	r24, r18
    20c4:	93 1f       	adc	r25, r19
    20c6:	a4 1f       	adc	r26, r20
    20c8:	b5 1f       	adc	r27, r21
    20ca:	fb 01       	movw	r30, r22
    20cc:	80 83       	st	Z, r24
    20ce:	91 83       	std	Z+1, r25	; 0x01
    20d0:	a2 83       	std	Z+2, r26	; 0x02
    20d2:	b3 83       	std	Z+3, r27	; 0x03
/home/becker/async/autosafe/trunk/tum/wcet-cbmc/benchmarks/nsichneu/nsichneu.c:645
    20d4:	80 91 04 01 	lds	r24, 0x0104
    20d8:	90 91 05 01 	lds	r25, 0x0105
    20dc:	88 0f       	add	r24, r24
    20de:	99 1f       	adc	r25, r25
    20e0:	88 0f       	add	r24, r24
    20e2:	99 1f       	adc	r25, r25
    20e4:	9c 01       	movw	r18, r24
    20e6:	2a 5f       	subi	r18, 0xFA	; 250
    20e8:	3e 4f       	sbci	r19, 0xFE	; 254
    20ea:	ce 01       	movw	r24, r28
    20ec:	85 52       	subi	r24, 0x25	; 37
    20ee:	9f 4f       	sbci	r25, 0xFF	; 255
    20f0:	fc 01       	movw	r30, r24
    20f2:	80 81       	ld	r24, Z
    20f4:	91 81       	ldd	r25, Z+1	; 0x01
    20f6:	a2 81       	ldd	r26, Z+2	; 0x02
    20f8:	b3 81       	ldd	r27, Z+3	; 0x03
    20fa:	f9 01       	movw	r30, r18
    20fc:	80 83       	st	Z, r24
    20fe:	91 83       	std	Z+1, r25	; 0x01
    2100:	a2 83       	std	Z+2, r26	; 0x02
    2102:	b3 83       	std	Z+3, r27	; 0x03
/home/becker/async/autosafe/trunk/tum/wcet-cbmc/benchmarks/nsichneu/nsichneu.c:646
    2104:	80 91 04 01 	lds	r24, 0x0104
    2108:	90 91 05 01 	lds	r25, 0x0105
    210c:	01 96       	adiw	r24, 0x01	; 1
    210e:	88 0f       	add	r24, r24
    2110:	99 1f       	adc	r25, r25
    2112:	88 0f       	add	r24, r24
    2114:	99 1f       	adc	r25, r25
    2116:	9c 01       	movw	r18, r24
    2118:	2a 5f       	subi	r18, 0xFA	; 250
    211a:	3e 4f       	sbci	r19, 0xFE	; 254
    211c:	ce 01       	movw	r24, r28
    211e:	81 52       	subi	r24, 0x21	; 33
    2120:	9f 4f       	sbci	r25, 0xFF	; 255
    2122:	fc 01       	movw	r30, r24
    2124:	80 81       	ld	r24, Z
    2126:	91 81       	ldd	r25, Z+1	; 0x01
    2128:	a2 81       	ldd	r26, Z+2	; 0x02
    212a:	b3 81       	ldd	r27, Z+3	; 0x03
    212c:	f9 01       	movw	r30, r18
    212e:	80 83       	st	Z, r24
    2130:	91 83       	std	Z+1, r25	; 0x01
    2132:	a2 83       	std	Z+2, r26	; 0x02
    2134:	b3 83       	std	Z+3, r27	; 0x03
/home/becker/async/autosafe/trunk/tum/wcet-cbmc/benchmarks/nsichneu/nsichneu.c:647
    2136:	80 91 04 01 	lds	r24, 0x0104
    213a:	90 91 05 01 	lds	r25, 0x0105
    213e:	02 96       	adiw	r24, 0x02	; 2
    2140:	88 0f       	add	r24, r24
    2142:	99 1f       	adc	r25, r25
    2144:	88 0f       	add	r24, r24
    2146:	99 1f       	adc	r25, r25
    2148:	9c 01       	movw	r18, r24
    214a:	2a 5f       	subi	r18, 0xFA	; 250
    214c:	3e 4f       	sbci	r19, 0xFE	; 254
    214e:	ce 01       	movw	r24, r28
    2150:	8d 51       	subi	r24, 0x1D	; 29
    2152:	9f 4f       	sbci	r25, 0xFF	; 255
    2154:	fc 01       	movw	r30, r24
    2156:	80 81       	ld	r24, Z
    2158:	91 81       	ldd	r25, Z+1	; 0x01
    215a:	a2 81       	ldd	r26, Z+2	; 0x02
    215c:	b3 81       	ldd	r27, Z+3	; 0x03
    215e:	f9 01       	movw	r30, r18
    2160:	80 83       	st	Z, r24
    2162:	91 83       	std	Z+1, r25	; 0x01
    2164:	a2 83       	std	Z+2, r26	; 0x02
    2166:	b3 83       	std	Z+3, r27	; 0x03
/home/becker/async/autosafe/trunk/tum/wcet-cbmc/benchmarks/nsichneu/nsichneu.c:648
    2168:	80 91 04 01 	lds	r24, 0x0104
    216c:	90 91 05 01 	lds	r25, 0x0105
    2170:	03 96       	adiw	r24, 0x03	; 3
    2172:	90 93 05 01 	sts	0x0105, r25
    2176:	80 93 04 01 	sts	0x0104, r24
/home/becker/async/autosafe/trunk/tum/wcet-cbmc/benchmarks/nsichneu/nsichneu.c:655
    217a:	80 91 02 01 	lds	r24, 0x0102
    217e:	90 91 03 01 	lds	r25, 0x0103
    2182:	84 30       	cpi	r24, 0x04	; 4
    2184:	91 05       	cpc	r25, r1
    2186:	0c f4       	brge	.+2      	; 0x218a <__stack+0x108b>
    2188:	e3 c0       	rjmp	.+454    	; 0x2350 <__stack+0x1251>
/home/becker/async/autosafe/trunk/tum/wcet-cbmc/benchmarks/nsichneu/nsichneu.c:656
    218a:	80 91 04 01 	lds	r24, 0x0104
    218e:	90 91 05 01 	lds	r25, 0x0105
    2192:	03 96       	adiw	r24, 0x03	; 3
/home/becker/async/autosafe/trunk/tum/wcet-cbmc/benchmarks/nsichneu/nsichneu.c:655
    2194:	87 30       	cpi	r24, 0x07	; 7
    2196:	91 05       	cpc	r25, r1
    2198:	0c f0       	brlt	.+2      	; 0x219c <__stack+0x109d>
    219a:	da c0       	rjmp	.+436    	; 0x2350 <__stack+0x1251>
/home/becker/async/autosafe/trunk/tum/wcet-cbmc/benchmarks/nsichneu/nsichneu.c:657
    219c:	20 91 2a 01 	lds	r18, 0x012A
    21a0:	30 91 2b 01 	lds	r19, 0x012B
    21a4:	40 91 2c 01 	lds	r20, 0x012C
    21a8:	50 91 2d 01 	lds	r21, 0x012D
    21ac:	80 91 36 01 	lds	r24, 0x0136
    21b0:	90 91 37 01 	lds	r25, 0x0137
    21b4:	a0 91 38 01 	lds	r26, 0x0138
    21b8:	b0 91 39 01 	lds	r27, 0x0139
/home/becker/async/autosafe/trunk/tum/wcet-cbmc/benchmarks/nsichneu/nsichneu.c:656
    21bc:	28 17       	cp	r18, r24
    21be:	39 07       	cpc	r19, r25
    21c0:	4a 07       	cpc	r20, r26
    21c2:	5b 07       	cpc	r21, r27
    21c4:	09 f0       	breq	.+2      	; 0x21c8 <__stack+0x10c9>
    21c6:	c4 c0       	rjmp	.+392    	; 0x2350 <__stack+0x1251>
/home/becker/async/autosafe/trunk/tum/wcet-cbmc/benchmarks/nsichneu/nsichneu.c:658
    21c8:	20 91 2a 01 	lds	r18, 0x012A
    21cc:	30 91 2b 01 	lds	r19, 0x012B
    21d0:	40 91 2c 01 	lds	r20, 0x012C
    21d4:	50 91 2d 01 	lds	r21, 0x012D
    21d8:	80 91 2e 01 	lds	r24, 0x012E
    21dc:	90 91 2f 01 	lds	r25, 0x012F
    21e0:	a0 91 30 01 	lds	r26, 0x0130
    21e4:	b0 91 31 01 	lds	r27, 0x0131
/home/becker/async/autosafe/trunk/tum/wcet-cbmc/benchmarks/nsichneu/nsichneu.c:657
    21e8:	28 17       	cp	r18, r24
    21ea:	39 07       	cpc	r19, r25
    21ec:	4a 07       	cpc	r20, r26
    21ee:	5b 07       	cpc	r21, r27
    21f0:	09 f0       	breq	.+2      	; 0x21f4 <__stack+0x10f5>
    21f2:	ae c0       	rjmp	.+348    	; 0x2350 <__stack+0x1251>
/home/becker/async/autosafe/trunk/tum/wcet-cbmc/benchmarks/nsichneu/nsichneu.c:663
    21f4:	9e 01       	movw	r18, r28
    21f6:	29 51       	subi	r18, 0x19	; 25
    21f8:	3f 4f       	sbci	r19, 0xFF	; 255
    21fa:	80 91 32 01 	lds	r24, 0x0132
    21fe:	90 91 33 01 	lds	r25, 0x0133
    2202:	a0 91 34 01 	lds	r26, 0x0134
    2206:	b0 91 35 01 	lds	r27, 0x0135
    220a:	f9 01       	movw	r30, r18
    220c:	80 83       	st	Z, r24
    220e:	91 83       	std	Z+1, r25	; 0x01
    2210:	a2 83       	std	Z+2, r26	; 0x02
    2212:	b3 83       	std	Z+3, r27	; 0x03
/home/becker/async/autosafe/trunk/tum/wcet-cbmc/benchmarks/nsichneu/nsichneu.c:664
    2214:	9e 01       	movw	r18, r28
    2216:	25 51       	subi	r18, 0x15	; 21
    2218:	3f 4f       	sbci	r19, 0xFF	; 255
    221a:	80 91 2a 01 	lds	r24, 0x012A
    221e:	90 91 2b 01 	lds	r25, 0x012B
    2222:	a0 91 2c 01 	lds	r26, 0x012C
    2226:	b0 91 2d 01 	lds	r27, 0x012D
    222a:	f9 01       	movw	r30, r18
    222c:	80 83       	st	Z, r24
    222e:	91 83       	std	Z+1, r25	; 0x01
    2230:	a2 83       	std	Z+2, r26	; 0x02
    2232:	b3 83       	std	Z+3, r27	; 0x03
/home/becker/async/autosafe/trunk/tum/wcet-cbmc/benchmarks/nsichneu/nsichneu.c:667
    2234:	9e 01       	movw	r18, r28
    2236:	25 51       	subi	r18, 0x15	; 21
    2238:	3f 4f       	sbci	r19, 0xFF	; 255
    223a:	ce 01       	movw	r24, r28
    223c:	89 51       	subi	r24, 0x19	; 25
    223e:	9f 4f       	sbci	r25, 0xFF	; 255
    2240:	f9 01       	movw	r30, r18
    2242:	20 81       	ld	r18, Z
    2244:	31 81       	ldd	r19, Z+1	; 0x01
    2246:	42 81       	ldd	r20, Z+2	; 0x02
    2248:	53 81       	ldd	r21, Z+3	; 0x03
    224a:	fc 01       	movw	r30, r24
    224c:	80 81       	ld	r24, Z
    224e:	91 81       	ldd	r25, Z+1	; 0x01
    2250:	a2 81       	ldd	r26, Z+2	; 0x02
    2252:	b3 81       	ldd	r27, Z+3	; 0x03
    2254:	82 17       	cp	r24, r18
    2256:	93 07       	cpc	r25, r19
    2258:	a4 07       	cpc	r26, r20
    225a:	b5 07       	cpc	r27, r21
    225c:	0c f0       	brlt	.+2      	; 0x2260 <__stack+0x1161>
    225e:	78 c0       	rjmp	.+240    	; 0x2350 <__stack+0x1251>
/home/becker/async/autosafe/trunk/tum/wcet-cbmc/benchmarks/nsichneu/nsichneu.c:669
    2260:	80 91 02 01 	lds	r24, 0x0102
    2264:	90 91 03 01 	lds	r25, 0x0103
    2268:	04 97       	sbiw	r24, 0x04	; 4
    226a:	90 93 03 01 	sts	0x0103, r25
    226e:	80 93 02 01 	sts	0x0102, r24
/home/becker/async/autosafe/trunk/tum/wcet-cbmc/benchmarks/nsichneu/nsichneu.c:672
    2272:	be 01       	movw	r22, r28
    2274:	61 51       	subi	r22, 0x11	; 17
    2276:	7f 4f       	sbci	r23, 0xFF	; 255
    2278:	9e 01       	movw	r18, r28
    227a:	29 51       	subi	r18, 0x19	; 25
    227c:	3f 4f       	sbci	r19, 0xFF	; 255
    227e:	ce 01       	movw	r24, r28
    2280:	85 51       	subi	r24, 0x15	; 21
    2282:	9f 4f       	sbci	r25, 0xFF	; 255
    2284:	f9 01       	movw	r30, r18
    2286:	20 81       	ld	r18, Z
    2288:	31 81       	ldd	r19, Z+1	; 0x01
    228a:	42 81       	ldd	r20, Z+2	; 0x02
    228c:	53 81       	ldd	r21, Z+3	; 0x03
    228e:	fc 01       	movw	r30, r24
    2290:	80 81       	ld	r24, Z
    2292:	91 81       	ldd	r25, Z+1	; 0x01
    2294:	a2 81       	ldd	r26, Z+2	; 0x02
    2296:	b3 81       	ldd	r27, Z+3	; 0x03
    2298:	82 0f       	add	r24, r18
    229a:	93 1f       	adc	r25, r19
    229c:	a4 1f       	adc	r26, r20
    229e:	b5 1f       	adc	r27, r21
    22a0:	fb 01       	movw	r30, r22
    22a2:	80 83       	st	Z, r24
    22a4:	91 83       	std	Z+1, r25	; 0x01
    22a6:	a2 83       	std	Z+2, r26	; 0x02
    22a8:	b3 83       	std	Z+3, r27	; 0x03
/home/becker/async/autosafe/trunk/tum/wcet-cbmc/benchmarks/nsichneu/nsichneu.c:675
    22aa:	80 91 04 01 	lds	r24, 0x0104
    22ae:	90 91 05 01 	lds	r25, 0x0105
    22b2:	88 0f       	add	r24, r24
    22b4:	99 1f       	adc	r25, r25
    22b6:	88 0f       	add	r24, r24
    22b8:	99 1f       	adc	r25, r25
    22ba:	9c 01       	movw	r18, r24
    22bc:	2a 5f       	subi	r18, 0xFA	; 250
    22be:	3e 4f       	sbci	r19, 0xFE	; 254
    22c0:	ce 01       	movw	r24, r28
    22c2:	89 51       	subi	r24, 0x19	; 25
    22c4:	9f 4f       	sbci	r25, 0xFF	; 255
    22c6:	fc 01       	movw	r30, r24
    22c8:	80 81       	ld	r24, Z
    22ca:	91 81       	ldd	r25, Z+1	; 0x01
    22cc:	a2 81       	ldd	r26, Z+2	; 0x02
    22ce:	b3 81       	ldd	r27, Z+3	; 0x03
    22d0:	f9 01       	movw	r30, r18
    22d2:	80 83       	st	Z, r24
    22d4:	91 83       	std	Z+1, r25	; 0x01
    22d6:	a2 83       	std	Z+2, r26	; 0x02
    22d8:	b3 83       	std	Z+3, r27	; 0x03
/home/becker/async/autosafe/trunk/tum/wcet-cbmc/benchmarks/nsichneu/nsichneu.c:676
    22da:	80 91 04 01 	lds	r24, 0x0104
    22de:	90 91 05 01 	lds	r25, 0x0105
    22e2:	01 96       	adiw	r24, 0x01	; 1
    22e4:	88 0f       	add	r24, r24
    22e6:	99 1f       	adc	r25, r25
    22e8:	88 0f       	add	r24, r24
    22ea:	99 1f       	adc	r25, r25
    22ec:	9c 01       	movw	r18, r24
    22ee:	2a 5f       	subi	r18, 0xFA	; 250
    22f0:	3e 4f       	sbci	r19, 0xFE	; 254
    22f2:	ce 01       	movw	r24, r28
    22f4:	85 51       	subi	r24, 0x15	; 21
    22f6:	9f 4f       	sbci	r25, 0xFF	; 255
    22f8:	fc 01       	movw	r30, r24
    22fa:	80 81       	ld	r24, Z
    22fc:	91 81       	ldd	r25, Z+1	; 0x01
    22fe:	a2 81       	ldd	r26, Z+2	; 0x02
    2300:	b3 81       	ldd	r27, Z+3	; 0x03
    2302:	f9 01       	movw	r30, r18
    2304:	80 83       	st	Z, r24
    2306:	91 83       	std	Z+1, r25	; 0x01
    2308:	a2 83       	std	Z+2, r26	; 0x02
    230a:	b3 83       	std	Z+3, r27	; 0x03
/home/becker/async/autosafe/trunk/tum/wcet-cbmc/benchmarks/nsichneu/nsichneu.c:677
    230c:	80 91 04 01 	lds	r24, 0x0104
    2310:	90 91 05 01 	lds	r25, 0x0105
    2314:	02 96       	adiw	r24, 0x02	; 2
    2316:	88 0f       	add	r24, r24
    2318:	99 1f       	adc	r25, r25
    231a:	88 0f       	add	r24, r24
    231c:	99 1f       	adc	r25, r25
    231e:	9c 01       	movw	r18, r24
    2320:	2a 5f       	subi	r18, 0xFA	; 250
    2322:	3e 4f       	sbci	r19, 0xFE	; 254
    2324:	ce 01       	movw	r24, r28
    2326:	81 51       	subi	r24, 0x11	; 17
    2328:	9f 4f       	sbci	r25, 0xFF	; 255
    232a:	fc 01       	movw	r30, r24
    232c:	80 81       	ld	r24, Z
    232e:	91 81       	ldd	r25, Z+1	; 0x01
    2330:	a2 81       	ldd	r26, Z+2	; 0x02
    2332:	b3 81       	ldd	r27, Z+3	; 0x03
    2334:	f9 01       	movw	r30, r18
    2336:	80 83       	st	Z, r24
    2338:	91 83       	std	Z+1, r25	; 0x01
    233a:	a2 83       	std	Z+2, r26	; 0x02
    233c:	b3 83       	std	Z+3, r27	; 0x03
/home/becker/async/autosafe/trunk/tum/wcet-cbmc/benchmarks/nsichneu/nsichneu.c:678
    233e:	80 91 04 01 	lds	r24, 0x0104
    2342:	90 91 05 01 	lds	r25, 0x0105
    2346:	03 96       	adiw	r24, 0x03	; 3
    2348:	90 93 05 01 	sts	0x0105, r25
    234c:	80 93 04 01 	sts	0x0104, r24
/home/becker/async/autosafe/trunk/tum/wcet-cbmc/benchmarks/nsichneu/nsichneu.c:685
    2350:	80 91 02 01 	lds	r24, 0x0102
    2354:	90 91 03 01 	lds	r25, 0x0103
    2358:	84 30       	cpi	r24, 0x04	; 4
    235a:	91 05       	cpc	r25, r1
    235c:	0c f4       	brge	.+2      	; 0x2360 <__stack+0x1261>
    235e:	e3 c0       	rjmp	.+454    	; 0x2526 <__stack+0x1427>
/home/becker/async/autosafe/trunk/tum/wcet-cbmc/benchmarks/nsichneu/nsichneu.c:686
    2360:	80 91 04 01 	lds	r24, 0x0104
    2364:	90 91 05 01 	lds	r25, 0x0105
    2368:	03 96       	adiw	r24, 0x03	; 3
/home/becker/async/autosafe/trunk/tum/wcet-cbmc/benchmarks/nsichneu/nsichneu.c:685
    236a:	87 30       	cpi	r24, 0x07	; 7
    236c:	91 05       	cpc	r25, r1
    236e:	0c f0       	brlt	.+2      	; 0x2372 <__stack+0x1273>
    2370:	da c0       	rjmp	.+436    	; 0x2526 <__stack+0x1427>
/home/becker/async/autosafe/trunk/tum/wcet-cbmc/benchmarks/nsichneu/nsichneu.c:687
    2372:	20 91 2e 01 	lds	r18, 0x012E
    2376:	30 91 2f 01 	lds	r19, 0x012F
    237a:	40 91 30 01 	lds	r20, 0x0130
    237e:	50 91 31 01 	lds	r21, 0x0131
    2382:	80 91 2a 01 	lds	r24, 0x012A
    2386:	90 91 2b 01 	lds	r25, 0x012B
    238a:	a0 91 2c 01 	lds	r26, 0x012C
    238e:	b0 91 2d 01 	lds	r27, 0x012D
/home/becker/async/autosafe/trunk/tum/wcet-cbmc/benchmarks/nsichneu/nsichneu.c:686
    2392:	28 17       	cp	r18, r24
    2394:	39 07       	cpc	r19, r25
    2396:	4a 07       	cpc	r20, r26
    2398:	5b 07       	cpc	r21, r27
    239a:	09 f0       	breq	.+2      	; 0x239e <__stack+0x129f>
    239c:	c4 c0       	rjmp	.+392    	; 0x2526 <__stack+0x1427>
/home/becker/async/autosafe/trunk/tum/wcet-cbmc/benchmarks/nsichneu/nsichneu.c:688
    239e:	20 91 2e 01 	lds	r18, 0x012E
    23a2:	30 91 2f 01 	lds	r19, 0x012F
    23a6:	40 91 30 01 	lds	r20, 0x0130
    23aa:	50 91 31 01 	lds	r21, 0x0131
    23ae:	80 91 36 01 	lds	r24, 0x0136
    23b2:	90 91 37 01 	lds	r25, 0x0137
    23b6:	a0 91 38 01 	lds	r26, 0x0138
    23ba:	b0 91 39 01 	lds	r27, 0x0139
/home/becker/async/autosafe/trunk/tum/wcet-cbmc/benchmarks/nsichneu/nsichneu.c:687
    23be:	28 17       	cp	r18, r24
    23c0:	39 07       	cpc	r19, r25
    23c2:	4a 07       	cpc	r20, r26
    23c4:	5b 07       	cpc	r21, r27
    23c6:	09 f0       	breq	.+2      	; 0x23ca <__stack+0x12cb>
    23c8:	ae c0       	rjmp	.+348    	; 0x2526 <__stack+0x1427>
/home/becker/async/autosafe/trunk/tum/wcet-cbmc/benchmarks/nsichneu/nsichneu.c:693
    23ca:	9e 01       	movw	r18, r28
    23cc:	2d 50       	subi	r18, 0x0D	; 13
    23ce:	3f 4f       	sbci	r19, 0xFF	; 255
    23d0:	80 91 32 01 	lds	r24, 0x0132
    23d4:	90 91 33 01 	lds	r25, 0x0133
    23d8:	a0 91 34 01 	lds	r26, 0x0134
    23dc:	b0 91 35 01 	lds	r27, 0x0135
    23e0:	f9 01       	movw	r30, r18
    23e2:	80 83       	st	Z, r24
    23e4:	91 83       	std	Z+1, r25	; 0x01
    23e6:	a2 83       	std	Z+2, r26	; 0x02
    23e8:	b3 83       	std	Z+3, r27	; 0x03
/home/becker/async/autosafe/trunk/tum/wcet-cbmc/benchmarks/nsichneu/nsichneu.c:694
    23ea:	9e 01       	movw	r18, r28
    23ec:	29 50       	subi	r18, 0x09	; 9
    23ee:	3f 4f       	sbci	r19, 0xFF	; 255
    23f0:	80 91 2e 01 	lds	r24, 0x012E
    23f4:	90 91 2f 01 	lds	r25, 0x012F
    23f8:	a0 91 30 01 	lds	r26, 0x0130
    23fc:	b0 91 31 01 	lds	r27, 0x0131
    2400:	f9 01       	movw	r30, r18
    2402:	80 83       	st	Z, r24
    2404:	91 83       	std	Z+1, r25	; 0x01
    2406:	a2 83       	std	Z+2, r26	; 0x02
    2408:	b3 83       	std	Z+3, r27	; 0x03
/home/becker/async/autosafe/trunk/tum/wcet-cbmc/benchmarks/nsichneu/nsichneu.c:697
    240a:	9e 01       	movw	r18, r28
    240c:	29 50       	subi	r18, 0x09	; 9
    240e:	3f 4f       	sbci	r19, 0xFF	; 255
    2410:	ce 01       	movw	r24, r28
    2412:	8d 50       	subi	r24, 0x0D	; 13
    2414:	9f 4f       	sbci	r25, 0xFF	; 255
    2416:	f9 01       	movw	r30, r18
    2418:	20 81       	ld	r18, Z
    241a:	31 81       	ldd	r19, Z+1	; 0x01
    241c:	42 81       	ldd	r20, Z+2	; 0x02
    241e:	53 81       	ldd	r21, Z+3	; 0x03
    2420:	fc 01       	movw	r30, r24
    2422:	80 81       	ld	r24, Z
    2424:	91 81       	ldd	r25, Z+1	; 0x01
    2426:	a2 81       	ldd	r26, Z+2	; 0x02
    2428:	b3 81       	ldd	r27, Z+3	; 0x03
    242a:	82 17       	cp	r24, r18
    242c:	93 07       	cpc	r25, r19
    242e:	a4 07       	cpc	r26, r20
    2430:	b5 07       	cpc	r27, r21
    2432:	0c f0       	brlt	.+2      	; 0x2436 <__stack+0x1337>
    2434:	78 c0       	rjmp	.+240    	; 0x2526 <__stack+0x1427>
/home/becker/async/autosafe/trunk/tum/wcet-cbmc/benchmarks/nsichneu/nsichneu.c:699
    2436:	80 91 02 01 	lds	r24, 0x0102
    243a:	90 91 03 01 	lds	r25, 0x0103
    243e:	04 97       	sbiw	r24, 0x04	; 4
    2440:	90 93 03 01 	sts	0x0103, r25
    2444:	80 93 02 01 	sts	0x0102, r24
/home/becker/async/autosafe/trunk/tum/wcet-cbmc/benchmarks/nsichneu/nsichneu.c:702
    2448:	be 01       	movw	r22, r28
    244a:	65 50       	subi	r22, 0x05	; 5
    244c:	7f 4f       	sbci	r23, 0xFF	; 255
    244e:	9e 01       	movw	r18, r28
    2450:	2d 50       	subi	r18, 0x0D	; 13
    2452:	3f 4f       	sbci	r19, 0xFF	; 255
    2454:	ce 01       	movw	r24, r28
    2456:	89 50       	subi	r24, 0x09	; 9
    2458:	9f 4f       	sbci	r25, 0xFF	; 255
    245a:	f9 01       	movw	r30, r18
    245c:	20 81       	ld	r18, Z
    245e:	31 81       	ldd	r19, Z+1	; 0x01
    2460:	42 81       	ldd	r20, Z+2	; 0x02
    2462:	53 81       	ldd	r21, Z+3	; 0x03
    2464:	fc 01       	movw	r30, r24
    2466:	80 81       	ld	r24, Z
    2468:	91 81       	ldd	r25, Z+1	; 0x01
    246a:	a2 81       	ldd	r26, Z+2	; 0x02
    246c:	b3 81       	ldd	r27, Z+3	; 0x03
    246e:	82 0f       	add	r24, r18
    2470:	93 1f       	adc	r25, r19
    2472:	a4 1f       	adc	r26, r20
    2474:	b5 1f       	adc	r27, r21
    2476:	fb 01       	movw	r30, r22
    2478:	80 83       	st	Z, r24
    247a:	91 83       	std	Z+1, r25	; 0x01
    247c:	a2 83       	std	Z+2, r26	; 0x02
    247e:	b3 83       	std	Z+3, r27	; 0x03
/home/becker/async/autosafe/trunk/tum/wcet-cbmc/benchmarks/nsichneu/nsichneu.c:705
    2480:	80 91 04 01 	lds	r24, 0x0104
    2484:	90 91 05 01 	lds	r25, 0x0105
    2488:	88 0f       	add	r24, r24
    248a:	99 1f       	adc	r25, r25
    248c:	88 0f       	add	r24, r24
    248e:	99 1f       	adc	r25, r25
    2490:	9c 01       	movw	r18, r24
    2492:	2a 5f       	subi	r18, 0xFA	; 250
    2494:	3e 4f       	sbci	r19, 0xFE	; 254
    2496:	ce 01       	movw	r24, r28
    2498:	8d 50       	subi	r24, 0x0D	; 13
    249a:	9f 4f       	sbci	r25, 0xFF	; 255
    249c:	fc 01       	movw	r30, r24
    249e:	80 81       	ld	r24, Z
    24a0:	91 81       	ldd	r25, Z+1	; 0x01
    24a2:	a2 81       	ldd	r26, Z+2	; 0x02
    24a4:	b3 81       	ldd	r27, Z+3	; 0x03
    24a6:	f9 01       	movw	r30, r18
    24a8:	80 83       	st	Z, r24
    24aa:	91 83       	std	Z+1, r25	; 0x01
    24ac:	a2 83       	std	Z+2, r26	; 0x02
    24ae:	b3 83       	std	Z+3, r27	; 0x03
/home/becker/async/autosafe/trunk/tum/wcet-cbmc/benchmarks/nsichneu/nsichneu.c:706
    24b0:	80 91 04 01 	lds	r24, 0x0104
    24b4:	90 91 05 01 	lds	r25, 0x0105
    24b8:	01 96       	adiw	r24, 0x01	; 1
    24ba:	88 0f       	add	r24, r24
    24bc:	99 1f       	adc	r25, r25
    24be:	88 0f       	add	r24, r24
    24c0:	99 1f       	adc	r25, r25
    24c2:	9c 01       	movw	r18, r24
    24c4:	2a 5f       	subi	r18, 0xFA	; 250
    24c6:	3e 4f       	sbci	r19, 0xFE	; 254
    24c8:	ce 01       	movw	r24, r28
    24ca:	89 50       	subi	r24, 0x09	; 9
    24cc:	9f 4f       	sbci	r25, 0xFF	; 255
    24ce:	fc 01       	movw	r30, r24
    24d0:	80 81       	ld	r24, Z
    24d2:	91 81       	ldd	r25, Z+1	; 0x01
    24d4:	a2 81       	ldd	r26, Z+2	; 0x02
    24d6:	b3 81       	ldd	r27, Z+3	; 0x03
    24d8:	f9 01       	movw	r30, r18
    24da:	80 83       	st	Z, r24
    24dc:	91 83       	std	Z+1, r25	; 0x01
    24de:	a2 83       	std	Z+2, r26	; 0x02
    24e0:	b3 83       	std	Z+3, r27	; 0x03
/home/becker/async/autosafe/trunk/tum/wcet-cbmc/benchmarks/nsichneu/nsichneu.c:707
    24e2:	80 91 04 01 	lds	r24, 0x0104
    24e6:	90 91 05 01 	lds	r25, 0x0105
    24ea:	02 96       	adiw	r24, 0x02	; 2
    24ec:	88 0f       	add	r24, r24
    24ee:	99 1f       	adc	r25, r25
    24f0:	88 0f       	add	r24, r24
    24f2:	99 1f       	adc	r25, r25
    24f4:	9c 01       	movw	r18, r24
    24f6:	2a 5f       	subi	r18, 0xFA	; 250
    24f8:	3e 4f       	sbci	r19, 0xFE	; 254
    24fa:	ce 01       	movw	r24, r28
    24fc:	85 50       	subi	r24, 0x05	; 5
    24fe:	9f 4f       	sbci	r25, 0xFF	; 255
    2500:	fc 01       	movw	r30, r24
    2502:	80 81       	ld	r24, Z
    2504:	91 81       	ldd	r25, Z+1	; 0x01
    2506:	a2 81       	ldd	r26, Z+2	; 0x02
    2508:	b3 81       	ldd	r27, Z+3	; 0x03
    250a:	f9 01       	movw	r30, r18
    250c:	80 83       	st	Z, r24
    250e:	91 83       	std	Z+1, r25	; 0x01
    2510:	a2 83       	std	Z+2, r26	; 0x02
    2512:	b3 83       	std	Z+3, r27	; 0x03
/home/becker/async/autosafe/trunk/tum/wcet-cbmc/benchmarks/nsichneu/nsichneu.c:708
    2514:	80 91 04 01 	lds	r24, 0x0104
    2518:	90 91 05 01 	lds	r25, 0x0105
    251c:	03 96       	adiw	r24, 0x03	; 3
    251e:	90 93 05 01 	sts	0x0105, r25
    2522:	80 93 04 01 	sts	0x0104, r24
/home/becker/async/autosafe/trunk/tum/wcet-cbmc/benchmarks/nsichneu/nsichneu.c:715
    2526:	80 91 02 01 	lds	r24, 0x0102
    252a:	90 91 03 01 	lds	r25, 0x0103
    252e:	84 30       	cpi	r24, 0x04	; 4
    2530:	91 05       	cpc	r25, r1
    2532:	0c f4       	brge	.+2      	; 0x2536 <__stack+0x1437>
    2534:	e3 c0       	rjmp	.+454    	; 0x26fc <__stack+0x15fd>
/home/becker/async/autosafe/trunk/tum/wcet-cbmc/benchmarks/nsichneu/nsichneu.c:716
    2536:	80 91 04 01 	lds	r24, 0x0104
    253a:	90 91 05 01 	lds	r25, 0x0105
    253e:	03 96       	adiw	r24, 0x03	; 3
/home/becker/async/autosafe/trunk/tum/wcet-cbmc/benchmarks/nsichneu/nsichneu.c:715
    2540:	87 30       	cpi	r24, 0x07	; 7
    2542:	91 05       	cpc	r25, r1
    2544:	0c f0       	brlt	.+2      	; 0x2548 <__stack+0x1449>
    2546:	da c0       	rjmp	.+436    	; 0x26fc <__stack+0x15fd>
/home/becker/async/autosafe/trunk/tum/wcet-cbmc/benchmarks/nsichneu/nsichneu.c:717
    2548:	20 91 2e 01 	lds	r18, 0x012E
    254c:	30 91 2f 01 	lds	r19, 0x012F
    2550:	40 91 30 01 	lds	r20, 0x0130
    2554:	50 91 31 01 	lds	r21, 0x0131
    2558:	80 91 36 01 	lds	r24, 0x0136
    255c:	90 91 37 01 	lds	r25, 0x0137
    2560:	a0 91 38 01 	lds	r26, 0x0138
    2564:	b0 91 39 01 	lds	r27, 0x0139
/home/becker/async/autosafe/trunk/tum/wcet-cbmc/benchmarks/nsichneu/nsichneu.c:716
    2568:	28 17       	cp	r18, r24
    256a:	39 07       	cpc	r19, r25
    256c:	4a 07       	cpc	r20, r26
    256e:	5b 07       	cpc	r21, r27
    2570:	09 f0       	breq	.+2      	; 0x2574 <__stack+0x1475>
    2572:	c4 c0       	rjmp	.+392    	; 0x26fc <__stack+0x15fd>
/home/becker/async/autosafe/trunk/tum/wcet-cbmc/benchmarks/nsichneu/nsichneu.c:718
    2574:	20 91 2e 01 	lds	r18, 0x012E
    2578:	30 91 2f 01 	lds	r19, 0x012F
    257c:	40 91 30 01 	lds	r20, 0x0130
    2580:	50 91 31 01 	lds	r21, 0x0131
    2584:	80 91 2a 01 	lds	r24, 0x012A
    2588:	90 91 2b 01 	lds	r25, 0x012B
    258c:	a0 91 2c 01 	lds	r26, 0x012C
    2590:	b0 91 2d 01 	lds	r27, 0x012D
/home/becker/async/autosafe/trunk/tum/wcet-cbmc/benchmarks/nsichneu/nsichneu.c:717
    2594:	28 17       	cp	r18, r24
    2596:	39 07       	cpc	r19, r25
    2598:	4a 07       	cpc	r20, r26
    259a:	5b 07       	cpc	r21, r27
    259c:	09 f0       	breq	.+2      	; 0x25a0 <__stack+0x14a1>
    259e:	ae c0       	rjmp	.+348    	; 0x26fc <__stack+0x15fd>
/home/becker/async/autosafe/trunk/tum/wcet-cbmc/benchmarks/nsichneu/nsichneu.c:723
    25a0:	9e 01       	movw	r18, r28
    25a2:	21 50       	subi	r18, 0x01	; 1
    25a4:	3f 4f       	sbci	r19, 0xFF	; 255
    25a6:	80 91 32 01 	lds	r24, 0x0132
    25aa:	90 91 33 01 	lds	r25, 0x0133
    25ae:	a0 91 34 01 	lds	r26, 0x0134
    25b2:	b0 91 35 01 	lds	r27, 0x0135
    25b6:	f9 01       	movw	r30, r18
    25b8:	80 83       	st	Z, r24
    25ba:	91 83       	std	Z+1, r25	; 0x01
    25bc:	a2 83       	std	Z+2, r26	; 0x02
    25be:	b3 83       	std	Z+3, r27	; 0x03
/home/becker/async/autosafe/trunk/tum/wcet-cbmc/benchmarks/nsichneu/nsichneu.c:724
    25c0:	9e 01       	movw	r18, r28
    25c2:	2d 5f       	subi	r18, 0xFD	; 253
    25c4:	3e 4f       	sbci	r19, 0xFE	; 254
    25c6:	80 91 2e 01 	lds	r24, 0x012E
    25ca:	90 91 2f 01 	lds	r25, 0x012F
    25ce:	a0 91 30 01 	lds	r26, 0x0130
    25d2:	b0 91 31 01 	lds	r27, 0x0131
    25d6:	f9 01       	movw	r30, r18
    25d8:	80 83       	st	Z, r24
    25da:	91 83       	std	Z+1, r25	; 0x01
    25dc:	a2 83       	std	Z+2, r26	; 0x02
    25de:	b3 83       	std	Z+3, r27	; 0x03
/home/becker/async/autosafe/trunk/tum/wcet-cbmc/benchmarks/nsichneu/nsichneu.c:727
    25e0:	9e 01       	movw	r18, r28
    25e2:	2d 5f       	subi	r18, 0xFD	; 253
    25e4:	3e 4f       	sbci	r19, 0xFE	; 254
    25e6:	ce 01       	movw	r24, r28
    25e8:	81 50       	subi	r24, 0x01	; 1
    25ea:	9f 4f       	sbci	r25, 0xFF	; 255
    25ec:	f9 01       	movw	r30, r18
    25ee:	20 81       	ld	r18, Z
    25f0:	31 81       	ldd	r19, Z+1	; 0x01
    25f2:	42 81       	ldd	r20, Z+2	; 0x02
    25f4:	53 81       	ldd	r21, Z+3	; 0x03
    25f6:	fc 01       	movw	r30, r24
    25f8:	80 81       	ld	r24, Z
    25fa:	91 81       	ldd	r25, Z+1	; 0x01
    25fc:	a2 81       	ldd	r26, Z+2	; 0x02
    25fe:	b3 81       	ldd	r27, Z+3	; 0x03
    2600:	82 17       	cp	r24, r18
    2602:	93 07       	cpc	r25, r19
    2604:	a4 07       	cpc	r26, r20
    2606:	b5 07       	cpc	r27, r21
    2608:	0c f0       	brlt	.+2      	; 0x260c <__stack+0x150d>
    260a:	78 c0       	rjmp	.+240    	; 0x26fc <__stack+0x15fd>
/home/becker/async/autosafe/trunk/tum/wcet-cbmc/benchmarks/nsichneu/nsichneu.c:729
    260c:	80 91 02 01 	lds	r24, 0x0102
    2610:	90 91 03 01 	lds	r25, 0x0103
    2614:	04 97       	sbiw	r24, 0x04	; 4
    2616:	90 93 03 01 	sts	0x0103, r25
    261a:	80 93 02 01 	sts	0x0102, r24
/home/becker/async/autosafe/trunk/tum/wcet-cbmc/benchmarks/nsichneu/nsichneu.c:732
    261e:	be 01       	movw	r22, r28
    2620:	69 5f       	subi	r22, 0xF9	; 249
    2622:	7e 4f       	sbci	r23, 0xFE	; 254
    2624:	9e 01       	movw	r18, r28
    2626:	21 50       	subi	r18, 0x01	; 1
    2628:	3f 4f       	sbci	r19, 0xFF	; 255
    262a:	ce 01       	movw	r24, r28
    262c:	8d 5f       	subi	r24, 0xFD	; 253
    262e:	9e 4f       	sbci	r25, 0xFE	; 254
    2630:	f9 01       	movw	r30, r18
    2632:	20 81       	ld	r18, Z
    2634:	31 81       	ldd	r19, Z+1	; 0x01
    2636:	42 81       	ldd	r20, Z+2	; 0x02
    2638:	53 81       	ldd	r21, Z+3	; 0x03
    263a:	fc 01       	movw	r30, r24
    263c:	80 81       	ld	r24, Z
    263e:	91 81       	ldd	r25, Z+1	; 0x01
    2640:	a2 81       	ldd	r26, Z+2	; 0x02
    2642:	b3 81       	ldd	r27, Z+3	; 0x03
    2644:	82 0f       	add	r24, r18
    2646:	93 1f       	adc	r25, r19
    2648:	a4 1f       	adc	r26, r20
    264a:	b5 1f       	adc	r27, r21
    264c:	fb 01       	movw	r30, r22
    264e:	80 83       	st	Z, r24
    2650:	91 83       	std	Z+1, r25	; 0x01
    2652:	a2 83       	std	Z+2, r26	; 0x02
    2654:	b3 83       	std	Z+3, r27	; 0x03
/home/becker/async/autosafe/trunk/tum/wcet-cbmc/benchmarks/nsichneu/nsichneu.c:735
    2656:	80 91 04 01 	lds	r24, 0x0104
    265a:	90 91 05 01 	lds	r25, 0x0105
    265e:	88 0f       	add	r24, r24
    2660:	99 1f       	adc	r25, r25
    2662:	88 0f       	add	r24, r24
    2664:	99 1f       	adc	r25, r25
    2666:	9c 01       	movw	r18, r24
    2668:	2a 5f       	subi	r18, 0xFA	; 250
    266a:	3e 4f       	sbci	r19, 0xFE	; 254
    266c:	ce 01       	movw	r24, r28
    266e:	81 50       	subi	r24, 0x01	; 1
    2670:	9f 4f       	sbci	r25, 0xFF	; 255
    2672:	fc 01       	movw	r30, r24
    2674:	80 81       	ld	r24, Z
    2676:	91 81       	ldd	r25, Z+1	; 0x01
    2678:	a2 81       	ldd	r26, Z+2	; 0x02
    267a:	b3 81       	ldd	r27, Z+3	; 0x03
    267c:	f9 01       	movw	r30, r18
    267e:	80 83       	st	Z, r24
    2680:	91 83       	std	Z+1, r25	; 0x01
    2682:	a2 83       	std	Z+2, r26	; 0x02
    2684:	b3 83       	std	Z+3, r27	; 0x03
/home/becker/async/autosafe/trunk/tum/wcet-cbmc/benchmarks/nsichneu/nsichneu.c:736
    2686:	80 91 04 01 	lds	r24, 0x0104
    268a:	90 91 05 01 	lds	r25, 0x0105
    268e:	01 96       	adiw	r24, 0x01	; 1
    2690:	88 0f       	add	r24, r24
    2692:	99 1f       	adc	r25, r25
    2694:	88 0f       	add	r24, r24
    2696:	99 1f       	adc	r25, r25
    2698:	9c 01       	movw	r18, r24
    269a:	2a 5f       	subi	r18, 0xFA	; 250
    269c:	3e 4f       	sbci	r19, 0xFE	; 254
    269e:	ce 01       	movw	r24, r28
    26a0:	8d 5f       	subi	r24, 0xFD	; 253
    26a2:	9e 4f       	sbci	r25, 0xFE	; 254
    26a4:	fc 01       	movw	r30, r24
    26a6:	80 81       	ld	r24, Z
    26a8:	91 81       	ldd	r25, Z+1	; 0x01
    26aa:	a2 81       	ldd	r26, Z+2	; 0x02
    26ac:	b3 81       	ldd	r27, Z+3	; 0x03
    26ae:	f9 01       	movw	r30, r18
    26b0:	80 83       	st	Z, r24
    26b2:	91 83       	std	Z+1, r25	; 0x01
    26b4:	a2 83       	std	Z+2, r26	; 0x02
    26b6:	b3 83       	std	Z+3, r27	; 0x03
/home/becker/async/autosafe/trunk/tum/wcet-cbmc/benchmarks/nsichneu/nsichneu.c:737
    26b8:	80 91 04 01 	lds	r24, 0x0104
    26bc:	90 91 05 01 	lds	r25, 0x0105
    26c0:	02 96       	adiw	r24, 0x02	; 2
    26c2:	88 0f       	add	r24, r24
    26c4:	99 1f       	adc	r25, r25
    26c6:	88 0f       	add	r24, r24
    26c8:	99 1f       	adc	r25, r25
    26ca:	9c 01       	movw	r18, r24
    26cc:	2a 5f       	subi	r18, 0xFA	; 250
    26ce:	3e 4f       	sbci	r19, 0xFE	; 254
    26d0:	ce 01       	movw	r24, r28
    26d2:	89 5f       	subi	r24, 0xF9	; 249
    26d4:	9e 4f       	sbci	r25, 0xFE	; 254
    26d6:	fc 01       	movw	r30, r24
    26d8:	80 81       	ld	r24, Z
    26da:	91 81       	ldd	r25, Z+1	; 0x01
    26dc:	a2 81       	ldd	r26, Z+2	; 0x02
    26de:	b3 81       	ldd	r27, Z+3	; 0x03
    26e0:	f9 01       	movw	r30, r18
    26e2:	80 83       	st	Z, r24
    26e4:	91 83       	std	Z+1, r25	; 0x01
    26e6:	a2 83       	std	Z+2, r26	; 0x02
    26e8:	b3 83       	std	Z+3, r27	; 0x03
/home/becker/async/autosafe/trunk/tum/wcet-cbmc/benchmarks/nsichneu/nsichneu.c:738
    26ea:	80 91 04 01 	lds	r24, 0x0104
    26ee:	90 91 05 01 	lds	r25, 0x0105
    26f2:	03 96       	adiw	r24, 0x03	; 3
    26f4:	90 93 05 01 	sts	0x0105, r25
    26f8:	80 93 04 01 	sts	0x0104, r24
/home/becker/async/autosafe/trunk/tum/wcet-cbmc/benchmarks/nsichneu/nsichneu.c:745
    26fc:	80 91 02 01 	lds	r24, 0x0102
    2700:	90 91 03 01 	lds	r25, 0x0103
    2704:	84 30       	cpi	r24, 0x04	; 4
    2706:	91 05       	cpc	r25, r1
    2708:	0c f4       	brge	.+2      	; 0x270c <__stack+0x160d>
    270a:	e3 c0       	rjmp	.+454    	; 0x28d2 <__stack+0x17d3>
/home/becker/async/autosafe/trunk/tum/wcet-cbmc/benchmarks/nsichneu/nsichneu.c:746
    270c:	80 91 04 01 	lds	r24, 0x0104
    2710:	90 91 05 01 	lds	r25, 0x0105
    2714:	03 96       	adiw	r24, 0x03	; 3
/home/becker/async/autosafe/trunk/tum/wcet-cbmc/benchmarks/nsichneu/nsichneu.c:745
    2716:	87 30       	cpi	r24, 0x07	; 7
    2718:	91 05       	cpc	r25, r1
    271a:	0c f0       	brlt	.+2      	; 0x271e <__stack+0x161f>
    271c:	da c0       	rjmp	.+436    	; 0x28d2 <__stack+0x17d3>
/home/becker/async/autosafe/trunk/tum/wcet-cbmc/benchmarks/nsichneu/nsichneu.c:747
    271e:	20 91 36 01 	lds	r18, 0x0136
    2722:	30 91 37 01 	lds	r19, 0x0137
    2726:	40 91 38 01 	lds	r20, 0x0138
    272a:	50 91 39 01 	lds	r21, 0x0139
    272e:	80 91 2a 01 	lds	r24, 0x012A
    2732:	90 91 2b 01 	lds	r25, 0x012B
    2736:	a0 91 2c 01 	lds	r26, 0x012C
    273a:	b0 91 2d 01 	lds	r27, 0x012D
/home/becker/async/autosafe/trunk/tum/wcet-cbmc/benchmarks/nsichneu/nsichneu.c:746
    273e:	28 17       	cp	r18, r24
    2740:	39 07       	cpc	r19, r25
    2742:	4a 07       	cpc	r20, r26
    2744:	5b 07       	cpc	r21, r27
    2746:	09 f0       	breq	.+2      	; 0x274a <__stack+0x164b>
    2748:	c4 c0       	rjmp	.+392    	; 0x28d2 <__stack+0x17d3>
/home/becker/async/autosafe/trunk/tum/wcet-cbmc/benchmarks/nsichneu/nsichneu.c:748
    274a:	20 91 36 01 	lds	r18, 0x0136
    274e:	30 91 37 01 	lds	r19, 0x0137
    2752:	40 91 38 01 	lds	r20, 0x0138
    2756:	50 91 39 01 	lds	r21, 0x0139
    275a:	80 91 2e 01 	lds	r24, 0x012E
    275e:	90 91 2f 01 	lds	r25, 0x012F
    2762:	a0 91 30 01 	lds	r26, 0x0130
    2766:	b0 91 31 01 	lds	r27, 0x0131
/home/becker/async/autosafe/trunk/tum/wcet-cbmc/benchmarks/nsichneu/nsichneu.c:747
    276a:	28 17       	cp	r18, r24
    276c:	39 07       	cpc	r19, r25
    276e:	4a 07       	cpc	r20, r26
    2770:	5b 07       	cpc	r21, r27
    2772:	09 f0       	breq	.+2      	; 0x2776 <__stack+0x1677>
    2774:	ae c0       	rjmp	.+348    	; 0x28d2 <__stack+0x17d3>
/home/becker/async/autosafe/trunk/tum/wcet-cbmc/benchmarks/nsichneu/nsichneu.c:753
    2776:	9e 01       	movw	r18, r28
    2778:	25 5f       	subi	r18, 0xF5	; 245
    277a:	3e 4f       	sbci	r19, 0xFE	; 254
    277c:	80 91 32 01 	lds	r24, 0x0132
    2780:	90 91 33 01 	lds	r25, 0x0133
    2784:	a0 91 34 01 	lds	r26, 0x0134
    2788:	b0 91 35 01 	lds	r27, 0x0135
    278c:	f9 01       	movw	r30, r18
    278e:	80 83       	st	Z, r24
    2790:	91 83       	std	Z+1, r25	; 0x01
    2792:	a2 83       	std	Z+2, r26	; 0x02
    2794:	b3 83       	std	Z+3, r27	; 0x03
/home/becker/async/autosafe/trunk/tum/wcet-cbmc/benchmarks/nsichneu/nsichneu.c:754
    2796:	9e 01       	movw	r18, r28
    2798:	21 5f       	subi	r18, 0xF1	; 241
    279a:	3e 4f       	sbci	r19, 0xFE	; 254
    279c:	80 91 36 01 	lds	r24, 0x0136
    27a0:	90 91 37 01 	lds	r25, 0x0137
    27a4:	a0 91 38 01 	lds	r26, 0x0138
    27a8:	b0 91 39 01 	lds	r27, 0x0139
    27ac:	f9 01       	movw	r30, r18
    27ae:	80 83       	st	Z, r24
    27b0:	91 83       	std	Z+1, r25	; 0x01
    27b2:	a2 83       	std	Z+2, r26	; 0x02
    27b4:	b3 83       	std	Z+3, r27	; 0x03
/home/becker/async/autosafe/trunk/tum/wcet-cbmc/benchmarks/nsichneu/nsichneu.c:757
    27b6:	9e 01       	movw	r18, r28
    27b8:	21 5f       	subi	r18, 0xF1	; 241
    27ba:	3e 4f       	sbci	r19, 0xFE	; 254
    27bc:	ce 01       	movw	r24, r28
    27be:	85 5f       	subi	r24, 0xF5	; 245
    27c0:	9e 4f       	sbci	r25, 0xFE	; 254
    27c2:	f9 01       	movw	r30, r18
    27c4:	20 81       	ld	r18, Z
    27c6:	31 81       	ldd	r19, Z+1	; 0x01
    27c8:	42 81       	ldd	r20, Z+2	; 0x02
    27ca:	53 81       	ldd	r21, Z+3	; 0x03
    27cc:	fc 01       	movw	r30, r24
    27ce:	80 81       	ld	r24, Z
    27d0:	91 81       	ldd	r25, Z+1	; 0x01
    27d2:	a2 81       	ldd	r26, Z+2	; 0x02
    27d4:	b3 81       	ldd	r27, Z+3	; 0x03
    27d6:	82 17       	cp	r24, r18
    27d8:	93 07       	cpc	r25, r19
    27da:	a4 07       	cpc	r26, r20
    27dc:	b5 07       	cpc	r27, r21
    27de:	0c f0       	brlt	.+2      	; 0x27e2 <__stack+0x16e3>
    27e0:	78 c0       	rjmp	.+240    	; 0x28d2 <__stack+0x17d3>
/home/becker/async/autosafe/trunk/tum/wcet-cbmc/benchmarks/nsichneu/nsichneu.c:759
    27e2:	80 91 02 01 	lds	r24, 0x0102
    27e6:	90 91 03 01 	lds	r25, 0x0103
    27ea:	04 97       	sbiw	r24, 0x04	; 4
    27ec:	90 93 03 01 	sts	0x0103, r25
    27f0:	80 93 02 01 	sts	0x0102, r24
/home/becker/async/autosafe/trunk/tum/wcet-cbmc/benchmarks/nsichneu/nsichneu.c:762
    27f4:	be 01       	movw	r22, r28
    27f6:	6d 5e       	subi	r22, 0xED	; 237
    27f8:	7e 4f       	sbci	r23, 0xFE	; 254
    27fa:	9e 01       	movw	r18, r28
    27fc:	25 5f       	subi	r18, 0xF5	; 245
    27fe:	3e 4f       	sbci	r19, 0xFE	; 254
    2800:	ce 01       	movw	r24, r28
    2802:	81 5f       	subi	r24, 0xF1	; 241
    2804:	9e 4f       	sbci	r25, 0xFE	; 254
    2806:	f9 01       	movw	r30, r18
    2808:	20 81       	ld	r18, Z
    280a:	31 81       	ldd	r19, Z+1	; 0x01
    280c:	42 81       	ldd	r20, Z+2	; 0x02
    280e:	53 81       	ldd	r21, Z+3	; 0x03
    2810:	fc 01       	movw	r30, r24
    2812:	80 81       	ld	r24, Z
    2814:	91 81       	ldd	r25, Z+1	; 0x01
    2816:	a2 81       	ldd	r26, Z+2	; 0x02
    2818:	b3 81       	ldd	r27, Z+3	; 0x03
    281a:	82 0f       	add	r24, r18
    281c:	93 1f       	adc	r25, r19
    281e:	a4 1f       	adc	r26, r20
    2820:	b5 1f       	adc	r27, r21
    2822:	fb 01       	movw	r30, r22
    2824:	80 83       	st	Z, r24
    2826:	91 83       	std	Z+1, r25	; 0x01
    2828:	a2 83       	std	Z+2, r26	; 0x02
    282a:	b3 83       	std	Z+3, r27	; 0x03
/home/becker/async/autosafe/trunk/tum/wcet-cbmc/benchmarks/nsichneu/nsichneu.c:765
    282c:	80 91 04 01 	lds	r24, 0x0104
    2830:	90 91 05 01 	lds	r25, 0x0105
    2834:	88 0f       	add	r24, r24
    2836:	99 1f       	adc	r25, r25
    2838:	88 0f       	add	r24, r24
    283a:	99 1f       	adc	r25, r25
    283c:	9c 01       	movw	r18, r24
    283e:	2a 5f       	subi	r18, 0xFA	; 250
    2840:	3e 4f       	sbci	r19, 0xFE	; 254
    2842:	ce 01       	movw	r24, r28
    2844:	85 5f       	subi	r24, 0xF5	; 245
    2846:	9e 4f       	sbci	r25, 0xFE	; 254
    2848:	fc 01       	movw	r30, r24
    284a:	80 81       	ld	r24, Z
    284c:	91 81       	ldd	r25, Z+1	; 0x01
    284e:	a2 81       	ldd	r26, Z+2	; 0x02
    2850:	b3 81       	ldd	r27, Z+3	; 0x03
    2852:	f9 01       	movw	r30, r18
    2854:	80 83       	st	Z, r24
    2856:	91 83       	std	Z+1, r25	; 0x01
    2858:	a2 83       	std	Z+2, r26	; 0x02
    285a:	b3 83       	std	Z+3, r27	; 0x03
/home/becker/async/autosafe/trunk/tum/wcet-cbmc/benchmarks/nsichneu/nsichneu.c:766
    285c:	80 91 04 01 	lds	r24, 0x0104
    2860:	90 91 05 01 	lds	r25, 0x0105
    2864:	01 96       	adiw	r24, 0x01	; 1
    2866:	88 0f       	add	r24, r24
    2868:	99 1f       	adc	r25, r25
    286a:	88 0f       	add	r24, r24
    286c:	99 1f       	adc	r25, r25
    286e:	9c 01       	movw	r18, r24
    2870:	2a 5f       	subi	r18, 0xFA	; 250
    2872:	3e 4f       	sbci	r19, 0xFE	; 254
    2874:	ce 01       	movw	r24, r28
    2876:	81 5f       	subi	r24, 0xF1	; 241
    2878:	9e 4f       	sbci	r25, 0xFE	; 254
    287a:	fc 01       	movw	r30, r24
    287c:	80 81       	ld	r24, Z
    287e:	91 81       	ldd	r25, Z+1	; 0x01
    2880:	a2 81       	ldd	r26, Z+2	; 0x02
    2882:	b3 81       	ldd	r27, Z+3	; 0x03
    2884:	f9 01       	movw	r30, r18
    2886:	80 83       	st	Z, r24
    2888:	91 83       	std	Z+1, r25	; 0x01
    288a:	a2 83       	std	Z+2, r26	; 0x02
    288c:	b3 83       	std	Z+3, r27	; 0x03
/home/becker/async/autosafe/trunk/tum/wcet-cbmc/benchmarks/nsichneu/nsichneu.c:767
    288e:	80 91 04 01 	lds	r24, 0x0104
    2892:	90 91 05 01 	lds	r25, 0x0105
    2896:	02 96       	adiw	r24, 0x02	; 2
    2898:	88 0f       	add	r24, r24
    289a:	99 1f       	adc	r25, r25
    289c:	88 0f       	add	r24, r24
    289e:	99 1f       	adc	r25, r25
    28a0:	9c 01       	movw	r18, r24
    28a2:	2a 5f       	subi	r18, 0xFA	; 250
    28a4:	3e 4f       	sbci	r19, 0xFE	; 254
    28a6:	ce 01       	movw	r24, r28
    28a8:	8d 5e       	subi	r24, 0xED	; 237
    28aa:	9e 4f       	sbci	r25, 0xFE	; 254
    28ac:	fc 01       	movw	r30, r24
    28ae:	80 81       	ld	r24, Z
    28b0:	91 81       	ldd	r25, Z+1	; 0x01
    28b2:	a2 81       	ldd	r26, Z+2	; 0x02
    28b4:	b3 81       	ldd	r27, Z+3	; 0x03
    28b6:	f9 01       	movw	r30, r18
    28b8:	80 83       	st	Z, r24
    28ba:	91 83       	std	Z+1, r25	; 0x01
    28bc:	a2 83       	std	Z+2, r26	; 0x02
    28be:	b3 83       	std	Z+3, r27	; 0x03
/home/becker/async/autosafe/trunk/tum/wcet-cbmc/benchmarks/nsichneu/nsichneu.c:768
    28c0:	80 91 04 01 	lds	r24, 0x0104
    28c4:	90 91 05 01 	lds	r25, 0x0105
    28c8:	03 96       	adiw	r24, 0x03	; 3
    28ca:	90 93 05 01 	sts	0x0105, r25
    28ce:	80 93 04 01 	sts	0x0104, r24
/home/becker/async/autosafe/trunk/tum/wcet-cbmc/benchmarks/nsichneu/nsichneu.c:775
    28d2:	80 91 02 01 	lds	r24, 0x0102
    28d6:	90 91 03 01 	lds	r25, 0x0103
    28da:	84 30       	cpi	r24, 0x04	; 4
    28dc:	91 05       	cpc	r25, r1
    28de:	0c f4       	brge	.+2      	; 0x28e2 <__stack+0x17e3>
    28e0:	e3 c0       	rjmp	.+454    	; 0x2aa8 <__stack+0x19a9>
/home/becker/async/autosafe/trunk/tum/wcet-cbmc/benchmarks/nsichneu/nsichneu.c:776
    28e2:	80 91 04 01 	lds	r24, 0x0104
    28e6:	90 91 05 01 	lds	r25, 0x0105
    28ea:	03 96       	adiw	r24, 0x03	; 3
/home/becker/async/autosafe/trunk/tum/wcet-cbmc/benchmarks/nsichneu/nsichneu.c:775
    28ec:	87 30       	cpi	r24, 0x07	; 7
    28ee:	91 05       	cpc	r25, r1
    28f0:	0c f0       	brlt	.+2      	; 0x28f4 <__stack+0x17f5>
    28f2:	da c0       	rjmp	.+436    	; 0x2aa8 <__stack+0x19a9>
/home/becker/async/autosafe/trunk/tum/wcet-cbmc/benchmarks/nsichneu/nsichneu.c:777
    28f4:	20 91 36 01 	lds	r18, 0x0136
    28f8:	30 91 37 01 	lds	r19, 0x0137
    28fc:	40 91 38 01 	lds	r20, 0x0138
    2900:	50 91 39 01 	lds	r21, 0x0139
    2904:	80 91 2e 01 	lds	r24, 0x012E
    2908:	90 91 2f 01 	lds	r25, 0x012F
    290c:	a0 91 30 01 	lds	r26, 0x0130
    2910:	b0 91 31 01 	lds	r27, 0x0131
/home/becker/async/autosafe/trunk/tum/wcet-cbmc/benchmarks/nsichneu/nsichneu.c:776
    2914:	28 17       	cp	r18, r24
    2916:	39 07       	cpc	r19, r25
    2918:	4a 07       	cpc	r20, r26
    291a:	5b 07       	cpc	r21, r27
    291c:	09 f0       	breq	.+2      	; 0x2920 <__stack+0x1821>
    291e:	c4 c0       	rjmp	.+392    	; 0x2aa8 <__stack+0x19a9>
/home/becker/async/autosafe/trunk/tum/wcet-cbmc/benchmarks/nsichneu/nsichneu.c:778
    2920:	20 91 36 01 	lds	r18, 0x0136
    2924:	30 91 37 01 	lds	r19, 0x0137
    2928:	40 91 38 01 	lds	r20, 0x0138
    292c:	50 91 39 01 	lds	r21, 0x0139
    2930:	80 91 2a 01 	lds	r24, 0x012A
    2934:	90 91 2b 01 	lds	r25, 0x012B
    2938:	a0 91 2c 01 	lds	r26, 0x012C
    293c:	b0 91 2d 01 	lds	r27, 0x012D
/home/becker/async/autosafe/trunk/tum/wcet-cbmc/benchmarks/nsichneu/nsichneu.c:777
    2940:	28 17       	cp	r18, r24
    2942:	39 07       	cpc	r19, r25
    2944:	4a 07       	cpc	r20, r26
    2946:	5b 07       	cpc	r21, r27
    2948:	09 f0       	breq	.+2      	; 0x294c <__stack+0x184d>
    294a:	ae c0       	rjmp	.+348    	; 0x2aa8 <__stack+0x19a9>
/home/becker/async/autosafe/trunk/tum/wcet-cbmc/benchmarks/nsichneu/nsichneu.c:783
    294c:	9e 01       	movw	r18, r28
    294e:	29 5e       	subi	r18, 0xE9	; 233
    2950:	3e 4f       	sbci	r19, 0xFE	; 254
    2952:	80 91 32 01 	lds	r24, 0x0132
    2956:	90 91 33 01 	lds	r25, 0x0133
    295a:	a0 91 34 01 	lds	r26, 0x0134
    295e:	b0 91 35 01 	lds	r27, 0x0135
    2962:	f9 01       	movw	r30, r18
    2964:	80 83       	st	Z, r24
    2966:	91 83       	std	Z+1, r25	; 0x01
    2968:	a2 83       	std	Z+2, r26	; 0x02
    296a:	b3 83       	std	Z+3, r27	; 0x03
/home/becker/async/autosafe/trunk/tum/wcet-cbmc/benchmarks/nsichneu/nsichneu.c:784
    296c:	9e 01       	movw	r18, r28
    296e:	25 5e       	subi	r18, 0xE5	; 229
    2970:	3e 4f       	sbci	r19, 0xFE	; 254
    2972:	80 91 36 01 	lds	r24, 0x0136
    2976:	90 91 37 01 	lds	r25, 0x0137
    297a:	a0 91 38 01 	lds	r26, 0x0138
    297e:	b0 91 39 01 	lds	r27, 0x0139
    2982:	f9 01       	movw	r30, r18
    2984:	80 83       	st	Z, r24
    2986:	91 83       	std	Z+1, r25	; 0x01
    2988:	a2 83       	std	Z+2, r26	; 0x02
    298a:	b3 83       	std	Z+3, r27	; 0x03
/home/becker/async/autosafe/trunk/tum/wcet-cbmc/benchmarks/nsichneu/nsichneu.c:787
    298c:	9e 01       	movw	r18, r28
    298e:	25 5e       	subi	r18, 0xE5	; 229
    2990:	3e 4f       	sbci	r19, 0xFE	; 254
    2992:	ce 01       	movw	r24, r28
    2994:	89 5e       	subi	r24, 0xE9	; 233
    2996:	9e 4f       	sbci	r25, 0xFE	; 254
    2998:	f9 01       	movw	r30, r18
    299a:	20 81       	ld	r18, Z
    299c:	31 81       	ldd	r19, Z+1	; 0x01
    299e:	42 81       	ldd	r20, Z+2	; 0x02
    29a0:	53 81       	ldd	r21, Z+3	; 0x03
    29a2:	fc 01       	movw	r30, r24
    29a4:	80 81       	ld	r24, Z
    29a6:	91 81       	ldd	r25, Z+1	; 0x01
    29a8:	a2 81       	ldd	r26, Z+2	; 0x02
    29aa:	b3 81       	ldd	r27, Z+3	; 0x03
    29ac:	82 17       	cp	r24, r18
    29ae:	93 07       	cpc	r25, r19
    29b0:	a4 07       	cpc	r26, r20
    29b2:	b5 07       	cpc	r27, r21
    29b4:	0c f0       	brlt	.+2      	; 0x29b8 <__stack+0x18b9>
    29b6:	78 c0       	rjmp	.+240    	; 0x2aa8 <__stack+0x19a9>
/home/becker/async/autosafe/trunk/tum/wcet-cbmc/benchmarks/nsichneu/nsichneu.c:789
    29b8:	80 91 02 01 	lds	r24, 0x0102
    29bc:	90 91 03 01 	lds	r25, 0x0103
    29c0:	04 97       	sbiw	r24, 0x04	; 4
    29c2:	90 93 03 01 	sts	0x0103, r25
    29c6:	80 93 02 01 	sts	0x0102, r24
/home/becker/async/autosafe/trunk/tum/wcet-cbmc/benchmarks/nsichneu/nsichneu.c:792
    29ca:	be 01       	movw	r22, r28
    29cc:	61 5e       	subi	r22, 0xE1	; 225
    29ce:	7e 4f       	sbci	r23, 0xFE	; 254
    29d0:	9e 01       	movw	r18, r28
    29d2:	29 5e       	subi	r18, 0xE9	; 233
    29d4:	3e 4f       	sbci	r19, 0xFE	; 254
    29d6:	ce 01       	movw	r24, r28
    29d8:	85 5e       	subi	r24, 0xE5	; 229
    29da:	9e 4f       	sbci	r25, 0xFE	; 254
    29dc:	f9 01       	movw	r30, r18
    29de:	20 81       	ld	r18, Z
    29e0:	31 81       	ldd	r19, Z+1	; 0x01
    29e2:	42 81       	ldd	r20, Z+2	; 0x02
    29e4:	53 81       	ldd	r21, Z+3	; 0x03
    29e6:	fc 01       	movw	r30, r24
    29e8:	80 81       	ld	r24, Z
    29ea:	91 81       	ldd	r25, Z+1	; 0x01
    29ec:	a2 81       	ldd	r26, Z+2	; 0x02
    29ee:	b3 81       	ldd	r27, Z+3	; 0x03
    29f0:	82 0f       	add	r24, r18
    29f2:	93 1f       	adc	r25, r19
    29f4:	a4 1f       	adc	r26, r20
    29f6:	b5 1f       	adc	r27, r21
    29f8:	fb 01       	movw	r30, r22
    29fa:	80 83       	st	Z, r24
    29fc:	91 83       	std	Z+1, r25	; 0x01
    29fe:	a2 83       	std	Z+2, r26	; 0x02
    2a00:	b3 83       	std	Z+3, r27	; 0x03
/home/becker/async/autosafe/trunk/tum/wcet-cbmc/benchmarks/nsichneu/nsichneu.c:795
    2a02:	80 91 04 01 	lds	r24, 0x0104
    2a06:	90 91 05 01 	lds	r25, 0x0105
    2a0a:	88 0f       	add	r24, r24
    2a0c:	99 1f       	adc	r25, r25
    2a0e:	88 0f       	add	r24, r24
    2a10:	99 1f       	adc	r25, r25
    2a12:	9c 01       	movw	r18, r24
    2a14:	2a 5f       	subi	r18, 0xFA	; 250
    2a16:	3e 4f       	sbci	r19, 0xFE	; 254
    2a18:	ce 01       	movw	r24, r28
    2a1a:	89 5e       	subi	r24, 0xE9	; 233
    2a1c:	9e 4f       	sbci	r25, 0xFE	; 254
    2a1e:	fc 01       	movw	r30, r24
    2a20:	80 81       	ld	r24, Z
    2a22:	91 81       	ldd	r25, Z+1	; 0x01
    2a24:	a2 81       	ldd	r26, Z+2	; 0x02
    2a26:	b3 81       	ldd	r27, Z+3	; 0x03
    2a28:	f9 01       	movw	r30, r18
    2a2a:	80 83       	st	Z, r24
    2a2c:	91 83       	std	Z+1, r25	; 0x01
    2a2e:	a2 83       	std	Z+2, r26	; 0x02
    2a30:	b3 83       	std	Z+3, r27	; 0x03
/home/becker/async/autosafe/trunk/tum/wcet-cbmc/benchmarks/nsichneu/nsichneu.c:796
    2a32:	80 91 04 01 	lds	r24, 0x0104
    2a36:	90 91 05 01 	lds	r25, 0x0105
    2a3a:	01 96       	adiw	r24, 0x01	; 1
    2a3c:	88 0f       	add	r24, r24
    2a3e:	99 1f       	adc	r25, r25
    2a40:	88 0f       	add	r24, r24
    2a42:	99 1f       	adc	r25, r25
    2a44:	9c 01       	movw	r18, r24
    2a46:	2a 5f       	subi	r18, 0xFA	; 250
    2a48:	3e 4f       	sbci	r19, 0xFE	; 254
    2a4a:	ce 01       	movw	r24, r28
    2a4c:	85 5e       	subi	r24, 0xE5	; 229
    2a4e:	9e 4f       	sbci	r25, 0xFE	; 254
    2a50:	fc 01       	movw	r30, r24
    2a52:	80 81       	ld	r24, Z
    2a54:	91 81       	ldd	r25, Z+1	; 0x01
    2a56:	a2 81       	ldd	r26, Z+2	; 0x02
    2a58:	b3 81       	ldd	r27, Z+3	; 0x03
    2a5a:	f9 01       	movw	r30, r18
    2a5c:	80 83       	st	Z, r24
    2a5e:	91 83       	std	Z+1, r25	; 0x01
    2a60:	a2 83       	std	Z+2, r26	; 0x02
    2a62:	b3 83       	std	Z+3, r27	; 0x03
/home/becker/async/autosafe/trunk/tum/wcet-cbmc/benchmarks/nsichneu/nsichneu.c:797
    2a64:	80 91 04 01 	lds	r24, 0x0104
    2a68:	90 91 05 01 	lds	r25, 0x0105
    2a6c:	02 96       	adiw	r24, 0x02	; 2
    2a6e:	88 0f       	add	r24, r24
    2a70:	99 1f       	adc	r25, r25
    2a72:	88 0f       	add	r24, r24
    2a74:	99 1f       	adc	r25, r25
    2a76:	9c 01       	movw	r18, r24
    2a78:	2a 5f       	subi	r18, 0xFA	; 250
    2a7a:	3e 4f       	sbci	r19, 0xFE	; 254
    2a7c:	ce 01       	movw	r24, r28
    2a7e:	81 5e       	subi	r24, 0xE1	; 225
    2a80:	9e 4f       	sbci	r25, 0xFE	; 254
    2a82:	fc 01       	movw	r30, r24
    2a84:	80 81       	ld	r24, Z
    2a86:	91 81       	ldd	r25, Z+1	; 0x01
    2a88:	a2 81       	ldd	r26, Z+2	; 0x02
    2a8a:	b3 81       	ldd	r27, Z+3	; 0x03
    2a8c:	f9 01       	movw	r30, r18
    2a8e:	80 83       	st	Z, r24
    2a90:	91 83       	std	Z+1, r25	; 0x01
    2a92:	a2 83       	std	Z+2, r26	; 0x02
    2a94:	b3 83       	std	Z+3, r27	; 0x03
/home/becker/async/autosafe/trunk/tum/wcet-cbmc/benchmarks/nsichneu/nsichneu.c:798
    2a96:	80 91 04 01 	lds	r24, 0x0104
    2a9a:	90 91 05 01 	lds	r25, 0x0105
    2a9e:	03 96       	adiw	r24, 0x03	; 3
    2aa0:	90 93 05 01 	sts	0x0105, r25
    2aa4:	80 93 04 01 	sts	0x0104, r24
/home/becker/async/autosafe/trunk/tum/wcet-cbmc/benchmarks/nsichneu/nsichneu.c:805
    2aa8:	80 91 02 01 	lds	r24, 0x0102
    2aac:	90 91 03 01 	lds	r25, 0x0103
    2ab0:	84 30       	cpi	r24, 0x04	; 4
    2ab2:	91 05       	cpc	r25, r1
    2ab4:	0c f4       	brge	.+2      	; 0x2ab8 <__stack+0x19b9>
    2ab6:	e3 c0       	rjmp	.+454    	; 0x2c7e <__stack+0x1b7f>
/home/becker/async/autosafe/trunk/tum/wcet-cbmc/benchmarks/nsichneu/nsichneu.c:806
    2ab8:	80 91 04 01 	lds	r24, 0x0104
    2abc:	90 91 05 01 	lds	r25, 0x0105
    2ac0:	03 96       	adiw	r24, 0x03	; 3
/home/becker/async/autosafe/trunk/tum/wcet-cbmc/benchmarks/nsichneu/nsichneu.c:805
    2ac2:	87 30       	cpi	r24, 0x07	; 7
    2ac4:	91 05       	cpc	r25, r1
    2ac6:	0c f0       	brlt	.+2      	; 0x2aca <__stack+0x19cb>
    2ac8:	da c0       	rjmp	.+436    	; 0x2c7e <__stack+0x1b7f>
/home/becker/async/autosafe/trunk/tum/wcet-cbmc/benchmarks/nsichneu/nsichneu.c:807
    2aca:	20 91 2a 01 	lds	r18, 0x012A
    2ace:	30 91 2b 01 	lds	r19, 0x012B
    2ad2:	40 91 2c 01 	lds	r20, 0x012C
    2ad6:	50 91 2d 01 	lds	r21, 0x012D
    2ada:	80 91 2e 01 	lds	r24, 0x012E
    2ade:	90 91 2f 01 	lds	r25, 0x012F
    2ae2:	a0 91 30 01 	lds	r26, 0x0130
    2ae6:	b0 91 31 01 	lds	r27, 0x0131
/home/becker/async/autosafe/trunk/tum/wcet-cbmc/benchmarks/nsichneu/nsichneu.c:806
    2aea:	28 17       	cp	r18, r24
    2aec:	39 07       	cpc	r19, r25
    2aee:	4a 07       	cpc	r20, r26
    2af0:	5b 07       	cpc	r21, r27
    2af2:	09 f0       	breq	.+2      	; 0x2af6 <__stack+0x19f7>
    2af4:	c4 c0       	rjmp	.+392    	; 0x2c7e <__stack+0x1b7f>
/home/becker/async/autosafe/trunk/tum/wcet-cbmc/benchmarks/nsichneu/nsichneu.c:808
    2af6:	20 91 2a 01 	lds	r18, 0x012A
    2afa:	30 91 2b 01 	lds	r19, 0x012B
    2afe:	40 91 2c 01 	lds	r20, 0x012C
    2b02:	50 91 2d 01 	lds	r21, 0x012D
    2b06:	80 91 32 01 	lds	r24, 0x0132
    2b0a:	90 91 33 01 	lds	r25, 0x0133
    2b0e:	a0 91 34 01 	lds	r26, 0x0134
    2b12:	b0 91 35 01 	lds	r27, 0x0135
/home/becker/async/autosafe/trunk/tum/wcet-cbmc/benchmarks/nsichneu/nsichneu.c:807
    2b16:	28 17       	cp	r18, r24
    2b18:	39 07       	cpc	r19, r25
    2b1a:	4a 07       	cpc	r20, r26
    2b1c:	5b 07       	cpc	r21, r27
    2b1e:	09 f0       	breq	.+2      	; 0x2b22 <__stack+0x1a23>
    2b20:	ae c0       	rjmp	.+348    	; 0x2c7e <__stack+0x1b7f>
/home/becker/async/autosafe/trunk/tum/wcet-cbmc/benchmarks/nsichneu/nsichneu.c:813
    2b22:	9e 01       	movw	r18, r28
    2b24:	2d 5d       	subi	r18, 0xDD	; 221
    2b26:	3e 4f       	sbci	r19, 0xFE	; 254
    2b28:	80 91 36 01 	lds	r24, 0x0136
    2b2c:	90 91 37 01 	lds	r25, 0x0137
    2b30:	a0 91 38 01 	lds	r26, 0x0138
    2b34:	b0 91 39 01 	lds	r27, 0x0139
    2b38:	f9 01       	movw	r30, r18
    2b3a:	80 83       	st	Z, r24
    2b3c:	91 83       	std	Z+1, r25	; 0x01
    2b3e:	a2 83       	std	Z+2, r26	; 0x02
    2b40:	b3 83       	std	Z+3, r27	; 0x03
/home/becker/async/autosafe/trunk/tum/wcet-cbmc/benchmarks/nsichneu/nsichneu.c:814
    2b42:	9e 01       	movw	r18, r28
    2b44:	29 5d       	subi	r18, 0xD9	; 217
    2b46:	3e 4f       	sbci	r19, 0xFE	; 254
    2b48:	80 91 2a 01 	lds	r24, 0x012A
    2b4c:	90 91 2b 01 	lds	r25, 0x012B
    2b50:	a0 91 2c 01 	lds	r26, 0x012C
    2b54:	b0 91 2d 01 	lds	r27, 0x012D
    2b58:	f9 01       	movw	r30, r18
    2b5a:	80 83       	st	Z, r24
    2b5c:	91 83       	std	Z+1, r25	; 0x01
    2b5e:	a2 83       	std	Z+2, r26	; 0x02
    2b60:	b3 83       	std	Z+3, r27	; 0x03
/home/becker/async/autosafe/trunk/tum/wcet-cbmc/benchmarks/nsichneu/nsichneu.c:817
    2b62:	9e 01       	movw	r18, r28
    2b64:	29 5d       	subi	r18, 0xD9	; 217
    2b66:	3e 4f       	sbci	r19, 0xFE	; 254
    2b68:	ce 01       	movw	r24, r28
    2b6a:	8d 5d       	subi	r24, 0xDD	; 221
    2b6c:	9e 4f       	sbci	r25, 0xFE	; 254
    2b6e:	f9 01       	movw	r30, r18
    2b70:	20 81       	ld	r18, Z
    2b72:	31 81       	ldd	r19, Z+1	; 0x01
    2b74:	42 81       	ldd	r20, Z+2	; 0x02
    2b76:	53 81       	ldd	r21, Z+3	; 0x03
    2b78:	fc 01       	movw	r30, r24
    2b7a:	80 81       	ld	r24, Z
    2b7c:	91 81       	ldd	r25, Z+1	; 0x01
    2b7e:	a2 81       	ldd	r26, Z+2	; 0x02
    2b80:	b3 81       	ldd	r27, Z+3	; 0x03
    2b82:	82 17       	cp	r24, r18
    2b84:	93 07       	cpc	r25, r19
    2b86:	a4 07       	cpc	r26, r20
    2b88:	b5 07       	cpc	r27, r21
    2b8a:	0c f0       	brlt	.+2      	; 0x2b8e <__stack+0x1a8f>
    2b8c:	78 c0       	rjmp	.+240    	; 0x2c7e <__stack+0x1b7f>
/home/becker/async/autosafe/trunk/tum/wcet-cbmc/benchmarks/nsichneu/nsichneu.c:820
    2b8e:	80 91 02 01 	lds	r24, 0x0102
    2b92:	90 91 03 01 	lds	r25, 0x0103
    2b96:	04 97       	sbiw	r24, 0x04	; 4
    2b98:	90 93 03 01 	sts	0x0103, r25
    2b9c:	80 93 02 01 	sts	0x0102, r24
/home/becker/async/autosafe/trunk/tum/wcet-cbmc/benchmarks/nsichneu/nsichneu.c:823
    2ba0:	be 01       	movw	r22, r28
    2ba2:	65 5d       	subi	r22, 0xD5	; 213
    2ba4:	7e 4f       	sbci	r23, 0xFE	; 254
    2ba6:	9e 01       	movw	r18, r28
    2ba8:	2d 5d       	subi	r18, 0xDD	; 221
    2baa:	3e 4f       	sbci	r19, 0xFE	; 254
    2bac:	ce 01       	movw	r24, r28
    2bae:	89 5d       	subi	r24, 0xD9	; 217
    2bb0:	9e 4f       	sbci	r25, 0xFE	; 254
    2bb2:	f9 01       	movw	r30, r18
    2bb4:	20 81       	ld	r18, Z
    2bb6:	31 81       	ldd	r19, Z+1	; 0x01
    2bb8:	42 81       	ldd	r20, Z+2	; 0x02
    2bba:	53 81       	ldd	r21, Z+3	; 0x03
    2bbc:	fc 01       	movw	r30, r24
    2bbe:	80 81       	ld	r24, Z
    2bc0:	91 81       	ldd	r25, Z+1	; 0x01
    2bc2:	a2 81       	ldd	r26, Z+2	; 0x02
    2bc4:	b3 81       	ldd	r27, Z+3	; 0x03
    2bc6:	82 0f       	add	r24, r18
    2bc8:	93 1f       	adc	r25, r19
    2bca:	a4 1f       	adc	r26, r20
    2bcc:	b5 1f       	adc	r27, r21
    2bce:	fb 01       	movw	r30, r22
    2bd0:	80 83       	st	Z, r24
    2bd2:	91 83       	std	Z+1, r25	; 0x01
    2bd4:	a2 83       	std	Z+2, r26	; 0x02
    2bd6:	b3 83       	std	Z+3, r27	; 0x03
/home/becker/async/autosafe/trunk/tum/wcet-cbmc/benchmarks/nsichneu/nsichneu.c:826
    2bd8:	80 91 04 01 	lds	r24, 0x0104
    2bdc:	90 91 05 01 	lds	r25, 0x0105
    2be0:	88 0f       	add	r24, r24
    2be2:	99 1f       	adc	r25, r25
    2be4:	88 0f       	add	r24, r24
    2be6:	99 1f       	adc	r25, r25
    2be8:	9c 01       	movw	r18, r24
    2bea:	2a 5f       	subi	r18, 0xFA	; 250
    2bec:	3e 4f       	sbci	r19, 0xFE	; 254
    2bee:	ce 01       	movw	r24, r28
    2bf0:	8d 5d       	subi	r24, 0xDD	; 221
    2bf2:	9e 4f       	sbci	r25, 0xFE	; 254
    2bf4:	fc 01       	movw	r30, r24
    2bf6:	80 81       	ld	r24, Z
    2bf8:	91 81       	ldd	r25, Z+1	; 0x01
    2bfa:	a2 81       	ldd	r26, Z+2	; 0x02
    2bfc:	b3 81       	ldd	r27, Z+3	; 0x03
    2bfe:	f9 01       	movw	r30, r18
    2c00:	80 83       	st	Z, r24
    2c02:	91 83       	std	Z+1, r25	; 0x01
    2c04:	a2 83       	std	Z+2, r26	; 0x02
    2c06:	b3 83       	std	Z+3, r27	; 0x03
/home/becker/async/autosafe/trunk/tum/wcet-cbmc/benchmarks/nsichneu/nsichneu.c:827
    2c08:	80 91 04 01 	lds	r24, 0x0104
    2c0c:	90 91 05 01 	lds	r25, 0x0105
    2c10:	01 96       	adiw	r24, 0x01	; 1
    2c12:	88 0f       	add	r24, r24
    2c14:	99 1f       	adc	r25, r25
    2c16:	88 0f       	add	r24, r24
    2c18:	99 1f       	adc	r25, r25
    2c1a:	9c 01       	movw	r18, r24
    2c1c:	2a 5f       	subi	r18, 0xFA	; 250
    2c1e:	3e 4f       	sbci	r19, 0xFE	; 254
    2c20:	ce 01       	movw	r24, r28
    2c22:	89 5d       	subi	r24, 0xD9	; 217
    2c24:	9e 4f       	sbci	r25, 0xFE	; 254
    2c26:	fc 01       	movw	r30, r24
    2c28:	80 81       	ld	r24, Z
    2c2a:	91 81       	ldd	r25, Z+1	; 0x01
    2c2c:	a2 81       	ldd	r26, Z+2	; 0x02
    2c2e:	b3 81       	ldd	r27, Z+3	; 0x03
    2c30:	f9 01       	movw	r30, r18
    2c32:	80 83       	st	Z, r24
    2c34:	91 83       	std	Z+1, r25	; 0x01
    2c36:	a2 83       	std	Z+2, r26	; 0x02
    2c38:	b3 83       	std	Z+3, r27	; 0x03
/home/becker/async/autosafe/trunk/tum/wcet-cbmc/benchmarks/nsichneu/nsichneu.c:828
    2c3a:	80 91 04 01 	lds	r24, 0x0104
    2c3e:	90 91 05 01 	lds	r25, 0x0105
    2c42:	02 96       	adiw	r24, 0x02	; 2
    2c44:	88 0f       	add	r24, r24
    2c46:	99 1f       	adc	r25, r25
    2c48:	88 0f       	add	r24, r24
    2c4a:	99 1f       	adc	r25, r25
    2c4c:	9c 01       	movw	r18, r24
    2c4e:	2a 5f       	subi	r18, 0xFA	; 250
    2c50:	3e 4f       	sbci	r19, 0xFE	; 254
    2c52:	ce 01       	movw	r24, r28
    2c54:	85 5d       	subi	r24, 0xD5	; 213
    2c56:	9e 4f       	sbci	r25, 0xFE	; 254
    2c58:	fc 01       	movw	r30, r24
    2c5a:	80 81       	ld	r24, Z
    2c5c:	91 81       	ldd	r25, Z+1	; 0x01
    2c5e:	a2 81       	ldd	r26, Z+2	; 0x02
    2c60:	b3 81       	ldd	r27, Z+3	; 0x03
    2c62:	f9 01       	movw	r30, r18
    2c64:	80 83       	st	Z, r24
    2c66:	91 83       	std	Z+1, r25	; 0x01
    2c68:	a2 83       	std	Z+2, r26	; 0x02
    2c6a:	b3 83       	std	Z+3, r27	; 0x03
/home/becker/async/autosafe/trunk/tum/wcet-cbmc/benchmarks/nsichneu/nsichneu.c:829
    2c6c:	80 91 04 01 	lds	r24, 0x0104
    2c70:	90 91 05 01 	lds	r25, 0x0105
    2c74:	03 96       	adiw	r24, 0x03	; 3
    2c76:	90 93 05 01 	sts	0x0105, r25
    2c7a:	80 93 04 01 	sts	0x0104, r24
/home/becker/async/autosafe/trunk/tum/wcet-cbmc/benchmarks/nsichneu/nsichneu.c:837
    2c7e:	80 91 02 01 	lds	r24, 0x0102
    2c82:	90 91 03 01 	lds	r25, 0x0103
    2c86:	84 30       	cpi	r24, 0x04	; 4
    2c88:	91 05       	cpc	r25, r1
    2c8a:	0c f4       	brge	.+2      	; 0x2c8e <__stack+0x1b8f>
    2c8c:	e3 c0       	rjmp	.+454    	; 0x2e54 <__stack+0x1d55>
/home/becker/async/autosafe/trunk/tum/wcet-cbmc/benchmarks/nsichneu/nsichneu.c:838
    2c8e:	80 91 04 01 	lds	r24, 0x0104
    2c92:	90 91 05 01 	lds	r25, 0x0105
    2c96:	03 96       	adiw	r24, 0x03	; 3
/home/becker/async/autosafe/trunk/tum/wcet-cbmc/benchmarks/nsichneu/nsichneu.c:837
    2c98:	87 30       	cpi	r24, 0x07	; 7
    2c9a:	91 05       	cpc	r25, r1
    2c9c:	0c f0       	brlt	.+2      	; 0x2ca0 <__stack+0x1ba1>
    2c9e:	da c0       	rjmp	.+436    	; 0x2e54 <__stack+0x1d55>
/home/becker/async/autosafe/trunk/tum/wcet-cbmc/benchmarks/nsichneu/nsichneu.c:839
    2ca0:	20 91 2a 01 	lds	r18, 0x012A
    2ca4:	30 91 2b 01 	lds	r19, 0x012B
    2ca8:	40 91 2c 01 	lds	r20, 0x012C
    2cac:	50 91 2d 01 	lds	r21, 0x012D
    2cb0:	80 91 32 01 	lds	r24, 0x0132
    2cb4:	90 91 33 01 	lds	r25, 0x0133
    2cb8:	a0 91 34 01 	lds	r26, 0x0134
    2cbc:	b0 91 35 01 	lds	r27, 0x0135
/home/becker/async/autosafe/trunk/tum/wcet-cbmc/benchmarks/nsichneu/nsichneu.c:838
    2cc0:	28 17       	cp	r18, r24
    2cc2:	39 07       	cpc	r19, r25
    2cc4:	4a 07       	cpc	r20, r26
    2cc6:	5b 07       	cpc	r21, r27
    2cc8:	09 f0       	breq	.+2      	; 0x2ccc <__stack+0x1bcd>
    2cca:	c4 c0       	rjmp	.+392    	; 0x2e54 <__stack+0x1d55>
/home/becker/async/autosafe/trunk/tum/wcet-cbmc/benchmarks/nsichneu/nsichneu.c:840
    2ccc:	20 91 2a 01 	lds	r18, 0x012A
    2cd0:	30 91 2b 01 	lds	r19, 0x012B
    2cd4:	40 91 2c 01 	lds	r20, 0x012C
    2cd8:	50 91 2d 01 	lds	r21, 0x012D
    2cdc:	80 91 2e 01 	lds	r24, 0x012E
    2ce0:	90 91 2f 01 	lds	r25, 0x012F
    2ce4:	a0 91 30 01 	lds	r26, 0x0130
    2ce8:	b0 91 31 01 	lds	r27, 0x0131
/home/becker/async/autosafe/trunk/tum/wcet-cbmc/benchmarks/nsichneu/nsichneu.c:839
    2cec:	28 17       	cp	r18, r24
    2cee:	39 07       	cpc	r19, r25
    2cf0:	4a 07       	cpc	r20, r26
    2cf2:	5b 07       	cpc	r21, r27
    2cf4:	09 f0       	breq	.+2      	; 0x2cf8 <__stack+0x1bf9>
    2cf6:	ae c0       	rjmp	.+348    	; 0x2e54 <__stack+0x1d55>
/home/becker/async/autosafe/trunk/tum/wcet-cbmc/benchmarks/nsichneu/nsichneu.c:846
    2cf8:	9e 01       	movw	r18, r28
    2cfa:	21 5d       	subi	r18, 0xD1	; 209
    2cfc:	3e 4f       	sbci	r19, 0xFE	; 254
    2cfe:	80 91 36 01 	lds	r24, 0x0136
    2d02:	90 91 37 01 	lds	r25, 0x0137
    2d06:	a0 91 38 01 	lds	r26, 0x0138
    2d0a:	b0 91 39 01 	lds	r27, 0x0139
    2d0e:	f9 01       	movw	r30, r18
    2d10:	80 83       	st	Z, r24
    2d12:	91 83       	std	Z+1, r25	; 0x01
    2d14:	a2 83       	std	Z+2, r26	; 0x02
    2d16:	b3 83       	std	Z+3, r27	; 0x03
/home/becker/async/autosafe/trunk/tum/wcet-cbmc/benchmarks/nsichneu/nsichneu.c:847
    2d18:	9e 01       	movw	r18, r28
    2d1a:	2d 5c       	subi	r18, 0xCD	; 205
    2d1c:	3e 4f       	sbci	r19, 0xFE	; 254
    2d1e:	80 91 2a 01 	lds	r24, 0x012A
    2d22:	90 91 2b 01 	lds	r25, 0x012B
    2d26:	a0 91 2c 01 	lds	r26, 0x012C
    2d2a:	b0 91 2d 01 	lds	r27, 0x012D
    2d2e:	f9 01       	movw	r30, r18
    2d30:	80 83       	st	Z, r24
    2d32:	91 83       	std	Z+1, r25	; 0x01
    2d34:	a2 83       	std	Z+2, r26	; 0x02
    2d36:	b3 83       	std	Z+3, r27	; 0x03
/home/becker/async/autosafe/trunk/tum/wcet-cbmc/benchmarks/nsichneu/nsichneu.c:850
    2d38:	9e 01       	movw	r18, r28
    2d3a:	2d 5c       	subi	r18, 0xCD	; 205
    2d3c:	3e 4f       	sbci	r19, 0xFE	; 254
    2d3e:	ce 01       	movw	r24, r28
    2d40:	81 5d       	subi	r24, 0xD1	; 209
    2d42:	9e 4f       	sbci	r25, 0xFE	; 254
    2d44:	f9 01       	movw	r30, r18
    2d46:	20 81       	ld	r18, Z
    2d48:	31 81       	ldd	r19, Z+1	; 0x01
    2d4a:	42 81       	ldd	r20, Z+2	; 0x02
    2d4c:	53 81       	ldd	r21, Z+3	; 0x03
    2d4e:	fc 01       	movw	r30, r24
    2d50:	80 81       	ld	r24, Z
    2d52:	91 81       	ldd	r25, Z+1	; 0x01
    2d54:	a2 81       	ldd	r26, Z+2	; 0x02
    2d56:	b3 81       	ldd	r27, Z+3	; 0x03
    2d58:	82 17       	cp	r24, r18
    2d5a:	93 07       	cpc	r25, r19
    2d5c:	a4 07       	cpc	r26, r20
    2d5e:	b5 07       	cpc	r27, r21
    2d60:	0c f0       	brlt	.+2      	; 0x2d64 <__stack+0x1c65>
    2d62:	78 c0       	rjmp	.+240    	; 0x2e54 <__stack+0x1d55>
/home/becker/async/autosafe/trunk/tum/wcet-cbmc/benchmarks/nsichneu/nsichneu.c:853
    2d64:	80 91 02 01 	lds	r24, 0x0102
    2d68:	90 91 03 01 	lds	r25, 0x0103
    2d6c:	04 97       	sbiw	r24, 0x04	; 4
    2d6e:	90 93 03 01 	sts	0x0103, r25
    2d72:	80 93 02 01 	sts	0x0102, r24
/home/becker/async/autosafe/trunk/tum/wcet-cbmc/benchmarks/nsichneu/nsichneu.c:856
    2d76:	be 01       	movw	r22, r28
    2d78:	69 5c       	subi	r22, 0xC9	; 201
    2d7a:	7e 4f       	sbci	r23, 0xFE	; 254
    2d7c:	9e 01       	movw	r18, r28
    2d7e:	21 5d       	subi	r18, 0xD1	; 209
    2d80:	3e 4f       	sbci	r19, 0xFE	; 254
    2d82:	ce 01       	movw	r24, r28
    2d84:	8d 5c       	subi	r24, 0xCD	; 205
    2d86:	9e 4f       	sbci	r25, 0xFE	; 254
    2d88:	f9 01       	movw	r30, r18
    2d8a:	20 81       	ld	r18, Z
    2d8c:	31 81       	ldd	r19, Z+1	; 0x01
    2d8e:	42 81       	ldd	r20, Z+2	; 0x02
    2d90:	53 81       	ldd	r21, Z+3	; 0x03
    2d92:	fc 01       	movw	r30, r24
    2d94:	80 81       	ld	r24, Z
    2d96:	91 81       	ldd	r25, Z+1	; 0x01
    2d98:	a2 81       	ldd	r26, Z+2	; 0x02
    2d9a:	b3 81       	ldd	r27, Z+3	; 0x03
    2d9c:	82 0f       	add	r24, r18
    2d9e:	93 1f       	adc	r25, r19
    2da0:	a4 1f       	adc	r26, r20
    2da2:	b5 1f       	adc	r27, r21
    2da4:	fb 01       	movw	r30, r22
    2da6:	80 83       	st	Z, r24
    2da8:	91 83       	std	Z+1, r25	; 0x01
    2daa:	a2 83       	std	Z+2, r26	; 0x02
    2dac:	b3 83       	std	Z+3, r27	; 0x03
/home/becker/async/autosafe/trunk/tum/wcet-cbmc/benchmarks/nsichneu/nsichneu.c:859
    2dae:	80 91 04 01 	lds	r24, 0x0104
    2db2:	90 91 05 01 	lds	r25, 0x0105
    2db6:	88 0f       	add	r24, r24
    2db8:	99 1f       	adc	r25, r25
    2dba:	88 0f       	add	r24, r24
    2dbc:	99 1f       	adc	r25, r25
    2dbe:	9c 01       	movw	r18, r24
    2dc0:	2a 5f       	subi	r18, 0xFA	; 250
    2dc2:	3e 4f       	sbci	r19, 0xFE	; 254
    2dc4:	ce 01       	movw	r24, r28
    2dc6:	81 5d       	subi	r24, 0xD1	; 209
    2dc8:	9e 4f       	sbci	r25, 0xFE	; 254
    2dca:	fc 01       	movw	r30, r24
    2dcc:	80 81       	ld	r24, Z
    2dce:	91 81       	ldd	r25, Z+1	; 0x01
    2dd0:	a2 81       	ldd	r26, Z+2	; 0x02
    2dd2:	b3 81       	ldd	r27, Z+3	; 0x03
    2dd4:	f9 01       	movw	r30, r18
    2dd6:	80 83       	st	Z, r24
    2dd8:	91 83       	std	Z+1, r25	; 0x01
    2dda:	a2 83       	std	Z+2, r26	; 0x02
    2ddc:	b3 83       	std	Z+3, r27	; 0x03
/home/becker/async/autosafe/trunk/tum/wcet-cbmc/benchmarks/nsichneu/nsichneu.c:860
    2dde:	80 91 04 01 	lds	r24, 0x0104
    2de2:	90 91 05 01 	lds	r25, 0x0105
    2de6:	01 96       	adiw	r24, 0x01	; 1
    2de8:	88 0f       	add	r24, r24
    2dea:	99 1f       	adc	r25, r25
    2dec:	88 0f       	add	r24, r24
    2dee:	99 1f       	adc	r25, r25
    2df0:	9c 01       	movw	r18, r24
    2df2:	2a 5f       	subi	r18, 0xFA	; 250
    2df4:	3e 4f       	sbci	r19, 0xFE	; 254
    2df6:	ce 01       	movw	r24, r28
    2df8:	8d 5c       	subi	r24, 0xCD	; 205
    2dfa:	9e 4f       	sbci	r25, 0xFE	; 254
    2dfc:	fc 01       	movw	r30, r24
    2dfe:	80 81       	ld	r24, Z
    2e00:	91 81       	ldd	r25, Z+1	; 0x01
    2e02:	a2 81       	ldd	r26, Z+2	; 0x02
    2e04:	b3 81       	ldd	r27, Z+3	; 0x03
    2e06:	f9 01       	movw	r30, r18
    2e08:	80 83       	st	Z, r24
    2e0a:	91 83       	std	Z+1, r25	; 0x01
    2e0c:	a2 83       	std	Z+2, r26	; 0x02
    2e0e:	b3 83       	std	Z+3, r27	; 0x03
/home/becker/async/autosafe/trunk/tum/wcet-cbmc/benchmarks/nsichneu/nsichneu.c:861
    2e10:	80 91 04 01 	lds	r24, 0x0104
    2e14:	90 91 05 01 	lds	r25, 0x0105
    2e18:	02 96       	adiw	r24, 0x02	; 2
    2e1a:	88 0f       	add	r24, r24
    2e1c:	99 1f       	adc	r25, r25
    2e1e:	88 0f       	add	r24, r24
    2e20:	99 1f       	adc	r25, r25
    2e22:	9c 01       	movw	r18, r24
    2e24:	2a 5f       	subi	r18, 0xFA	; 250
    2e26:	3e 4f       	sbci	r19, 0xFE	; 254
    2e28:	ce 01       	movw	r24, r28
    2e2a:	89 5c       	subi	r24, 0xC9	; 201
    2e2c:	9e 4f       	sbci	r25, 0xFE	; 254
    2e2e:	fc 01       	movw	r30, r24
    2e30:	80 81       	ld	r24, Z
    2e32:	91 81       	ldd	r25, Z+1	; 0x01
    2e34:	a2 81       	ldd	r26, Z+2	; 0x02
    2e36:	b3 81       	ldd	r27, Z+3	; 0x03
    2e38:	f9 01       	movw	r30, r18
    2e3a:	80 83       	st	Z, r24
    2e3c:	91 83       	std	Z+1, r25	; 0x01
    2e3e:	a2 83       	std	Z+2, r26	; 0x02
    2e40:	b3 83       	std	Z+3, r27	; 0x03
/home/becker/async/autosafe/trunk/tum/wcet-cbmc/benchmarks/nsichneu/nsichneu.c:862
    2e42:	80 91 04 01 	lds	r24, 0x0104
    2e46:	90 91 05 01 	lds	r25, 0x0105
    2e4a:	03 96       	adiw	r24, 0x03	; 3
    2e4c:	90 93 05 01 	sts	0x0105, r25
    2e50:	80 93 04 01 	sts	0x0104, r24
/home/becker/async/autosafe/trunk/tum/wcet-cbmc/benchmarks/nsichneu/nsichneu.c:870
    2e54:	80 91 02 01 	lds	r24, 0x0102
    2e58:	90 91 03 01 	lds	r25, 0x0103
    2e5c:	84 30       	cpi	r24, 0x04	; 4
    2e5e:	91 05       	cpc	r25, r1
    2e60:	0c f4       	brge	.+2      	; 0x2e64 <__stack+0x1d65>
    2e62:	e3 c0       	rjmp	.+454    	; 0x302a <__stack+0x1f2b>
/home/becker/async/autosafe/trunk/tum/wcet-cbmc/benchmarks/nsichneu/nsichneu.c:871
    2e64:	80 91 04 01 	lds	r24, 0x0104
    2e68:	90 91 05 01 	lds	r25, 0x0105
    2e6c:	03 96       	adiw	r24, 0x03	; 3
/home/becker/async/autosafe/trunk/tum/wcet-cbmc/benchmarks/nsichneu/nsichneu.c:870
    2e6e:	87 30       	cpi	r24, 0x07	; 7
    2e70:	91 05       	cpc	r25, r1
    2e72:	0c f0       	brlt	.+2      	; 0x2e76 <__stack+0x1d77>
    2e74:	da c0       	rjmp	.+436    	; 0x302a <__stack+0x1f2b>
/home/becker/async/autosafe/trunk/tum/wcet-cbmc/benchmarks/nsichneu/nsichneu.c:872
    2e76:	20 91 2e 01 	lds	r18, 0x012E
    2e7a:	30 91 2f 01 	lds	r19, 0x012F
    2e7e:	40 91 30 01 	lds	r20, 0x0130
    2e82:	50 91 31 01 	lds	r21, 0x0131
    2e86:	80 91 2a 01 	lds	r24, 0x012A
    2e8a:	90 91 2b 01 	lds	r25, 0x012B
    2e8e:	a0 91 2c 01 	lds	r26, 0x012C
    2e92:	b0 91 2d 01 	lds	r27, 0x012D
/home/becker/async/autosafe/trunk/tum/wcet-cbmc/benchmarks/nsichneu/nsichneu.c:871
    2e96:	28 17       	cp	r18, r24
    2e98:	39 07       	cpc	r19, r25
    2e9a:	4a 07       	cpc	r20, r26
    2e9c:	5b 07       	cpc	r21, r27
    2e9e:	09 f0       	breq	.+2      	; 0x2ea2 <__stack+0x1da3>
    2ea0:	c4 c0       	rjmp	.+392    	; 0x302a <__stack+0x1f2b>
/home/becker/async/autosafe/trunk/tum/wcet-cbmc/benchmarks/nsichneu/nsichneu.c:873
    2ea2:	20 91 2e 01 	lds	r18, 0x012E
    2ea6:	30 91 2f 01 	lds	r19, 0x012F
    2eaa:	40 91 30 01 	lds	r20, 0x0130
    2eae:	50 91 31 01 	lds	r21, 0x0131
    2eb2:	80 91 32 01 	lds	r24, 0x0132
    2eb6:	90 91 33 01 	lds	r25, 0x0133
    2eba:	a0 91 34 01 	lds	r26, 0x0134
    2ebe:	b0 91 35 01 	lds	r27, 0x0135
/home/becker/async/autosafe/trunk/tum/wcet-cbmc/benchmarks/nsichneu/nsichneu.c:872
    2ec2:	28 17       	cp	r18, r24
    2ec4:	39 07       	cpc	r19, r25
    2ec6:	4a 07       	cpc	r20, r26
    2ec8:	5b 07       	cpc	r21, r27
    2eca:	09 f0       	breq	.+2      	; 0x2ece <__stack+0x1dcf>
    2ecc:	ae c0       	rjmp	.+348    	; 0x302a <__stack+0x1f2b>
/home/becker/async/autosafe/trunk/tum/wcet-cbmc/benchmarks/nsichneu/nsichneu.c:879
    2ece:	9e 01       	movw	r18, r28
    2ed0:	25 5c       	subi	r18, 0xC5	; 197
    2ed2:	3e 4f       	sbci	r19, 0xFE	; 254
    2ed4:	80 91 36 01 	lds	r24, 0x0136
    2ed8:	90 91 37 01 	lds	r25, 0x0137
    2edc:	a0 91 38 01 	lds	r26, 0x0138
    2ee0:	b0 91 39 01 	lds	r27, 0x0139
    2ee4:	f9 01       	movw	r30, r18
    2ee6:	80 83       	st	Z, r24
    2ee8:	91 83       	std	Z+1, r25	; 0x01
    2eea:	a2 83       	std	Z+2, r26	; 0x02
    2eec:	b3 83       	std	Z+3, r27	; 0x03
/home/becker/async/autosafe/trunk/tum/wcet-cbmc/benchmarks/nsichneu/nsichneu.c:880
    2eee:	9e 01       	movw	r18, r28
    2ef0:	21 5c       	subi	r18, 0xC1	; 193
    2ef2:	3e 4f       	sbci	r19, 0xFE	; 254
    2ef4:	80 91 2e 01 	lds	r24, 0x012E
    2ef8:	90 91 2f 01 	lds	r25, 0x012F
    2efc:	a0 91 30 01 	lds	r26, 0x0130
    2f00:	b0 91 31 01 	lds	r27, 0x0131
    2f04:	f9 01       	movw	r30, r18
    2f06:	80 83       	st	Z, r24
    2f08:	91 83       	std	Z+1, r25	; 0x01
    2f0a:	a2 83       	std	Z+2, r26	; 0x02
    2f0c:	b3 83       	std	Z+3, r27	; 0x03
/home/becker/async/autosafe/trunk/tum/wcet-cbmc/benchmarks/nsichneu/nsichneu.c:883
    2f0e:	9e 01       	movw	r18, r28
    2f10:	21 5c       	subi	r18, 0xC1	; 193
    2f12:	3e 4f       	sbci	r19, 0xFE	; 254
    2f14:	ce 01       	movw	r24, r28
    2f16:	85 5c       	subi	r24, 0xC5	; 197
    2f18:	9e 4f       	sbci	r25, 0xFE	; 254
    2f1a:	f9 01       	movw	r30, r18
    2f1c:	20 81       	ld	r18, Z
    2f1e:	31 81       	ldd	r19, Z+1	; 0x01
    2f20:	42 81       	ldd	r20, Z+2	; 0x02
    2f22:	53 81       	ldd	r21, Z+3	; 0x03
    2f24:	fc 01       	movw	r30, r24
    2f26:	80 81       	ld	r24, Z
    2f28:	91 81       	ldd	r25, Z+1	; 0x01
    2f2a:	a2 81       	ldd	r26, Z+2	; 0x02
    2f2c:	b3 81       	ldd	r27, Z+3	; 0x03
    2f2e:	82 17       	cp	r24, r18
    2f30:	93 07       	cpc	r25, r19
    2f32:	a4 07       	cpc	r26, r20
    2f34:	b5 07       	cpc	r27, r21
    2f36:	0c f0       	brlt	.+2      	; 0x2f3a <__stack+0x1e3b>
    2f38:	78 c0       	rjmp	.+240    	; 0x302a <__stack+0x1f2b>
/home/becker/async/autosafe/trunk/tum/wcet-cbmc/benchmarks/nsichneu/nsichneu.c:886
    2f3a:	80 91 02 01 	lds	r24, 0x0102
    2f3e:	90 91 03 01 	lds	r25, 0x0103
    2f42:	04 97       	sbiw	r24, 0x04	; 4
    2f44:	90 93 03 01 	sts	0x0103, r25
    2f48:	80 93 02 01 	sts	0x0102, r24
/home/becker/async/autosafe/trunk/tum/wcet-cbmc/benchmarks/nsichneu/nsichneu.c:889
    2f4c:	be 01       	movw	r22, r28
    2f4e:	6d 5b       	subi	r22, 0xBD	; 189
    2f50:	7e 4f       	sbci	r23, 0xFE	; 254
    2f52:	9e 01       	movw	r18, r28
    2f54:	25 5c       	subi	r18, 0xC5	; 197
    2f56:	3e 4f       	sbci	r19, 0xFE	; 254
    2f58:	ce 01       	movw	r24, r28
    2f5a:	81 5c       	subi	r24, 0xC1	; 193
    2f5c:	9e 4f       	sbci	r25, 0xFE	; 254
    2f5e:	f9 01       	movw	r30, r18
    2f60:	20 81       	ld	r18, Z
    2f62:	31 81       	ldd	r19, Z+1	; 0x01
    2f64:	42 81       	ldd	r20, Z+2	; 0x02
    2f66:	53 81       	ldd	r21, Z+3	; 0x03
    2f68:	fc 01       	movw	r30, r24
    2f6a:	80 81       	ld	r24, Z
    2f6c:	91 81       	ldd	r25, Z+1	; 0x01
    2f6e:	a2 81       	ldd	r26, Z+2	; 0x02
    2f70:	b3 81       	ldd	r27, Z+3	; 0x03
    2f72:	82 0f       	add	r24, r18
    2f74:	93 1f       	adc	r25, r19
    2f76:	a4 1f       	adc	r26, r20
    2f78:	b5 1f       	adc	r27, r21
    2f7a:	fb 01       	movw	r30, r22
    2f7c:	80 83       	st	Z, r24
    2f7e:	91 83       	std	Z+1, r25	; 0x01
    2f80:	a2 83       	std	Z+2, r26	; 0x02
    2f82:	b3 83       	std	Z+3, r27	; 0x03
/home/becker/async/autosafe/trunk/tum/wcet-cbmc/benchmarks/nsichneu/nsichneu.c:892
    2f84:	80 91 04 01 	lds	r24, 0x0104
    2f88:	90 91 05 01 	lds	r25, 0x0105
    2f8c:	88 0f       	add	r24, r24
    2f8e:	99 1f       	adc	r25, r25
    2f90:	88 0f       	add	r24, r24
    2f92:	99 1f       	adc	r25, r25
    2f94:	9c 01       	movw	r18, r24
    2f96:	2a 5f       	subi	r18, 0xFA	; 250
    2f98:	3e 4f       	sbci	r19, 0xFE	; 254
    2f9a:	ce 01       	movw	r24, r28
    2f9c:	85 5c       	subi	r24, 0xC5	; 197
    2f9e:	9e 4f       	sbci	r25, 0xFE	; 254
    2fa0:	fc 01       	movw	r30, r24
    2fa2:	80 81       	ld	r24, Z
    2fa4:	91 81       	ldd	r25, Z+1	; 0x01
    2fa6:	a2 81       	ldd	r26, Z+2	; 0x02
    2fa8:	b3 81       	ldd	r27, Z+3	; 0x03
    2faa:	f9 01       	movw	r30, r18
    2fac:	80 83       	st	Z, r24
    2fae:	91 83       	std	Z+1, r25	; 0x01
    2fb0:	a2 83       	std	Z+2, r26	; 0x02
    2fb2:	b3 83       	std	Z+3, r27	; 0x03
/home/becker/async/autosafe/trunk/tum/wcet-cbmc/benchmarks/nsichneu/nsichneu.c:893
    2fb4:	80 91 04 01 	lds	r24, 0x0104
    2fb8:	90 91 05 01 	lds	r25, 0x0105
    2fbc:	01 96       	adiw	r24, 0x01	; 1
    2fbe:	88 0f       	add	r24, r24
    2fc0:	99 1f       	adc	r25, r25
    2fc2:	88 0f       	add	r24, r24
    2fc4:	99 1f       	adc	r25, r25
    2fc6:	9c 01       	movw	r18, r24
    2fc8:	2a 5f       	subi	r18, 0xFA	; 250
    2fca:	3e 4f       	sbci	r19, 0xFE	; 254
    2fcc:	ce 01       	movw	r24, r28
    2fce:	81 5c       	subi	r24, 0xC1	; 193
    2fd0:	9e 4f       	sbci	r25, 0xFE	; 254
    2fd2:	fc 01       	movw	r30, r24
    2fd4:	80 81       	ld	r24, Z
    2fd6:	91 81       	ldd	r25, Z+1	; 0x01
    2fd8:	a2 81       	ldd	r26, Z+2	; 0x02
    2fda:	b3 81       	ldd	r27, Z+3	; 0x03
    2fdc:	f9 01       	movw	r30, r18
    2fde:	80 83       	st	Z, r24
    2fe0:	91 83       	std	Z+1, r25	; 0x01
    2fe2:	a2 83       	std	Z+2, r26	; 0x02
    2fe4:	b3 83       	std	Z+3, r27	; 0x03
/home/becker/async/autosafe/trunk/tum/wcet-cbmc/benchmarks/nsichneu/nsichneu.c:894
    2fe6:	80 91 04 01 	lds	r24, 0x0104
    2fea:	90 91 05 01 	lds	r25, 0x0105
    2fee:	02 96       	adiw	r24, 0x02	; 2
    2ff0:	88 0f       	add	r24, r24
    2ff2:	99 1f       	adc	r25, r25
    2ff4:	88 0f       	add	r24, r24
    2ff6:	99 1f       	adc	r25, r25
    2ff8:	9c 01       	movw	r18, r24
    2ffa:	2a 5f       	subi	r18, 0xFA	; 250
    2ffc:	3e 4f       	sbci	r19, 0xFE	; 254
    2ffe:	ce 01       	movw	r24, r28
    3000:	8d 5b       	subi	r24, 0xBD	; 189
    3002:	9e 4f       	sbci	r25, 0xFE	; 254
    3004:	fc 01       	movw	r30, r24
    3006:	80 81       	ld	r24, Z
    3008:	91 81       	ldd	r25, Z+1	; 0x01
    300a:	a2 81       	ldd	r26, Z+2	; 0x02
    300c:	b3 81       	ldd	r27, Z+3	; 0x03
    300e:	f9 01       	movw	r30, r18
    3010:	80 83       	st	Z, r24
    3012:	91 83       	std	Z+1, r25	; 0x01
    3014:	a2 83       	std	Z+2, r26	; 0x02
    3016:	b3 83       	std	Z+3, r27	; 0x03
/home/becker/async/autosafe/trunk/tum/wcet-cbmc/benchmarks/nsichneu/nsichneu.c:895
    3018:	80 91 04 01 	lds	r24, 0x0104
    301c:	90 91 05 01 	lds	r25, 0x0105
    3020:	03 96       	adiw	r24, 0x03	; 3
    3022:	90 93 05 01 	sts	0x0105, r25
    3026:	80 93 04 01 	sts	0x0104, r24
/home/becker/async/autosafe/trunk/tum/wcet-cbmc/benchmarks/nsichneu/nsichneu.c:903
    302a:	80 91 02 01 	lds	r24, 0x0102
    302e:	90 91 03 01 	lds	r25, 0x0103
    3032:	84 30       	cpi	r24, 0x04	; 4
    3034:	91 05       	cpc	r25, r1
    3036:	0c f4       	brge	.+2      	; 0x303a <__stack+0x1f3b>
    3038:	e3 c0       	rjmp	.+454    	; 0x3200 <__stack+0x2101>
/home/becker/async/autosafe/trunk/tum/wcet-cbmc/benchmarks/nsichneu/nsichneu.c:904
    303a:	80 91 04 01 	lds	r24, 0x0104
    303e:	90 91 05 01 	lds	r25, 0x0105
    3042:	03 96       	adiw	r24, 0x03	; 3
/home/becker/async/autosafe/trunk/tum/wcet-cbmc/benchmarks/nsichneu/nsichneu.c:903
    3044:	87 30       	cpi	r24, 0x07	; 7
    3046:	91 05       	cpc	r25, r1
    3048:	0c f0       	brlt	.+2      	; 0x304c <__stack+0x1f4d>
    304a:	da c0       	rjmp	.+436    	; 0x3200 <__stack+0x2101>
/home/becker/async/autosafe/trunk/tum/wcet-cbmc/benchmarks/nsichneu/nsichneu.c:905
    304c:	20 91 2e 01 	lds	r18, 0x012E
    3050:	30 91 2f 01 	lds	r19, 0x012F
    3054:	40 91 30 01 	lds	r20, 0x0130
    3058:	50 91 31 01 	lds	r21, 0x0131
    305c:	80 91 32 01 	lds	r24, 0x0132
    3060:	90 91 33 01 	lds	r25, 0x0133
    3064:	a0 91 34 01 	lds	r26, 0x0134
    3068:	b0 91 35 01 	lds	r27, 0x0135
/home/becker/async/autosafe/trunk/tum/wcet-cbmc/benchmarks/nsichneu/nsichneu.c:904
    306c:	28 17       	cp	r18, r24
    306e:	39 07       	cpc	r19, r25
    3070:	4a 07       	cpc	r20, r26
    3072:	5b 07       	cpc	r21, r27
    3074:	09 f0       	breq	.+2      	; 0x3078 <__stack+0x1f79>
    3076:	c4 c0       	rjmp	.+392    	; 0x3200 <__stack+0x2101>
/home/becker/async/autosafe/trunk/tum/wcet-cbmc/benchmarks/nsichneu/nsichneu.c:906
    3078:	20 91 2e 01 	lds	r18, 0x012E
    307c:	30 91 2f 01 	lds	r19, 0x012F
    3080:	40 91 30 01 	lds	r20, 0x0130
    3084:	50 91 31 01 	lds	r21, 0x0131
    3088:	80 91 2a 01 	lds	r24, 0x012A
    308c:	90 91 2b 01 	lds	r25, 0x012B
    3090:	a0 91 2c 01 	lds	r26, 0x012C
    3094:	b0 91 2d 01 	lds	r27, 0x012D
/home/becker/async/autosafe/trunk/tum/wcet-cbmc/benchmarks/nsichneu/nsichneu.c:905
    3098:	28 17       	cp	r18, r24
    309a:	39 07       	cpc	r19, r25
    309c:	4a 07       	cpc	r20, r26
    309e:	5b 07       	cpc	r21, r27
    30a0:	09 f0       	breq	.+2      	; 0x30a4 <__stack+0x1fa5>
    30a2:	ae c0       	rjmp	.+348    	; 0x3200 <__stack+0x2101>
/home/becker/async/autosafe/trunk/tum/wcet-cbmc/benchmarks/nsichneu/nsichneu.c:912
    30a4:	9e 01       	movw	r18, r28
    30a6:	29 5b       	subi	r18, 0xB9	; 185
    30a8:	3e 4f       	sbci	r19, 0xFE	; 254
    30aa:	80 91 36 01 	lds	r24, 0x0136
    30ae:	90 91 37 01 	lds	r25, 0x0137
    30b2:	a0 91 38 01 	lds	r26, 0x0138
    30b6:	b0 91 39 01 	lds	r27, 0x0139
    30ba:	f9 01       	movw	r30, r18
    30bc:	80 83       	st	Z, r24
    30be:	91 83       	std	Z+1, r25	; 0x01
    30c0:	a2 83       	std	Z+2, r26	; 0x02
    30c2:	b3 83       	std	Z+3, r27	; 0x03
/home/becker/async/autosafe/trunk/tum/wcet-cbmc/benchmarks/nsichneu/nsichneu.c:913
    30c4:	9e 01       	movw	r18, r28
    30c6:	25 5b       	subi	r18, 0xB5	; 181
    30c8:	3e 4f       	sbci	r19, 0xFE	; 254
    30ca:	80 91 2e 01 	lds	r24, 0x012E
    30ce:	90 91 2f 01 	lds	r25, 0x012F
    30d2:	a0 91 30 01 	lds	r26, 0x0130
    30d6:	b0 91 31 01 	lds	r27, 0x0131
    30da:	f9 01       	movw	r30, r18
    30dc:	80 83       	st	Z, r24
    30de:	91 83       	std	Z+1, r25	; 0x01
    30e0:	a2 83       	std	Z+2, r26	; 0x02
    30e2:	b3 83       	std	Z+3, r27	; 0x03
/home/becker/async/autosafe/trunk/tum/wcet-cbmc/benchmarks/nsichneu/nsichneu.c:916
    30e4:	9e 01       	movw	r18, r28
    30e6:	25 5b       	subi	r18, 0xB5	; 181
    30e8:	3e 4f       	sbci	r19, 0xFE	; 254
    30ea:	ce 01       	movw	r24, r28
    30ec:	89 5b       	subi	r24, 0xB9	; 185
    30ee:	9e 4f       	sbci	r25, 0xFE	; 254
    30f0:	f9 01       	movw	r30, r18
    30f2:	20 81       	ld	r18, Z
    30f4:	31 81       	ldd	r19, Z+1	; 0x01
    30f6:	42 81       	ldd	r20, Z+2	; 0x02
    30f8:	53 81       	ldd	r21, Z+3	; 0x03
    30fa:	fc 01       	movw	r30, r24
    30fc:	80 81       	ld	r24, Z
    30fe:	91 81       	ldd	r25, Z+1	; 0x01
    3100:	a2 81       	ldd	r26, Z+2	; 0x02
    3102:	b3 81       	ldd	r27, Z+3	; 0x03
    3104:	82 17       	cp	r24, r18
    3106:	93 07       	cpc	r25, r19
    3108:	a4 07       	cpc	r26, r20
    310a:	b5 07       	cpc	r27, r21
    310c:	0c f0       	brlt	.+2      	; 0x3110 <__stack+0x2011>
    310e:	78 c0       	rjmp	.+240    	; 0x3200 <__stack+0x2101>
/home/becker/async/autosafe/trunk/tum/wcet-cbmc/benchmarks/nsichneu/nsichneu.c:919
    3110:	80 91 02 01 	lds	r24, 0x0102
    3114:	90 91 03 01 	lds	r25, 0x0103
    3118:	04 97       	sbiw	r24, 0x04	; 4
    311a:	90 93 03 01 	sts	0x0103, r25
    311e:	80 93 02 01 	sts	0x0102, r24
/home/becker/async/autosafe/trunk/tum/wcet-cbmc/benchmarks/nsichneu/nsichneu.c:922
    3122:	be 01       	movw	r22, r28
    3124:	61 5b       	subi	r22, 0xB1	; 177
    3126:	7e 4f       	sbci	r23, 0xFE	; 254
    3128:	9e 01       	movw	r18, r28
    312a:	29 5b       	subi	r18, 0xB9	; 185
    312c:	3e 4f       	sbci	r19, 0xFE	; 254
    312e:	ce 01       	movw	r24, r28
    3130:	85 5b       	subi	r24, 0xB5	; 181
    3132:	9e 4f       	sbci	r25, 0xFE	; 254
    3134:	f9 01       	movw	r30, r18
    3136:	20 81       	ld	r18, Z
    3138:	31 81       	ldd	r19, Z+1	; 0x01
    313a:	42 81       	ldd	r20, Z+2	; 0x02
    313c:	53 81       	ldd	r21, Z+3	; 0x03
    313e:	fc 01       	movw	r30, r24
    3140:	80 81       	ld	r24, Z
    3142:	91 81       	ldd	r25, Z+1	; 0x01
    3144:	a2 81       	ldd	r26, Z+2	; 0x02
    3146:	b3 81       	ldd	r27, Z+3	; 0x03
    3148:	82 0f       	add	r24, r18
    314a:	93 1f       	adc	r25, r19
    314c:	a4 1f       	adc	r26, r20
    314e:	b5 1f       	adc	r27, r21
    3150:	fb 01       	movw	r30, r22
    3152:	80 83       	st	Z, r24
    3154:	91 83       	std	Z+1, r25	; 0x01
    3156:	a2 83       	std	Z+2, r26	; 0x02
    3158:	b3 83       	std	Z+3, r27	; 0x03
/home/becker/async/autosafe/trunk/tum/wcet-cbmc/benchmarks/nsichneu/nsichneu.c:925
    315a:	80 91 04 01 	lds	r24, 0x0104
    315e:	90 91 05 01 	lds	r25, 0x0105
    3162:	88 0f       	add	r24, r24
    3164:	99 1f       	adc	r25, r25
    3166:	88 0f       	add	r24, r24
    3168:	99 1f       	adc	r25, r25
    316a:	9c 01       	movw	r18, r24
    316c:	2a 5f       	subi	r18, 0xFA	; 250
    316e:	3e 4f       	sbci	r19, 0xFE	; 254
    3170:	ce 01       	movw	r24, r28
    3172:	89 5b       	subi	r24, 0xB9	; 185
    3174:	9e 4f       	sbci	r25, 0xFE	; 254
    3176:	fc 01       	movw	r30, r24
    3178:	80 81       	ld	r24, Z
    317a:	91 81       	ldd	r25, Z+1	; 0x01
    317c:	a2 81       	ldd	r26, Z+2	; 0x02
    317e:	b3 81       	ldd	r27, Z+3	; 0x03
    3180:	f9 01       	movw	r30, r18
    3182:	80 83       	st	Z, r24
    3184:	91 83       	std	Z+1, r25	; 0x01
    3186:	a2 83       	std	Z+2, r26	; 0x02
    3188:	b3 83       	std	Z+3, r27	; 0x03
/home/becker/async/autosafe/trunk/tum/wcet-cbmc/benchmarks/nsichneu/nsichneu.c:926
    318a:	80 91 04 01 	lds	r24, 0x0104
    318e:	90 91 05 01 	lds	r25, 0x0105
    3192:	01 96       	adiw	r24, 0x01	; 1
    3194:	88 0f       	add	r24, r24
    3196:	99 1f       	adc	r25, r25
    3198:	88 0f       	add	r24, r24
    319a:	99 1f       	adc	r25, r25
    319c:	9c 01       	movw	r18, r24
    319e:	2a 5f       	subi	r18, 0xFA	; 250
    31a0:	3e 4f       	sbci	r19, 0xFE	; 254
    31a2:	ce 01       	movw	r24, r28
    31a4:	85 5b       	subi	r24, 0xB5	; 181
    31a6:	9e 4f       	sbci	r25, 0xFE	; 254
    31a8:	fc 01       	movw	r30, r24
    31aa:	80 81       	ld	r24, Z
    31ac:	91 81       	ldd	r25, Z+1	; 0x01
    31ae:	a2 81       	ldd	r26, Z+2	; 0x02
    31b0:	b3 81       	ldd	r27, Z+3	; 0x03
