
main.elf:     file format elf32-avr


Disassembly of section .text:

00000000 <__vectors>:
__vectors():
../../../../crt1/gcrt1.S:52
       0:	0c 94 46 00 	jmp	0x8c	; 0x8c <__ctors_end>
../../../../crt1/gcrt1.S:53
       4:	0c 94 65 00 	jmp	0xca	; 0xca <__bad_interrupt>
../../../../crt1/gcrt1.S:54
       8:	0c 94 65 00 	jmp	0xca	; 0xca <__bad_interrupt>
../../../../crt1/gcrt1.S:55
       c:	0c 94 65 00 	jmp	0xca	; 0xca <__bad_interrupt>
../../../../crt1/gcrt1.S:56
      10:	0c 94 65 00 	jmp	0xca	; 0xca <__bad_interrupt>
../../../../crt1/gcrt1.S:57
      14:	0c 94 65 00 	jmp	0xca	; 0xca <__bad_interrupt>
../../../../crt1/gcrt1.S:58
      18:	0c 94 65 00 	jmp	0xca	; 0xca <__bad_interrupt>
../../../../crt1/gcrt1.S:59
      1c:	0c 94 65 00 	jmp	0xca	; 0xca <__bad_interrupt>
../../../../crt1/gcrt1.S:60
      20:	0c 94 65 00 	jmp	0xca	; 0xca <__bad_interrupt>
../../../../crt1/gcrt1.S:61
      24:	0c 94 65 00 	jmp	0xca	; 0xca <__bad_interrupt>
../../../../crt1/gcrt1.S:62
      28:	0c 94 65 00 	jmp	0xca	; 0xca <__bad_interrupt>
../../../../crt1/gcrt1.S:63
      2c:	0c 94 65 00 	jmp	0xca	; 0xca <__bad_interrupt>
../../../../crt1/gcrt1.S:64
      30:	0c 94 65 00 	jmp	0xca	; 0xca <__bad_interrupt>
../../../../crt1/gcrt1.S:65
      34:	0c 94 65 00 	jmp	0xca	; 0xca <__bad_interrupt>
../../../../crt1/gcrt1.S:66
      38:	0c 94 65 00 	jmp	0xca	; 0xca <__bad_interrupt>
../../../../crt1/gcrt1.S:67
      3c:	0c 94 65 00 	jmp	0xca	; 0xca <__bad_interrupt>
../../../../crt1/gcrt1.S:68
      40:	0c 94 65 00 	jmp	0xca	; 0xca <__bad_interrupt>
../../../../crt1/gcrt1.S:69
      44:	0c 94 65 00 	jmp	0xca	; 0xca <__bad_interrupt>
../../../../crt1/gcrt1.S:70
      48:	0c 94 65 00 	jmp	0xca	; 0xca <__bad_interrupt>
../../../../crt1/gcrt1.S:71
      4c:	0c 94 65 00 	jmp	0xca	; 0xca <__bad_interrupt>
../../../../crt1/gcrt1.S:72
      50:	0c 94 65 00 	jmp	0xca	; 0xca <__bad_interrupt>
../../../../crt1/gcrt1.S:73
      54:	0c 94 65 00 	jmp	0xca	; 0xca <__bad_interrupt>
../../../../crt1/gcrt1.S:74
      58:	0c 94 65 00 	jmp	0xca	; 0xca <__bad_interrupt>
../../../../crt1/gcrt1.S:75
      5c:	0c 94 65 00 	jmp	0xca	; 0xca <__bad_interrupt>
../../../../crt1/gcrt1.S:76
      60:	0c 94 65 00 	jmp	0xca	; 0xca <__bad_interrupt>
../../../../crt1/gcrt1.S:77
      64:	0c 94 65 00 	jmp	0xca	; 0xca <__bad_interrupt>
../../../../crt1/gcrt1.S:78
      68:	0c 94 65 00 	jmp	0xca	; 0xca <__bad_interrupt>
../../../../crt1/gcrt1.S:79
      6c:	0c 94 65 00 	jmp	0xca	; 0xca <__bad_interrupt>
../../../../crt1/gcrt1.S:80
      70:	0c 94 65 00 	jmp	0xca	; 0xca <__bad_interrupt>
../../../../crt1/gcrt1.S:81
      74:	0c 94 65 00 	jmp	0xca	; 0xca <__bad_interrupt>
../../../../crt1/gcrt1.S:82
      78:	0c 94 65 00 	jmp	0xca	; 0xca <__bad_interrupt>
../../../../crt1/gcrt1.S:83
      7c:	0c 94 65 00 	jmp	0xca	; 0xca <__bad_interrupt>
../../../../crt1/gcrt1.S:84
      80:	0c 94 65 00 	jmp	0xca	; 0xca <__bad_interrupt>
../../../../crt1/gcrt1.S:85
      84:	0c 94 65 00 	jmp	0xca	; 0xca <__bad_interrupt>
../../../../crt1/gcrt1.S:86
      88:	0c 94 65 00 	jmp	0xca	; 0xca <__bad_interrupt>

0000008c <__ctors_end>:
../../../../crt1/gcrt1.S:179
      8c:	11 24       	eor	r1, r1
      8e:	1f be       	out	0x3f, r1	; 63
      90:	cf ef       	ldi	r28, 0xFF	; 255
      92:	d0 e1       	ldi	r29, 0x10	; 16
      94:	de bf       	out	0x3e, r29	; 62
      96:	cd bf       	out	0x3d, r28	; 61

00000098 <__do_copy_data>:
      98:	14 e0       	ldi	r17, 0x04	; 4
      9a:	a0 e0       	ldi	r26, 0x00	; 0
      9c:	b1 e0       	ldi	r27, 0x01	; 1
      9e:	e0 e0       	ldi	r30, 0x00	; 0
      a0:	f4 e1       	ldi	r31, 0x14	; 20
      a2:	00 e0       	ldi	r16, 0x00	; 0
      a4:	0b bf       	out	0x3b, r16	; 59
      a6:	02 c0       	rjmp	.+4      	; 0xac <__do_copy_data+0x14>
      a8:	07 90       	elpm	r0, Z+
      aa:	0d 92       	st	X+, r0
      ac:	a4 3e       	cpi	r26, 0xE4	; 228
      ae:	b1 07       	cpc	r27, r17
      b0:	d9 f7       	brne	.-10     	; 0xa8 <__do_copy_data+0x10>

000000b2 <__do_clear_bss>:
      b2:	16 e0       	ldi	r17, 0x06	; 6
      b4:	a4 ee       	ldi	r26, 0xE4	; 228
      b6:	b4 e0       	ldi	r27, 0x04	; 4
      b8:	01 c0       	rjmp	.+2      	; 0xbc <.do_clear_bss_start>

000000ba <.do_clear_bss_loop>:
      ba:	1d 92       	st	X+, r1

000000bc <.do_clear_bss_start>:
      bc:	ac 33       	cpi	r26, 0x3C	; 60
      be:	b1 07       	cpc	r27, r17
      c0:	e1 f7       	brne	.-8      	; 0xba <.do_clear_bss_loop>
      c2:	0e 94 86 09 	call	0x130c	; 0x130c <main>
      c6:	0c 94 fe 09 	jmp	0x13fc	; 0x13fc <_exit>

000000ca <__bad_interrupt>:
__bad_interrupt():
../../../../crt1/gcrt1.S:195
      ca:	0c 94 00 00 	jmp	0	; 0x0 <__vectors>

000000ce <des>:
des():
/home/becker/async/autosafe/trunk/tum/wcet-cbmc/benchmarks/ndes/ndes.c:44
      ce:	4f 92       	push	r4
      d0:	5f 92       	push	r5
      d2:	6f 92       	push	r6
      d4:	7f 92       	push	r7
      d6:	8f 92       	push	r8
      d8:	9f 92       	push	r9
      da:	af 92       	push	r10
      dc:	bf 92       	push	r11
      de:	cf 92       	push	r12
      e0:	df 92       	push	r13
      e2:	ef 92       	push	r14
      e4:	ff 92       	push	r15
      e6:	0f 93       	push	r16
      e8:	1f 93       	push	r17
      ea:	cf 93       	push	r28
      ec:	df 93       	push	r29
      ee:	cd b7       	in	r28, 0x3d	; 61
      f0:	de b7       	in	r29, 0x3e	; 62
      f2:	e6 97       	sbiw	r28, 0x36	; 54
      f4:	0f b6       	in	r0, 0x3f	; 63
      f6:	f8 94       	cli
      f8:	de bf       	out	0x3e, r29	; 62
      fa:	0f be       	out	0x3f, r0	; 63
      fc:	cd bf       	out	0x3d, r28	; 61
      fe:	2d a3       	std	Y+37, r18	; 0x25
     100:	3e a3       	std	Y+38, r19	; 0x26
     102:	4f a3       	std	Y+39, r20	; 0x27
     104:	58 a7       	std	Y+40, r21	; 0x28
     106:	69 a7       	std	Y+41, r22	; 0x29
     108:	7a a7       	std	Y+42, r23	; 0x2a
     10a:	8b a7       	std	Y+43, r24	; 0x2b
     10c:	9c a7       	std	Y+44, r25	; 0x2c
     10e:	ad a6       	std	Y+45, r10	; 0x2d
     110:	be a6       	std	Y+46, r11	; 0x2e
     112:	cf a6       	std	Y+47, r12	; 0x2f
     114:	d8 aa       	std	Y+48, r13	; 0x30
     116:	e9 aa       	std	Y+49, r14	; 0x31
     118:	fa aa       	std	Y+50, r15	; 0x32
     11a:	0b ab       	std	Y+51, r16	; 0x33
     11c:	1c ab       	std	Y+52, r17	; 0x34
     11e:	9e aa       	std	Y+54, r9	; 0x36
     120:	8d aa       	std	Y+53, r8	; 0x35
/home/becker/async/autosafe/trunk/tum/wcet-cbmc/benchmarks/ndes/ndes.c:69
     122:	80 91 60 04 	lds	r24, 0x0460
     126:	90 91 61 04 	lds	r25, 0x0461
     12a:	00 97       	sbiw	r24, 0x00	; 0
     12c:	09 f4       	brne	.+2      	; 0x130 <des+0x62>
     12e:	45 c0       	rjmp	.+138    	; 0x1ba <des+0xec>
/home/becker/async/autosafe/trunk/tum/wcet-cbmc/benchmarks/ndes/ndes.c:70
     130:	10 92 61 04 	sts	0x0461, r1
     134:	10 92 60 04 	sts	0x0460, r1
/home/becker/async/autosafe/trunk/tum/wcet-cbmc/benchmarks/ndes/ndes.c:71
     138:	81 e0       	ldi	r24, 0x01	; 1
     13a:	90 e0       	ldi	r25, 0x00	; 0
     13c:	a0 e0       	ldi	r26, 0x00	; 0
     13e:	b0 e0       	ldi	r27, 0x00	; 0
     140:	8f 83       	std	Y+7, r24	; 0x07
     142:	98 87       	std	Y+8, r25	; 0x08
     144:	a9 87       	std	Y+9, r26	; 0x09
     146:	ba 87       	std	Y+10, r27	; 0x0a
     148:	8f 81       	ldd	r24, Y+7	; 0x07
     14a:	98 85       	ldd	r25, Y+8	; 0x08
     14c:	a9 85       	ldd	r26, Y+9	; 0x09
     14e:	ba 85       	ldd	r27, Y+10	; 0x0a
     150:	80 93 bc 05 	sts	0x05BC, r24
     154:	90 93 bd 05 	sts	0x05BD, r25
     158:	a0 93 be 05 	sts	0x05BE, r26
     15c:	b0 93 bf 05 	sts	0x05BF, r27
/home/becker/async/autosafe/trunk/tum/wcet-cbmc/benchmarks/ndes/ndes.c:72
     160:	82 e0       	ldi	r24, 0x02	; 2
     162:	90 e0       	ldi	r25, 0x00	; 0
     164:	9c 83       	std	Y+4, r25	; 0x04
     166:	8b 83       	std	Y+3, r24	; 0x03
     168:	23 c0       	rjmp	.+70     	; 0x1b0 <des+0xe2>
     16a:	8f 81       	ldd	r24, Y+7	; 0x07
     16c:	98 85       	ldd	r25, Y+8	; 0x08
     16e:	a9 85       	ldd	r26, Y+9	; 0x09
     170:	ba 85       	ldd	r27, Y+10	; 0x0a
     172:	88 0f       	add	r24, r24
     174:	99 1f       	adc	r25, r25
     176:	aa 1f       	adc	r26, r26
     178:	bb 1f       	adc	r27, r27
     17a:	8f 83       	std	Y+7, r24	; 0x07
     17c:	98 87       	std	Y+8, r25	; 0x08
     17e:	a9 87       	std	Y+9, r26	; 0x09
     180:	ba 87       	std	Y+10, r27	; 0x0a
     182:	8b 81       	ldd	r24, Y+3	; 0x03
     184:	9c 81       	ldd	r25, Y+4	; 0x04
     186:	88 0f       	add	r24, r24
     188:	99 1f       	adc	r25, r25
     18a:	88 0f       	add	r24, r24
     18c:	99 1f       	adc	r25, r25
     18e:	9c 01       	movw	r18, r24
     190:	28 54       	subi	r18, 0x48	; 72
     192:	3a 4f       	sbci	r19, 0xFA	; 250
     194:	8f 81       	ldd	r24, Y+7	; 0x07
     196:	98 85       	ldd	r25, Y+8	; 0x08
     198:	a9 85       	ldd	r26, Y+9	; 0x09
     19a:	ba 85       	ldd	r27, Y+10	; 0x0a
     19c:	f9 01       	movw	r30, r18
     19e:	80 83       	st	Z, r24
     1a0:	91 83       	std	Z+1, r25	; 0x01
     1a2:	a2 83       	std	Z+2, r26	; 0x02
     1a4:	b3 83       	std	Z+3, r27	; 0x03
     1a6:	8b 81       	ldd	r24, Y+3	; 0x03
     1a8:	9c 81       	ldd	r25, Y+4	; 0x04
     1aa:	01 96       	adiw	r24, 0x01	; 1
     1ac:	9c 83       	std	Y+4, r25	; 0x04
     1ae:	8b 83       	std	Y+3, r24	; 0x03
     1b0:	8b 81       	ldd	r24, Y+3	; 0x03
     1b2:	9c 81       	ldd	r25, Y+4	; 0x04
     1b4:	81 32       	cpi	r24, 0x21	; 33
     1b6:	91 05       	cpc	r25, r1
     1b8:	c4 f2       	brlt	.-80     	; 0x16a <des+0x9c>
/home/becker/async/autosafe/trunk/tum/wcet-cbmc/benchmarks/ndes/ndes.c:74
     1ba:	8d a9       	ldd	r24, Y+53	; 0x35
     1bc:	9e a9       	ldd	r25, Y+54	; 0x36
     1be:	fc 01       	movw	r30, r24
     1c0:	80 81       	ld	r24, Z
     1c2:	91 81       	ldd	r25, Z+1	; 0x01
     1c4:	00 97       	sbiw	r24, 0x00	; 0
     1c6:	09 f4       	brne	.+2      	; 0x1ca <des+0xfc>
     1c8:	f9 c0       	rjmp	.+498    	; 0x3bc <des+0x2ee>
/home/becker/async/autosafe/trunk/tum/wcet-cbmc/benchmarks/ndes/ndes.c:75
     1ca:	8d a9       	ldd	r24, Y+53	; 0x35
     1cc:	9e a9       	ldd	r25, Y+54	; 0x36
     1ce:	fc 01       	movw	r30, r24
     1d0:	11 82       	std	Z+1, r1	; 0x01
     1d2:	10 82       	st	Z, r1
/home/becker/async/autosafe/trunk/tum/wcet-cbmc/benchmarks/ndes/ndes.c:76
     1d4:	10 92 e4 04 	sts	0x04E4, r1
     1d8:	10 92 e5 04 	sts	0x04E5, r1
     1dc:	10 92 e6 04 	sts	0x04E6, r1
     1e0:	10 92 e7 04 	sts	0x04E7, r1
     1e4:	80 91 e4 04 	lds	r24, 0x04E4
     1e8:	90 91 e5 04 	lds	r25, 0x04E5
     1ec:	a0 91 e6 04 	lds	r26, 0x04E6
     1f0:	b0 91 e7 04 	lds	r27, 0x04E7
     1f4:	80 93 e8 04 	sts	0x04E8, r24
     1f8:	90 93 e9 04 	sts	0x04E9, r25
     1fc:	a0 93 ea 04 	sts	0x04EA, r26
     200:	b0 93 eb 04 	sts	0x04EB, r27
/home/becker/async/autosafe/trunk/tum/wcet-cbmc/benchmarks/ndes/ndes.c:77
     204:	8c e1       	ldi	r24, 0x1C	; 28
     206:	90 e0       	ldi	r25, 0x00	; 0
     208:	9c 83       	std	Y+4, r25	; 0x04
     20a:	8b 83       	std	Y+3, r24	; 0x03
     20c:	88 e3       	ldi	r24, 0x38	; 56
     20e:	90 e0       	ldi	r25, 0x00	; 0
     210:	9e 83       	std	Y+6, r25	; 0x06
     212:	8d 83       	std	Y+5, r24	; 0x05
     214:	8c c0       	rjmp	.+280    	; 0x32e <des+0x260>
/home/becker/async/autosafe/trunk/tum/wcet-cbmc/benchmarks/ndes/ndes.c:78
     216:	80 91 e8 04 	lds	r24, 0x04E8
     21a:	90 91 e9 04 	lds	r25, 0x04E9
     21e:	a0 91 ea 04 	lds	r26, 0x04EA
     222:	b0 91 eb 04 	lds	r27, 0x04EB
     226:	88 0f       	add	r24, r24
     228:	99 1f       	adc	r25, r25
     22a:	aa 1f       	adc	r26, r26
     22c:	bb 1f       	adc	r27, r27
     22e:	80 93 e8 04 	sts	0x04E8, r24
     232:	90 93 e9 04 	sts	0x04E9, r25
     236:	a0 93 ea 04 	sts	0x04EA, r26
     23a:	b0 93 eb 04 	sts	0x04EB, r27
     23e:	a0 90 e8 04 	lds	r10, 0x04E8
     242:	b0 90 e9 04 	lds	r11, 0x04E9
     246:	c0 90 ea 04 	lds	r12, 0x04EA
     24a:	d0 90 eb 04 	lds	r13, 0x04EB
     24e:	8b 81       	ldd	r24, Y+3	; 0x03
     250:	9c 81       	ldd	r25, Y+4	; 0x04
     252:	80 50       	subi	r24, 0x00	; 0
     254:	9f 4f       	sbci	r25, 0xFF	; 255
     256:	fc 01       	movw	r30, r24
     258:	80 81       	ld	r24, Z
     25a:	88 2f       	mov	r24, r24
     25c:	90 e0       	ldi	r25, 0x00	; 0
     25e:	68 94       	set
     260:	ee 24       	eor	r14, r14
     262:	e5 f8       	bld	r14, 5
     264:	f1 2c       	mov	r15, r1
     266:	8c 01       	movw	r16, r24
     268:	2d a5       	ldd	r18, Y+45	; 0x2d
     26a:	3e a5       	ldd	r19, Y+46	; 0x2e
     26c:	4f a5       	ldd	r20, Y+47	; 0x2f
     26e:	58 a9       	ldd	r21, Y+48	; 0x30
     270:	69 a9       	ldd	r22, Y+49	; 0x31
     272:	7a a9       	ldd	r23, Y+50	; 0x32
     274:	8b a9       	ldd	r24, Y+51	; 0x33
     276:	9c a9       	ldd	r25, Y+52	; 0x34
     278:	0e 94 c7 03 	call	0x78e	; 0x78e <getbit>
     27c:	dc 01       	movw	r26, r24
     27e:	cb 01       	movw	r24, r22
     280:	8a 29       	or	r24, r10
     282:	9b 29       	or	r25, r11
     284:	ac 29       	or	r26, r12
     286:	bd 29       	or	r27, r13
     288:	80 93 e8 04 	sts	0x04E8, r24
     28c:	90 93 e9 04 	sts	0x04E9, r25
     290:	a0 93 ea 04 	sts	0x04EA, r26
     294:	b0 93 eb 04 	sts	0x04EB, r27
/home/becker/async/autosafe/trunk/tum/wcet-cbmc/benchmarks/ndes/ndes.c:79
     298:	80 91 e4 04 	lds	r24, 0x04E4
     29c:	90 91 e5 04 	lds	r25, 0x04E5
     2a0:	a0 91 e6 04 	lds	r26, 0x04E6
     2a4:	b0 91 e7 04 	lds	r27, 0x04E7
     2a8:	88 0f       	add	r24, r24
     2aa:	99 1f       	adc	r25, r25
     2ac:	aa 1f       	adc	r26, r26
     2ae:	bb 1f       	adc	r27, r27
     2b0:	80 93 e4 04 	sts	0x04E4, r24
     2b4:	90 93 e5 04 	sts	0x04E5, r25
     2b8:	a0 93 e6 04 	sts	0x04E6, r26
     2bc:	b0 93 e7 04 	sts	0x04E7, r27
     2c0:	a0 90 e4 04 	lds	r10, 0x04E4
     2c4:	b0 90 e5 04 	lds	r11, 0x04E5
     2c8:	c0 90 e6 04 	lds	r12, 0x04E6
     2cc:	d0 90 e7 04 	lds	r13, 0x04E7
     2d0:	8d 81       	ldd	r24, Y+5	; 0x05
     2d2:	9e 81       	ldd	r25, Y+6	; 0x06
     2d4:	80 50       	subi	r24, 0x00	; 0
     2d6:	9f 4f       	sbci	r25, 0xFF	; 255
     2d8:	fc 01       	movw	r30, r24
     2da:	80 81       	ld	r24, Z
     2dc:	88 2f       	mov	r24, r24
     2de:	90 e0       	ldi	r25, 0x00	; 0
     2e0:	68 94       	set
     2e2:	ee 24       	eor	r14, r14
     2e4:	e5 f8       	bld	r14, 5
     2e6:	f1 2c       	mov	r15, r1
     2e8:	8c 01       	movw	r16, r24
     2ea:	2d a5       	ldd	r18, Y+45	; 0x2d
     2ec:	3e a5       	ldd	r19, Y+46	; 0x2e
     2ee:	4f a5       	ldd	r20, Y+47	; 0x2f
     2f0:	58 a9       	ldd	r21, Y+48	; 0x30
     2f2:	69 a9       	ldd	r22, Y+49	; 0x31
     2f4:	7a a9       	ldd	r23, Y+50	; 0x32
     2f6:	8b a9       	ldd	r24, Y+51	; 0x33
     2f8:	9c a9       	ldd	r25, Y+52	; 0x34
     2fa:	0e 94 c7 03 	call	0x78e	; 0x78e <getbit>
     2fe:	dc 01       	movw	r26, r24
     300:	cb 01       	movw	r24, r22
     302:	8a 29       	or	r24, r10
     304:	9b 29       	or	r25, r11
     306:	ac 29       	or	r26, r12
     308:	bd 29       	or	r27, r13
     30a:	80 93 e4 04 	sts	0x04E4, r24
     30e:	90 93 e5 04 	sts	0x04E5, r25
     312:	a0 93 e6 04 	sts	0x04E6, r26
     316:	b0 93 e7 04 	sts	0x04E7, r27
/home/becker/async/autosafe/trunk/tum/wcet-cbmc/benchmarks/ndes/ndes.c:77
     31a:	8b 81       	ldd	r24, Y+3	; 0x03
     31c:	9c 81       	ldd	r25, Y+4	; 0x04
     31e:	01 97       	sbiw	r24, 0x01	; 1
     320:	9c 83       	std	Y+4, r25	; 0x04
     322:	8b 83       	std	Y+3, r24	; 0x03
     324:	8d 81       	ldd	r24, Y+5	; 0x05
     326:	9e 81       	ldd	r25, Y+6	; 0x06
     328:	01 97       	sbiw	r24, 0x01	; 1
     32a:	9e 83       	std	Y+6, r25	; 0x06
     32c:	8d 83       	std	Y+5, r24	; 0x05
     32e:	8b 81       	ldd	r24, Y+3	; 0x03
     330:	9c 81       	ldd	r25, Y+4	; 0x04
     332:	18 16       	cp	r1, r24
     334:	19 06       	cpc	r1, r25
     336:	0c f4       	brge	.+2      	; 0x33a <des+0x26c>
     338:	6e cf       	rjmp	.-292    	; 0x216 <des+0x148>
/home/becker/async/autosafe/trunk/tum/wcet-cbmc/benchmarks/ndes/ndes.c:82
     33a:	81 e0       	ldi	r24, 0x01	; 1
     33c:	90 e0       	ldi	r25, 0x00	; 0
     33e:	9a 83       	std	Y+2, r25	; 0x02
     340:	89 83       	std	Y+1, r24	; 0x01
     342:	37 c0       	rjmp	.+110    	; 0x3b2 <des+0x2e4>
     344:	29 81       	ldd	r18, Y+1	; 0x01
     346:	3a 81       	ldd	r19, Y+2	; 0x02
     348:	c9 01       	movw	r24, r18
     34a:	88 0f       	add	r24, r24
     34c:	99 1f       	adc	r25, r25
     34e:	82 0f       	add	r24, r18
     350:	93 1f       	adc	r25, r19
     352:	88 0f       	add	r24, r24
     354:	99 1f       	adc	r25, r25
     356:	88 0f       	add	r24, r24
     358:	99 1f       	adc	r25, r25
     35a:	84 51       	subi	r24, 0x14	; 20
     35c:	9b 4f       	sbci	r25, 0xFB	; 251
     35e:	2c e0       	ldi	r18, 0x0C	; 12
     360:	fc 01       	movw	r30, r24
     362:	de 01       	movw	r26, r28
     364:	59 96       	adiw	r26, 0x19	; 25
     366:	01 90       	ld	r0, Z+
     368:	0d 92       	st	X+, r0
     36a:	2a 95       	dec	r18
     36c:	e1 f7       	brne	.-8      	; 0x366 <des+0x298>
     36e:	9e 01       	movw	r18, r28
     370:	27 5e       	subi	r18, 0xE7	; 231
     372:	3f 4f       	sbci	r19, 0xFF	; 255
     374:	89 81       	ldd	r24, Y+1	; 0x01
     376:	9a 81       	ldd	r25, Y+2	; 0x02
     378:	b9 01       	movw	r22, r18
     37a:	0e 94 40 04 	call	0x880	; 0x880 <ks>
     37e:	29 81       	ldd	r18, Y+1	; 0x01
     380:	3a 81       	ldd	r19, Y+2	; 0x02
     382:	c9 01       	movw	r24, r18
     384:	88 0f       	add	r24, r24
     386:	99 1f       	adc	r25, r25
     388:	82 0f       	add	r24, r18
     38a:	93 1f       	adc	r25, r19
     38c:	88 0f       	add	r24, r24
     38e:	99 1f       	adc	r25, r25
     390:	88 0f       	add	r24, r24
     392:	99 1f       	adc	r25, r25
     394:	84 51       	subi	r24, 0x14	; 20
     396:	9b 4f       	sbci	r25, 0xFB	; 251
     398:	2c e0       	ldi	r18, 0x0C	; 12
     39a:	fe 01       	movw	r30, r28
     39c:	79 96       	adiw	r30, 0x19	; 25
     39e:	dc 01       	movw	r26, r24
     3a0:	01 90       	ld	r0, Z+
     3a2:	0d 92       	st	X+, r0
     3a4:	2a 95       	dec	r18
     3a6:	e1 f7       	brne	.-8      	; 0x3a0 <des+0x2d2>
     3a8:	89 81       	ldd	r24, Y+1	; 0x01
     3aa:	9a 81       	ldd	r25, Y+2	; 0x02
     3ac:	01 96       	adiw	r24, 0x01	; 1
     3ae:	9a 83       	std	Y+2, r25	; 0x02
     3b0:	89 83       	std	Y+1, r24	; 0x01
     3b2:	89 81       	ldd	r24, Y+1	; 0x01
     3b4:	9a 81       	ldd	r25, Y+2	; 0x02
     3b6:	81 31       	cpi	r24, 0x11	; 17
     3b8:	91 05       	cpc	r25, r1
     3ba:	24 f2       	brlt	.-120    	; 0x344 <des+0x276>
/home/becker/async/autosafe/trunk/tum/wcet-cbmc/benchmarks/ndes/ndes.c:84
     3bc:	19 8a       	std	Y+17, r1	; 0x11
     3be:	1a 8a       	std	Y+18, r1	; 0x12
     3c0:	1b 8a       	std	Y+19, r1	; 0x13
     3c2:	1c 8a       	std	Y+20, r1	; 0x14
     3c4:	89 89       	ldd	r24, Y+17	; 0x11
     3c6:	9a 89       	ldd	r25, Y+18	; 0x12
     3c8:	ab 89       	ldd	r26, Y+19	; 0x13
     3ca:	bc 89       	ldd	r27, Y+20	; 0x14
     3cc:	8d 8b       	std	Y+21, r24	; 0x15
     3ce:	9e 8b       	std	Y+22, r25	; 0x16
     3d0:	af 8b       	std	Y+23, r26	; 0x17
     3d2:	b8 8f       	std	Y+24, r27	; 0x18
/home/becker/async/autosafe/trunk/tum/wcet-cbmc/benchmarks/ndes/ndes.c:85
     3d4:	80 e2       	ldi	r24, 0x20	; 32
     3d6:	90 e0       	ldi	r25, 0x00	; 0
     3d8:	9c 83       	std	Y+4, r25	; 0x04
     3da:	8b 83       	std	Y+3, r24	; 0x03
     3dc:	80 e4       	ldi	r24, 0x40	; 64
     3de:	90 e0       	ldi	r25, 0x00	; 0
     3e0:	9e 83       	std	Y+6, r25	; 0x06
     3e2:	8d 83       	std	Y+5, r24	; 0x05
     3e4:	6c c0       	rjmp	.+216    	; 0x4be <des+0x3f0>
/home/becker/async/autosafe/trunk/tum/wcet-cbmc/benchmarks/ndes/ndes.c:86
     3e6:	8d 89       	ldd	r24, Y+21	; 0x15
     3e8:	9e 89       	ldd	r25, Y+22	; 0x16
     3ea:	af 89       	ldd	r26, Y+23	; 0x17
     3ec:	b8 8d       	ldd	r27, Y+24	; 0x18
     3ee:	88 0f       	add	r24, r24
     3f0:	99 1f       	adc	r25, r25
     3f2:	aa 1f       	adc	r26, r26
     3f4:	bb 1f       	adc	r27, r27
     3f6:	8d 8b       	std	Y+21, r24	; 0x15
     3f8:	9e 8b       	std	Y+22, r25	; 0x16
     3fa:	af 8b       	std	Y+23, r26	; 0x17
     3fc:	b8 8f       	std	Y+24, r27	; 0x18
     3fe:	ad 88       	ldd	r10, Y+21	; 0x15
     400:	be 88       	ldd	r11, Y+22	; 0x16
     402:	cf 88       	ldd	r12, Y+23	; 0x17
     404:	d8 8c       	ldd	r13, Y+24	; 0x18
     406:	8b 81       	ldd	r24, Y+3	; 0x03
     408:	9c 81       	ldd	r25, Y+4	; 0x04
     40a:	8e 59       	subi	r24, 0x9E	; 158
     40c:	9b 4f       	sbci	r25, 0xFB	; 251
     40e:	fc 01       	movw	r30, r24
     410:	80 81       	ld	r24, Z
     412:	88 2f       	mov	r24, r24
     414:	90 e0       	ldi	r25, 0x00	; 0
     416:	68 94       	set
     418:	ee 24       	eor	r14, r14
     41a:	e5 f8       	bld	r14, 5
     41c:	f1 2c       	mov	r15, r1
     41e:	8c 01       	movw	r16, r24
     420:	2d a1       	ldd	r18, Y+37	; 0x25
     422:	3e a1       	ldd	r19, Y+38	; 0x26
     424:	4f a1       	ldd	r20, Y+39	; 0x27
     426:	58 a5       	ldd	r21, Y+40	; 0x28
     428:	69 a5       	ldd	r22, Y+41	; 0x29
     42a:	7a a5       	ldd	r23, Y+42	; 0x2a
     42c:	8b a5       	ldd	r24, Y+43	; 0x2b
     42e:	9c a5       	ldd	r25, Y+44	; 0x2c
     430:	0e 94 c7 03 	call	0x78e	; 0x78e <getbit>
     434:	dc 01       	movw	r26, r24
     436:	cb 01       	movw	r24, r22
     438:	8a 29       	or	r24, r10
     43a:	9b 29       	or	r25, r11
     43c:	ac 29       	or	r26, r12
     43e:	bd 29       	or	r27, r13
     440:	8d 8b       	std	Y+21, r24	; 0x15
     442:	9e 8b       	std	Y+22, r25	; 0x16
     444:	af 8b       	std	Y+23, r26	; 0x17
     446:	b8 8f       	std	Y+24, r27	; 0x18
/home/becker/async/autosafe/trunk/tum/wcet-cbmc/benchmarks/ndes/ndes.c:87
     448:	89 89       	ldd	r24, Y+17	; 0x11
     44a:	9a 89       	ldd	r25, Y+18	; 0x12
     44c:	ab 89       	ldd	r26, Y+19	; 0x13
     44e:	bc 89       	ldd	r27, Y+20	; 0x14
     450:	88 0f       	add	r24, r24
     452:	99 1f       	adc	r25, r25
     454:	aa 1f       	adc	r26, r26
     456:	bb 1f       	adc	r27, r27
     458:	89 8b       	std	Y+17, r24	; 0x11
     45a:	9a 8b       	std	Y+18, r25	; 0x12
     45c:	ab 8b       	std	Y+19, r26	; 0x13
     45e:	bc 8b       	std	Y+20, r27	; 0x14
     460:	a9 88       	ldd	r10, Y+17	; 0x11
     462:	ba 88       	ldd	r11, Y+18	; 0x12
     464:	cb 88       	ldd	r12, Y+19	; 0x13
     466:	dc 88       	ldd	r13, Y+20	; 0x14
     468:	8d 81       	ldd	r24, Y+5	; 0x05
     46a:	9e 81       	ldd	r25, Y+6	; 0x06
     46c:	8e 59       	subi	r24, 0x9E	; 158
     46e:	9b 4f       	sbci	r25, 0xFB	; 251
     470:	fc 01       	movw	r30, r24
     472:	80 81       	ld	r24, Z
     474:	88 2f       	mov	r24, r24
     476:	90 e0       	ldi	r25, 0x00	; 0
     478:	68 94       	set
     47a:	ee 24       	eor	r14, r14
     47c:	e5 f8       	bld	r14, 5
     47e:	f1 2c       	mov	r15, r1
     480:	8c 01       	movw	r16, r24
     482:	2d a1       	ldd	r18, Y+37	; 0x25
     484:	3e a1       	ldd	r19, Y+38	; 0x26
     486:	4f a1       	ldd	r20, Y+39	; 0x27
     488:	58 a5       	ldd	r21, Y+40	; 0x28
     48a:	69 a5       	ldd	r22, Y+41	; 0x29
     48c:	7a a5       	ldd	r23, Y+42	; 0x2a
     48e:	8b a5       	ldd	r24, Y+43	; 0x2b
     490:	9c a5       	ldd	r25, Y+44	; 0x2c
     492:	0e 94 c7 03 	call	0x78e	; 0x78e <getbit>
     496:	dc 01       	movw	r26, r24
     498:	cb 01       	movw	r24, r22
     49a:	8a 29       	or	r24, r10
     49c:	9b 29       	or	r25, r11
     49e:	ac 29       	or	r26, r12
     4a0:	bd 29       	or	r27, r13
     4a2:	89 8b       	std	Y+17, r24	; 0x11
     4a4:	9a 8b       	std	Y+18, r25	; 0x12
     4a6:	ab 8b       	std	Y+19, r26	; 0x13
     4a8:	bc 8b       	std	Y+20, r27	; 0x14
/home/becker/async/autosafe/trunk/tum/wcet-cbmc/benchmarks/ndes/ndes.c:85
     4aa:	8b 81       	ldd	r24, Y+3	; 0x03
     4ac:	9c 81       	ldd	r25, Y+4	; 0x04
     4ae:	01 97       	sbiw	r24, 0x01	; 1
     4b0:	9c 83       	std	Y+4, r25	; 0x04
     4b2:	8b 83       	std	Y+3, r24	; 0x03
     4b4:	8d 81       	ldd	r24, Y+5	; 0x05
     4b6:	9e 81       	ldd	r25, Y+6	; 0x06
     4b8:	01 97       	sbiw	r24, 0x01	; 1
     4ba:	9e 83       	std	Y+6, r25	; 0x06
     4bc:	8d 83       	std	Y+5, r24	; 0x05
     4be:	8b 81       	ldd	r24, Y+3	; 0x03
     4c0:	9c 81       	ldd	r25, Y+4	; 0x04
     4c2:	18 16       	cp	r1, r24
     4c4:	19 06       	cpc	r1, r25
     4c6:	0c f4       	brge	.+2      	; 0x4ca <des+0x3fc>
     4c8:	8e cf       	rjmp	.-228    	; 0x3e6 <des+0x318>
/home/becker/async/autosafe/trunk/tum/wcet-cbmc/benchmarks/ndes/ndes.c:89
     4ca:	81 e0       	ldi	r24, 0x01	; 1
     4cc:	90 e0       	ldi	r25, 0x00	; 0
     4ce:	9a 83       	std	Y+2, r25	; 0x02
     4d0:	89 83       	std	Y+1, r24	; 0x01
     4d2:	6a c0       	rjmp	.+212    	; 0x5a8 <des+0x4da>
/home/becker/async/autosafe/trunk/tum/wcet-cbmc/benchmarks/ndes/ndes.c:90
     4d4:	2b 96       	adiw	r28, 0x0b	; 11
     4d6:	8e ad       	ldd	r24, Y+62	; 0x3e
     4d8:	9f ad       	ldd	r25, Y+63	; 0x3f
     4da:	2b 97       	sbiw	r28, 0x0b	; 11
     4dc:	81 30       	cpi	r24, 0x01	; 1
     4de:	91 05       	cpc	r25, r1
     4e0:	49 f4       	brne	.+18     	; 0x4f4 <des+0x426>
     4e2:	21 e1       	ldi	r18, 0x11	; 17
     4e4:	30 e0       	ldi	r19, 0x00	; 0
     4e6:	89 81       	ldd	r24, Y+1	; 0x01
     4e8:	9a 81       	ldd	r25, Y+2	; 0x02
     4ea:	a9 01       	movw	r20, r18
     4ec:	48 1b       	sub	r20, r24
     4ee:	59 0b       	sbc	r21, r25
     4f0:	ca 01       	movw	r24, r20
     4f2:	02 c0       	rjmp	.+4      	; 0x4f8 <des+0x42a>
     4f4:	89 81       	ldd	r24, Y+1	; 0x01
     4f6:	9a 81       	ldd	r25, Y+2	; 0x02
     4f8:	9c 87       	std	Y+12, r25	; 0x0c
     4fa:	8b 87       	std	Y+11, r24	; 0x0b
/home/becker/async/autosafe/trunk/tum/wcet-cbmc/benchmarks/ndes/ndes.c:91
     4fc:	49 88       	ldd	r4, Y+17	; 0x11
     4fe:	5a 88       	ldd	r5, Y+18	; 0x12
     500:	6b 88       	ldd	r6, Y+19	; 0x13
     502:	7c 88       	ldd	r7, Y+20	; 0x14
     504:	ae 01       	movw	r20, r28
     506:	43 5f       	subi	r20, 0xF3	; 243
     508:	5f 4f       	sbci	r21, 0xFF	; 255
     50a:	2b 85       	ldd	r18, Y+11	; 0x0b
     50c:	3c 85       	ldd	r19, Y+12	; 0x0c
     50e:	c9 01       	movw	r24, r18
     510:	88 0f       	add	r24, r24
     512:	99 1f       	adc	r25, r25
     514:	82 0f       	add	r24, r18
     516:	93 1f       	adc	r25, r19
     518:	88 0f       	add	r24, r24
     51a:	99 1f       	adc	r25, r25
     51c:	88 0f       	add	r24, r24
     51e:	99 1f       	adc	r25, r25
     520:	84 51       	subi	r24, 0x14	; 20
     522:	9b 4f       	sbci	r25, 0xFB	; 251
     524:	4a 01       	movw	r8, r20
     526:	fc 01       	movw	r30, r24
     528:	a0 80       	ld	r10, Z
     52a:	fc 01       	movw	r30, r24
     52c:	b1 80       	ldd	r11, Z+1	; 0x01
     52e:	fc 01       	movw	r30, r24
     530:	c2 80       	ldd	r12, Z+2	; 0x02
     532:	fc 01       	movw	r30, r24
     534:	d3 80       	ldd	r13, Z+3	; 0x03
     536:	fc 01       	movw	r30, r24
     538:	e4 80       	ldd	r14, Z+4	; 0x04
     53a:	fc 01       	movw	r30, r24
     53c:	f5 80       	ldd	r15, Z+5	; 0x05
     53e:	fc 01       	movw	r30, r24
     540:	06 81       	ldd	r16, Z+6	; 0x06
     542:	fc 01       	movw	r30, r24
     544:	17 81       	ldd	r17, Z+7	; 0x07
     546:	fc 01       	movw	r30, r24
     548:	20 85       	ldd	r18, Z+8	; 0x08
     54a:	fc 01       	movw	r30, r24
     54c:	31 85       	ldd	r19, Z+9	; 0x09
     54e:	fc 01       	movw	r30, r24
     550:	42 85       	ldd	r20, Z+10	; 0x0a
     552:	fc 01       	movw	r30, r24
     554:	53 85       	ldd	r21, Z+11	; 0x0b
     556:	c3 01       	movw	r24, r6
     558:	b2 01       	movw	r22, r4
     55a:	0e 94 61 06 	call	0xcc2	; 0xcc2 <cyfun>
/home/becker/async/autosafe/trunk/tum/wcet-cbmc/benchmarks/ndes/ndes.c:92
     55e:	2d 89       	ldd	r18, Y+21	; 0x15
     560:	3e 89       	ldd	r19, Y+22	; 0x16
     562:	4f 89       	ldd	r20, Y+23	; 0x17
     564:	58 8d       	ldd	r21, Y+24	; 0x18
     566:	8d 85       	ldd	r24, Y+13	; 0x0d
     568:	9e 85       	ldd	r25, Y+14	; 0x0e
     56a:	af 85       	ldd	r26, Y+15	; 0x0f
     56c:	b8 89       	ldd	r27, Y+16	; 0x10
     56e:	82 27       	eor	r24, r18
     570:	93 27       	eor	r25, r19
     572:	a4 27       	eor	r26, r20
     574:	b5 27       	eor	r27, r21
     576:	8d 87       	std	Y+13, r24	; 0x0d
     578:	9e 87       	std	Y+14, r25	; 0x0e
     57a:	af 87       	std	Y+15, r26	; 0x0f
     57c:	b8 8b       	std	Y+16, r27	; 0x10
/home/becker/async/autosafe/trunk/tum/wcet-cbmc/benchmarks/ndes/ndes.c:93
     57e:	89 89       	ldd	r24, Y+17	; 0x11
     580:	9a 89       	ldd	r25, Y+18	; 0x12
     582:	ab 89       	ldd	r26, Y+19	; 0x13
     584:	bc 89       	ldd	r27, Y+20	; 0x14
     586:	8d 8b       	std	Y+21, r24	; 0x15
     588:	9e 8b       	std	Y+22, r25	; 0x16
     58a:	af 8b       	std	Y+23, r26	; 0x17
     58c:	b8 8f       	std	Y+24, r27	; 0x18
/home/becker/async/autosafe/trunk/tum/wcet-cbmc/benchmarks/ndes/ndes.c:94
     58e:	8d 85       	ldd	r24, Y+13	; 0x0d
     590:	9e 85       	ldd	r25, Y+14	; 0x0e
     592:	af 85       	ldd	r26, Y+15	; 0x0f
     594:	b8 89       	ldd	r27, Y+16	; 0x10
     596:	89 8b       	std	Y+17, r24	; 0x11
     598:	9a 8b       	std	Y+18, r25	; 0x12
     59a:	ab 8b       	std	Y+19, r26	; 0x13
     59c:	bc 8b       	std	Y+20, r27	; 0x14
/home/becker/async/autosafe/trunk/tum/wcet-cbmc/benchmarks/ndes/ndes.c:89
     59e:	89 81       	ldd	r24, Y+1	; 0x01
     5a0:	9a 81       	ldd	r25, Y+2	; 0x02
     5a2:	01 96       	adiw	r24, 0x01	; 1
     5a4:	9a 83       	std	Y+2, r25	; 0x02
     5a6:	89 83       	std	Y+1, r24	; 0x01
     5a8:	89 81       	ldd	r24, Y+1	; 0x01
     5aa:	9a 81       	ldd	r25, Y+2	; 0x02
     5ac:	81 31       	cpi	r24, 0x11	; 17
     5ae:	91 05       	cpc	r25, r1
     5b0:	0c f4       	brge	.+2      	; 0x5b4 <des+0x4e6>
     5b2:	90 cf       	rjmp	.-224    	; 0x4d4 <des+0x406>
/home/becker/async/autosafe/trunk/tum/wcet-cbmc/benchmarks/ndes/ndes.c:96
     5b4:	8d 89       	ldd	r24, Y+21	; 0x15
     5b6:	9e 89       	ldd	r25, Y+22	; 0x16
     5b8:	af 89       	ldd	r26, Y+23	; 0x17
     5ba:	b8 8d       	ldd	r27, Y+24	; 0x18
     5bc:	8d 87       	std	Y+13, r24	; 0x0d
     5be:	9e 87       	std	Y+14, r25	; 0x0e
     5c0:	af 87       	std	Y+15, r26	; 0x0f
     5c2:	b8 8b       	std	Y+16, r27	; 0x10
/home/becker/async/autosafe/trunk/tum/wcet-cbmc/benchmarks/ndes/ndes.c:97
     5c4:	89 89       	ldd	r24, Y+17	; 0x11
     5c6:	9a 89       	ldd	r25, Y+18	; 0x12
     5c8:	ab 89       	ldd	r26, Y+19	; 0x13
     5ca:	bc 89       	ldd	r27, Y+20	; 0x14
     5cc:	8d 8b       	std	Y+21, r24	; 0x15
     5ce:	9e 8b       	std	Y+22, r25	; 0x16
     5d0:	af 8b       	std	Y+23, r26	; 0x17
     5d2:	b8 8f       	std	Y+24, r27	; 0x18
/home/becker/async/autosafe/trunk/tum/wcet-cbmc/benchmarks/ndes/ndes.c:98
     5d4:	8d 85       	ldd	r24, Y+13	; 0x0d
     5d6:	9e 85       	ldd	r25, Y+14	; 0x0e
     5d8:	af 85       	ldd	r26, Y+15	; 0x0f
     5da:	b8 89       	ldd	r27, Y+16	; 0x10
     5dc:	89 8b       	std	Y+17, r24	; 0x11
     5de:	9a 8b       	std	Y+18, r25	; 0x12
     5e0:	ab 8b       	std	Y+19, r26	; 0x13
     5e2:	bc 8b       	std	Y+20, r27	; 0x14
/home/becker/async/autosafe/trunk/tum/wcet-cbmc/benchmarks/ndes/ndes.c:99
     5e4:	2d 96       	adiw	r28, 0x0d	; 13
     5e6:	8e ad       	ldd	r24, Y+62	; 0x3e
     5e8:	9f ad       	ldd	r25, Y+63	; 0x3f
     5ea:	2d 97       	sbiw	r28, 0x0d	; 13
     5ec:	fc 01       	movw	r30, r24
     5ee:	10 82       	st	Z, r1
     5f0:	11 82       	std	Z+1, r1	; 0x01
     5f2:	12 82       	std	Z+2, r1	; 0x02
     5f4:	13 82       	std	Z+3, r1	; 0x03
     5f6:	2d 96       	adiw	r28, 0x0d	; 13
     5f8:	8e ad       	ldd	r24, Y+62	; 0x3e
     5fa:	9f ad       	ldd	r25, Y+63	; 0x3f
     5fc:	2d 97       	sbiw	r28, 0x0d	; 13
     5fe:	fc 01       	movw	r30, r24
     600:	80 81       	ld	r24, Z
     602:	91 81       	ldd	r25, Z+1	; 0x01
     604:	a2 81       	ldd	r26, Z+2	; 0x02
     606:	b3 81       	ldd	r27, Z+3	; 0x03
     608:	2d 96       	adiw	r28, 0x0d	; 13
     60a:	2e ad       	ldd	r18, Y+62	; 0x3e
     60c:	3f ad       	ldd	r19, Y+63	; 0x3f
     60e:	2d 97       	sbiw	r28, 0x0d	; 13
     610:	f9 01       	movw	r30, r18
     612:	84 83       	std	Z+4, r24	; 0x04
     614:	95 83       	std	Z+5, r25	; 0x05
     616:	a6 83       	std	Z+6, r26	; 0x06
     618:	b7 83       	std	Z+7, r27	; 0x07
/home/becker/async/autosafe/trunk/tum/wcet-cbmc/benchmarks/ndes/ndes.c:100
     61a:	80 e2       	ldi	r24, 0x20	; 32
     61c:	90 e0       	ldi	r25, 0x00	; 0
     61e:	9c 83       	std	Y+4, r25	; 0x04
     620:	8b 83       	std	Y+3, r24	; 0x03
     622:	80 e4       	ldi	r24, 0x40	; 64
     624:	90 e0       	ldi	r25, 0x00	; 0
     626:	9e 83       	std	Y+6, r25	; 0x06
     628:	8d 83       	std	Y+5, r24	; 0x05
     62a:	94 c0       	rjmp	.+296    	; 0x754 <des+0x686>
/home/becker/async/autosafe/trunk/tum/wcet-cbmc/benchmarks/ndes/ndes.c:101
     62c:	2d 96       	adiw	r28, 0x0d	; 13
     62e:	8e ad       	ldd	r24, Y+62	; 0x3e
     630:	9f ad       	ldd	r25, Y+63	; 0x3f
     632:	2d 97       	sbiw	r28, 0x0d	; 13
     634:	fc 01       	movw	r30, r24
     636:	84 81       	ldd	r24, Z+4	; 0x04
     638:	95 81       	ldd	r25, Z+5	; 0x05
     63a:	a6 81       	ldd	r26, Z+6	; 0x06
     63c:	b7 81       	ldd	r27, Z+7	; 0x07
     63e:	88 0f       	add	r24, r24
     640:	99 1f       	adc	r25, r25
     642:	aa 1f       	adc	r26, r26
     644:	bb 1f       	adc	r27, r27
     646:	2d 96       	adiw	r28, 0x0d	; 13
     648:	2e ad       	ldd	r18, Y+62	; 0x3e
     64a:	3f ad       	ldd	r19, Y+63	; 0x3f
     64c:	2d 97       	sbiw	r28, 0x0d	; 13
     64e:	f9 01       	movw	r30, r18
     650:	84 83       	std	Z+4, r24	; 0x04
     652:	95 83       	std	Z+5, r25	; 0x05
     654:	a6 83       	std	Z+6, r26	; 0x06
     656:	b7 83       	std	Z+7, r27	; 0x07
     658:	2d 96       	adiw	r28, 0x0d	; 13
     65a:	8e ad       	ldd	r24, Y+62	; 0x3e
     65c:	9f ad       	ldd	r25, Y+63	; 0x3f
     65e:	2d 97       	sbiw	r28, 0x0d	; 13
     660:	fc 01       	movw	r30, r24
     662:	a4 80       	ldd	r10, Z+4	; 0x04
     664:	b5 80       	ldd	r11, Z+5	; 0x05
     666:	c6 80       	ldd	r12, Z+6	; 0x06
     668:	d7 80       	ldd	r13, Z+7	; 0x07
     66a:	8b 81       	ldd	r24, Y+3	; 0x03
     66c:	9c 81       	ldd	r25, Y+4	; 0x04
     66e:	8d 55       	subi	r24, 0x5D	; 93
     670:	9b 4f       	sbci	r25, 0xFB	; 251
     672:	fc 01       	movw	r30, r24
     674:	80 81       	ld	r24, Z
     676:	88 2f       	mov	r24, r24
     678:	90 e0       	ldi	r25, 0x00	; 0
     67a:	68 94       	set
     67c:	ee 24       	eor	r14, r14
     67e:	e5 f8       	bld	r14, 5
     680:	f1 2c       	mov	r15, r1
     682:	8c 01       	movw	r16, r24
     684:	29 89       	ldd	r18, Y+17	; 0x11
     686:	3a 89       	ldd	r19, Y+18	; 0x12
     688:	4b 89       	ldd	r20, Y+19	; 0x13
     68a:	5c 89       	ldd	r21, Y+20	; 0x14
     68c:	6d 89       	ldd	r22, Y+21	; 0x15
     68e:	7e 89       	ldd	r23, Y+22	; 0x16
     690:	8f 89       	ldd	r24, Y+23	; 0x17
     692:	98 8d       	ldd	r25, Y+24	; 0x18
     694:	0e 94 c7 03 	call	0x78e	; 0x78e <getbit>
     698:	dc 01       	movw	r26, r24
     69a:	cb 01       	movw	r24, r22
     69c:	8a 29       	or	r24, r10
     69e:	9b 29       	or	r25, r11
     6a0:	ac 29       	or	r26, r12
     6a2:	bd 29       	or	r27, r13
     6a4:	2d 96       	adiw	r28, 0x0d	; 13
     6a6:	2e ad       	ldd	r18, Y+62	; 0x3e
     6a8:	3f ad       	ldd	r19, Y+63	; 0x3f
     6aa:	2d 97       	sbiw	r28, 0x0d	; 13
     6ac:	f9 01       	movw	r30, r18
     6ae:	84 83       	std	Z+4, r24	; 0x04
     6b0:	95 83       	std	Z+5, r25	; 0x05
     6b2:	a6 83       	std	Z+6, r26	; 0x06
     6b4:	b7 83       	std	Z+7, r27	; 0x07
/home/becker/async/autosafe/trunk/tum/wcet-cbmc/benchmarks/ndes/ndes.c:102
     6b6:	2d 96       	adiw	r28, 0x0d	; 13
     6b8:	8e ad       	ldd	r24, Y+62	; 0x3e
     6ba:	9f ad       	ldd	r25, Y+63	; 0x3f
     6bc:	2d 97       	sbiw	r28, 0x0d	; 13
     6be:	fc 01       	movw	r30, r24
     6c0:	80 81       	ld	r24, Z
     6c2:	91 81       	ldd	r25, Z+1	; 0x01
     6c4:	a2 81       	ldd	r26, Z+2	; 0x02
     6c6:	b3 81       	ldd	r27, Z+3	; 0x03
     6c8:	88 0f       	add	r24, r24
     6ca:	99 1f       	adc	r25, r25
     6cc:	aa 1f       	adc	r26, r26
     6ce:	bb 1f       	adc	r27, r27
     6d0:	2d 96       	adiw	r28, 0x0d	; 13
     6d2:	2e ad       	ldd	r18, Y+62	; 0x3e
     6d4:	3f ad       	ldd	r19, Y+63	; 0x3f
     6d6:	2d 97       	sbiw	r28, 0x0d	; 13
     6d8:	f9 01       	movw	r30, r18
     6da:	80 83       	st	Z, r24
     6dc:	91 83       	std	Z+1, r25	; 0x01
     6de:	a2 83       	std	Z+2, r26	; 0x02
     6e0:	b3 83       	std	Z+3, r27	; 0x03
     6e2:	2d 96       	adiw	r28, 0x0d	; 13
     6e4:	8e ad       	ldd	r24, Y+62	; 0x3e
     6e6:	9f ad       	ldd	r25, Y+63	; 0x3f
     6e8:	2d 97       	sbiw	r28, 0x0d	; 13
     6ea:	fc 01       	movw	r30, r24
     6ec:	a0 80       	ld	r10, Z
     6ee:	b1 80       	ldd	r11, Z+1	; 0x01
     6f0:	c2 80       	ldd	r12, Z+2	; 0x02
     6f2:	d3 80       	ldd	r13, Z+3	; 0x03
     6f4:	8d 81       	ldd	r24, Y+5	; 0x05
     6f6:	9e 81       	ldd	r25, Y+6	; 0x06
     6f8:	8d 55       	subi	r24, 0x5D	; 93
     6fa:	9b 4f       	sbci	r25, 0xFB	; 251
     6fc:	fc 01       	movw	r30, r24
     6fe:	80 81       	ld	r24, Z
     700:	88 2f       	mov	r24, r24
     702:	90 e0       	ldi	r25, 0x00	; 0
     704:	68 94       	set
     706:	ee 24       	eor	r14, r14
     708:	e5 f8       	bld	r14, 5
     70a:	f1 2c       	mov	r15, r1
     70c:	8c 01       	movw	r16, r24
     70e:	29 89       	ldd	r18, Y+17	; 0x11
     710:	3a 89       	ldd	r19, Y+18	; 0x12
     712:	4b 89       	ldd	r20, Y+19	; 0x13
     714:	5c 89       	ldd	r21, Y+20	; 0x14
     716:	6d 89       	ldd	r22, Y+21	; 0x15
     718:	7e 89       	ldd	r23, Y+22	; 0x16
     71a:	8f 89       	ldd	r24, Y+23	; 0x17
     71c:	98 8d       	ldd	r25, Y+24	; 0x18
     71e:	0e 94 c7 03 	call	0x78e	; 0x78e <getbit>
     722:	dc 01       	movw	r26, r24
     724:	cb 01       	movw	r24, r22
     726:	8a 29       	or	r24, r10
     728:	9b 29       	or	r25, r11
     72a:	ac 29       	or	r26, r12
     72c:	bd 29       	or	r27, r13
     72e:	2d 96       	adiw	r28, 0x0d	; 13
     730:	2e ad       	ldd	r18, Y+62	; 0x3e
     732:	3f ad       	ldd	r19, Y+63	; 0x3f
     734:	2d 97       	sbiw	r28, 0x0d	; 13
     736:	f9 01       	movw	r30, r18
     738:	80 83       	st	Z, r24
     73a:	91 83       	std	Z+1, r25	; 0x01
     73c:	a2 83       	std	Z+2, r26	; 0x02
     73e:	b3 83       	std	Z+3, r27	; 0x03
/home/becker/async/autosafe/trunk/tum/wcet-cbmc/benchmarks/ndes/ndes.c:100
     740:	8b 81       	ldd	r24, Y+3	; 0x03
     742:	9c 81       	ldd	r25, Y+4	; 0x04
     744:	01 97       	sbiw	r24, 0x01	; 1
     746:	9c 83       	std	Y+4, r25	; 0x04
     748:	8b 83       	std	Y+3, r24	; 0x03
     74a:	8d 81       	ldd	r24, Y+5	; 0x05
     74c:	9e 81       	ldd	r25, Y+6	; 0x06
     74e:	01 97       	sbiw	r24, 0x01	; 1
     750:	9e 83       	std	Y+6, r25	; 0x06
     752:	8d 83       	std	Y+5, r24	; 0x05
     754:	8b 81       	ldd	r24, Y+3	; 0x03
     756:	9c 81       	ldd	r25, Y+4	; 0x04
     758:	18 16       	cp	r1, r24
     75a:	19 06       	cpc	r1, r25
     75c:	0c f4       	brge	.+2      	; 0x760 <des+0x692>
     75e:	66 cf       	rjmp	.-308    	; 0x62c <des+0x55e>
/home/becker/async/autosafe/trunk/tum/wcet-cbmc/benchmarks/ndes/ndes.c:104
     760:	e6 96       	adiw	r28, 0x36	; 54
     762:	0f b6       	in	r0, 0x3f	; 63
     764:	f8 94       	cli
     766:	de bf       	out	0x3e, r29	; 62
     768:	0f be       	out	0x3f, r0	; 63
     76a:	cd bf       	out	0x3d, r28	; 61
     76c:	df 91       	pop	r29
     76e:	cf 91       	pop	r28
     770:	1f 91       	pop	r17
     772:	0f 91       	pop	r16
     774:	ff 90       	pop	r15
     776:	ef 90       	pop	r14
     778:	df 90       	pop	r13
     77a:	cf 90       	pop	r12
     77c:	bf 90       	pop	r11
     77e:	af 90       	pop	r10
     780:	9f 90       	pop	r9
     782:	8f 90       	pop	r8
     784:	7f 90       	pop	r7
     786:	6f 90       	pop	r6
     788:	5f 90       	pop	r5
     78a:	4f 90       	pop	r4
     78c:	08 95       	ret

0000078e <getbit>:
getbit():
/home/becker/async/autosafe/trunk/tum/wcet-cbmc/benchmarks/ndes/ndes.c:105
     78e:	ef 92       	push	r14
     790:	ff 92       	push	r15
     792:	0f 93       	push	r16
     794:	1f 93       	push	r17
     796:	cf 93       	push	r28
     798:	df 93       	push	r29
     79a:	cd b7       	in	r28, 0x3d	; 61
     79c:	de b7       	in	r29, 0x3e	; 62
     79e:	2c 97       	sbiw	r28, 0x0c	; 12
     7a0:	0f b6       	in	r0, 0x3f	; 63
     7a2:	f8 94       	cli
     7a4:	de bf       	out	0x3e, r29	; 62
     7a6:	0f be       	out	0x3f, r0	; 63
     7a8:	cd bf       	out	0x3d, r28	; 61
     7aa:	29 83       	std	Y+1, r18	; 0x01
     7ac:	3a 83       	std	Y+2, r19	; 0x02
     7ae:	4b 83       	std	Y+3, r20	; 0x03
     7b0:	5c 83       	std	Y+4, r21	; 0x04
     7b2:	6d 83       	std	Y+5, r22	; 0x05
     7b4:	7e 83       	std	Y+6, r23	; 0x06
     7b6:	8f 83       	std	Y+7, r24	; 0x07
     7b8:	98 87       	std	Y+8, r25	; 0x08
     7ba:	1a 87       	std	Y+10, r17	; 0x0a
     7bc:	09 87       	std	Y+9, r16	; 0x09
     7be:	fc 86       	std	Y+12, r15	; 0x0c
     7c0:	eb 86       	std	Y+11, r14	; 0x0b
/home/becker/async/autosafe/trunk/tum/wcet-cbmc/benchmarks/ndes/ndes.c:106
     7c2:	29 85       	ldd	r18, Y+9	; 0x09
     7c4:	3a 85       	ldd	r19, Y+10	; 0x0a
     7c6:	8b 85       	ldd	r24, Y+11	; 0x0b
     7c8:	9c 85       	ldd	r25, Y+12	; 0x0c
     7ca:	82 17       	cp	r24, r18
     7cc:	93 07       	cpc	r25, r19
     7ce:	14 f1       	brlt	.+68     	; 0x814 <getbit+0x86>
/home/becker/async/autosafe/trunk/tum/wcet-cbmc/benchmarks/ndes/ndes.c:107
     7d0:	89 85       	ldd	r24, Y+9	; 0x09
     7d2:	9a 85       	ldd	r25, Y+10	; 0x0a
     7d4:	88 0f       	add	r24, r24
     7d6:	99 1f       	adc	r25, r25
     7d8:	88 0f       	add	r24, r24
     7da:	99 1f       	adc	r25, r25
     7dc:	88 54       	subi	r24, 0x48	; 72
     7de:	9a 4f       	sbci	r25, 0xFA	; 250
     7e0:	fc 01       	movw	r30, r24
     7e2:	20 81       	ld	r18, Z
     7e4:	31 81       	ldd	r19, Z+1	; 0x01
     7e6:	42 81       	ldd	r20, Z+2	; 0x02
     7e8:	53 81       	ldd	r21, Z+3	; 0x03
     7ea:	8d 81       	ldd	r24, Y+5	; 0x05
     7ec:	9e 81       	ldd	r25, Y+6	; 0x06
     7ee:	af 81       	ldd	r26, Y+7	; 0x07
     7f0:	b8 85       	ldd	r27, Y+8	; 0x08
     7f2:	82 23       	and	r24, r18
     7f4:	93 23       	and	r25, r19
     7f6:	a4 23       	and	r26, r20
     7f8:	b5 23       	and	r27, r21
     7fa:	00 97       	sbiw	r24, 0x00	; 0
     7fc:	a1 05       	cpc	r26, r1
     7fe:	b1 05       	cpc	r27, r1
     800:	29 f0       	breq	.+10     	; 0x80c <getbit+0x7e>
     802:	81 e0       	ldi	r24, 0x01	; 1
     804:	90 e0       	ldi	r25, 0x00	; 0
     806:	a0 e0       	ldi	r26, 0x00	; 0
     808:	b0 e0       	ldi	r27, 0x00	; 0
     80a:	03 c0       	rjmp	.+6      	; 0x812 <getbit+0x84>
     80c:	80 e0       	ldi	r24, 0x00	; 0
     80e:	90 e0       	ldi	r25, 0x00	; 0
     810:	dc 01       	movw	r26, r24
     812:	27 c0       	rjmp	.+78     	; 0x862 <getbit+0xd4>
/home/becker/async/autosafe/trunk/tum/wcet-cbmc/benchmarks/ndes/ndes.c:109
     814:	29 85       	ldd	r18, Y+9	; 0x09
     816:	3a 85       	ldd	r19, Y+10	; 0x0a
     818:	8b 85       	ldd	r24, Y+11	; 0x0b
     81a:	9c 85       	ldd	r25, Y+12	; 0x0c
     81c:	a9 01       	movw	r20, r18
     81e:	48 1b       	sub	r20, r24
     820:	59 0b       	sbc	r21, r25
     822:	ca 01       	movw	r24, r20
     824:	88 0f       	add	r24, r24
     826:	99 1f       	adc	r25, r25
     828:	88 0f       	add	r24, r24
     82a:	99 1f       	adc	r25, r25
     82c:	88 54       	subi	r24, 0x48	; 72
     82e:	9a 4f       	sbci	r25, 0xFA	; 250
     830:	fc 01       	movw	r30, r24
     832:	20 81       	ld	r18, Z
     834:	31 81       	ldd	r19, Z+1	; 0x01
     836:	42 81       	ldd	r20, Z+2	; 0x02
     838:	53 81       	ldd	r21, Z+3	; 0x03
     83a:	89 81       	ldd	r24, Y+1	; 0x01
     83c:	9a 81       	ldd	r25, Y+2	; 0x02
     83e:	ab 81       	ldd	r26, Y+3	; 0x03
     840:	bc 81       	ldd	r27, Y+4	; 0x04
     842:	82 23       	and	r24, r18
     844:	93 23       	and	r25, r19
     846:	a4 23       	and	r26, r20
     848:	b5 23       	and	r27, r21
     84a:	00 97       	sbiw	r24, 0x00	; 0
     84c:	a1 05       	cpc	r26, r1
     84e:	b1 05       	cpc	r27, r1
     850:	29 f0       	breq	.+10     	; 0x85c <getbit+0xce>
     852:	81 e0       	ldi	r24, 0x01	; 1
     854:	90 e0       	ldi	r25, 0x00	; 0
     856:	a0 e0       	ldi	r26, 0x00	; 0
     858:	b0 e0       	ldi	r27, 0x00	; 0
     85a:	03 c0       	rjmp	.+6      	; 0x862 <getbit+0xd4>
     85c:	80 e0       	ldi	r24, 0x00	; 0
     85e:	90 e0       	ldi	r25, 0x00	; 0
     860:	dc 01       	movw	r26, r24
/home/becker/async/autosafe/trunk/tum/wcet-cbmc/benchmarks/ndes/ndes.c:110
     862:	bc 01       	movw	r22, r24
     864:	cd 01       	movw	r24, r26
     866:	2c 96       	adiw	r28, 0x0c	; 12
     868:	0f b6       	in	r0, 0x3f	; 63
     86a:	f8 94       	cli
     86c:	de bf       	out	0x3e, r29	; 62
     86e:	0f be       	out	0x3f, r0	; 63
     870:	cd bf       	out	0x3d, r28	; 61
     872:	df 91       	pop	r29
     874:	cf 91       	pop	r28
     876:	1f 91       	pop	r17
     878:	0f 91       	pop	r16
     87a:	ff 90       	pop	r15
     87c:	ef 90       	pop	r14
     87e:	08 95       	ret

00000880 <ks>:
ks():
/home/becker/async/autosafe/trunk/tum/wcet-cbmc/benchmarks/ndes/ndes.c:112
     880:	af 92       	push	r10
     882:	bf 92       	push	r11
     884:	cf 92       	push	r12
     886:	df 92       	push	r13
     888:	ef 92       	push	r14
     88a:	ff 92       	push	r15
     88c:	0f 93       	push	r16
     88e:	1f 93       	push	r17
     890:	cf 93       	push	r28
     892:	df 93       	push	r29
     894:	cd b7       	in	r28, 0x3d	; 61
     896:	de b7       	in	r29, 0x3e	; 62
     898:	2c 97       	sbiw	r28, 0x0c	; 12
     89a:	0f b6       	in	r0, 0x3f	; 63
     89c:	f8 94       	cli
     89e:	de bf       	out	0x3e, r29	; 62
     8a0:	0f be       	out	0x3f, r0	; 63
     8a2:	cd bf       	out	0x3d, r28	; 61
     8a4:	9a 87       	std	Y+10, r25	; 0x0a
     8a6:	89 87       	std	Y+9, r24	; 0x09
     8a8:	7c 87       	std	Y+12, r23	; 0x0c
     8aa:	6b 87       	std	Y+11, r22	; 0x0b
/home/becker/async/autosafe/trunk/tum/wcet-cbmc/benchmarks/ndes/ndes.c:115
     8ac:	89 85       	ldd	r24, Y+9	; 0x09
     8ae:	9a 85       	ldd	r25, Y+10	; 0x0a
     8b0:	81 30       	cpi	r24, 0x01	; 1
     8b2:	91 05       	cpc	r25, r1
     8b4:	81 f0       	breq	.+32     	; 0x8d6 <ks+0x56>
     8b6:	89 85       	ldd	r24, Y+9	; 0x09
     8b8:	9a 85       	ldd	r25, Y+10	; 0x0a
     8ba:	82 30       	cpi	r24, 0x02	; 2
     8bc:	91 05       	cpc	r25, r1
     8be:	59 f0       	breq	.+22     	; 0x8d6 <ks+0x56>
     8c0:	89 85       	ldd	r24, Y+9	; 0x09
     8c2:	9a 85       	ldd	r25, Y+10	; 0x0a
     8c4:	89 30       	cpi	r24, 0x09	; 9
     8c6:	91 05       	cpc	r25, r1
     8c8:	31 f0       	breq	.+12     	; 0x8d6 <ks+0x56>
     8ca:	89 85       	ldd	r24, Y+9	; 0x09
     8cc:	9a 85       	ldd	r25, Y+10	; 0x0a
     8ce:	80 31       	cpi	r24, 0x10	; 16
     8d0:	91 05       	cpc	r25, r1
     8d2:	09 f0       	breq	.+2      	; 0x8d6 <ks+0x56>
     8d4:	5b c0       	rjmp	.+182    	; 0x98c <ks+0x10c>
/home/becker/async/autosafe/trunk/tum/wcet-cbmc/benchmarks/ndes/ndes.c:116
     8d6:	20 91 e8 04 	lds	r18, 0x04E8
     8da:	30 91 e9 04 	lds	r19, 0x04E9
     8de:	40 91 ea 04 	lds	r20, 0x04EA
     8e2:	50 91 eb 04 	lds	r21, 0x04EB
     8e6:	80 91 e8 04 	lds	r24, 0x04E8
     8ea:	90 91 e9 04 	lds	r25, 0x04E9
     8ee:	a0 91 ea 04 	lds	r26, 0x04EA
     8f2:	b0 91 eb 04 	lds	r27, 0x04EB
     8f6:	81 70       	andi	r24, 0x01	; 1
     8f8:	99 27       	eor	r25, r25
     8fa:	aa 27       	eor	r26, r26
     8fc:	bb 27       	eor	r27, r27
     8fe:	07 2e       	mov	r0, r23
     900:	7c e1       	ldi	r23, 0x1C	; 28
     902:	88 0f       	add	r24, r24
     904:	99 1f       	adc	r25, r25
     906:	aa 1f       	adc	r26, r26
     908:	bb 1f       	adc	r27, r27
     90a:	7a 95       	dec	r23
     90c:	d1 f7       	brne	.-12     	; 0x902 <ks+0x82>
     90e:	70 2d       	mov	r23, r0
     910:	82 2b       	or	r24, r18
     912:	93 2b       	or	r25, r19
     914:	a4 2b       	or	r26, r20
     916:	b5 2b       	or	r27, r21
     918:	b6 95       	lsr	r27
     91a:	a7 95       	ror	r26
     91c:	97 95       	ror	r25
     91e:	87 95       	ror	r24
     920:	80 93 e8 04 	sts	0x04E8, r24
     924:	90 93 e9 04 	sts	0x04E9, r25
     928:	a0 93 ea 04 	sts	0x04EA, r26
     92c:	b0 93 eb 04 	sts	0x04EB, r27
/home/becker/async/autosafe/trunk/tum/wcet-cbmc/benchmarks/ndes/ndes.c:117
     930:	20 91 e4 04 	lds	r18, 0x04E4
     934:	30 91 e5 04 	lds	r19, 0x04E5
     938:	40 91 e6 04 	lds	r20, 0x04E6
     93c:	50 91 e7 04 	lds	r21, 0x04E7
     940:	80 91 e4 04 	lds	r24, 0x04E4
     944:	90 91 e5 04 	lds	r25, 0x04E5
     948:	a0 91 e6 04 	lds	r26, 0x04E6
     94c:	b0 91 e7 04 	lds	r27, 0x04E7
     950:	81 70       	andi	r24, 0x01	; 1
     952:	99 27       	eor	r25, r25
     954:	aa 27       	eor	r26, r26
     956:	bb 27       	eor	r27, r27
     958:	07 2e       	mov	r0, r23
     95a:	7c e1       	ldi	r23, 0x1C	; 28
     95c:	88 0f       	add	r24, r24
     95e:	99 1f       	adc	r25, r25
     960:	aa 1f       	adc	r26, r26
     962:	bb 1f       	adc	r27, r27
     964:	7a 95       	dec	r23
     966:	d1 f7       	brne	.-12     	; 0x95c <ks+0xdc>
     968:	70 2d       	mov	r23, r0
     96a:	82 2b       	or	r24, r18
     96c:	93 2b       	or	r25, r19
     96e:	a4 2b       	or	r26, r20
     970:	b5 2b       	or	r27, r21
     972:	b6 95       	lsr	r27
     974:	a7 95       	ror	r26
     976:	97 95       	ror	r25
     978:	87 95       	ror	r24
     97a:	80 93 e4 04 	sts	0x04E4, r24
     97e:	90 93 e5 04 	sts	0x04E5, r25
     982:	a0 93 e6 04 	sts	0x04E6, r26
     986:	b0 93 e7 04 	sts	0x04E7, r27
     98a:	6a c0       	rjmp	.+212    	; 0xa60 <ks+0x1e0>
/home/becker/async/autosafe/trunk/tum/wcet-cbmc/benchmarks/ndes/ndes.c:120
     98c:	81 e0       	ldi	r24, 0x01	; 1
     98e:	90 e0       	ldi	r25, 0x00	; 0
     990:	9a 83       	std	Y+2, r25	; 0x02
     992:	89 83       	std	Y+1, r24	; 0x01
     994:	5f c0       	rjmp	.+190    	; 0xa54 <ks+0x1d4>
/home/becker/async/autosafe/trunk/tum/wcet-cbmc/benchmarks/ndes/ndes.c:121
     996:	20 91 e8 04 	lds	r18, 0x04E8
     99a:	30 91 e9 04 	lds	r19, 0x04E9
     99e:	40 91 ea 04 	lds	r20, 0x04EA
     9a2:	50 91 eb 04 	lds	r21, 0x04EB
     9a6:	80 91 e8 04 	lds	r24, 0x04E8
     9aa:	90 91 e9 04 	lds	r25, 0x04E9
     9ae:	a0 91 ea 04 	lds	r26, 0x04EA
     9b2:	b0 91 eb 04 	lds	r27, 0x04EB
     9b6:	81 70       	andi	r24, 0x01	; 1
     9b8:	99 27       	eor	r25, r25
     9ba:	aa 27       	eor	r26, r26
     9bc:	bb 27       	eor	r27, r27
     9be:	07 2e       	mov	r0, r23
     9c0:	7c e1       	ldi	r23, 0x1C	; 28
     9c2:	88 0f       	add	r24, r24
     9c4:	99 1f       	adc	r25, r25
     9c6:	aa 1f       	adc	r26, r26
     9c8:	bb 1f       	adc	r27, r27
     9ca:	7a 95       	dec	r23
     9cc:	d1 f7       	brne	.-12     	; 0x9c2 <ks+0x142>
     9ce:	70 2d       	mov	r23, r0
     9d0:	82 2b       	or	r24, r18
     9d2:	93 2b       	or	r25, r19
     9d4:	a4 2b       	or	r26, r20
     9d6:	b5 2b       	or	r27, r21
     9d8:	b6 95       	lsr	r27
     9da:	a7 95       	ror	r26
     9dc:	97 95       	ror	r25
     9de:	87 95       	ror	r24
     9e0:	80 93 e8 04 	sts	0x04E8, r24
     9e4:	90 93 e9 04 	sts	0x04E9, r25
     9e8:	a0 93 ea 04 	sts	0x04EA, r26
     9ec:	b0 93 eb 04 	sts	0x04EB, r27
/home/becker/async/autosafe/trunk/tum/wcet-cbmc/benchmarks/ndes/ndes.c:122
     9f0:	20 91 e4 04 	lds	r18, 0x04E4
     9f4:	30 91 e5 04 	lds	r19, 0x04E5
     9f8:	40 91 e6 04 	lds	r20, 0x04E6
     9fc:	50 91 e7 04 	lds	r21, 0x04E7
     a00:	80 91 e4 04 	lds	r24, 0x04E4
     a04:	90 91 e5 04 	lds	r25, 0x04E5
     a08:	a0 91 e6 04 	lds	r26, 0x04E6
     a0c:	b0 91 e7 04 	lds	r27, 0x04E7
     a10:	81 70       	andi	r24, 0x01	; 1
     a12:	99 27       	eor	r25, r25
     a14:	aa 27       	eor	r26, r26
     a16:	bb 27       	eor	r27, r27
     a18:	07 2e       	mov	r0, r23
     a1a:	7c e1       	ldi	r23, 0x1C	; 28
     a1c:	88 0f       	add	r24, r24
     a1e:	99 1f       	adc	r25, r25
     a20:	aa 1f       	adc	r26, r26
     a22:	bb 1f       	adc	r27, r27
     a24:	7a 95       	dec	r23
     a26:	d1 f7       	brne	.-12     	; 0xa1c <ks+0x19c>
     a28:	70 2d       	mov	r23, r0
     a2a:	82 2b       	or	r24, r18
     a2c:	93 2b       	or	r25, r19
     a2e:	a4 2b       	or	r26, r20
     a30:	b5 2b       	or	r27, r21
     a32:	b6 95       	lsr	r27
     a34:	a7 95       	ror	r26
     a36:	97 95       	ror	r25
     a38:	87 95       	ror	r24
     a3a:	80 93 e4 04 	sts	0x04E4, r24
     a3e:	90 93 e5 04 	sts	0x04E5, r25
     a42:	a0 93 e6 04 	sts	0x04E6, r26
     a46:	b0 93 e7 04 	sts	0x04E7, r27
/home/becker/async/autosafe/trunk/tum/wcet-cbmc/benchmarks/ndes/ndes.c:120
     a4a:	89 81       	ldd	r24, Y+1	; 0x01
     a4c:	9a 81       	ldd	r25, Y+2	; 0x02
     a4e:	01 96       	adiw	r24, 0x01	; 1
     a50:	9a 83       	std	Y+2, r25	; 0x02
     a52:	89 83       	std	Y+1, r24	; 0x01
     a54:	89 81       	ldd	r24, Y+1	; 0x01
     a56:	9a 81       	ldd	r25, Y+2	; 0x02
     a58:	83 30       	cpi	r24, 0x03	; 3
     a5a:	91 05       	cpc	r25, r1
     a5c:	0c f4       	brge	.+2      	; 0xa60 <ks+0x1e0>
     a5e:	9b cf       	rjmp	.-202    	; 0x996 <ks+0x116>
/home/becker/async/autosafe/trunk/tum/wcet-cbmc/benchmarks/ndes/ndes.c:124
     a60:	8b 85       	ldd	r24, Y+11	; 0x0b
     a62:	9c 85       	ldd	r25, Y+12	; 0x0c
     a64:	fc 01       	movw	r30, r24
     a66:	10 82       	st	Z, r1
     a68:	11 82       	std	Z+1, r1	; 0x01
     a6a:	12 82       	std	Z+2, r1	; 0x02
     a6c:	13 82       	std	Z+3, r1	; 0x03
     a6e:	8b 85       	ldd	r24, Y+11	; 0x0b
     a70:	9c 85       	ldd	r25, Y+12	; 0x0c
     a72:	fc 01       	movw	r30, r24
     a74:	80 81       	ld	r24, Z
     a76:	91 81       	ldd	r25, Z+1	; 0x01
     a78:	a2 81       	ldd	r26, Z+2	; 0x02
     a7a:	b3 81       	ldd	r27, Z+3	; 0x03
     a7c:	2b 85       	ldd	r18, Y+11	; 0x0b
     a7e:	3c 85       	ldd	r19, Y+12	; 0x0c
     a80:	f9 01       	movw	r30, r18
     a82:	84 83       	std	Z+4, r24	; 0x04
     a84:	95 83       	std	Z+5, r25	; 0x05
     a86:	a6 83       	std	Z+6, r26	; 0x06
     a88:	b7 83       	std	Z+7, r27	; 0x07
     a8a:	8b 85       	ldd	r24, Y+11	; 0x0b
     a8c:	9c 85       	ldd	r25, Y+12	; 0x0c
     a8e:	fc 01       	movw	r30, r24
     a90:	84 81       	ldd	r24, Z+4	; 0x04
     a92:	95 81       	ldd	r25, Z+5	; 0x05
     a94:	a6 81       	ldd	r26, Z+6	; 0x06
     a96:	b7 81       	ldd	r27, Z+7	; 0x07
     a98:	2b 85       	ldd	r18, Y+11	; 0x0b
     a9a:	3c 85       	ldd	r19, Y+12	; 0x0c
     a9c:	f9 01       	movw	r30, r18
     a9e:	80 87       	std	Z+8, r24	; 0x08
     aa0:	91 87       	std	Z+9, r25	; 0x09
     aa2:	a2 87       	std	Z+10, r26	; 0x0a
     aa4:	b3 87       	std	Z+11, r27	; 0x0b
/home/becker/async/autosafe/trunk/tum/wcet-cbmc/benchmarks/ndes/ndes.c:125
     aa6:	80 e1       	ldi	r24, 0x10	; 16
     aa8:	90 e0       	ldi	r25, 0x00	; 0
     aaa:	9c 83       	std	Y+4, r25	; 0x04
     aac:	8b 83       	std	Y+3, r24	; 0x03
     aae:	80 e2       	ldi	r24, 0x20	; 32
     ab0:	90 e0       	ldi	r25, 0x00	; 0
     ab2:	9e 83       	std	Y+6, r25	; 0x06
     ab4:	8d 83       	std	Y+5, r24	; 0x05
     ab6:	80 e3       	ldi	r24, 0x30	; 48
     ab8:	90 e0       	ldi	r25, 0x00	; 0
     aba:	98 87       	std	Y+8, r25	; 0x08
     abc:	8f 83       	std	Y+7, r24	; 0x07
     abe:	ea c0       	rjmp	.+468    	; 0xc94 <ks+0x414>
/home/becker/async/autosafe/trunk/tum/wcet-cbmc/benchmarks/ndes/ndes.c:126
     ac0:	8b 85       	ldd	r24, Y+11	; 0x0b
     ac2:	9c 85       	ldd	r25, Y+12	; 0x0c
     ac4:	fc 01       	movw	r30, r24
     ac6:	80 85       	ldd	r24, Z+8	; 0x08
     ac8:	91 85       	ldd	r25, Z+9	; 0x09
     aca:	a2 85       	ldd	r26, Z+10	; 0x0a
     acc:	b3 85       	ldd	r27, Z+11	; 0x0b
     ace:	88 0f       	add	r24, r24
     ad0:	99 1f       	adc	r25, r25
     ad2:	aa 1f       	adc	r26, r26
     ad4:	bb 1f       	adc	r27, r27
     ad6:	2b 85       	ldd	r18, Y+11	; 0x0b
     ad8:	3c 85       	ldd	r19, Y+12	; 0x0c
     ada:	f9 01       	movw	r30, r18
     adc:	80 87       	std	Z+8, r24	; 0x08
     ade:	91 87       	std	Z+9, r25	; 0x09
     ae0:	a2 87       	std	Z+10, r26	; 0x0a
     ae2:	b3 87       	std	Z+11, r27	; 0x0b
     ae4:	8b 85       	ldd	r24, Y+11	; 0x0b
     ae6:	9c 85       	ldd	r25, Y+12	; 0x0c
     ae8:	fc 01       	movw	r30, r24
     aea:	a0 84       	ldd	r10, Z+8	; 0x08
     aec:	b1 84       	ldd	r11, Z+9	; 0x09
     aee:	c2 84       	ldd	r12, Z+10	; 0x0a
     af0:	d3 84       	ldd	r13, Z+11	; 0x0b
/home/becker/async/autosafe/trunk/tum/wcet-cbmc/benchmarks/ndes/ndes.c:127
     af2:	8b 81       	ldd	r24, Y+3	; 0x03
     af4:	9c 81       	ldd	r25, Y+4	; 0x04
     af6:	87 5c       	subi	r24, 0xC7	; 199
     af8:	9e 4f       	sbci	r25, 0xFE	; 254
     afa:	fc 01       	movw	r30, r24
     afc:	80 81       	ld	r24, Z
     afe:	88 2f       	mov	r24, r24
     b00:	90 e0       	ldi	r25, 0x00	; 0
     b02:	0f 2e       	mov	r0, r31
     b04:	fc e1       	ldi	r31, 0x1C	; 28
     b06:	ef 2e       	mov	r14, r31
     b08:	f1 2c       	mov	r15, r1
     b0a:	f0 2d       	mov	r31, r0
     b0c:	8c 01       	movw	r16, r24
     b0e:	20 91 e4 04 	lds	r18, 0x04E4
     b12:	30 91 e5 04 	lds	r19, 0x04E5
     b16:	40 91 e6 04 	lds	r20, 0x04E6
     b1a:	50 91 e7 04 	lds	r21, 0x04E7
     b1e:	60 91 e8 04 	lds	r22, 0x04E8
     b22:	70 91 e9 04 	lds	r23, 0x04E9
     b26:	80 91 ea 04 	lds	r24, 0x04EA
     b2a:	90 91 eb 04 	lds	r25, 0x04EB
     b2e:	0e 94 c7 03 	call	0x78e	; 0x78e <getbit>
     b32:	dc 01       	movw	r26, r24
     b34:	cb 01       	movw	r24, r22
/home/becker/async/autosafe/trunk/tum/wcet-cbmc/benchmarks/ndes/ndes.c:126
     b36:	cc 01       	movw	r24, r24
     b38:	a0 e0       	ldi	r26, 0x00	; 0
     b3a:	b0 e0       	ldi	r27, 0x00	; 0
     b3c:	8a 29       	or	r24, r10
     b3e:	9b 29       	or	r25, r11
     b40:	ac 29       	or	r26, r12
     b42:	bd 29       	or	r27, r13
     b44:	2b 85       	ldd	r18, Y+11	; 0x0b
     b46:	3c 85       	ldd	r19, Y+12	; 0x0c
     b48:	f9 01       	movw	r30, r18
     b4a:	80 87       	std	Z+8, r24	; 0x08
     b4c:	91 87       	std	Z+9, r25	; 0x09
     b4e:	a2 87       	std	Z+10, r26	; 0x0a
     b50:	b3 87       	std	Z+11, r27	; 0x0b
/home/becker/async/autosafe/trunk/tum/wcet-cbmc/benchmarks/ndes/ndes.c:128
     b52:	8b 85       	ldd	r24, Y+11	; 0x0b
     b54:	9c 85       	ldd	r25, Y+12	; 0x0c
     b56:	fc 01       	movw	r30, r24
     b58:	84 81       	ldd	r24, Z+4	; 0x04
     b5a:	95 81       	ldd	r25, Z+5	; 0x05
     b5c:	a6 81       	ldd	r26, Z+6	; 0x06
     b5e:	b7 81       	ldd	r27, Z+7	; 0x07
     b60:	88 0f       	add	r24, r24
     b62:	99 1f       	adc	r25, r25
     b64:	aa 1f       	adc	r26, r26
     b66:	bb 1f       	adc	r27, r27
     b68:	2b 85       	ldd	r18, Y+11	; 0x0b
     b6a:	3c 85       	ldd	r19, Y+12	; 0x0c
     b6c:	f9 01       	movw	r30, r18
     b6e:	84 83       	std	Z+4, r24	; 0x04
     b70:	95 83       	std	Z+5, r25	; 0x05
     b72:	a6 83       	std	Z+6, r26	; 0x06
     b74:	b7 83       	std	Z+7, r27	; 0x07
     b76:	8b 85       	ldd	r24, Y+11	; 0x0b
     b78:	9c 85       	ldd	r25, Y+12	; 0x0c
     b7a:	fc 01       	movw	r30, r24
     b7c:	a4 80       	ldd	r10, Z+4	; 0x04
     b7e:	b5 80       	ldd	r11, Z+5	; 0x05
     b80:	c6 80       	ldd	r12, Z+6	; 0x06
     b82:	d7 80       	ldd	r13, Z+7	; 0x07
/home/becker/async/autosafe/trunk/tum/wcet-cbmc/benchmarks/ndes/ndes.c:129
     b84:	8d 81       	ldd	r24, Y+5	; 0x05
     b86:	9e 81       	ldd	r25, Y+6	; 0x06
     b88:	87 5c       	subi	r24, 0xC7	; 199
     b8a:	9e 4f       	sbci	r25, 0xFE	; 254
     b8c:	fc 01       	movw	r30, r24
     b8e:	80 81       	ld	r24, Z
     b90:	88 2f       	mov	r24, r24
     b92:	90 e0       	ldi	r25, 0x00	; 0
     b94:	0f 2e       	mov	r0, r31
     b96:	fc e1       	ldi	r31, 0x1C	; 28
     b98:	ef 2e       	mov	r14, r31
     b9a:	f1 2c       	mov	r15, r1
     b9c:	f0 2d       	mov	r31, r0
     b9e:	8c 01       	movw	r16, r24
     ba0:	20 91 e4 04 	lds	r18, 0x04E4
     ba4:	30 91 e5 04 	lds	r19, 0x04E5
     ba8:	40 91 e6 04 	lds	r20, 0x04E6
     bac:	50 91 e7 04 	lds	r21, 0x04E7
     bb0:	60 91 e8 04 	lds	r22, 0x04E8
     bb4:	70 91 e9 04 	lds	r23, 0x04E9
     bb8:	80 91 ea 04 	lds	r24, 0x04EA
     bbc:	90 91 eb 04 	lds	r25, 0x04EB
     bc0:	0e 94 c7 03 	call	0x78e	; 0x78e <getbit>
     bc4:	dc 01       	movw	r26, r24
     bc6:	cb 01       	movw	r24, r22
/home/becker/async/autosafe/trunk/tum/wcet-cbmc/benchmarks/ndes/ndes.c:128
     bc8:	cc 01       	movw	r24, r24
     bca:	a0 e0       	ldi	r26, 0x00	; 0
     bcc:	b0 e0       	ldi	r27, 0x00	; 0
     bce:	8a 29       	or	r24, r10
     bd0:	9b 29       	or	r25, r11
     bd2:	ac 29       	or	r26, r12
     bd4:	bd 29       	or	r27, r13
     bd6:	2b 85       	ldd	r18, Y+11	; 0x0b
     bd8:	3c 85       	ldd	r19, Y+12	; 0x0c
     bda:	f9 01       	movw	r30, r18
     bdc:	84 83       	std	Z+4, r24	; 0x04
     bde:	95 83       	std	Z+5, r25	; 0x05
     be0:	a6 83       	std	Z+6, r26	; 0x06
     be2:	b7 83       	std	Z+7, r27	; 0x07
/home/becker/async/autosafe/trunk/tum/wcet-cbmc/benchmarks/ndes/ndes.c:130
     be4:	8b 85       	ldd	r24, Y+11	; 0x0b
     be6:	9c 85       	ldd	r25, Y+12	; 0x0c
     be8:	fc 01       	movw	r30, r24
     bea:	80 81       	ld	r24, Z
     bec:	91 81       	ldd	r25, Z+1	; 0x01
     bee:	a2 81       	ldd	r26, Z+2	; 0x02
     bf0:	b3 81       	ldd	r27, Z+3	; 0x03
     bf2:	88 0f       	add	r24, r24
     bf4:	99 1f       	adc	r25, r25
     bf6:	aa 1f       	adc	r26, r26
     bf8:	bb 1f       	adc	r27, r27
     bfa:	2b 85       	ldd	r18, Y+11	; 0x0b
     bfc:	3c 85       	ldd	r19, Y+12	; 0x0c
     bfe:	f9 01       	movw	r30, r18
     c00:	80 83       	st	Z, r24
     c02:	91 83       	std	Z+1, r25	; 0x01
     c04:	a2 83       	std	Z+2, r26	; 0x02
     c06:	b3 83       	std	Z+3, r27	; 0x03
     c08:	8b 85       	ldd	r24, Y+11	; 0x0b
     c0a:	9c 85       	ldd	r25, Y+12	; 0x0c
     c0c:	fc 01       	movw	r30, r24
     c0e:	a0 80       	ld	r10, Z
     c10:	b1 80       	ldd	r11, Z+1	; 0x01
     c12:	c2 80       	ldd	r12, Z+2	; 0x02
     c14:	d3 80       	ldd	r13, Z+3	; 0x03
/home/becker/async/autosafe/trunk/tum/wcet-cbmc/benchmarks/ndes/ndes.c:131
     c16:	8f 81       	ldd	r24, Y+7	; 0x07
     c18:	98 85       	ldd	r25, Y+8	; 0x08
     c1a:	87 5c       	subi	r24, 0xC7	; 199
     c1c:	9e 4f       	sbci	r25, 0xFE	; 254
     c1e:	fc 01       	movw	r30, r24
     c20:	80 81       	ld	r24, Z
     c22:	88 2f       	mov	r24, r24
     c24:	90 e0       	ldi	r25, 0x00	; 0
     c26:	0f 2e       	mov	r0, r31
     c28:	fc e1       	ldi	r31, 0x1C	; 28
     c2a:	ef 2e       	mov	r14, r31
     c2c:	f1 2c       	mov	r15, r1
     c2e:	f0 2d       	mov	r31, r0
     c30:	8c 01       	movw	r16, r24
     c32:	20 91 e4 04 	lds	r18, 0x04E4
     c36:	30 91 e5 04 	lds	r19, 0x04E5
     c3a:	40 91 e6 04 	lds	r20, 0x04E6
     c3e:	50 91 e7 04 	lds	r21, 0x04E7
     c42:	60 91 e8 04 	lds	r22, 0x04E8
     c46:	70 91 e9 04 	lds	r23, 0x04E9
     c4a:	80 91 ea 04 	lds	r24, 0x04EA
     c4e:	90 91 eb 04 	lds	r25, 0x04EB
     c52:	0e 94 c7 03 	call	0x78e	; 0x78e <getbit>
     c56:	dc 01       	movw	r26, r24
     c58:	cb 01       	movw	r24, r22
/home/becker/async/autosafe/trunk/tum/wcet-cbmc/benchmarks/ndes/ndes.c:130
     c5a:	cc 01       	movw	r24, r24
     c5c:	a0 e0       	ldi	r26, 0x00	; 0
     c5e:	b0 e0       	ldi	r27, 0x00	; 0
     c60:	8a 29       	or	r24, r10
     c62:	9b 29       	or	r25, r11
     c64:	ac 29       	or	r26, r12
     c66:	bd 29       	or	r27, r13
     c68:	2b 85       	ldd	r18, Y+11	; 0x0b
     c6a:	3c 85       	ldd	r19, Y+12	; 0x0c
     c6c:	f9 01       	movw	r30, r18
     c6e:	80 83       	st	Z, r24
     c70:	91 83       	std	Z+1, r25	; 0x01
     c72:	a2 83       	std	Z+2, r26	; 0x02
     c74:	b3 83       	std	Z+3, r27	; 0x03
/home/becker/async/autosafe/trunk/tum/wcet-cbmc/benchmarks/ndes/ndes.c:125
     c76:	8b 81       	ldd	r24, Y+3	; 0x03
     c78:	9c 81       	ldd	r25, Y+4	; 0x04
     c7a:	01 97       	sbiw	r24, 0x01	; 1
     c7c:	9c 83       	std	Y+4, r25	; 0x04
     c7e:	8b 83       	std	Y+3, r24	; 0x03
     c80:	8d 81       	ldd	r24, Y+5	; 0x05
     c82:	9e 81       	ldd	r25, Y+6	; 0x06
     c84:	01 97       	sbiw	r24, 0x01	; 1
     c86:	9e 83       	std	Y+6, r25	; 0x06
     c88:	8d 83       	std	Y+5, r24	; 0x05
     c8a:	8f 81       	ldd	r24, Y+7	; 0x07
     c8c:	98 85       	ldd	r25, Y+8	; 0x08
     c8e:	01 97       	sbiw	r24, 0x01	; 1
     c90:	98 87       	std	Y+8, r25	; 0x08
     c92:	8f 83       	std	Y+7, r24	; 0x07
     c94:	8b 81       	ldd	r24, Y+3	; 0x03
     c96:	9c 81       	ldd	r25, Y+4	; 0x04
     c98:	18 16       	cp	r1, r24
     c9a:	19 06       	cpc	r1, r25
     c9c:	0c f4       	brge	.+2      	; 0xca0 <ks+0x420>
     c9e:	10 cf       	rjmp	.-480    	; 0xac0 <ks+0x240>
/home/becker/async/autosafe/trunk/tum/wcet-cbmc/benchmarks/ndes/ndes.c:133
     ca0:	2c 96       	adiw	r28, 0x0c	; 12
     ca2:	0f b6       	in	r0, 0x3f	; 63
     ca4:	f8 94       	cli
     ca6:	de bf       	out	0x3e, r29	; 62
     ca8:	0f be       	out	0x3f, r0	; 63
     caa:	cd bf       	out	0x3d, r28	; 61
     cac:	df 91       	pop	r29
     cae:	cf 91       	pop	r28
     cb0:	1f 91       	pop	r17
     cb2:	0f 91       	pop	r16
     cb4:	ff 90       	pop	r15
     cb6:	ef 90       	pop	r14
     cb8:	df 90       	pop	r13
     cba:	cf 90       	pop	r12
     cbc:	bf 90       	pop	r11
     cbe:	af 90       	pop	r10
     cc0:	08 95       	ret

00000cc2 <cyfun>:
cyfun():
/home/becker/async/autosafe/trunk/tum/wcet-cbmc/benchmarks/ndes/ndes.c:135
     cc2:	8f 92       	push	r8
     cc4:	9f 92       	push	r9
     cc6:	af 92       	push	r10
     cc8:	bf 92       	push	r11
     cca:	cf 92       	push	r12
     ccc:	df 92       	push	r13
     cce:	ef 92       	push	r14
     cd0:	ff 92       	push	r15
     cd2:	0f 93       	push	r16
     cd4:	1f 93       	push	r17
     cd6:	cf 93       	push	r28
     cd8:	df 93       	push	r29
     cda:	cd b7       	in	r28, 0x3d	; 61
     cdc:	de b7       	in	r29, 0x3e	; 62
     cde:	c3 54       	subi	r28, 0x43	; 67
     ce0:	d1 09       	sbc	r29, r1
     ce2:	0f b6       	in	r0, 0x3f	; 63
     ce4:	f8 94       	cli
     ce6:	de bf       	out	0x3e, r29	; 62
     ce8:	0f be       	out	0x3f, r0	; 63
     cea:	cd bf       	out	0x3d, r28	; 61
     cec:	6a ab       	std	Y+50, r22	; 0x32
     cee:	7b ab       	std	Y+51, r23	; 0x33
     cf0:	8c ab       	std	Y+52, r24	; 0x34
     cf2:	9d ab       	std	Y+53, r25	; 0x35
     cf4:	ae aa       	std	Y+54, r10	; 0x36
     cf6:	bf aa       	std	Y+55, r11	; 0x37
     cf8:	c8 ae       	std	Y+56, r12	; 0x38
     cfa:	d9 ae       	std	Y+57, r13	; 0x39
     cfc:	ea ae       	std	Y+58, r14	; 0x3a
     cfe:	fb ae       	std	Y+59, r15	; 0x3b
     d00:	0c af       	std	Y+60, r16	; 0x3c
     d02:	1d af       	std	Y+61, r17	; 0x3d
     d04:	2e af       	std	Y+62, r18	; 0x3e
     d06:	3f af       	std	Y+63, r19	; 0x3f
     d08:	ce 01       	movw	r24, r28
     d0a:	80 5c       	subi	r24, 0xC0	; 192
     d0c:	9f 4f       	sbci	r25, 0xFF	; 255
     d0e:	fc 01       	movw	r30, r24
     d10:	40 83       	st	Z, r20
     d12:	ce 01       	movw	r24, r28
     d14:	8f 5b       	subi	r24, 0xBF	; 191
     d16:	9f 4f       	sbci	r25, 0xFF	; 255
     d18:	fc 01       	movw	r30, r24
     d1a:	50 83       	st	Z, r21
     d1c:	ce 01       	movw	r24, r28
     d1e:	8e 5b       	subi	r24, 0xBE	; 190
     d20:	9f 4f       	sbci	r25, 0xFF	; 255
     d22:	fc 01       	movw	r30, r24
     d24:	91 82       	std	Z+1, r9	; 0x01
     d26:	80 82       	st	Z, r8
/home/becker/async/autosafe/trunk/tum/wcet-cbmc/benchmarks/ndes/ndes.c:183
     d28:	88 eb       	ldi	r24, 0xB8	; 184
     d2a:	95 e0       	ldi	r25, 0x05	; 5
     d2c:	9e 8b       	std	Y+22, r25	; 0x16
     d2e:	8d 8b       	std	Y+21, r24	; 0x15
/home/becker/async/autosafe/trunk/tum/wcet-cbmc/benchmarks/ndes/ndes.c:184
     d30:	1d 8e       	std	Y+29, r1	; 0x1d
     d32:	1e 8e       	std	Y+30, r1	; 0x1e
     d34:	1f 8e       	std	Y+31, r1	; 0x1f
     d36:	18 a2       	std	Y+32, r1	; 0x20
     d38:	8d 8d       	ldd	r24, Y+29	; 0x1d
     d3a:	9e 8d       	ldd	r25, Y+30	; 0x1e
     d3c:	af 8d       	ldd	r26, Y+31	; 0x1f
     d3e:	b8 a1       	ldd	r27, Y+32	; 0x20
     d40:	89 a3       	std	Y+33, r24	; 0x21
     d42:	9a a3       	std	Y+34, r25	; 0x22
     d44:	ab a3       	std	Y+35, r26	; 0x23
     d46:	bc a3       	std	Y+36, r27	; 0x24
     d48:	89 a1       	ldd	r24, Y+33	; 0x21
     d4a:	9a a1       	ldd	r25, Y+34	; 0x22
     d4c:	ab a1       	ldd	r26, Y+35	; 0x23
     d4e:	bc a1       	ldd	r27, Y+36	; 0x24
     d50:	8d a3       	std	Y+37, r24	; 0x25
     d52:	9e a3       	std	Y+38, r25	; 0x26
     d54:	af a3       	std	Y+39, r26	; 0x27
     d56:	b8 a7       	std	Y+40, r27	; 0x28
/home/becker/async/autosafe/trunk/tum/wcet-cbmc/benchmarks/ndes/ndes.c:185
     d58:	80 e1       	ldi	r24, 0x10	; 16
     d5a:	90 e0       	ldi	r25, 0x00	; 0
     d5c:	98 8b       	std	Y+16, r25	; 0x10
     d5e:	8f 87       	std	Y+15, r24	; 0x0f
     d60:	80 e2       	ldi	r24, 0x20	; 32
     d62:	90 e0       	ldi	r25, 0x00	; 0
     d64:	9a 8b       	std	Y+18, r25	; 0x12
     d66:	89 8b       	std	Y+17, r24	; 0x11
     d68:	80 e3       	ldi	r24, 0x30	; 48
     d6a:	90 e0       	ldi	r25, 0x00	; 0
     d6c:	9c 8b       	std	Y+20, r25	; 0x14
     d6e:	8b 8b       	std	Y+19, r24	; 0x13
     d70:	d5 c0       	rjmp	.+426    	; 0xf1c <cyfun+0x25a>
/home/becker/async/autosafe/trunk/tum/wcet-cbmc/benchmarks/ndes/ndes.c:186
     d72:	8d a1       	ldd	r24, Y+37	; 0x25
     d74:	9e a1       	ldd	r25, Y+38	; 0x26
     d76:	af a1       	ldd	r26, Y+39	; 0x27
     d78:	b8 a5       	ldd	r27, Y+40	; 0x28
     d7a:	88 0f       	add	r24, r24
     d7c:	99 1f       	adc	r25, r25
     d7e:	aa 1f       	adc	r26, r26
     d80:	bb 1f       	adc	r27, r27
     d82:	8d a3       	std	Y+37, r24	; 0x25
     d84:	9e a3       	std	Y+38, r25	; 0x26
     d86:	af a3       	std	Y+39, r26	; 0x27
     d88:	b8 a7       	std	Y+40, r27	; 0x28
     d8a:	2d a1       	ldd	r18, Y+37	; 0x25
     d8c:	3e a1       	ldd	r19, Y+38	; 0x26
     d8e:	4f a1       	ldd	r20, Y+39	; 0x27
     d90:	58 a5       	ldd	r21, Y+40	; 0x28
     d92:	8f 85       	ldd	r24, Y+15	; 0x0f
     d94:	98 89       	ldd	r25, Y+16	; 0x10
     d96:	88 0f       	add	r24, r24
     d98:	99 1f       	adc	r25, r25
     d9a:	84 59       	subi	r24, 0x94	; 148
     d9c:	9e 4f       	sbci	r25, 0xFE	; 254
     d9e:	fc 01       	movw	r30, r24
     da0:	80 81       	ld	r24, Z
     da2:	91 81       	ldd	r25, Z+1	; 0x01
     da4:	88 0f       	add	r24, r24
     da6:	99 1f       	adc	r25, r25
     da8:	88 0f       	add	r24, r24
     daa:	99 1f       	adc	r25, r25
     dac:	6d 89       	ldd	r22, Y+21	; 0x15
     dae:	7e 89       	ldd	r23, Y+22	; 0x16
     db0:	86 0f       	add	r24, r22
     db2:	97 1f       	adc	r25, r23
     db4:	fc 01       	movw	r30, r24
     db6:	e0 80       	ld	r14, Z
     db8:	f1 80       	ldd	r15, Z+1	; 0x01
     dba:	02 81       	ldd	r16, Z+2	; 0x02
     dbc:	13 81       	ldd	r17, Z+3	; 0x03
     dbe:	8a a9       	ldd	r24, Y+50	; 0x32
     dc0:	9b a9       	ldd	r25, Y+51	; 0x33
     dc2:	ac a9       	ldd	r26, Y+52	; 0x34
     dc4:	bd a9       	ldd	r27, Y+53	; 0x35
     dc6:	8e 21       	and	r24, r14
     dc8:	9f 21       	and	r25, r15
     dca:	a0 23       	and	r26, r16
     dcc:	b1 23       	and	r27, r17
     dce:	00 97       	sbiw	r24, 0x00	; 0
     dd0:	a1 05       	cpc	r26, r1
     dd2:	b1 05       	cpc	r27, r1
     dd4:	29 f0       	breq	.+10     	; 0xde0 <cyfun+0x11e>
     dd6:	81 e0       	ldi	r24, 0x01	; 1
     dd8:	90 e0       	ldi	r25, 0x00	; 0
     dda:	a0 e0       	ldi	r26, 0x00	; 0
     ddc:	b0 e0       	ldi	r27, 0x00	; 0
     dde:	03 c0       	rjmp	.+6      	; 0xde6 <cyfun+0x124>
     de0:	80 e0       	ldi	r24, 0x00	; 0
     de2:	90 e0       	ldi	r25, 0x00	; 0
     de4:	dc 01       	movw	r26, r24
     de6:	82 2b       	or	r24, r18
     de8:	93 2b       	or	r25, r19
     dea:	a4 2b       	or	r26, r20
     dec:	b5 2b       	or	r27, r21
     dee:	8d a3       	std	Y+37, r24	; 0x25
     df0:	9e a3       	std	Y+38, r25	; 0x26
     df2:	af a3       	std	Y+39, r26	; 0x27
     df4:	b8 a7       	std	Y+40, r27	; 0x28
/home/becker/async/autosafe/trunk/tum/wcet-cbmc/benchmarks/ndes/ndes.c:187
     df6:	89 a1       	ldd	r24, Y+33	; 0x21
     df8:	9a a1       	ldd	r25, Y+34	; 0x22
     dfa:	ab a1       	ldd	r26, Y+35	; 0x23
     dfc:	bc a1       	ldd	r27, Y+36	; 0x24
     dfe:	88 0f       	add	r24, r24
     e00:	99 1f       	adc	r25, r25
     e02:	aa 1f       	adc	r26, r26
     e04:	bb 1f       	adc	r27, r27
     e06:	89 a3       	std	Y+33, r24	; 0x21
     e08:	9a a3       	std	Y+34, r25	; 0x22
     e0a:	ab a3       	std	Y+35, r26	; 0x23
     e0c:	bc a3       	std	Y+36, r27	; 0x24
     e0e:	29 a1       	ldd	r18, Y+33	; 0x21
     e10:	3a a1       	ldd	r19, Y+34	; 0x22
     e12:	4b a1       	ldd	r20, Y+35	; 0x23
     e14:	5c a1       	ldd	r21, Y+36	; 0x24
     e16:	89 89       	ldd	r24, Y+17	; 0x11
     e18:	9a 89       	ldd	r25, Y+18	; 0x12
     e1a:	88 0f       	add	r24, r24
     e1c:	99 1f       	adc	r25, r25
     e1e:	84 59       	subi	r24, 0x94	; 148
     e20:	9e 4f       	sbci	r25, 0xFE	; 254
     e22:	fc 01       	movw	r30, r24
     e24:	80 81       	ld	r24, Z
     e26:	91 81       	ldd	r25, Z+1	; 0x01
     e28:	88 0f       	add	r24, r24
     e2a:	99 1f       	adc	r25, r25
     e2c:	88 0f       	add	r24, r24
     e2e:	99 1f       	adc	r25, r25
     e30:	6d 89       	ldd	r22, Y+21	; 0x15
     e32:	7e 89       	ldd	r23, Y+22	; 0x16
     e34:	86 0f       	add	r24, r22
     e36:	97 1f       	adc	r25, r23
     e38:	fc 01       	movw	r30, r24
     e3a:	e0 80       	ld	r14, Z
     e3c:	f1 80       	ldd	r15, Z+1	; 0x01
     e3e:	02 81       	ldd	r16, Z+2	; 0x02
     e40:	13 81       	ldd	r17, Z+3	; 0x03
     e42:	8a a9       	ldd	r24, Y+50	; 0x32
     e44:	9b a9       	ldd	r25, Y+51	; 0x33
     e46:	ac a9       	ldd	r26, Y+52	; 0x34
     e48:	bd a9       	ldd	r27, Y+53	; 0x35
     e4a:	8e 21       	and	r24, r14
     e4c:	9f 21       	and	r25, r15
     e4e:	a0 23       	and	r26, r16
     e50:	b1 23       	and	r27, r17
     e52:	00 97       	sbiw	r24, 0x00	; 0
     e54:	a1 05       	cpc	r26, r1
     e56:	b1 05       	cpc	r27, r1
     e58:	29 f0       	breq	.+10     	; 0xe64 <cyfun+0x1a2>
     e5a:	81 e0       	ldi	r24, 0x01	; 1
     e5c:	90 e0       	ldi	r25, 0x00	; 0
     e5e:	a0 e0       	ldi	r26, 0x00	; 0
     e60:	b0 e0       	ldi	r27, 0x00	; 0
     e62:	03 c0       	rjmp	.+6      	; 0xe6a <cyfun+0x1a8>
     e64:	80 e0       	ldi	r24, 0x00	; 0
     e66:	90 e0       	ldi	r25, 0x00	; 0
     e68:	dc 01       	movw	r26, r24
     e6a:	82 2b       	or	r24, r18
     e6c:	93 2b       	or	r25, r19
     e6e:	a4 2b       	or	r26, r20
     e70:	b5 2b       	or	r27, r21
     e72:	89 a3       	std	Y+33, r24	; 0x21
     e74:	9a a3       	std	Y+34, r25	; 0x22
     e76:	ab a3       	std	Y+35, r26	; 0x23
     e78:	bc a3       	std	Y+36, r27	; 0x24
/home/becker/async/autosafe/trunk/tum/wcet-cbmc/benchmarks/ndes/ndes.c:188
     e7a:	8d 8d       	ldd	r24, Y+29	; 0x1d
     e7c:	9e 8d       	ldd	r25, Y+30	; 0x1e
     e7e:	af 8d       	ldd	r26, Y+31	; 0x1f
     e80:	b8 a1       	ldd	r27, Y+32	; 0x20
     e82:	88 0f       	add	r24, r24
     e84:	99 1f       	adc	r25, r25
     e86:	aa 1f       	adc	r26, r26
     e88:	bb 1f       	adc	r27, r27
     e8a:	8d 8f       	std	Y+29, r24	; 0x1d
     e8c:	9e 8f       	std	Y+30, r25	; 0x1e
     e8e:	af 8f       	std	Y+31, r26	; 0x1f
     e90:	b8 a3       	std	Y+32, r27	; 0x20
     e92:	2d 8d       	ldd	r18, Y+29	; 0x1d
     e94:	3e 8d       	ldd	r19, Y+30	; 0x1e
     e96:	4f 8d       	ldd	r20, Y+31	; 0x1f
     e98:	58 a1       	ldd	r21, Y+32	; 0x20
     e9a:	8b 89       	ldd	r24, Y+19	; 0x13
     e9c:	9c 89       	ldd	r25, Y+20	; 0x14
     e9e:	88 0f       	add	r24, r24
     ea0:	99 1f       	adc	r25, r25
     ea2:	84 59       	subi	r24, 0x94	; 148
     ea4:	9e 4f       	sbci	r25, 0xFE	; 254
     ea6:	fc 01       	movw	r30, r24
     ea8:	80 81       	ld	r24, Z
     eaa:	91 81       	ldd	r25, Z+1	; 0x01
     eac:	88 0f       	add	r24, r24
     eae:	99 1f       	adc	r25, r25
     eb0:	88 0f       	add	r24, r24
     eb2:	99 1f       	adc	r25, r25
     eb4:	6d 89       	ldd	r22, Y+21	; 0x15
     eb6:	7e 89       	ldd	r23, Y+22	; 0x16
     eb8:	86 0f       	add	r24, r22
     eba:	97 1f       	adc	r25, r23
     ebc:	fc 01       	movw	r30, r24
     ebe:	e0 80       	ld	r14, Z
     ec0:	f1 80       	ldd	r15, Z+1	; 0x01
     ec2:	02 81       	ldd	r16, Z+2	; 0x02
     ec4:	13 81       	ldd	r17, Z+3	; 0x03
     ec6:	8a a9       	ldd	r24, Y+50	; 0x32
     ec8:	9b a9       	ldd	r25, Y+51	; 0x33
     eca:	ac a9       	ldd	r26, Y+52	; 0x34
     ecc:	bd a9       	ldd	r27, Y+53	; 0x35
     ece:	8e 21       	and	r24, r14
     ed0:	9f 21       	and	r25, r15
     ed2:	a0 23       	and	r26, r16
     ed4:	b1 23       	and	r27, r17
     ed6:	00 97       	sbiw	r24, 0x00	; 0
     ed8:	a1 05       	cpc	r26, r1
     eda:	b1 05       	cpc	r27, r1
     edc:	29 f0       	breq	.+10     	; 0xee8 <cyfun+0x226>
     ede:	81 e0       	ldi	r24, 0x01	; 1
     ee0:	90 e0       	ldi	r25, 0x00	; 0
     ee2:	a0 e0       	ldi	r26, 0x00	; 0
     ee4:	b0 e0       	ldi	r27, 0x00	; 0
     ee6:	03 c0       	rjmp	.+6      	; 0xeee <cyfun+0x22c>
     ee8:	80 e0       	ldi	r24, 0x00	; 0
     eea:	90 e0       	ldi	r25, 0x00	; 0
     eec:	dc 01       	movw	r26, r24
     eee:	82 2b       	or	r24, r18
     ef0:	93 2b       	or	r25, r19
     ef2:	a4 2b       	or	r26, r20
     ef4:	b5 2b       	or	r27, r21
     ef6:	8d 8f       	std	Y+29, r24	; 0x1d
     ef8:	9e 8f       	std	Y+30, r25	; 0x1e
     efa:	af 8f       	std	Y+31, r26	; 0x1f
     efc:	b8 a3       	std	Y+32, r27	; 0x20
/home/becker/async/autosafe/trunk/tum/wcet-cbmc/benchmarks/ndes/ndes.c:185
     efe:	8f 85       	ldd	r24, Y+15	; 0x0f
     f00:	98 89       	ldd	r25, Y+16	; 0x10
     f02:	01 97       	sbiw	r24, 0x01	; 1
     f04:	98 8b       	std	Y+16, r25	; 0x10
     f06:	8f 87       	std	Y+15, r24	; 0x0f
     f08:	89 89       	ldd	r24, Y+17	; 0x11
     f0a:	9a 89       	ldd	r25, Y+18	; 0x12
     f0c:	01 97       	sbiw	r24, 0x01	; 1
     f0e:	9a 8b       	std	Y+18, r25	; 0x12
     f10:	89 8b       	std	Y+17, r24	; 0x11
     f12:	8b 89       	ldd	r24, Y+19	; 0x13
     f14:	9c 89       	ldd	r25, Y+20	; 0x14
     f16:	01 97       	sbiw	r24, 0x01	; 1
     f18:	9c 8b       	std	Y+20, r25	; 0x14
     f1a:	8b 8b       	std	Y+19, r24	; 0x13
     f1c:	8f 85       	ldd	r24, Y+15	; 0x0f
     f1e:	98 89       	ldd	r25, Y+16	; 0x10
     f20:	18 16       	cp	r1, r24
     f22:	19 06       	cpc	r1, r25
     f24:	0c f4       	brge	.+2      	; 0xf28 <cyfun+0x266>
     f26:	25 cf       	rjmp	.-438    	; 0xd72 <cyfun+0xb0>
/home/becker/async/autosafe/trunk/tum/wcet-cbmc/benchmarks/ndes/ndes.c:190
     f28:	2d a1       	ldd	r18, Y+37	; 0x25
     f2a:	3e a1       	ldd	r19, Y+38	; 0x26
     f2c:	4f a1       	ldd	r20, Y+39	; 0x27
     f2e:	58 a5       	ldd	r21, Y+40	; 0x28
     f30:	ce 01       	movw	r24, r28
     f32:	ce 96       	adiw	r24, 0x3e	; 62
     f34:	fc 01       	movw	r30, r24
     f36:	80 81       	ld	r24, Z
     f38:	91 81       	ldd	r25, Z+1	; 0x01
     f3a:	a2 81       	ldd	r26, Z+2	; 0x02
     f3c:	b3 81       	ldd	r27, Z+3	; 0x03
     f3e:	82 27       	eor	r24, r18
     f40:	93 27       	eor	r25, r19
     f42:	a4 27       	eor	r26, r20
     f44:	b5 27       	eor	r27, r21
     f46:	8d a3       	std	Y+37, r24	; 0x25
     f48:	9e a3       	std	Y+38, r25	; 0x26
     f4a:	af a3       	std	Y+39, r26	; 0x27
     f4c:	b8 a7       	std	Y+40, r27	; 0x28
/home/becker/async/autosafe/trunk/tum/wcet-cbmc/benchmarks/ndes/ndes.c:191
     f4e:	29 a1       	ldd	r18, Y+33	; 0x21
     f50:	3a a1       	ldd	r19, Y+34	; 0x22
     f52:	4b a1       	ldd	r20, Y+35	; 0x23
     f54:	5c a1       	ldd	r21, Y+36	; 0x24
     f56:	8a ad       	ldd	r24, Y+58	; 0x3a
     f58:	9b ad       	ldd	r25, Y+59	; 0x3b
     f5a:	ac ad       	ldd	r26, Y+60	; 0x3c
     f5c:	bd ad       	ldd	r27, Y+61	; 0x3d
     f5e:	82 27       	eor	r24, r18
     f60:	93 27       	eor	r25, r19
     f62:	a4 27       	eor	r26, r20
     f64:	b5 27       	eor	r27, r21
     f66:	89 a3       	std	Y+33, r24	; 0x21
     f68:	9a a3       	std	Y+34, r25	; 0x22
     f6a:	ab a3       	std	Y+35, r26	; 0x23
     f6c:	bc a3       	std	Y+36, r27	; 0x24
/home/becker/async/autosafe/trunk/tum/wcet-cbmc/benchmarks/ndes/ndes.c:192
     f6e:	2d 8d       	ldd	r18, Y+29	; 0x1d
     f70:	3e 8d       	ldd	r19, Y+30	; 0x1e
     f72:	4f 8d       	ldd	r20, Y+31	; 0x1f
     f74:	58 a1       	ldd	r21, Y+32	; 0x20
     f76:	8e a9       	ldd	r24, Y+54	; 0x36
     f78:	9f a9       	ldd	r25, Y+55	; 0x37
     f7a:	a8 ad       	ldd	r26, Y+56	; 0x38
     f7c:	b9 ad       	ldd	r27, Y+57	; 0x39
     f7e:	82 27       	eor	r24, r18
     f80:	93 27       	eor	r25, r19
     f82:	a4 27       	eor	r26, r20
     f84:	b5 27       	eor	r27, r21
     f86:	8d 8f       	std	Y+29, r24	; 0x1d
     f88:	9e 8f       	std	Y+30, r25	; 0x1e
     f8a:	af 8f       	std	Y+31, r26	; 0x1f
     f8c:	b8 a3       	std	Y+32, r27	; 0x20
/home/becker/async/autosafe/trunk/tum/wcet-cbmc/benchmarks/ndes/ndes.c:193
     f8e:	89 a1       	ldd	r24, Y+33	; 0x21
     f90:	9a a1       	ldd	r25, Y+34	; 0x22
     f92:	ab a1       	ldd	r26, Y+35	; 0x23
     f94:	bc a1       	ldd	r27, Y+36	; 0x24
     f96:	ac 01       	movw	r20, r24
     f98:	33 27       	eor	r19, r19
     f9a:	22 27       	eor	r18, r18
     f9c:	8d a1       	ldd	r24, Y+37	; 0x25
     f9e:	9e a1       	ldd	r25, Y+38	; 0x26
     fa0:	af a1       	ldd	r26, Y+39	; 0x27
     fa2:	b8 a5       	ldd	r27, Y+40	; 0x28
     fa4:	82 0f       	add	r24, r18
     fa6:	93 1f       	adc	r25, r19
     fa8:	a4 1f       	adc	r26, r20
     faa:	b5 1f       	adc	r27, r21
     fac:	8d 83       	std	Y+5, r24	; 0x05
     fae:	9e 83       	std	Y+6, r25	; 0x06
     fb0:	af 83       	std	Y+7, r26	; 0x07
     fb2:	b8 87       	std	Y+8, r27	; 0x08
/home/becker/async/autosafe/trunk/tum/wcet-cbmc/benchmarks/ndes/ndes.c:194
     fb4:	8d 8d       	ldd	r24, Y+29	; 0x1d
     fb6:	9e 8d       	ldd	r25, Y+30	; 0x1e
     fb8:	af 8d       	ldd	r26, Y+31	; 0x1f
     fba:	b8 a1       	ldd	r27, Y+32	; 0x20
     fbc:	22 27       	eor	r18, r18
     fbe:	38 2f       	mov	r19, r24
     fc0:	49 2f       	mov	r20, r25
     fc2:	5a 2f       	mov	r21, r26
     fc4:	89 a1       	ldd	r24, Y+33	; 0x21
     fc6:	9a a1       	ldd	r25, Y+34	; 0x22
     fc8:	ab a1       	ldd	r26, Y+35	; 0x23
     fca:	bc a1       	ldd	r27, Y+36	; 0x24
     fcc:	89 2f       	mov	r24, r25
     fce:	9a 2f       	mov	r25, r26
     fd0:	ab 2f       	mov	r26, r27
     fd2:	bb 27       	eor	r27, r27
     fd4:	82 0f       	add	r24, r18
     fd6:	93 1f       	adc	r25, r19
     fd8:	a4 1f       	adc	r26, r20
     fda:	b5 1f       	adc	r27, r21
     fdc:	89 87       	std	Y+9, r24	; 0x09
     fde:	9a 87       	std	Y+10, r25	; 0x0a
     fe0:	ab 87       	std	Y+11, r26	; 0x0b
     fe2:	bc 87       	std	Y+12, r27	; 0x0c
/home/becker/async/autosafe/trunk/tum/wcet-cbmc/benchmarks/ndes/ndes.c:195
     fe4:	81 e0       	ldi	r24, 0x01	; 1
     fe6:	90 e0       	ldi	r25, 0x00	; 0
     fe8:	98 8b       	std	Y+16, r25	; 0x10
     fea:	8f 87       	std	Y+15, r24	; 0x0f
     fec:	85 e0       	ldi	r24, 0x05	; 5
     fee:	90 e0       	ldi	r25, 0x00	; 0
     ff0:	9c 8b       	std	Y+20, r25	; 0x14
     ff2:	8b 8b       	std	Y+19, r24	; 0x13
     ff4:	42 c0       	rjmp	.+132    	; 0x107a <cyfun+0x3b8>
/home/becker/async/autosafe/trunk/tum/wcet-cbmc/benchmarks/ndes/ndes.c:196
     ff6:	8d 81       	ldd	r24, Y+5	; 0x05
     ff8:	48 2f       	mov	r20, r24
     ffa:	4f 73       	andi	r20, 0x3F	; 63
     ffc:	9e 01       	movw	r18, r28
     ffe:	27 5d       	subi	r18, 0xD7	; 215
    1000:	3f 4f       	sbci	r19, 0xFF	; 255
    1002:	8f 85       	ldd	r24, Y+15	; 0x0f
    1004:	98 89       	ldd	r25, Y+16	; 0x10
    1006:	82 0f       	add	r24, r18
    1008:	93 1f       	adc	r25, r19
    100a:	fc 01       	movw	r30, r24
    100c:	40 83       	st	Z, r20
/home/becker/async/autosafe/trunk/tum/wcet-cbmc/benchmarks/ndes/ndes.c:197
    100e:	89 85       	ldd	r24, Y+9	; 0x09
    1010:	48 2f       	mov	r20, r24
    1012:	4f 73       	andi	r20, 0x3F	; 63
    1014:	9e 01       	movw	r18, r28
    1016:	27 5d       	subi	r18, 0xD7	; 215
    1018:	3f 4f       	sbci	r19, 0xFF	; 255
    101a:	8b 89       	ldd	r24, Y+19	; 0x13
    101c:	9c 89       	ldd	r25, Y+20	; 0x14
    101e:	82 0f       	add	r24, r18
    1020:	93 1f       	adc	r25, r19
    1022:	fc 01       	movw	r30, r24
    1024:	40 83       	st	Z, r20
/home/becker/async/autosafe/trunk/tum/wcet-cbmc/benchmarks/ndes/ndes.c:198
    1026:	8d 81       	ldd	r24, Y+5	; 0x05
    1028:	9e 81       	ldd	r25, Y+6	; 0x06
    102a:	af 81       	ldd	r26, Y+7	; 0x07
    102c:	b8 85       	ldd	r27, Y+8	; 0x08
    102e:	68 94       	set
    1030:	15 f8       	bld	r1, 5
    1032:	b6 95       	lsr	r27
    1034:	a7 95       	ror	r26
    1036:	97 95       	ror	r25
    1038:	87 95       	ror	r24
    103a:	16 94       	lsr	r1
    103c:	d1 f7       	brne	.-12     	; 0x1032 <cyfun+0x370>
    103e:	8d 83       	std	Y+5, r24	; 0x05
    1040:	9e 83       	std	Y+6, r25	; 0x06
    1042:	af 83       	std	Y+7, r26	; 0x07
    1044:	b8 87       	std	Y+8, r27	; 0x08
/home/becker/async/autosafe/trunk/tum/wcet-cbmc/benchmarks/ndes/ndes.c:199
    1046:	89 85       	ldd	r24, Y+9	; 0x09
    1048:	9a 85       	ldd	r25, Y+10	; 0x0a
    104a:	ab 85       	ldd	r26, Y+11	; 0x0b
    104c:	bc 85       	ldd	r27, Y+12	; 0x0c
    104e:	68 94       	set
    1050:	15 f8       	bld	r1, 5
    1052:	b6 95       	lsr	r27
    1054:	a7 95       	ror	r26
    1056:	97 95       	ror	r25
    1058:	87 95       	ror	r24
    105a:	16 94       	lsr	r1
    105c:	d1 f7       	brne	.-12     	; 0x1052 <cyfun+0x390>
    105e:	89 87       	std	Y+9, r24	; 0x09
    1060:	9a 87       	std	Y+10, r25	; 0x0a
    1062:	ab 87       	std	Y+11, r26	; 0x0b
    1064:	bc 87       	std	Y+12, r27	; 0x0c
/home/becker/async/autosafe/trunk/tum/wcet-cbmc/benchmarks/ndes/ndes.c:195
    1066:	8f 85       	ldd	r24, Y+15	; 0x0f
    1068:	98 89       	ldd	r25, Y+16	; 0x10
    106a:	01 96       	adiw	r24, 0x01	; 1
    106c:	98 8b       	std	Y+16, r25	; 0x10
    106e:	8f 87       	std	Y+15, r24	; 0x0f
    1070:	8b 89       	ldd	r24, Y+19	; 0x13
    1072:	9c 89       	ldd	r25, Y+20	; 0x14
    1074:	01 96       	adiw	r24, 0x01	; 1
    1076:	9c 8b       	std	Y+20, r25	; 0x14
    1078:	8b 8b       	std	Y+19, r24	; 0x13
    107a:	8f 85       	ldd	r24, Y+15	; 0x0f
    107c:	98 89       	ldd	r25, Y+16	; 0x10
    107e:	85 30       	cpi	r24, 0x05	; 5
    1080:	91 05       	cpc	r25, r1
    1082:	0c f4       	brge	.+2      	; 0x1086 <cyfun+0x3c4>
    1084:	b8 cf       	rjmp	.-144    	; 0xff6 <cyfun+0x334>
/home/becker/async/autosafe/trunk/tum/wcet-cbmc/benchmarks/ndes/ndes.c:201
    1086:	19 82       	std	Y+1, r1	; 0x01
    1088:	1a 82       	std	Y+2, r1	; 0x02
    108a:	1b 82       	std	Y+3, r1	; 0x03
    108c:	1c 82       	std	Y+4, r1	; 0x04
/home/becker/async/autosafe/trunk/tum/wcet-cbmc/benchmarks/ndes/ndes.c:202
    108e:	88 e0       	ldi	r24, 0x08	; 8
    1090:	90 e0       	ldi	r25, 0x00	; 0
    1092:	9e 87       	std	Y+14, r25	; 0x0e
    1094:	8d 87       	std	Y+13, r24	; 0x0d
    1096:	a3 c0       	rjmp	.+326    	; 0x11de <__stack+0xdf>
/home/becker/async/autosafe/trunk/tum/wcet-cbmc/benchmarks/ndes/ndes.c:203
    1098:	9e 01       	movw	r18, r28
    109a:	27 5d       	subi	r18, 0xD7	; 215
    109c:	3f 4f       	sbci	r19, 0xFF	; 255
    109e:	8d 85       	ldd	r24, Y+13	; 0x0d
    10a0:	9e 85       	ldd	r25, Y+14	; 0x0e
    10a2:	82 0f       	add	r24, r18
    10a4:	93 1f       	adc	r25, r19
    10a6:	fc 01       	movw	r30, r24
    10a8:	80 81       	ld	r24, Z
    10aa:	88 2f       	mov	r24, r24
    10ac:	90 e0       	ldi	r25, 0x00	; 0
    10ae:	98 8b       	std	Y+16, r25	; 0x10
    10b0:	8f 87       	std	Y+15, r24	; 0x0f
/home/becker/async/autosafe/trunk/tum/wcet-cbmc/benchmarks/ndes/ndes.c:204
    10b2:	8f 85       	ldd	r24, Y+15	; 0x0f
    10b4:	98 89       	ldd	r25, Y+16	; 0x10
    10b6:	81 70       	andi	r24, 0x01	; 1
    10b8:	99 27       	eor	r25, r25
    10ba:	9c 01       	movw	r18, r24
    10bc:	22 0f       	add	r18, r18
    10be:	33 1f       	adc	r19, r19
    10c0:	8f 85       	ldd	r24, Y+15	; 0x0f
    10c2:	98 89       	ldd	r25, Y+16	; 0x10
    10c4:	80 72       	andi	r24, 0x20	; 32
    10c6:	99 27       	eor	r25, r25
    10c8:	95 95       	asr	r25
    10ca:	87 95       	ror	r24
    10cc:	95 95       	asr	r25
    10ce:	87 95       	ror	r24
    10d0:	95 95       	asr	r25
    10d2:	87 95       	ror	r24
    10d4:	95 95       	asr	r25
    10d6:	87 95       	ror	r24
    10d8:	95 95       	asr	r25
    10da:	87 95       	ror	r24
    10dc:	82 0f       	add	r24, r18
    10de:	93 1f       	adc	r25, r19
    10e0:	98 8f       	std	Y+24, r25	; 0x18
    10e2:	8f 8b       	std	Y+23, r24	; 0x17
/home/becker/async/autosafe/trunk/tum/wcet-cbmc/benchmarks/ndes/ndes.c:205
    10e4:	8f 85       	ldd	r24, Y+15	; 0x0f
    10e6:	98 89       	ldd	r25, Y+16	; 0x10
    10e8:	82 70       	andi	r24, 0x02	; 2
    10ea:	99 27       	eor	r25, r25
    10ec:	9c 01       	movw	r18, r24
    10ee:	22 0f       	add	r18, r18
    10f0:	33 1f       	adc	r19, r19
    10f2:	22 0f       	add	r18, r18
    10f4:	33 1f       	adc	r19, r19
    10f6:	8f 85       	ldd	r24, Y+15	; 0x0f
    10f8:	98 89       	ldd	r25, Y+16	; 0x10
    10fa:	84 70       	andi	r24, 0x04	; 4
    10fc:	99 27       	eor	r25, r25
    10fe:	28 0f       	add	r18, r24
    1100:	39 1f       	adc	r19, r25
/home/becker/async/autosafe/trunk/tum/wcet-cbmc/benchmarks/ndes/ndes.c:206
    1102:	8f 85       	ldd	r24, Y+15	; 0x0f
    1104:	98 89       	ldd	r25, Y+16	; 0x10
    1106:	88 70       	andi	r24, 0x08	; 8
    1108:	99 27       	eor	r25, r25
    110a:	95 95       	asr	r25
    110c:	87 95       	ror	r24
    110e:	95 95       	asr	r25
    1110:	87 95       	ror	r24
    1112:	28 0f       	add	r18, r24
    1114:	39 1f       	adc	r19, r25
    1116:	8f 85       	ldd	r24, Y+15	; 0x0f
    1118:	98 89       	ldd	r25, Y+16	; 0x10
    111a:	80 71       	andi	r24, 0x10	; 16
    111c:	99 27       	eor	r25, r25
    111e:	95 95       	asr	r25
    1120:	87 95       	ror	r24
    1122:	95 95       	asr	r25
    1124:	87 95       	ror	r24
    1126:	95 95       	asr	r25
    1128:	87 95       	ror	r24
    112a:	95 95       	asr	r25
    112c:	87 95       	ror	r24
/home/becker/async/autosafe/trunk/tum/wcet-cbmc/benchmarks/ndes/ndes.c:205
    112e:	82 0f       	add	r24, r18
    1130:	93 1f       	adc	r25, r19
    1132:	9a 8f       	std	Y+26, r25	; 0x1a
    1134:	89 8f       	std	Y+25, r24	; 0x19
/home/becker/async/autosafe/trunk/tum/wcet-cbmc/benchmarks/ndes/ndes.c:207
    1136:	2f 89       	ldd	r18, Y+23	; 0x17
    1138:	38 8d       	ldd	r19, Y+24	; 0x18
    113a:	49 8d       	ldd	r20, Y+25	; 0x19
    113c:	5a 8d       	ldd	r21, Y+26	; 0x1a
    113e:	c9 01       	movw	r24, r18
    1140:	88 0f       	add	r24, r24
    1142:	99 1f       	adc	r25, r25
    1144:	88 0f       	add	r24, r24
    1146:	99 1f       	adc	r25, r25
    1148:	88 0f       	add	r24, r24
    114a:	99 1f       	adc	r25, r25
    114c:	82 0f       	add	r24, r18
    114e:	93 1f       	adc	r25, r19
    1150:	64 e2       	ldi	r22, 0x24	; 36
    1152:	64 9f       	mul	r22, r20
    1154:	90 01       	movw	r18, r0
    1156:	65 9f       	mul	r22, r21
    1158:	30 0d       	add	r19, r0
    115a:	11 24       	eor	r1, r1
    115c:	28 0f       	add	r18, r24
    115e:	39 1f       	adc	r19, r25
    1160:	8d 85       	ldd	r24, Y+13	; 0x0d
    1162:	9e 85       	ldd	r25, Y+14	; 0x0e
    1164:	82 0f       	add	r24, r18
    1166:	93 1f       	adc	r25, r19
    1168:	82 53       	subi	r24, 0x32	; 50
    116a:	9e 4f       	sbci	r25, 0xFE	; 254
    116c:	fc 01       	movw	r30, r24
    116e:	80 81       	ld	r24, Z
    1170:	88 2f       	mov	r24, r24
    1172:	90 e0       	ldi	r25, 0x00	; 0
    1174:	9c 8f       	std	Y+28, r25	; 0x1c
    1176:	8b 8f       	std	Y+27, r24	; 0x1b
/home/becker/async/autosafe/trunk/tum/wcet-cbmc/benchmarks/ndes/ndes.c:208
    1178:	89 81       	ldd	r24, Y+1	; 0x01
    117a:	9a 81       	ldd	r25, Y+2	; 0x02
    117c:	ab 81       	ldd	r26, Y+3	; 0x03
    117e:	bc 81       	ldd	r27, Y+4	; 0x04
    1180:	88 0f       	add	r24, r24
    1182:	99 1f       	adc	r25, r25
    1184:	aa 1f       	adc	r26, r26
    1186:	bb 1f       	adc	r27, r27
    1188:	88 0f       	add	r24, r24
    118a:	99 1f       	adc	r25, r25
    118c:	aa 1f       	adc	r26, r26
    118e:	bb 1f       	adc	r27, r27
    1190:	88 0f       	add	r24, r24
    1192:	99 1f       	adc	r25, r25
    1194:	aa 1f       	adc	r26, r26
    1196:	bb 1f       	adc	r27, r27
    1198:	88 0f       	add	r24, r24
    119a:	99 1f       	adc	r25, r25
    119c:	aa 1f       	adc	r26, r26
    119e:	bb 1f       	adc	r27, r27
    11a0:	89 83       	std	Y+1, r24	; 0x01
    11a2:	9a 83       	std	Y+2, r25	; 0x02
    11a4:	ab 83       	std	Y+3, r26	; 0x03
    11a6:	bc 83       	std	Y+4, r27	; 0x04
    11a8:	8b 8d       	ldd	r24, Y+27	; 0x1b
    11aa:	9c 8d       	ldd	r25, Y+28	; 0x1c
    11ac:	82 5f       	subi	r24, 0xF2	; 242
    11ae:	9b 4f       	sbci	r25, 0xFB	; 251
    11b0:	fc 01       	movw	r30, r24
    11b2:	80 81       	ld	r24, Z
    11b4:	88 2f       	mov	r24, r24
    11b6:	90 e0       	ldi	r25, 0x00	; 0
    11b8:	a0 e0       	ldi	r26, 0x00	; 0
    11ba:	b0 e0       	ldi	r27, 0x00	; 0
    11bc:	29 81       	ldd	r18, Y+1	; 0x01
    11be:	3a 81       	ldd	r19, Y+2	; 0x02
    11c0:	4b 81       	ldd	r20, Y+3	; 0x03
    11c2:	5c 81       	ldd	r21, Y+4	; 0x04
    11c4:	82 2b       	or	r24, r18
    11c6:	93 2b       	or	r25, r19
    11c8:	a4 2b       	or	r26, r20
    11ca:	b5 2b       	or	r27, r21
    11cc:	89 83       	std	Y+1, r24	; 0x01
    11ce:	9a 83       	std	Y+2, r25	; 0x02
    11d0:	ab 83       	std	Y+3, r26	; 0x03
    11d2:	bc 83       	std	Y+4, r27	; 0x04
/home/becker/async/autosafe/trunk/tum/wcet-cbmc/benchmarks/ndes/ndes.c:202
    11d4:	8d 85       	ldd	r24, Y+13	; 0x0d
    11d6:	9e 85       	ldd	r25, Y+14	; 0x0e
    11d8:	01 97       	sbiw	r24, 0x01	; 1
    11da:	9e 87       	std	Y+14, r25	; 0x0e
    11dc:	8d 87       	std	Y+13, r24	; 0x0d
    11de:	8d 85       	ldd	r24, Y+13	; 0x0d
    11e0:	9e 85       	ldd	r25, Y+14	; 0x0e
    11e2:	18 16       	cp	r1, r24
    11e4:	19 06       	cpc	r1, r25
    11e6:	0c f4       	brge	.+2      	; 0x11ea <__stack+0xeb>
    11e8:	57 cf       	rjmp	.-338    	; 0x1098 <cyfun+0x3d6>
/home/becker/async/autosafe/trunk/tum/wcet-cbmc/benchmarks/ndes/ndes.c:210
    11ea:	ce 01       	movw	r24, r28
    11ec:	8e 5b       	subi	r24, 0xBE	; 190
    11ee:	9f 4f       	sbci	r25, 0xFF	; 255
    11f0:	fc 01       	movw	r30, r24
    11f2:	80 81       	ld	r24, Z
    11f4:	91 81       	ldd	r25, Z+1	; 0x01
    11f6:	fc 01       	movw	r30, r24
    11f8:	10 82       	st	Z, r1
    11fa:	11 82       	std	Z+1, r1	; 0x01
    11fc:	12 82       	std	Z+2, r1	; 0x02
    11fe:	13 82       	std	Z+3, r1	; 0x03
/home/becker/async/autosafe/trunk/tum/wcet-cbmc/benchmarks/ndes/ndes.c:211
    1200:	88 eb       	ldi	r24, 0xB8	; 184
    1202:	95 e0       	ldi	r25, 0x05	; 5
    1204:	9e 8b       	std	Y+22, r25	; 0x16
    1206:	8d 8b       	std	Y+21, r24	; 0x15
/home/becker/async/autosafe/trunk/tum/wcet-cbmc/benchmarks/ndes/ndes.c:212
    1208:	80 e2       	ldi	r24, 0x20	; 32
    120a:	90 e0       	ldi	r25, 0x00	; 0
    120c:	98 8b       	std	Y+16, r25	; 0x10
    120e:	8f 87       	std	Y+15, r24	; 0x0f
    1210:	63 c0       	rjmp	.+198    	; 0x12d8 <__stack+0x1d9>
/home/becker/async/autosafe/trunk/tum/wcet-cbmc/benchmarks/ndes/ndes.c:213
    1212:	ce 01       	movw	r24, r28
    1214:	8e 5b       	subi	r24, 0xBE	; 190
    1216:	9f 4f       	sbci	r25, 0xFF	; 255
    1218:	fc 01       	movw	r30, r24
    121a:	80 81       	ld	r24, Z
    121c:	91 81       	ldd	r25, Z+1	; 0x01
    121e:	fc 01       	movw	r30, r24
    1220:	80 81       	ld	r24, Z
    1222:	91 81       	ldd	r25, Z+1	; 0x01
    1224:	a2 81       	ldd	r26, Z+2	; 0x02
    1226:	b3 81       	ldd	r27, Z+3	; 0x03
    1228:	88 0f       	add	r24, r24
    122a:	99 1f       	adc	r25, r25
    122c:	aa 1f       	adc	r26, r26
    122e:	bb 1f       	adc	r27, r27
    1230:	9e 01       	movw	r18, r28
    1232:	2e 5b       	subi	r18, 0xBE	; 190
    1234:	3f 4f       	sbci	r19, 0xFF	; 255
    1236:	f9 01       	movw	r30, r18
    1238:	20 81       	ld	r18, Z
    123a:	31 81       	ldd	r19, Z+1	; 0x01
    123c:	f9 01       	movw	r30, r18
    123e:	80 83       	st	Z, r24
    1240:	91 83       	std	Z+1, r25	; 0x01
    1242:	a2 83       	std	Z+2, r26	; 0x02
    1244:	b3 83       	std	Z+3, r27	; 0x03
    1246:	ce 01       	movw	r24, r28
    1248:	8e 5b       	subi	r24, 0xBE	; 190
    124a:	9f 4f       	sbci	r25, 0xFF	; 255
    124c:	fc 01       	movw	r30, r24
    124e:	80 81       	ld	r24, Z
    1250:	91 81       	ldd	r25, Z+1	; 0x01
    1252:	fc 01       	movw	r30, r24
    1254:	20 81       	ld	r18, Z
    1256:	31 81       	ldd	r19, Z+1	; 0x01
    1258:	42 81       	ldd	r20, Z+2	; 0x02
    125a:	53 81       	ldd	r21, Z+3	; 0x03
    125c:	8f 85       	ldd	r24, Y+15	; 0x0f
    125e:	98 89       	ldd	r25, Y+16	; 0x10
    1260:	88 0f       	add	r24, r24
    1262:	99 1f       	adc	r25, r25
    1264:	82 5e       	subi	r24, 0xE2	; 226
    1266:	9b 4f       	sbci	r25, 0xFB	; 251
    1268:	fc 01       	movw	r30, r24
    126a:	80 81       	ld	r24, Z
    126c:	91 81       	ldd	r25, Z+1	; 0x01
    126e:	88 0f       	add	r24, r24
    1270:	99 1f       	adc	r25, r25
    1272:	88 0f       	add	r24, r24
    1274:	99 1f       	adc	r25, r25
    1276:	6d 89       	ldd	r22, Y+21	; 0x15
    1278:	7e 89       	ldd	r23, Y+22	; 0x16
    127a:	86 0f       	add	r24, r22
    127c:	97 1f       	adc	r25, r23
    127e:	fc 01       	movw	r30, r24
    1280:	e0 80       	ld	r14, Z
    1282:	f1 80       	ldd	r15, Z+1	; 0x01
    1284:	02 81       	ldd	r16, Z+2	; 0x02
    1286:	13 81       	ldd	r17, Z+3	; 0x03
    1288:	89 81       	ldd	r24, Y+1	; 0x01
    128a:	9a 81       	ldd	r25, Y+2	; 0x02
    128c:	ab 81       	ldd	r26, Y+3	; 0x03
    128e:	bc 81       	ldd	r27, Y+4	; 0x04
    1290:	8e 21       	and	r24, r14
    1292:	9f 21       	and	r25, r15
    1294:	a0 23       	and	r26, r16
    1296:	b1 23       	and	r27, r17
    1298:	00 97       	sbiw	r24, 0x00	; 0
    129a:	a1 05       	cpc	r26, r1
    129c:	b1 05       	cpc	r27, r1
    129e:	29 f0       	breq	.+10     	; 0x12aa <__stack+0x1ab>
    12a0:	81 e0       	ldi	r24, 0x01	; 1
    12a2:	90 e0       	ldi	r25, 0x00	; 0
    12a4:	a0 e0       	ldi	r26, 0x00	; 0
    12a6:	b0 e0       	ldi	r27, 0x00	; 0
    12a8:	03 c0       	rjmp	.+6      	; 0x12b0 <__stack+0x1b1>
    12aa:	80 e0       	ldi	r24, 0x00	; 0
    12ac:	90 e0       	ldi	r25, 0x00	; 0
    12ae:	dc 01       	movw	r26, r24
    12b0:	82 2b       	or	r24, r18
    12b2:	93 2b       	or	r25, r19
    12b4:	a4 2b       	or	r26, r20
    12b6:	b5 2b       	or	r27, r21
    12b8:	9e 01       	movw	r18, r28
    12ba:	2e 5b       	subi	r18, 0xBE	; 190
    12bc:	3f 4f       	sbci	r19, 0xFF	; 255
    12be:	f9 01       	movw	r30, r18
    12c0:	20 81       	ld	r18, Z
    12c2:	31 81       	ldd	r19, Z+1	; 0x01
    12c4:	f9 01       	movw	r30, r18
    12c6:	80 83       	st	Z, r24
    12c8:	91 83       	std	Z+1, r25	; 0x01
    12ca:	a2 83       	std	Z+2, r26	; 0x02
    12cc:	b3 83       	std	Z+3, r27	; 0x03
/home/becker/async/autosafe/trunk/tum/wcet-cbmc/benchmarks/ndes/ndes.c:212
    12ce:	8f 85       	ldd	r24, Y+15	; 0x0f
    12d0:	98 89       	ldd	r25, Y+16	; 0x10
    12d2:	01 97       	sbiw	r24, 0x01	; 1
    12d4:	98 8b       	std	Y+16, r25	; 0x10
    12d6:	8f 87       	std	Y+15, r24	; 0x0f
    12d8:	8f 85       	ldd	r24, Y+15	; 0x0f
    12da:	98 89       	ldd	r25, Y+16	; 0x10
    12dc:	18 16       	cp	r1, r24
    12de:	19 06       	cpc	r1, r25
    12e0:	0c f4       	brge	.+2      	; 0x12e4 <__stack+0x1e5>
    12e2:	97 cf       	rjmp	.-210    	; 0x1212 <__stack+0x113>
/home/becker/async/autosafe/trunk/tum/wcet-cbmc/benchmarks/ndes/ndes.c:214
    12e4:	cd 5b       	subi	r28, 0xBD	; 189
    12e6:	df 4f       	sbci	r29, 0xFF	; 255
    12e8:	0f b6       	in	r0, 0x3f	; 63
    12ea:	f8 94       	cli
    12ec:	de bf       	out	0x3e, r29	; 62
    12ee:	0f be       	out	0x3f, r0	; 63
    12f0:	cd bf       	out	0x3d, r28	; 61
    12f2:	df 91       	pop	r29
    12f4:	cf 91       	pop	r28
    12f6:	1f 91       	pop	r17
    12f8:	0f 91       	pop	r16
    12fa:	ff 90       	pop	r15
    12fc:	ef 90       	pop	r14
    12fe:	df 90       	pop	r13
    1300:	cf 90       	pop	r12
    1302:	bf 90       	pop	r11
    1304:	af 90       	pop	r10
    1306:	9f 90       	pop	r9
    1308:	8f 90       	pop	r8
    130a:	08 95       	ret

0000130c <main>:
main():
/home/becker/async/autosafe/trunk/tum/wcet-cbmc/benchmarks/ndes/ndes.c:222
    130c:	8f 92       	push	r8
    130e:	9f 92       	push	r9
    1310:	af 92       	push	r10
    1312:	bf 92       	push	r11
    1314:	cf 92       	push	r12
    1316:	df 92       	push	r13
    1318:	ef 92       	push	r14
    131a:	ff 92       	push	r15
    131c:	0f 93       	push	r16
    131e:	1f 93       	push	r17
    1320:	cf 93       	push	r28
    1322:	df 93       	push	r29
    1324:	cd b7       	in	r28, 0x3d	; 61
    1326:	de b7       	in	r29, 0x3e	; 62
    1328:	6c 97       	sbiw	r28, 0x1c	; 28
    132a:	0f b6       	in	r0, 0x3f	; 63
    132c:	f8 94       	cli
    132e:	de bf       	out	0x3e, r29	; 62
    1330:	0f be       	out	0x3f, r0	; 63
    1332:	cd bf       	out	0x3d, r28	; 61
/home/becker/async/autosafe/trunk/tum/wcet-cbmc/benchmarks/ndes/ndes.c:226
    1334:	83 e2       	ldi	r24, 0x23	; 35
    1336:	90 e0       	ldi	r25, 0x00	; 0
    1338:	a0 e0       	ldi	r26, 0x00	; 0
    133a:	b0 e0       	ldi	r27, 0x00	; 0
    133c:	8b 83       	std	Y+3, r24	; 0x03
    133e:	9c 83       	std	Y+4, r25	; 0x04
    1340:	ad 83       	std	Y+5, r26	; 0x05
    1342:	be 83       	std	Y+6, r27	; 0x06
/home/becker/async/autosafe/trunk/tum/wcet-cbmc/benchmarks/ndes/ndes.c:227
    1344:	8a e1       	ldi	r24, 0x1A	; 26
    1346:	90 e0       	ldi	r25, 0x00	; 0
    1348:	a0 e0       	ldi	r26, 0x00	; 0
    134a:	b0 e0       	ldi	r27, 0x00	; 0
    134c:	8f 83       	std	Y+7, r24	; 0x07
    134e:	98 87       	std	Y+8, r25	; 0x08
    1350:	a9 87       	std	Y+9, r26	; 0x09
    1352:	ba 87       	std	Y+10, r27	; 0x0a
/home/becker/async/autosafe/trunk/tum/wcet-cbmc/benchmarks/ndes/ndes.c:228
    1354:	82 e0       	ldi	r24, 0x02	; 2
    1356:	90 e0       	ldi	r25, 0x00	; 0
    1358:	a0 e0       	ldi	r26, 0x00	; 0
    135a:	b0 e0       	ldi	r27, 0x00	; 0
    135c:	8b 87       	std	Y+11, r24	; 0x0b
    135e:	9c 87       	std	Y+12, r25	; 0x0c
    1360:	ad 87       	std	Y+13, r26	; 0x0d
    1362:	be 87       	std	Y+14, r27	; 0x0e
/home/becker/async/autosafe/trunk/tum/wcet-cbmc/benchmarks/ndes/ndes.c:229
    1364:	80 e1       	ldi	r24, 0x10	; 16
    1366:	90 e0       	ldi	r25, 0x00	; 0
    1368:	a0 e0       	ldi	r26, 0x00	; 0
    136a:	b0 e0       	ldi	r27, 0x00	; 0
    136c:	8f 87       	std	Y+15, r24	; 0x0f
    136e:	98 8b       	std	Y+16, r25	; 0x10
    1370:	a9 8b       	std	Y+17, r26	; 0x11
    1372:	ba 8b       	std	Y+18, r27	; 0x12
/home/becker/async/autosafe/trunk/tum/wcet-cbmc/benchmarks/ndes/ndes.c:231
    1374:	80 91 6a 01 	lds	r24, 0x016A
    1378:	90 91 6b 01 	lds	r25, 0x016B
    137c:	9c 8f       	std	Y+28, r25	; 0x1c
    137e:	8b 8f       	std	Y+27, r24	; 0x1b
/home/becker/async/autosafe/trunk/tum/wcet-cbmc/benchmarks/ndes/ndes.c:232
    1380:	80 91 6a 01 	lds	r24, 0x016A
    1384:	90 91 6b 01 	lds	r25, 0x016B
    1388:	9a 83       	std	Y+2, r25	; 0x02
    138a:	89 83       	std	Y+1, r24	; 0x01
/home/becker/async/autosafe/trunk/tum/wcet-cbmc/benchmarks/ndes/ndes.c:234
    138c:	ce 01       	movw	r24, r28
    138e:	4b 96       	adiw	r24, 0x1b	; 27
    1390:	9e 01       	movw	r18, r28
    1392:	2d 5e       	subi	r18, 0xED	; 237
    1394:	3f 4f       	sbci	r19, 0xFF	; 255
    1396:	43 2f       	mov	r20, r19
    1398:	4f 93       	push	r20
    139a:	2f 93       	push	r18
    139c:	2a 81       	ldd	r18, Y+2	; 0x02
    139e:	2f 93       	push	r18
    13a0:	29 81       	ldd	r18, Y+1	; 0x01
    13a2:	2f 93       	push	r18
    13a4:	4c 01       	movw	r8, r24
    13a6:	ab 84       	ldd	r10, Y+11	; 0x0b
    13a8:	bc 84       	ldd	r11, Y+12	; 0x0c
    13aa:	cd 84       	ldd	r12, Y+13	; 0x0d
    13ac:	de 84       	ldd	r13, Y+14	; 0x0e
    13ae:	ef 84       	ldd	r14, Y+15	; 0x0f
    13b0:	f8 88       	ldd	r15, Y+16	; 0x10
    13b2:	09 89       	ldd	r16, Y+17	; 0x11
    13b4:	1a 89       	ldd	r17, Y+18	; 0x12
    13b6:	2b 81       	ldd	r18, Y+3	; 0x03
    13b8:	3c 81       	ldd	r19, Y+4	; 0x04
    13ba:	4d 81       	ldd	r20, Y+5	; 0x05
    13bc:	5e 81       	ldd	r21, Y+6	; 0x06
    13be:	6f 81       	ldd	r22, Y+7	; 0x07
    13c0:	78 85       	ldd	r23, Y+8	; 0x08
    13c2:	89 85       	ldd	r24, Y+9	; 0x09
    13c4:	9a 85       	ldd	r25, Y+10	; 0x0a
    13c6:	0e 94 67 00 	call	0xce	; 0xce <des>
    13ca:	0f 90       	pop	r0
    13cc:	0f 90       	pop	r0
    13ce:	0f 90       	pop	r0
    13d0:	0f 90       	pop	r0
/home/becker/async/autosafe/trunk/tum/wcet-cbmc/benchmarks/ndes/ndes.c:236
    13d2:	80 e0       	ldi	r24, 0x00	; 0
    13d4:	90 e0       	ldi	r25, 0x00	; 0
/home/becker/async/autosafe/trunk/tum/wcet-cbmc/benchmarks/ndes/ndes.c:237
    13d6:	6c 96       	adiw	r28, 0x1c	; 28
    13d8:	0f b6       	in	r0, 0x3f	; 63
    13da:	f8 94       	cli
    13dc:	de bf       	out	0x3e, r29	; 62
    13de:	0f be       	out	0x3f, r0	; 63
    13e0:	cd bf       	out	0x3d, r28	; 61
    13e2:	df 91       	pop	r29
    13e4:	cf 91       	pop	r28
    13e6:	1f 91       	pop	r17
    13e8:	0f 91       	pop	r16
    13ea:	ff 90       	pop	r15
    13ec:	ef 90       	pop	r14
    13ee:	df 90       	pop	r13
    13f0:	cf 90       	pop	r12
    13f2:	bf 90       	pop	r11
    13f4:	af 90       	pop	r10
    13f6:	9f 90       	pop	r9
    13f8:	8f 90       	pop	r8
    13fa:	08 95       	ret

000013fc <_exit>:
__bad_interrupt():
../../../../crt1/gcrt1.S:195
    13fc:	f8 94       	cli

000013fe <__stop_program>:
    13fe:	ff cf       	rjmp	.-2      	; 0x13fe <__stop_program>
