
autopilot.elf:     file format elf32-avr


Disassembly of section .text:

00000000 <__vectors>:
__vectors():
       0:	0c 94 7e 00 	jmp	0xfc	; 0xfc <__ctors_end>
       4:	0c 94 9d 00 	jmp	0x13a	; 0x13a <__bad_interrupt>
       8:	0c 94 9d 00 	jmp	0x13a	; 0x13a <__bad_interrupt>
       c:	0c 94 9d 00 	jmp	0x13a	; 0x13a <__bad_interrupt>
      10:	0c 94 9d 00 	jmp	0x13a	; 0x13a <__bad_interrupt>
      14:	0c 94 92 31 	jmp	0x6324	; 0x6324 <__vector_5>
      18:	0c 94 9d 00 	jmp	0x13a	; 0x13a <__bad_interrupt>
      1c:	0c 94 9d 00 	jmp	0x13a	; 0x13a <__bad_interrupt>
      20:	0c 94 9d 00 	jmp	0x13a	; 0x13a <__bad_interrupt>
      24:	0c 94 9d 00 	jmp	0x13a	; 0x13a <__bad_interrupt>
      28:	0c 94 9d 00 	jmp	0x13a	; 0x13a <__bad_interrupt>
      2c:	0c 94 9d 00 	jmp	0x13a	; 0x13a <__bad_interrupt>
      30:	0c 94 a0 32 	jmp	0x6540	; 0x6540 <__vector_12>
      34:	0c 94 9d 00 	jmp	0x13a	; 0x13a <__bad_interrupt>
      38:	0c 94 9d 00 	jmp	0x13a	; 0x13a <__bad_interrupt>
      3c:	0c 94 9d 00 	jmp	0x13a	; 0x13a <__bad_interrupt>
      40:	0c 94 9d 00 	jmp	0x13a	; 0x13a <__bad_interrupt>
      44:	0c 94 7e 33 	jmp	0x66fc	; 0x66fc <__vector_17>
      48:	0c 94 9d 00 	jmp	0x13a	; 0x13a <__bad_interrupt>
      4c:	0c 94 9d 00 	jmp	0x13a	; 0x13a <__bad_interrupt>
      50:	0c 94 89 54 	jmp	0xa912	; 0xa912 <__vector_20>
      54:	0c 94 0b 34 	jmp	0x6816	; 0x6816 <__vector_21>
      58:	0c 94 9d 00 	jmp	0x13a	; 0x13a <__bad_interrupt>
      5c:	0c 94 9d 00 	jmp	0x13a	; 0x13a <__bad_interrupt>
      60:	0c 94 9d 00 	jmp	0x13a	; 0x13a <__bad_interrupt>
      64:	0c 94 9d 00 	jmp	0x13a	; 0x13a <__bad_interrupt>
      68:	0c 94 9d 00 	jmp	0x13a	; 0x13a <__bad_interrupt>
      6c:	0c 94 9d 00 	jmp	0x13a	; 0x13a <__bad_interrupt>
      70:	0c 94 9d 00 	jmp	0x13a	; 0x13a <__bad_interrupt>
      74:	0c 94 9d 00 	jmp	0x13a	; 0x13a <__bad_interrupt>
      78:	0c 94 e6 36 	jmp	0x6dcc	; 0x6dcc <__vector_30>
      7c:	0c 94 9d 00 	jmp	0x13a	; 0x13a <__bad_interrupt>
      80:	0c 94 ce 54 	jmp	0xa99c	; 0xa99c <__vector_32>
      84:	0c 94 9d 00 	jmp	0x13a	; 0x13a <__bad_interrupt>
      88:	0c 94 9d 00 	jmp	0x13a	; 0x13a <__bad_interrupt>
      8c:	44 36       	cpi	r20, 0x64	; 100
      8e:	4e 36       	cpi	r20, 0x6E	; 110
      90:	5c 36       	cpi	r21, 0x6C	; 108
      92:	6f 36       	cpi	r22, 0x6F	; 111
      94:	78 36       	cpi	r23, 0x68	; 104
      96:	85 36       	cpi	r24, 0x65	; 101
      98:	a6 36       	cpi	r26, 0x66	; 102
      9a:	c6 36       	cpi	r28, 0x66	; 102
      9c:	d2 36       	cpi	r29, 0x62	; 98
      9e:	47 40       	sbci	r20, 0x07	; 7
      a0:	7c 40       	sbci	r23, 0x0C	; 12
      a2:	e4 40       	sbci	r30, 0x04	; 4
      a4:	4c 41       	sbci	r20, 0x1C	; 28
      a6:	b6 41       	sbci	r27, 0x16	; 22
      a8:	1e 42       	sbci	r17, 0x2E	; 46
      aa:	86 42       	sbci	r24, 0x26	; 38
      ac:	f0 42       	sbci	r31, 0x20	; 32
      ae:	f4 42       	sbci	r31, 0x24	; 36
      b0:	08 4a       	sbci	r16, 0xA8	; 168
      b2:	d7 3b       	cpi	r29, 0xB7	; 183
      b4:	3b ce       	rjmp	.-906    	; 0xfffffd2c <__eeprom_end+0xff7efd2c>
      b6:	01 6e       	ori	r16, 0xE1	; 225
      b8:	84 bc       	out	0x24, r8	; 36
      ba:	bf fd       	.word	0xfdbf	; ????
      bc:	c1 2f       	mov	r28, r17
      be:	3d 6c       	ori	r19, 0xCD	; 205
      c0:	74 31       	cpi	r23, 0x14	; 20
      c2:	9a bd       	out	0x2a, r25	; 42
      c4:	56 83       	std	Z+6, r21	; 0x06
      c6:	3d da       	rcall	.-2950   	; 0xfffff542 <__eeprom_end+0xff7ef542>
      c8:	3d 00       	.word	0x003d	; ????
      ca:	c7 7f       	andi	r28, 0xF7	; 247
      cc:	11 be       	out	0x31, r1	; 49
      ce:	d9 e4       	ldi	r29, 0x49	; 73
      d0:	bb 4c       	sbci	r27, 0xCB	; 203
      d2:	3e 91       	ld	r19, -X
      d4:	6b aa       	std	Y+51, r6	; 0x33
      d6:	aa be       	out	0x3a, r10	; 58
      d8:	00 00       	nop
      da:	00 80       	ld	r0, Z
      dc:	3f 05       	cpc	r19, r15
      de:	a8 4c       	sbci	r26, 0xC8	; 200
      e0:	cd b2       	in	r12, 0x1d	; 29
      e2:	d4 4e       	sbci	r29, 0xE4	; 228
      e4:	b9 38       	cpi	r27, 0x89	; 137
      e6:	36 a9       	ldd	r19, Z+54	; 0x36
      e8:	02 0c       	add	r0, r2
      ea:	50 b9       	out	0x00, r21	; 0
      ec:	91 86       	std	Z+9, r9	; 0x09
      ee:	88 08       	sbc	r8, r8
      f0:	3c a6       	std	Y+44, r3	; 0x2c
      f2:	aa aa       	std	Y+50, r10	; 0x32
      f4:	2a be       	out	0x3a, r2	; 58
      f6:	00 00       	nop
      f8:	00 80       	ld	r0, Z
      fa:	3f 00       	.word	0x003f	; ????

000000fc <__ctors_end>:
__trampolines_start():
      fc:	11 24       	eor	r1, r1
      fe:	1f be       	out	0x3f, r1	; 63
     100:	cf ef       	ldi	r28, 0xFF	; 255
     102:	d0 e1       	ldi	r29, 0x10	; 16
     104:	de bf       	out	0x3e, r29	; 62
     106:	cd bf       	out	0x3d, r28	; 61

00000108 <__do_copy_data>:
__do_copy_data():
     108:	11 e0       	ldi	r17, 0x01	; 1
     10a:	a0 e0       	ldi	r26, 0x00	; 0
     10c:	b1 e0       	ldi	r27, 0x01	; 1
     10e:	e0 e0       	ldi	r30, 0x00	; 0
     110:	fe eb       	ldi	r31, 0xBE	; 190
     112:	00 e0       	ldi	r16, 0x00	; 0
     114:	0b bf       	out	0x3b, r16	; 59
     116:	02 c0       	rjmp	.+4      	; 0x11c <__do_copy_data+0x14>
     118:	07 90       	elpm	r0, Z+
     11a:	0d 92       	st	X+, r0
     11c:	a8 3c       	cpi	r26, 0xC8	; 200
     11e:	b1 07       	cpc	r27, r17
     120:	d9 f7       	brne	.-10     	; 0x118 <__do_copy_data+0x10>

00000122 <__do_clear_bss>:
__do_clear_bss():
     122:	27 e0       	ldi	r18, 0x07	; 7
     124:	a8 ec       	ldi	r26, 0xC8	; 200
     126:	b1 e0       	ldi	r27, 0x01	; 1
     128:	01 c0       	rjmp	.+2      	; 0x12c <.do_clear_bss_start>

0000012a <.do_clear_bss_loop>:
     12a:	1d 92       	st	X+, r1

0000012c <.do_clear_bss_start>:
     12c:	a2 3e       	cpi	r26, 0xE2	; 226
     12e:	b2 07       	cpc	r27, r18
     130:	e1 f7       	brne	.-8      	; 0x12a <.do_clear_bss_loop>
.do_clear_bss_start():
     132:	0e 94 27 5b 	call	0xb64e	; 0xb64e <main>
     136:	0c 94 fe 5e 	jmp	0xbdfc	; 0xbdfc <_exit>

0000013a <__bad_interrupt>:
__vector_22():
     13a:	0c 94 00 00 	jmp	0	; 0x0 <__vectors>

0000013e <ground_calibrate>:
ground_calibrate():
/home/becker/async/wcet-benchmarks/benchmarks/PapaBench-0.2m/sw/airborne/autopilot_preprocessed/pp_main.c:319
     13e:	cf 93       	push	r28
     140:	df 93       	push	r29
     142:	cd b7       	in	r28, 0x3d	; 61
     144:	de b7       	in	r29, 0x3e	; 62
/home/becker/async/wcet-benchmarks/benchmarks/PapaBench-0.2m/sw/airborne/autopilot_preprocessed/pp_main.c:321
     146:	80 91 d3 01 	lds	r24, 0x01D3
     14a:	88 2f       	mov	r24, r24
     14c:	90 e0       	ldi	r25, 0x00	; 0
     14e:	81 30       	cpi	r24, 0x01	; 1
     150:	91 05       	cpc	r25, r1
     152:	09 f4       	brne	.+2      	; 0x156 <ground_calibrate+0x18>
     154:	d8 c0       	rjmp	.+432    	; 0x306 <ground_calibrate+0x1c8>
     156:	82 30       	cpi	r24, 0x02	; 2
     158:	91 05       	cpc	r25, r1
     15a:	09 f4       	brne	.+2      	; 0x15e <ground_calibrate+0x20>
     15c:	20 c5       	rjmp	.+2624   	; 0xb9e <ground_calibrate+0xa60>
     15e:	00 97       	sbiw	r24, 0x00	; 0
     160:	09 f0       	breq	.+2      	; 0x164 <ground_calibrate+0x26>
     162:	1e c5       	rjmp	.+2620   	; 0xba0 <ground_calibrate+0xa62>
/home/becker/async/wcet-benchmarks/benchmarks/PapaBench-0.2m/sw/airborne/autopilot_preprocessed/pp_main.c:323
     164:	80 91 ce 01 	lds	r24, 0x01CE
     168:	90 91 cf 01 	lds	r25, 0x01CF
     16c:	8a 30       	cpi	r24, 0x0A	; 10
     16e:	91 05       	cpc	r25, r1
     170:	08 f0       	brcs	.+2      	; 0x174 <ground_calibrate+0x36>
     172:	c8 c0       	rjmp	.+400    	; 0x304 <ground_calibrate+0x1c6>
/home/becker/async/wcet-benchmarks/benchmarks/PapaBench-0.2m/sw/airborne/autopilot_preprocessed/pp_main.c:323 (discriminator 1)
     174:	80 91 c9 01 	lds	r24, 0x01C9
     178:	81 30       	cpi	r24, 0x01	; 1
     17a:	09 f0       	breq	.+2      	; 0x17e <ground_calibrate+0x40>
     17c:	c3 c0       	rjmp	.+390    	; 0x304 <ground_calibrate+0x1c6>
/home/becker/async/wcet-benchmarks/benchmarks/PapaBench-0.2m/sw/airborne/autopilot_preprocessed/pp_main.c:324
     17e:	81 e0       	ldi	r24, 0x01	; 1
     180:	80 93 d3 01 	sts	0x01D3, r24
/home/becker/async/wcet-benchmarks/benchmarks/PapaBench-0.2m/sw/airborne/autopilot_preprocessed/pp_main.c:325
     184:	90 91 fd 05 	lds	r25, 0x05FD
     188:	80 91 fe 05 	lds	r24, 0x05FE
     18c:	98 17       	cp	r25, r24
     18e:	a0 f0       	brcs	.+40     	; 0x1b8 <ground_calibrate+0x7a>
/home/becker/async/wcet-benchmarks/benchmarks/PapaBench-0.2m/sw/airborne/autopilot_preprocessed/pp_main.c:325 (discriminator 1)
     190:	80 91 fe 05 	lds	r24, 0x05FE
     194:	28 2f       	mov	r18, r24
     196:	30 e0       	ldi	r19, 0x00	; 0
     198:	80 91 fd 05 	lds	r24, 0x05FD
     19c:	88 2f       	mov	r24, r24
     19e:	90 e0       	ldi	r25, 0x00	; 0
     1a0:	a9 01       	movw	r20, r18
     1a2:	48 1b       	sub	r20, r24
     1a4:	59 0b       	sbc	r21, r25
     1a6:	ca 01       	movw	r24, r20
     1a8:	81 50       	subi	r24, 0x01	; 1
     1aa:	9f 4f       	sbci	r25, 0xFF	; 255
     1ac:	21 e0       	ldi	r18, 0x01	; 1
     1ae:	85 30       	cpi	r24, 0x05	; 5
     1b0:	91 05       	cpc	r25, r1
     1b2:	9c f4       	brge	.+38     	; 0x1da <ground_calibrate+0x9c>
     1b4:	20 e0       	ldi	r18, 0x00	; 0
     1b6:	11 c0       	rjmp	.+34     	; 0x1da <ground_calibrate+0x9c>
/home/becker/async/wcet-benchmarks/benchmarks/PapaBench-0.2m/sw/airborne/autopilot_preprocessed/pp_main.c:325 (discriminator 2)
     1b8:	80 91 fe 05 	lds	r24, 0x05FE
     1bc:	28 2f       	mov	r18, r24
     1be:	30 e0       	ldi	r19, 0x00	; 0
     1c0:	80 91 fd 05 	lds	r24, 0x05FD
     1c4:	88 2f       	mov	r24, r24
     1c6:	90 e0       	ldi	r25, 0x00	; 0
     1c8:	f9 01       	movw	r30, r18
     1ca:	e8 1b       	sub	r30, r24
     1cc:	f9 0b       	sbc	r31, r25
     1ce:	cf 01       	movw	r24, r30
     1d0:	21 e0       	ldi	r18, 0x01	; 1
     1d2:	85 30       	cpi	r24, 0x05	; 5
     1d4:	91 05       	cpc	r25, r1
     1d6:	0c f4       	brge	.+2      	; 0x1da <ground_calibrate+0x9c>
     1d8:	20 e0       	ldi	r18, 0x00	; 0
/home/becker/async/wcet-benchmarks/benchmarks/PapaBench-0.2m/sw/airborne/autopilot_preprocessed/pp_main.c:325 (discriminator 3)
     1da:	22 23       	and	r18, r18
     1dc:	09 f4       	brne	.+2      	; 0x1e0 <ground_calibrate+0xa2>
     1de:	8c c0       	rjmp	.+280    	; 0x2f8 <ground_calibrate+0x1ba>
/home/becker/async/wcet-benchmarks/benchmarks/PapaBench-0.2m/sw/airborne/autopilot_preprocessed/pp_main.c:325 (discriminator 1)
     1e0:	80 91 fd 05 	lds	r24, 0x05FD
     1e4:	88 2f       	mov	r24, r24
     1e6:	90 e0       	ldi	r25, 0x00	; 0
     1e8:	80 50       	subi	r24, 0x00	; 0
     1ea:	9a 4f       	sbci	r25, 0xFA	; 250
     1ec:	25 e0       	ldi	r18, 0x05	; 5
     1ee:	fc 01       	movw	r30, r24
     1f0:	20 83       	st	Z, r18
     1f2:	80 91 fd 05 	lds	r24, 0x05FD
     1f6:	8f 5f       	subi	r24, 0xFF	; 255
     1f8:	80 93 fd 05 	sts	0x05FD, r24
     1fc:	80 91 fd 05 	lds	r24, 0x05FD
     200:	8f 3f       	cpi	r24, 0xFF	; 255
     202:	11 f4       	brne	.+4      	; 0x208 <ground_calibrate+0xca>
     204:	10 92 fd 05 	sts	0x05FD, r1
/home/becker/async/wcet-benchmarks/benchmarks/PapaBench-0.2m/sw/airborne/autopilot_preprocessed/pp_main.c:325 (discriminator 2)
     208:	80 91 fd 05 	lds	r24, 0x05FD
     20c:	88 2f       	mov	r24, r24
     20e:	90 e0       	ldi	r25, 0x00	; 0
     210:	80 50       	subi	r24, 0x00	; 0
     212:	9a 4f       	sbci	r25, 0xFA	; 250
     214:	22 e0       	ldi	r18, 0x02	; 2
     216:	fc 01       	movw	r30, r24
     218:	20 83       	st	Z, r18
     21a:	80 91 fd 05 	lds	r24, 0x05FD
     21e:	8f 5f       	subi	r24, 0xFF	; 255
     220:	80 93 fd 05 	sts	0x05FD, r24
     224:	80 91 fd 05 	lds	r24, 0x05FD
     228:	8f 3f       	cpi	r24, 0xFF	; 255
     22a:	11 f4       	brne	.+4      	; 0x230 <ground_calibrate+0xf2>
/home/becker/async/wcet-benchmarks/benchmarks/PapaBench-0.2m/sw/airborne/autopilot_preprocessed/pp_main.c:325 (discriminator 1)
     22c:	10 92 fd 05 	sts	0x05FD, r1
/home/becker/async/wcet-benchmarks/benchmarks/PapaBench-0.2m/sw/airborne/autopilot_preprocessed/pp_main.c:325 (discriminator 2)
     230:	82 e0       	ldi	r24, 0x02	; 2
     232:	80 93 ff 06 	sts	0x06FF, r24
     236:	82 e0       	ldi	r24, 0x02	; 2
     238:	80 93 fa 05 	sts	0x05FA, r24
     23c:	80 91 fd 05 	lds	r24, 0x05FD
     240:	88 2f       	mov	r24, r24
     242:	90 e0       	ldi	r25, 0x00	; 0
     244:	20 91 ff 06 	lds	r18, 0x06FF
     248:	80 50       	subi	r24, 0x00	; 0
     24a:	9a 4f       	sbci	r25, 0xFA	; 250
     24c:	fc 01       	movw	r30, r24
     24e:	20 83       	st	Z, r18
     250:	80 91 fd 05 	lds	r24, 0x05FD
     254:	8f 5f       	subi	r24, 0xFF	; 255
     256:	80 93 fd 05 	sts	0x05FD, r24
     25a:	80 91 fd 05 	lds	r24, 0x05FD
     25e:	8f 3f       	cpi	r24, 0xFF	; 255
     260:	11 f4       	brne	.+4      	; 0x266 <ground_calibrate+0x128>
/home/becker/async/wcet-benchmarks/benchmarks/PapaBench-0.2m/sw/airborne/autopilot_preprocessed/pp_main.c:325 (discriminator 1)
     262:	10 92 fd 05 	sts	0x05FD, r1
/home/becker/async/wcet-benchmarks/benchmarks/PapaBench-0.2m/sw/airborne/autopilot_preprocessed/pp_main.c:325 (discriminator 2)
     266:	80 91 fd 05 	lds	r24, 0x05FD
     26a:	88 2f       	mov	r24, r24
     26c:	90 e0       	ldi	r25, 0x00	; 0
     26e:	20 91 fa 05 	lds	r18, 0x05FA
     272:	80 50       	subi	r24, 0x00	; 0
     274:	9a 4f       	sbci	r25, 0xFA	; 250
     276:	fc 01       	movw	r30, r24
     278:	20 83       	st	Z, r18
     27a:	80 91 fd 05 	lds	r24, 0x05FD
     27e:	8f 5f       	subi	r24, 0xFF	; 255
     280:	80 93 fd 05 	sts	0x05FD, r24
     284:	80 91 fd 05 	lds	r24, 0x05FD
     288:	8f 3f       	cpi	r24, 0xFF	; 255
     28a:	11 f4       	brne	.+4      	; 0x290 <ground_calibrate+0x152>
/home/becker/async/wcet-benchmarks/benchmarks/PapaBench-0.2m/sw/airborne/autopilot_preprocessed/pp_main.c:325 (discriminator 1)
     28c:	10 92 fd 05 	sts	0x05FD, r1
/home/becker/async/wcet-benchmarks/benchmarks/PapaBench-0.2m/sw/airborne/autopilot_preprocessed/pp_main.c:325 (discriminator 2)
     290:	89 e5       	ldi	r24, 0x59	; 89
     292:	90 e0       	ldi	r25, 0x00	; 0
     294:	fc 01       	movw	r30, r24
     296:	80 81       	ld	r24, Z
     298:	88 2f       	mov	r24, r24
     29a:	90 e0       	ldi	r25, 0x00	; 0
     29c:	80 71       	andi	r24, 0x10	; 16
     29e:	99 27       	eor	r25, r25
     2a0:	00 97       	sbiw	r24, 0x00	; 0
     2a2:	81 f5       	brne	.+96     	; 0x304 <ground_calibrate+0x1c6>
/home/becker/async/wcet-benchmarks/benchmarks/PapaBench-0.2m/sw/airborne/autopilot_preprocessed/pp_main.c:325 (discriminator 1)
     2a4:	80 91 fe 05 	lds	r24, 0x05FE
     2a8:	88 2f       	mov	r24, r24
     2aa:	90 e0       	ldi	r25, 0x00	; 0
     2ac:	80 50       	subi	r24, 0x00	; 0
     2ae:	9a 4f       	sbci	r25, 0xFA	; 250
     2b0:	fc 01       	movw	r30, r24
     2b2:	80 81       	ld	r24, Z
     2b4:	80 93 fc 05 	sts	0x05FC, r24
     2b8:	10 92 ff 05 	sts	0x05FF, r1
     2bc:	80 91 fe 05 	lds	r24, 0x05FE
     2c0:	8f 5f       	subi	r24, 0xFF	; 255
     2c2:	80 93 fe 05 	sts	0x05FE, r24
     2c6:	80 91 fe 05 	lds	r24, 0x05FE
     2ca:	8f 3f       	cpi	r24, 0xFF	; 255
     2cc:	11 f4       	brne	.+4      	; 0x2d2 <ground_calibrate+0x194>
     2ce:	10 92 fe 05 	sts	0x05FE, r1
/home/becker/async/wcet-benchmarks/benchmarks/PapaBench-0.2m/sw/airborne/autopilot_preprocessed/pp_main.c:325 (discriminator 2)
     2d2:	88 e5       	ldi	r24, 0x58	; 88
     2d4:	90 e0       	ldi	r25, 0x00	; 0
     2d6:	28 e5       	ldi	r18, 0x58	; 88
     2d8:	30 e0       	ldi	r19, 0x00	; 0
     2da:	f9 01       	movw	r30, r18
     2dc:	20 81       	ld	r18, Z
     2de:	21 60       	ori	r18, 0x01	; 1
     2e0:	fc 01       	movw	r30, r24
     2e2:	20 83       	st	Z, r18
     2e4:	89 e5       	ldi	r24, 0x59	; 89
     2e6:	90 e0       	ldi	r25, 0x00	; 0
     2e8:	29 e5       	ldi	r18, 0x59	; 89
     2ea:	30 e0       	ldi	r19, 0x00	; 0
     2ec:	f9 01       	movw	r30, r18
     2ee:	20 81       	ld	r18, Z
     2f0:	20 61       	ori	r18, 0x10	; 16
     2f2:	fc 01       	movw	r30, r24
     2f4:	20 83       	st	Z, r18
/home/becker/async/wcet-benchmarks/benchmarks/PapaBench-0.2m/sw/airborne/autopilot_preprocessed/pp_main.c:327 (discriminator 2)
     2f6:	54 c4       	rjmp	.+2216   	; 0xba0 <ground_calibrate+0xa62>
/home/becker/async/wcet-benchmarks/benchmarks/PapaBench-0.2m/sw/airborne/autopilot_preprocessed/pp_main.c:325 (discriminator 2)
     2f8:	80 91 fb 05 	lds	r24, 0x05FB
     2fc:	8f 5f       	subi	r24, 0xFF	; 255
     2fe:	80 93 fb 05 	sts	0x05FB, r24
/home/becker/async/wcet-benchmarks/benchmarks/PapaBench-0.2m/sw/airborne/autopilot_preprocessed/pp_main.c:327 (discriminator 2)
     302:	4e c4       	rjmp	.+2204   	; 0xba0 <ground_calibrate+0xa62>
/home/becker/async/wcet-benchmarks/benchmarks/PapaBench-0.2m/sw/airborne/autopilot_preprocessed/pp_main.c:327
     304:	4d c4       	rjmp	.+2202   	; 0xba0 <ground_calibrate+0xa62>
/home/becker/async/wcet-benchmarks/benchmarks/PapaBench-0.2m/sw/airborne/autopilot_preprocessed/pp_main.c:329
     306:	80 91 18 07 	lds	r24, 0x0718
     30a:	90 91 19 07 	lds	r25, 0x0719
     30e:	80 34       	cpi	r24, 0x40	; 64
     310:	fd ee       	ldi	r31, 0xED	; 237
     312:	9f 07       	cpc	r25, r31
     314:	4c f0       	brlt	.+18     	; 0x328 <ground_calibrate+0x1ea>
/home/becker/async/wcet-benchmarks/benchmarks/PapaBench-0.2m/sw/airborne/autopilot_preprocessed/pp_main.c:329 (discriminator 1)
     316:	80 91 18 07 	lds	r24, 0x0718
     31a:	90 91 19 07 	lds	r25, 0x0719
     31e:	81 38       	cpi	r24, 0x81	; 129
     320:	2c e0       	ldi	r18, 0x0C	; 12
     322:	92 07       	cpc	r25, r18
     324:	0c f4       	brge	.+2      	; 0x328 <ground_calibrate+0x1ea>
     326:	3a c4       	rjmp	.+2164   	; 0xb9c <ground_calibrate+0xa5e>
/home/becker/async/wcet-benchmarks/benchmarks/PapaBench-0.2m/sw/airborne/autopilot_preprocessed/pp_main.c:330
     328:	0e 94 8e 37 	call	0x6f1c	; 0x6f1c <ir_gain_calib>
/home/becker/async/wcet-benchmarks/benchmarks/PapaBench-0.2m/sw/airborne/autopilot_preprocessed/pp_main.c:331
     32c:	80 91 09 01 	lds	r24, 0x0109
     330:	90 91 0a 01 	lds	r25, 0x010A
     334:	a0 91 0b 01 	lds	r26, 0x010B
     338:	b0 91 0c 01 	lds	r27, 0x010C
     33c:	80 93 ae 07 	sts	0x07AE, r24
     340:	90 93 af 07 	sts	0x07AF, r25
     344:	a0 93 b0 07 	sts	0x07B0, r26
     348:	b0 93 b1 07 	sts	0x07B1, r27
/home/becker/async/wcet-benchmarks/benchmarks/PapaBench-0.2m/sw/airborne/autopilot_preprocessed/pp_main.c:332
     34c:	90 91 fd 05 	lds	r25, 0x05FD
     350:	80 91 fe 05 	lds	r24, 0x05FE
     354:	98 17       	cp	r25, r24
     356:	a0 f0       	brcs	.+40     	; 0x380 <ground_calibrate+0x242>
/home/becker/async/wcet-benchmarks/benchmarks/PapaBench-0.2m/sw/airborne/autopilot_preprocessed/pp_main.c:332 (discriminator 1)
     358:	80 91 fe 05 	lds	r24, 0x05FE
     35c:	28 2f       	mov	r18, r24
     35e:	30 e0       	ldi	r19, 0x00	; 0
     360:	80 91 fd 05 	lds	r24, 0x05FD
     364:	88 2f       	mov	r24, r24
     366:	90 e0       	ldi	r25, 0x00	; 0
     368:	a9 01       	movw	r20, r18
     36a:	48 1b       	sub	r20, r24
     36c:	59 0b       	sbc	r21, r25
     36e:	ca 01       	movw	r24, r20
     370:	81 50       	subi	r24, 0x01	; 1
     372:	9f 4f       	sbci	r25, 0xFF	; 255
     374:	21 e0       	ldi	r18, 0x01	; 1
     376:	85 31       	cpi	r24, 0x15	; 21
     378:	91 05       	cpc	r25, r1
     37a:	9c f4       	brge	.+38     	; 0x3a2 <ground_calibrate+0x264>
     37c:	20 e0       	ldi	r18, 0x00	; 0
     37e:	11 c0       	rjmp	.+34     	; 0x3a2 <ground_calibrate+0x264>
/home/becker/async/wcet-benchmarks/benchmarks/PapaBench-0.2m/sw/airborne/autopilot_preprocessed/pp_main.c:332 (discriminator 2)
     380:	80 91 fe 05 	lds	r24, 0x05FE
     384:	28 2f       	mov	r18, r24
     386:	30 e0       	ldi	r19, 0x00	; 0
     388:	80 91 fd 05 	lds	r24, 0x05FD
     38c:	88 2f       	mov	r24, r24
     38e:	90 e0       	ldi	r25, 0x00	; 0
     390:	f9 01       	movw	r30, r18
     392:	e8 1b       	sub	r30, r24
     394:	f9 0b       	sbc	r31, r25
     396:	cf 01       	movw	r24, r30
     398:	21 e0       	ldi	r18, 0x01	; 1
     39a:	85 31       	cpi	r24, 0x15	; 21
     39c:	91 05       	cpc	r25, r1
     39e:	0c f4       	brge	.+2      	; 0x3a2 <ground_calibrate+0x264>
     3a0:	20 e0       	ldi	r18, 0x00	; 0
/home/becker/async/wcet-benchmarks/benchmarks/PapaBench-0.2m/sw/airborne/autopilot_preprocessed/pp_main.c:332 (discriminator 3)
     3a2:	22 23       	and	r18, r18
     3a4:	09 f4       	brne	.+2      	; 0x3a8 <ground_calibrate+0x26a>
     3a6:	e6 c2       	rjmp	.+1484   	; 0x974 <ground_calibrate+0x836>
/home/becker/async/wcet-benchmarks/benchmarks/PapaBench-0.2m/sw/airborne/autopilot_preprocessed/pp_main.c:332 (discriminator 1)
     3a8:	80 91 fd 05 	lds	r24, 0x05FD
     3ac:	88 2f       	mov	r24, r24
     3ae:	90 e0       	ldi	r25, 0x00	; 0
     3b0:	80 50       	subi	r24, 0x00	; 0
     3b2:	9a 4f       	sbci	r25, 0xFA	; 250
     3b4:	25 e0       	ldi	r18, 0x05	; 5
     3b6:	fc 01       	movw	r30, r24
     3b8:	20 83       	st	Z, r18
     3ba:	80 91 fd 05 	lds	r24, 0x05FD
     3be:	8f 5f       	subi	r24, 0xFF	; 255
     3c0:	80 93 fd 05 	sts	0x05FD, r24
     3c4:	80 91 fd 05 	lds	r24, 0x05FD
     3c8:	8f 3f       	cpi	r24, 0xFF	; 255
     3ca:	11 f4       	brne	.+4      	; 0x3d0 <ground_calibrate+0x292>
     3cc:	10 92 fd 05 	sts	0x05FD, r1
/home/becker/async/wcet-benchmarks/benchmarks/PapaBench-0.2m/sw/airborne/autopilot_preprocessed/pp_main.c:332 (discriminator 2)
     3d0:	80 91 fd 05 	lds	r24, 0x05FD
     3d4:	88 2f       	mov	r24, r24
     3d6:	90 e0       	ldi	r25, 0x00	; 0
     3d8:	80 50       	subi	r24, 0x00	; 0
     3da:	9a 4f       	sbci	r25, 0xFA	; 250
     3dc:	25 e0       	ldi	r18, 0x05	; 5
     3de:	fc 01       	movw	r30, r24
     3e0:	20 83       	st	Z, r18
     3e2:	80 91 fd 05 	lds	r24, 0x05FD
     3e6:	8f 5f       	subi	r24, 0xFF	; 255
     3e8:	80 93 fd 05 	sts	0x05FD, r24
     3ec:	80 91 fd 05 	lds	r24, 0x05FD
     3f0:	8f 3f       	cpi	r24, 0xFF	; 255
     3f2:	11 f4       	brne	.+4      	; 0x3f8 <ground_calibrate+0x2ba>
/home/becker/async/wcet-benchmarks/benchmarks/PapaBench-0.2m/sw/airborne/autopilot_preprocessed/pp_main.c:332 (discriminator 1)
     3f4:	10 92 fd 05 	sts	0x05FD, r1
/home/becker/async/wcet-benchmarks/benchmarks/PapaBench-0.2m/sw/airborne/autopilot_preprocessed/pp_main.c:332 (discriminator 2)
     3f8:	85 e0       	ldi	r24, 0x05	; 5
     3fa:	80 93 ff 06 	sts	0x06FF, r24
     3fe:	85 e0       	ldi	r24, 0x05	; 5
     400:	80 93 fa 05 	sts	0x05FA, r24
     404:	80 91 fd 05 	lds	r24, 0x05FD
     408:	88 2f       	mov	r24, r24
     40a:	90 e0       	ldi	r25, 0x00	; 0
     40c:	26 eb       	ldi	r18, 0xB6	; 182
     40e:	37 e0       	ldi	r19, 0x07	; 7
     410:	f9 01       	movw	r30, r18
     412:	20 81       	ld	r18, Z
     414:	80 50       	subi	r24, 0x00	; 0
     416:	9a 4f       	sbci	r25, 0xFA	; 250
     418:	fc 01       	movw	r30, r24
     41a:	20 83       	st	Z, r18
     41c:	86 eb       	ldi	r24, 0xB6	; 182
     41e:	97 e0       	ldi	r25, 0x07	; 7
     420:	fc 01       	movw	r30, r24
     422:	90 81       	ld	r25, Z
     424:	80 91 ff 06 	lds	r24, 0x06FF
     428:	89 0f       	add	r24, r25
     42a:	80 93 ff 06 	sts	0x06FF, r24
     42e:	90 91 fa 05 	lds	r25, 0x05FA
     432:	80 91 ff 06 	lds	r24, 0x06FF
     436:	89 0f       	add	r24, r25
     438:	80 93 fa 05 	sts	0x05FA, r24
     43c:	80 91 fd 05 	lds	r24, 0x05FD
     440:	8f 5f       	subi	r24, 0xFF	; 255
     442:	80 93 fd 05 	sts	0x05FD, r24
     446:	80 91 fd 05 	lds	r24, 0x05FD
     44a:	8f 3f       	cpi	r24, 0xFF	; 255
     44c:	11 f4       	brne	.+4      	; 0x452 <ground_calibrate+0x314>
/home/becker/async/wcet-benchmarks/benchmarks/PapaBench-0.2m/sw/airborne/autopilot_preprocessed/pp_main.c:332 (discriminator 1)
     44e:	10 92 fd 05 	sts	0x05FD, r1
/home/becker/async/wcet-benchmarks/benchmarks/PapaBench-0.2m/sw/airborne/autopilot_preprocessed/pp_main.c:332 (discriminator 2)
     452:	80 91 fd 05 	lds	r24, 0x05FD
     456:	88 2f       	mov	r24, r24
     458:	90 e0       	ldi	r25, 0x00	; 0
     45a:	20 91 b7 07 	lds	r18, 0x07B7
     45e:	80 50       	subi	r24, 0x00	; 0
     460:	9a 4f       	sbci	r25, 0xFA	; 250
     462:	fc 01       	movw	r30, r24
     464:	20 83       	st	Z, r18
     466:	87 eb       	ldi	r24, 0xB7	; 183
     468:	97 e0       	ldi	r25, 0x07	; 7
     46a:	fc 01       	movw	r30, r24
     46c:	90 81       	ld	r25, Z
     46e:	80 91 ff 06 	lds	r24, 0x06FF
     472:	89 0f       	add	r24, r25
     474:	80 93 ff 06 	sts	0x06FF, r24
     478:	90 91 fa 05 	lds	r25, 0x05FA
     47c:	80 91 ff 06 	lds	r24, 0x06FF
     480:	89 0f       	add	r24, r25
     482:	80 93 fa 05 	sts	0x05FA, r24
     486:	80 91 fd 05 	lds	r24, 0x05FD
     48a:	8f 5f       	subi	r24, 0xFF	; 255
     48c:	80 93 fd 05 	sts	0x05FD, r24
     490:	80 91 fd 05 	lds	r24, 0x05FD
     494:	8f 3f       	cpi	r24, 0xFF	; 255
     496:	11 f4       	brne	.+4      	; 0x49c <ground_calibrate+0x35e>
/home/becker/async/wcet-benchmarks/benchmarks/PapaBench-0.2m/sw/airborne/autopilot_preprocessed/pp_main.c:332 (discriminator 1)
     498:	10 92 fd 05 	sts	0x05FD, r1
/home/becker/async/wcet-benchmarks/benchmarks/PapaBench-0.2m/sw/airborne/autopilot_preprocessed/pp_main.c:332 (discriminator 2)
     49c:	80 91 fd 05 	lds	r24, 0x05FD
     4a0:	88 2f       	mov	r24, r24
     4a2:	90 e0       	ldi	r25, 0x00	; 0
     4a4:	20 91 b8 07 	lds	r18, 0x07B8
     4a8:	80 50       	subi	r24, 0x00	; 0
     4aa:	9a 4f       	sbci	r25, 0xFA	; 250
     4ac:	fc 01       	movw	r30, r24
     4ae:	20 83       	st	Z, r18
     4b0:	88 eb       	ldi	r24, 0xB8	; 184
     4b2:	97 e0       	ldi	r25, 0x07	; 7
     4b4:	fc 01       	movw	r30, r24
     4b6:	90 81       	ld	r25, Z
     4b8:	80 91 ff 06 	lds	r24, 0x06FF
     4bc:	89 0f       	add	r24, r25
     4be:	80 93 ff 06 	sts	0x06FF, r24
     4c2:	90 91 fa 05 	lds	r25, 0x05FA
     4c6:	80 91 ff 06 	lds	r24, 0x06FF
     4ca:	89 0f       	add	r24, r25
     4cc:	80 93 fa 05 	sts	0x05FA, r24
     4d0:	80 91 fd 05 	lds	r24, 0x05FD
     4d4:	8f 5f       	subi	r24, 0xFF	; 255
     4d6:	80 93 fd 05 	sts	0x05FD, r24
     4da:	80 91 fd 05 	lds	r24, 0x05FD
     4de:	8f 3f       	cpi	r24, 0xFF	; 255
     4e0:	11 f4       	brne	.+4      	; 0x4e6 <ground_calibrate+0x3a8>
/home/becker/async/wcet-benchmarks/benchmarks/PapaBench-0.2m/sw/airborne/autopilot_preprocessed/pp_main.c:332 (discriminator 1)
     4e2:	10 92 fd 05 	sts	0x05FD, r1
/home/becker/async/wcet-benchmarks/benchmarks/PapaBench-0.2m/sw/airborne/autopilot_preprocessed/pp_main.c:332 (discriminator 2)
     4e6:	80 91 fd 05 	lds	r24, 0x05FD
     4ea:	88 2f       	mov	r24, r24
     4ec:	90 e0       	ldi	r25, 0x00	; 0
     4ee:	20 91 b9 07 	lds	r18, 0x07B9
     4f2:	80 50       	subi	r24, 0x00	; 0
     4f4:	9a 4f       	sbci	r25, 0xFA	; 250
     4f6:	fc 01       	movw	r30, r24
     4f8:	20 83       	st	Z, r18
     4fa:	89 eb       	ldi	r24, 0xB9	; 185
     4fc:	97 e0       	ldi	r25, 0x07	; 7
     4fe:	fc 01       	movw	r30, r24
     500:	90 81       	ld	r25, Z
     502:	80 91 ff 06 	lds	r24, 0x06FF
     506:	89 0f       	add	r24, r25
     508:	80 93 ff 06 	sts	0x06FF, r24
     50c:	90 91 fa 05 	lds	r25, 0x05FA
     510:	80 91 ff 06 	lds	r24, 0x06FF
     514:	89 0f       	add	r24, r25
     516:	80 93 fa 05 	sts	0x05FA, r24
     51a:	80 91 fd 05 	lds	r24, 0x05FD
     51e:	8f 5f       	subi	r24, 0xFF	; 255
     520:	80 93 fd 05 	sts	0x05FD, r24
     524:	80 91 fd 05 	lds	r24, 0x05FD
     528:	8f 3f       	cpi	r24, 0xFF	; 255
     52a:	11 f4       	brne	.+4      	; 0x530 <ground_calibrate+0x3f2>
/home/becker/async/wcet-benchmarks/benchmarks/PapaBench-0.2m/sw/airborne/autopilot_preprocessed/pp_main.c:332 (discriminator 1)
     52c:	10 92 fd 05 	sts	0x05FD, r1
/home/becker/async/wcet-benchmarks/benchmarks/PapaBench-0.2m/sw/airborne/autopilot_preprocessed/pp_main.c:332 (discriminator 2)
     530:	80 91 fd 05 	lds	r24, 0x05FD
     534:	88 2f       	mov	r24, r24
     536:	90 e0       	ldi	r25, 0x00	; 0
     538:	2e ec       	ldi	r18, 0xCE	; 206
     53a:	37 e0       	ldi	r19, 0x07	; 7
     53c:	f9 01       	movw	r30, r18
     53e:	20 81       	ld	r18, Z
     540:	80 50       	subi	r24, 0x00	; 0
     542:	9a 4f       	sbci	r25, 0xFA	; 250
     544:	fc 01       	movw	r30, r24
     546:	20 83       	st	Z, r18
     548:	8e ec       	ldi	r24, 0xCE	; 206
     54a:	97 e0       	ldi	r25, 0x07	; 7
     54c:	fc 01       	movw	r30, r24
     54e:	90 81       	ld	r25, Z
     550:	80 91 ff 06 	lds	r24, 0x06FF
     554:	89 0f       	add	r24, r25
     556:	80 93 ff 06 	sts	0x06FF, r24
     55a:	90 91 fa 05 	lds	r25, 0x05FA
     55e:	80 91 ff 06 	lds	r24, 0x06FF
     562:	89 0f       	add	r24, r25
     564:	80 93 fa 05 	sts	0x05FA, r24
     568:	80 91 fd 05 	lds	r24, 0x05FD
     56c:	8f 5f       	subi	r24, 0xFF	; 255
     56e:	80 93 fd 05 	sts	0x05FD, r24
     572:	80 91 fd 05 	lds	r24, 0x05FD
     576:	8f 3f       	cpi	r24, 0xFF	; 255
     578:	11 f4       	brne	.+4      	; 0x57e <ground_calibrate+0x440>
/home/becker/async/wcet-benchmarks/benchmarks/PapaBench-0.2m/sw/airborne/autopilot_preprocessed/pp_main.c:332 (discriminator 1)
     57a:	10 92 fd 05 	sts	0x05FD, r1
/home/becker/async/wcet-benchmarks/benchmarks/PapaBench-0.2m/sw/airborne/autopilot_preprocessed/pp_main.c:332 (discriminator 2)
     57e:	80 91 fd 05 	lds	r24, 0x05FD
     582:	88 2f       	mov	r24, r24
     584:	90 e0       	ldi	r25, 0x00	; 0
     586:	20 91 cf 07 	lds	r18, 0x07CF
     58a:	80 50       	subi	r24, 0x00	; 0
     58c:	9a 4f       	sbci	r25, 0xFA	; 250
     58e:	fc 01       	movw	r30, r24
     590:	20 83       	st	Z, r18
     592:	8f ec       	ldi	r24, 0xCF	; 207
     594:	97 e0       	ldi	r25, 0x07	; 7
     596:	fc 01       	movw	r30, r24
     598:	90 81       	ld	r25, Z
     59a:	80 91 ff 06 	lds	r24, 0x06FF
     59e:	89 0f       	add	r24, r25
     5a0:	80 93 ff 06 	sts	0x06FF, r24
     5a4:	90 91 fa 05 	lds	r25, 0x05FA
     5a8:	80 91 ff 06 	lds	r24, 0x06FF
     5ac:	89 0f       	add	r24, r25
     5ae:	80 93 fa 05 	sts	0x05FA, r24
     5b2:	80 91 fd 05 	lds	r24, 0x05FD
     5b6:	8f 5f       	subi	r24, 0xFF	; 255
     5b8:	80 93 fd 05 	sts	0x05FD, r24
     5bc:	80 91 fd 05 	lds	r24, 0x05FD
     5c0:	8f 3f       	cpi	r24, 0xFF	; 255
     5c2:	11 f4       	brne	.+4      	; 0x5c8 <ground_calibrate+0x48a>
/home/becker/async/wcet-benchmarks/benchmarks/PapaBench-0.2m/sw/airborne/autopilot_preprocessed/pp_main.c:332 (discriminator 1)
     5c4:	10 92 fd 05 	sts	0x05FD, r1
/home/becker/async/wcet-benchmarks/benchmarks/PapaBench-0.2m/sw/airborne/autopilot_preprocessed/pp_main.c:332 (discriminator 2)
     5c8:	80 91 fd 05 	lds	r24, 0x05FD
     5cc:	88 2f       	mov	r24, r24
     5ce:	90 e0       	ldi	r25, 0x00	; 0
     5d0:	20 91 d0 07 	lds	r18, 0x07D0
     5d4:	80 50       	subi	r24, 0x00	; 0
     5d6:	9a 4f       	sbci	r25, 0xFA	; 250
     5d8:	fc 01       	movw	r30, r24
     5da:	20 83       	st	Z, r18
     5dc:	80 ed       	ldi	r24, 0xD0	; 208
     5de:	97 e0       	ldi	r25, 0x07	; 7
     5e0:	fc 01       	movw	r30, r24
     5e2:	90 81       	ld	r25, Z
     5e4:	80 91 ff 06 	lds	r24, 0x06FF
     5e8:	89 0f       	add	r24, r25
     5ea:	80 93 ff 06 	sts	0x06FF, r24
     5ee:	90 91 fa 05 	lds	r25, 0x05FA
     5f2:	80 91 ff 06 	lds	r24, 0x06FF
     5f6:	89 0f       	add	r24, r25
     5f8:	80 93 fa 05 	sts	0x05FA, r24
     5fc:	80 91 fd 05 	lds	r24, 0x05FD
     600:	8f 5f       	subi	r24, 0xFF	; 255
     602:	80 93 fd 05 	sts	0x05FD, r24
     606:	80 91 fd 05 	lds	r24, 0x05FD
     60a:	8f 3f       	cpi	r24, 0xFF	; 255
     60c:	11 f4       	brne	.+4      	; 0x612 <ground_calibrate+0x4d4>
/home/becker/async/wcet-benchmarks/benchmarks/PapaBench-0.2m/sw/airborne/autopilot_preprocessed/pp_main.c:332 (discriminator 1)
     60e:	10 92 fd 05 	sts	0x05FD, r1
/home/becker/async/wcet-benchmarks/benchmarks/PapaBench-0.2m/sw/airborne/autopilot_preprocessed/pp_main.c:332 (discriminator 2)
     612:	80 91 fd 05 	lds	r24, 0x05FD
     616:	88 2f       	mov	r24, r24
     618:	90 e0       	ldi	r25, 0x00	; 0
     61a:	20 91 d1 07 	lds	r18, 0x07D1
     61e:	80 50       	subi	r24, 0x00	; 0
     620:	9a 4f       	sbci	r25, 0xFA	; 250
     622:	fc 01       	movw	r30, r24
     624:	20 83       	st	Z, r18
     626:	81 ed       	ldi	r24, 0xD1	; 209
     628:	97 e0       	ldi	r25, 0x07	; 7
     62a:	fc 01       	movw	r30, r24
     62c:	90 81       	ld	r25, Z
     62e:	80 91 ff 06 	lds	r24, 0x06FF
     632:	89 0f       	add	r24, r25
     634:	80 93 ff 06 	sts	0x06FF, r24
     638:	90 91 fa 05 	lds	r25, 0x05FA
     63c:	80 91 ff 06 	lds	r24, 0x06FF
     640:	89 0f       	add	r24, r25
     642:	80 93 fa 05 	sts	0x05FA, r24
     646:	80 91 fd 05 	lds	r24, 0x05FD
     64a:	8f 5f       	subi	r24, 0xFF	; 255
     64c:	80 93 fd 05 	sts	0x05FD, r24
     650:	80 91 fd 05 	lds	r24, 0x05FD
     654:	8f 3f       	cpi	r24, 0xFF	; 255
     656:	11 f4       	brne	.+4      	; 0x65c <ground_calibrate+0x51e>
/home/becker/async/wcet-benchmarks/benchmarks/PapaBench-0.2m/sw/airborne/autopilot_preprocessed/pp_main.c:332 (discriminator 1)
     658:	10 92 fd 05 	sts	0x05FD, r1
/home/becker/async/wcet-benchmarks/benchmarks/PapaBench-0.2m/sw/airborne/autopilot_preprocessed/pp_main.c:332 (discriminator 2)
     65c:	80 91 fd 05 	lds	r24, 0x05FD
     660:	88 2f       	mov	r24, r24
     662:	90 e0       	ldi	r25, 0x00	; 0
     664:	2e ea       	ldi	r18, 0xAE	; 174
     666:	37 e0       	ldi	r19, 0x07	; 7
     668:	f9 01       	movw	r30, r18
     66a:	20 81       	ld	r18, Z
     66c:	80 50       	subi	r24, 0x00	; 0
     66e:	9a 4f       	sbci	r25, 0xFA	; 250
     670:	fc 01       	movw	r30, r24
     672:	20 83       	st	Z, r18
     674:	8e ea       	ldi	r24, 0xAE	; 174
     676:	97 e0       	ldi	r25, 0x07	; 7
     678:	fc 01       	movw	r30, r24
     67a:	90 81       	ld	r25, Z
     67c:	80 91 ff 06 	lds	r24, 0x06FF
     680:	89 0f       	add	r24, r25
     682:	80 93 ff 06 	sts	0x06FF, r24
     686:	90 91 fa 05 	lds	r25, 0x05FA
     68a:	80 91 ff 06 	lds	r24, 0x06FF
     68e:	89 0f       	add	r24, r25
     690:	80 93 fa 05 	sts	0x05FA, r24
     694:	80 91 fd 05 	lds	r24, 0x05FD
     698:	8f 5f       	subi	r24, 0xFF	; 255
     69a:	80 93 fd 05 	sts	0x05FD, r24
     69e:	80 91 fd 05 	lds	r24, 0x05FD
     6a2:	8f 3f       	cpi	r24, 0xFF	; 255
     6a4:	11 f4       	brne	.+4      	; 0x6aa <ground_calibrate+0x56c>
/home/becker/async/wcet-benchmarks/benchmarks/PapaBench-0.2m/sw/airborne/autopilot_preprocessed/pp_main.c:332 (discriminator 1)
     6a6:	10 92 fd 05 	sts	0x05FD, r1
/home/becker/async/wcet-benchmarks/benchmarks/PapaBench-0.2m/sw/airborne/autopilot_preprocessed/pp_main.c:332 (discriminator 2)
     6aa:	80 91 fd 05 	lds	r24, 0x05FD
     6ae:	88 2f       	mov	r24, r24
     6b0:	90 e0       	ldi	r25, 0x00	; 0
     6b2:	20 91 af 07 	lds	r18, 0x07AF
     6b6:	80 50       	subi	r24, 0x00	; 0
     6b8:	9a 4f       	sbci	r25, 0xFA	; 250
     6ba:	fc 01       	movw	r30, r24
     6bc:	20 83       	st	Z, r18
     6be:	8f ea       	ldi	r24, 0xAF	; 175
     6c0:	97 e0       	ldi	r25, 0x07	; 7
     6c2:	fc 01       	movw	r30, r24
     6c4:	90 81       	ld	r25, Z
     6c6:	80 91 ff 06 	lds	r24, 0x06FF
     6ca:	89 0f       	add	r24, r25
     6cc:	80 93 ff 06 	sts	0x06FF, r24
     6d0:	90 91 fa 05 	lds	r25, 0x05FA
     6d4:	80 91 ff 06 	lds	r24, 0x06FF
     6d8:	89 0f       	add	r24, r25
     6da:	80 93 fa 05 	sts	0x05FA, r24
     6de:	80 91 fd 05 	lds	r24, 0x05FD
     6e2:	8f 5f       	subi	r24, 0xFF	; 255
     6e4:	80 93 fd 05 	sts	0x05FD, r24
     6e8:	80 91 fd 05 	lds	r24, 0x05FD
     6ec:	8f 3f       	cpi	r24, 0xFF	; 255
     6ee:	11 f4       	brne	.+4      	; 0x6f4 <ground_calibrate+0x5b6>
/home/becker/async/wcet-benchmarks/benchmarks/PapaBench-0.2m/sw/airborne/autopilot_preprocessed/pp_main.c:332 (discriminator 1)
     6f0:	10 92 fd 05 	sts	0x05FD, r1
/home/becker/async/wcet-benchmarks/benchmarks/PapaBench-0.2m/sw/airborne/autopilot_preprocessed/pp_main.c:332 (discriminator 2)
     6f4:	80 91 fd 05 	lds	r24, 0x05FD
     6f8:	88 2f       	mov	r24, r24
     6fa:	90 e0       	ldi	r25, 0x00	; 0
     6fc:	20 91 b0 07 	lds	r18, 0x07B0
     700:	80 50       	subi	r24, 0x00	; 0
     702:	9a 4f       	sbci	r25, 0xFA	; 250
     704:	fc 01       	movw	r30, r24
     706:	20 83       	st	Z, r18
     708:	80 eb       	ldi	r24, 0xB0	; 176
     70a:	97 e0       	ldi	r25, 0x07	; 7
     70c:	fc 01       	movw	r30, r24
     70e:	90 81       	ld	r25, Z
     710:	80 91 ff 06 	lds	r24, 0x06FF
     714:	89 0f       	add	r24, r25
     716:	80 93 ff 06 	sts	0x06FF, r24
     71a:	90 91 fa 05 	lds	r25, 0x05FA
     71e:	80 91 ff 06 	lds	r24, 0x06FF
     722:	89 0f       	add	r24, r25
     724:	80 93 fa 05 	sts	0x05FA, r24
     728:	80 91 fd 05 	lds	r24, 0x05FD
     72c:	8f 5f       	subi	r24, 0xFF	; 255
     72e:	80 93 fd 05 	sts	0x05FD, r24
     732:	80 91 fd 05 	lds	r24, 0x05FD
     736:	8f 3f       	cpi	r24, 0xFF	; 255
     738:	11 f4       	brne	.+4      	; 0x73e <ground_calibrate+0x600>
/home/becker/async/wcet-benchmarks/benchmarks/PapaBench-0.2m/sw/airborne/autopilot_preprocessed/pp_main.c:332 (discriminator 1)
     73a:	10 92 fd 05 	sts	0x05FD, r1
/home/becker/async/wcet-benchmarks/benchmarks/PapaBench-0.2m/sw/airborne/autopilot_preprocessed/pp_main.c:332 (discriminator 2)
     73e:	80 91 fd 05 	lds	r24, 0x05FD
     742:	88 2f       	mov	r24, r24
     744:	90 e0       	ldi	r25, 0x00	; 0
     746:	20 91 b1 07 	lds	r18, 0x07B1
     74a:	80 50       	subi	r24, 0x00	; 0
     74c:	9a 4f       	sbci	r25, 0xFA	; 250
     74e:	fc 01       	movw	r30, r24
     750:	20 83       	st	Z, r18
     752:	81 eb       	ldi	r24, 0xB1	; 177
     754:	97 e0       	ldi	r25, 0x07	; 7
     756:	fc 01       	movw	r30, r24
     758:	90 81       	ld	r25, Z
     75a:	80 91 ff 06 	lds	r24, 0x06FF
     75e:	89 0f       	add	r24, r25
     760:	80 93 ff 06 	sts	0x06FF, r24
     764:	90 91 fa 05 	lds	r25, 0x05FA
     768:	80 91 ff 06 	lds	r24, 0x06FF
     76c:	89 0f       	add	r24, r25
     76e:	80 93 fa 05 	sts	0x05FA, r24
     772:	80 91 fd 05 	lds	r24, 0x05FD
     776:	8f 5f       	subi	r24, 0xFF	; 255
     778:	80 93 fd 05 	sts	0x05FD, r24
     77c:	80 91 fd 05 	lds	r24, 0x05FD
     780:	8f 3f       	cpi	r24, 0xFF	; 255
     782:	11 f4       	brne	.+4      	; 0x788 <ground_calibrate+0x64a>
/home/becker/async/wcet-benchmarks/benchmarks/PapaBench-0.2m/sw/airborne/autopilot_preprocessed/pp_main.c:332 (discriminator 1)
     784:	10 92 fd 05 	sts	0x05FD, r1
/home/becker/async/wcet-benchmarks/benchmarks/PapaBench-0.2m/sw/airborne/autopilot_preprocessed/pp_main.c:332 (discriminator 2)
     788:	80 91 fd 05 	lds	r24, 0x05FD
     78c:	88 2f       	mov	r24, r24
     78e:	90 e0       	ldi	r25, 0x00	; 0
     790:	25 e0       	ldi	r18, 0x05	; 5
     792:	31 e0       	ldi	r19, 0x01	; 1
     794:	f9 01       	movw	r30, r18
     796:	20 81       	ld	r18, Z
     798:	80 50       	subi	r24, 0x00	; 0
     79a:	9a 4f       	sbci	r25, 0xFA	; 250
     79c:	fc 01       	movw	r30, r24
     79e:	20 83       	st	Z, r18
     7a0:	85 e0       	ldi	r24, 0x05	; 5
     7a2:	91 e0       	ldi	r25, 0x01	; 1
     7a4:	fc 01       	movw	r30, r24
     7a6:	90 81       	ld	r25, Z
     7a8:	80 91 ff 06 	lds	r24, 0x06FF
     7ac:	89 0f       	add	r24, r25
     7ae:	80 93 ff 06 	sts	0x06FF, r24
     7b2:	90 91 fa 05 	lds	r25, 0x05FA
     7b6:	80 91 ff 06 	lds	r24, 0x06FF
     7ba:	89 0f       	add	r24, r25
     7bc:	80 93 fa 05 	sts	0x05FA, r24
     7c0:	80 91 fd 05 	lds	r24, 0x05FD
     7c4:	8f 5f       	subi	r24, 0xFF	; 255
     7c6:	80 93 fd 05 	sts	0x05FD, r24
     7ca:	80 91 fd 05 	lds	r24, 0x05FD
     7ce:	8f 3f       	cpi	r24, 0xFF	; 255
     7d0:	11 f4       	brne	.+4      	; 0x7d6 <ground_calibrate+0x698>
/home/becker/async/wcet-benchmarks/benchmarks/PapaBench-0.2m/sw/airborne/autopilot_preprocessed/pp_main.c:332 (discriminator 1)
     7d2:	10 92 fd 05 	sts	0x05FD, r1
/home/becker/async/wcet-benchmarks/benchmarks/PapaBench-0.2m/sw/airborne/autopilot_preprocessed/pp_main.c:332 (discriminator 2)
     7d6:	80 91 fd 05 	lds	r24, 0x05FD
     7da:	88 2f       	mov	r24, r24
     7dc:	90 e0       	ldi	r25, 0x00	; 0
     7de:	20 91 06 01 	lds	r18, 0x0106
     7e2:	80 50       	subi	r24, 0x00	; 0
     7e4:	9a 4f       	sbci	r25, 0xFA	; 250
     7e6:	fc 01       	movw	r30, r24
     7e8:	20 83       	st	Z, r18
     7ea:	86 e0       	ldi	r24, 0x06	; 6
     7ec:	91 e0       	ldi	r25, 0x01	; 1
     7ee:	fc 01       	movw	r30, r24
     7f0:	90 81       	ld	r25, Z
     7f2:	80 91 ff 06 	lds	r24, 0x06FF
     7f6:	89 0f       	add	r24, r25
     7f8:	80 93 ff 06 	sts	0x06FF, r24
     7fc:	90 91 fa 05 	lds	r25, 0x05FA
     800:	80 91 ff 06 	lds	r24, 0x06FF
     804:	89 0f       	add	r24, r25
     806:	80 93 fa 05 	sts	0x05FA, r24
     80a:	80 91 fd 05 	lds	r24, 0x05FD
     80e:	8f 5f       	subi	r24, 0xFF	; 255
     810:	80 93 fd 05 	sts	0x05FD, r24
     814:	80 91 fd 05 	lds	r24, 0x05FD
     818:	8f 3f       	cpi	r24, 0xFF	; 255
     81a:	11 f4       	brne	.+4      	; 0x820 <ground_calibrate+0x6e2>
/home/becker/async/wcet-benchmarks/benchmarks/PapaBench-0.2m/sw/airborne/autopilot_preprocessed/pp_main.c:332 (discriminator 1)
     81c:	10 92 fd 05 	sts	0x05FD, r1
/home/becker/async/wcet-benchmarks/benchmarks/PapaBench-0.2m/sw/airborne/autopilot_preprocessed/pp_main.c:332 (discriminator 2)
     820:	80 91 fd 05 	lds	r24, 0x05FD
     824:	88 2f       	mov	r24, r24
     826:	90 e0       	ldi	r25, 0x00	; 0
     828:	27 e0       	ldi	r18, 0x07	; 7
     82a:	31 e0       	ldi	r19, 0x01	; 1
     82c:	f9 01       	movw	r30, r18
     82e:	20 81       	ld	r18, Z
     830:	80 50       	subi	r24, 0x00	; 0
     832:	9a 4f       	sbci	r25, 0xFA	; 250
     834:	fc 01       	movw	r30, r24
     836:	20 83       	st	Z, r18
     838:	87 e0       	ldi	r24, 0x07	; 7
     83a:	91 e0       	ldi	r25, 0x01	; 1
     83c:	fc 01       	movw	r30, r24
     83e:	90 81       	ld	r25, Z
     840:	80 91 ff 06 	lds	r24, 0x06FF
     844:	89 0f       	add	r24, r25
     846:	80 93 ff 06 	sts	0x06FF, r24
     84a:	90 91 fa 05 	lds	r25, 0x05FA
     84e:	80 91 ff 06 	lds	r24, 0x06FF
     852:	89 0f       	add	r24, r25
     854:	80 93 fa 05 	sts	0x05FA, r24
     858:	80 91 fd 05 	lds	r24, 0x05FD
     85c:	8f 5f       	subi	r24, 0xFF	; 255
     85e:	80 93 fd 05 	sts	0x05FD, r24
     862:	80 91 fd 05 	lds	r24, 0x05FD
     866:	8f 3f       	cpi	r24, 0xFF	; 255
     868:	11 f4       	brne	.+4      	; 0x86e <ground_calibrate+0x730>
/home/becker/async/wcet-benchmarks/benchmarks/PapaBench-0.2m/sw/airborne/autopilot_preprocessed/pp_main.c:332 (discriminator 1)
     86a:	10 92 fd 05 	sts	0x05FD, r1
/home/becker/async/wcet-benchmarks/benchmarks/PapaBench-0.2m/sw/airborne/autopilot_preprocessed/pp_main.c:332 (discriminator 2)
     86e:	80 91 fd 05 	lds	r24, 0x05FD
     872:	88 2f       	mov	r24, r24
     874:	90 e0       	ldi	r25, 0x00	; 0
     876:	20 91 08 01 	lds	r18, 0x0108
     87a:	80 50       	subi	r24, 0x00	; 0
     87c:	9a 4f       	sbci	r25, 0xFA	; 250
     87e:	fc 01       	movw	r30, r24
     880:	20 83       	st	Z, r18
     882:	88 e0       	ldi	r24, 0x08	; 8
     884:	91 e0       	ldi	r25, 0x01	; 1
     886:	fc 01       	movw	r30, r24
     888:	90 81       	ld	r25, Z
     88a:	80 91 ff 06 	lds	r24, 0x06FF
     88e:	89 0f       	add	r24, r25
     890:	80 93 ff 06 	sts	0x06FF, r24
     894:	90 91 fa 05 	lds	r25, 0x05FA
     898:	80 91 ff 06 	lds	r24, 0x06FF
     89c:	89 0f       	add	r24, r25
     89e:	80 93 fa 05 	sts	0x05FA, r24
     8a2:	80 91 fd 05 	lds	r24, 0x05FD
     8a6:	8f 5f       	subi	r24, 0xFF	; 255
     8a8:	80 93 fd 05 	sts	0x05FD, r24
     8ac:	80 91 fd 05 	lds	r24, 0x05FD
     8b0:	8f 3f       	cpi	r24, 0xFF	; 255
     8b2:	11 f4       	brne	.+4      	; 0x8b8 <ground_calibrate+0x77a>
/home/becker/async/wcet-benchmarks/benchmarks/PapaBench-0.2m/sw/airborne/autopilot_preprocessed/pp_main.c:332 (discriminator 1)
     8b4:	10 92 fd 05 	sts	0x05FD, r1
/home/becker/async/wcet-benchmarks/benchmarks/PapaBench-0.2m/sw/airborne/autopilot_preprocessed/pp_main.c:332 (discriminator 2)
     8b8:	80 91 fd 05 	lds	r24, 0x05FD
     8bc:	88 2f       	mov	r24, r24
     8be:	90 e0       	ldi	r25, 0x00	; 0
     8c0:	20 91 ff 06 	lds	r18, 0x06FF
     8c4:	80 50       	subi	r24, 0x00	; 0
     8c6:	9a 4f       	sbci	r25, 0xFA	; 250
     8c8:	fc 01       	movw	r30, r24
     8ca:	20 83       	st	Z, r18
     8cc:	80 91 fd 05 	lds	r24, 0x05FD
     8d0:	8f 5f       	subi	r24, 0xFF	; 255
     8d2:	80 93 fd 05 	sts	0x05FD, r24
     8d6:	80 91 fd 05 	lds	r24, 0x05FD
     8da:	8f 3f       	cpi	r24, 0xFF	; 255
     8dc:	11 f4       	brne	.+4      	; 0x8e2 <ground_calibrate+0x7a4>
/home/becker/async/wcet-benchmarks/benchmarks/PapaBench-0.2m/sw/airborne/autopilot_preprocessed/pp_main.c:332 (discriminator 1)
     8de:	10 92 fd 05 	sts	0x05FD, r1
/home/becker/async/wcet-benchmarks/benchmarks/PapaBench-0.2m/sw/airborne/autopilot_preprocessed/pp_main.c:332 (discriminator 2)
     8e2:	80 91 fd 05 	lds	r24, 0x05FD
     8e6:	88 2f       	mov	r24, r24
     8e8:	90 e0       	ldi	r25, 0x00	; 0
     8ea:	20 91 fa 05 	lds	r18, 0x05FA
     8ee:	80 50       	subi	r24, 0x00	; 0
     8f0:	9a 4f       	sbci	r25, 0xFA	; 250
     8f2:	fc 01       	movw	r30, r24
     8f4:	20 83       	st	Z, r18
     8f6:	80 91 fd 05 	lds	r24, 0x05FD
     8fa:	8f 5f       	subi	r24, 0xFF	; 255
     8fc:	80 93 fd 05 	sts	0x05FD, r24
     900:	80 91 fd 05 	lds	r24, 0x05FD
     904:	8f 3f       	cpi	r24, 0xFF	; 255
     906:	11 f4       	brne	.+4      	; 0x90c <ground_calibrate+0x7ce>
/home/becker/async/wcet-benchmarks/benchmarks/PapaBench-0.2m/sw/airborne/autopilot_preprocessed/pp_main.c:332 (discriminator 1)
     908:	10 92 fd 05 	sts	0x05FD, r1
/home/becker/async/wcet-benchmarks/benchmarks/PapaBench-0.2m/sw/airborne/autopilot_preprocessed/pp_main.c:332 (discriminator 2)
     90c:	89 e5       	ldi	r24, 0x59	; 89
     90e:	90 e0       	ldi	r25, 0x00	; 0
     910:	fc 01       	movw	r30, r24
     912:	80 81       	ld	r24, Z
     914:	88 2f       	mov	r24, r24
     916:	90 e0       	ldi	r25, 0x00	; 0
     918:	80 71       	andi	r24, 0x10	; 16
     91a:	99 27       	eor	r25, r25
     91c:	00 97       	sbiw	r24, 0x00	; 0
     91e:	79 f5       	brne	.+94     	; 0x97e <ground_calibrate+0x840>
/home/becker/async/wcet-benchmarks/benchmarks/PapaBench-0.2m/sw/airborne/autopilot_preprocessed/pp_main.c:332 (discriminator 1)
     920:	80 91 fe 05 	lds	r24, 0x05FE
     924:	88 2f       	mov	r24, r24
     926:	90 e0       	ldi	r25, 0x00	; 0
     928:	80 50       	subi	r24, 0x00	; 0
     92a:	9a 4f       	sbci	r25, 0xFA	; 250
     92c:	fc 01       	movw	r30, r24
     92e:	80 81       	ld	r24, Z
     930:	80 93 fc 05 	sts	0x05FC, r24
     934:	10 92 ff 05 	sts	0x05FF, r1
     938:	80 91 fe 05 	lds	r24, 0x05FE
     93c:	8f 5f       	subi	r24, 0xFF	; 255
     93e:	80 93 fe 05 	sts	0x05FE, r24
     942:	80 91 fe 05 	lds	r24, 0x05FE
     946:	8f 3f       	cpi	r24, 0xFF	; 255
     948:	11 f4       	brne	.+4      	; 0x94e <ground_calibrate+0x810>
     94a:	10 92 fe 05 	sts	0x05FE, r1
/home/becker/async/wcet-benchmarks/benchmarks/PapaBench-0.2m/sw/airborne/autopilot_preprocessed/pp_main.c:332 (discriminator 2)
     94e:	88 e5       	ldi	r24, 0x58	; 88
     950:	90 e0       	ldi	r25, 0x00	; 0
     952:	28 e5       	ldi	r18, 0x58	; 88
     954:	30 e0       	ldi	r19, 0x00	; 0
     956:	f9 01       	movw	r30, r18
     958:	20 81       	ld	r18, Z
     95a:	21 60       	ori	r18, 0x01	; 1
     95c:	fc 01       	movw	r30, r24
     95e:	20 83       	st	Z, r18
     960:	89 e5       	ldi	r24, 0x59	; 89
     962:	90 e0       	ldi	r25, 0x00	; 0
     964:	29 e5       	ldi	r18, 0x59	; 89
     966:	30 e0       	ldi	r19, 0x00	; 0
     968:	f9 01       	movw	r30, r18
     96a:	20 81       	ld	r18, Z
     96c:	20 61       	ori	r18, 0x10	; 16
     96e:	fc 01       	movw	r30, r24
     970:	20 83       	st	Z, r18
     972:	05 c0       	rjmp	.+10     	; 0x97e <ground_calibrate+0x840>
     974:	80 91 fb 05 	lds	r24, 0x05FB
     978:	8f 5f       	subi	r24, 0xFF	; 255
     97a:	80 93 fb 05 	sts	0x05FB, r24
/home/becker/async/wcet-benchmarks/benchmarks/PapaBench-0.2m/sw/airborne/autopilot_preprocessed/pp_main.c:333
     97e:	82 e0       	ldi	r24, 0x02	; 2
     980:	80 93 d3 01 	sts	0x01D3, r24
/home/becker/async/wcet-benchmarks/benchmarks/PapaBench-0.2m/sw/airborne/autopilot_preprocessed/pp_main.c:334
     984:	90 91 fd 05 	lds	r25, 0x05FD
     988:	80 91 fe 05 	lds	r24, 0x05FE
     98c:	98 17       	cp	r25, r24
     98e:	a0 f0       	brcs	.+40     	; 0x9b8 <ground_calibrate+0x87a>
/home/becker/async/wcet-benchmarks/benchmarks/PapaBench-0.2m/sw/airborne/autopilot_preprocessed/pp_main.c:334 (discriminator 1)
     990:	80 91 fe 05 	lds	r24, 0x05FE
     994:	28 2f       	mov	r18, r24
     996:	30 e0       	ldi	r19, 0x00	; 0
     998:	80 91 fd 05 	lds	r24, 0x05FD
     99c:	88 2f       	mov	r24, r24
     99e:	90 e0       	ldi	r25, 0x00	; 0
     9a0:	a9 01       	movw	r20, r18
     9a2:	48 1b       	sub	r20, r24
     9a4:	59 0b       	sbc	r21, r25
     9a6:	ca 01       	movw	r24, r20
     9a8:	81 50       	subi	r24, 0x01	; 1
     9aa:	9f 4f       	sbci	r25, 0xFF	; 255
     9ac:	21 e0       	ldi	r18, 0x01	; 1
     9ae:	87 30       	cpi	r24, 0x07	; 7
     9b0:	91 05       	cpc	r25, r1
     9b2:	9c f4       	brge	.+38     	; 0x9da <ground_calibrate+0x89c>
     9b4:	20 e0       	ldi	r18, 0x00	; 0
     9b6:	11 c0       	rjmp	.+34     	; 0x9da <ground_calibrate+0x89c>
/home/becker/async/wcet-benchmarks/benchmarks/PapaBench-0.2m/sw/airborne/autopilot_preprocessed/pp_main.c:334 (discriminator 2)
     9b8:	80 91 fe 05 	lds	r24, 0x05FE
     9bc:	28 2f       	mov	r18, r24
     9be:	30 e0       	ldi	r19, 0x00	; 0
     9c0:	80 91 fd 05 	lds	r24, 0x05FD
     9c4:	88 2f       	mov	r24, r24
     9c6:	90 e0       	ldi	r25, 0x00	; 0
     9c8:	f9 01       	movw	r30, r18
     9ca:	e8 1b       	sub	r30, r24
     9cc:	f9 0b       	sbc	r31, r25
     9ce:	cf 01       	movw	r24, r30
     9d0:	21 e0       	ldi	r18, 0x01	; 1
     9d2:	87 30       	cpi	r24, 0x07	; 7
     9d4:	91 05       	cpc	r25, r1
     9d6:	0c f4       	brge	.+2      	; 0x9da <ground_calibrate+0x89c>
     9d8:	20 e0       	ldi	r18, 0x00	; 0
/home/becker/async/wcet-benchmarks/benchmarks/PapaBench-0.2m/sw/airborne/autopilot_preprocessed/pp_main.c:334 (discriminator 3)
     9da:	22 23       	and	r18, r18
     9dc:	09 f4       	brne	.+2      	; 0x9e0 <ground_calibrate+0x8a2>
     9de:	d8 c0       	rjmp	.+432    	; 0xb90 <ground_calibrate+0xa52>
/home/becker/async/wcet-benchmarks/benchmarks/PapaBench-0.2m/sw/airborne/autopilot_preprocessed/pp_main.c:334 (discriminator 1)
     9e0:	80 91 fd 05 	lds	r24, 0x05FD
     9e4:	88 2f       	mov	r24, r24
     9e6:	90 e0       	ldi	r25, 0x00	; 0
     9e8:	80 50       	subi	r24, 0x00	; 0
     9ea:	9a 4f       	sbci	r25, 0xFA	; 250
     9ec:	25 e0       	ldi	r18, 0x05	; 5
     9ee:	fc 01       	movw	r30, r24
     9f0:	20 83       	st	Z, r18
     9f2:	80 91 fd 05 	lds	r24, 0x05FD
     9f6:	8f 5f       	subi	r24, 0xFF	; 255
     9f8:	80 93 fd 05 	sts	0x05FD, r24
     9fc:	80 91 fd 05 	lds	r24, 0x05FD
     a00:	8f 3f       	cpi	r24, 0xFF	; 255
     a02:	11 f4       	brne	.+4      	; 0xa08 <ground_calibrate+0x8ca>
     a04:	10 92 fd 05 	sts	0x05FD, r1
/home/becker/async/wcet-benchmarks/benchmarks/PapaBench-0.2m/sw/airborne/autopilot_preprocessed/pp_main.c:334 (discriminator 2)
     a08:	80 91 fd 05 	lds	r24, 0x05FD
     a0c:	88 2f       	mov	r24, r24
     a0e:	90 e0       	ldi	r25, 0x00	; 0
     a10:	80 50       	subi	r24, 0x00	; 0
     a12:	9a 4f       	sbci	r25, 0xFA	; 250
     a14:	23 e0       	ldi	r18, 0x03	; 3
     a16:	fc 01       	movw	r30, r24
     a18:	20 83       	st	Z, r18
     a1a:	80 91 fd 05 	lds	r24, 0x05FD
     a1e:	8f 5f       	subi	r24, 0xFF	; 255
     a20:	80 93 fd 05 	sts	0x05FD, r24
     a24:	80 91 fd 05 	lds	r24, 0x05FD
     a28:	8f 3f       	cpi	r24, 0xFF	; 255
     a2a:	11 f4       	brne	.+4      	; 0xa30 <ground_calibrate+0x8f2>
/home/becker/async/wcet-benchmarks/benchmarks/PapaBench-0.2m/sw/airborne/autopilot_preprocessed/pp_main.c:334 (discriminator 1)
     a2c:	10 92 fd 05 	sts	0x05FD, r1
/home/becker/async/wcet-benchmarks/benchmarks/PapaBench-0.2m/sw/airborne/autopilot_preprocessed/pp_main.c:334 (discriminator 2)
     a30:	83 e0       	ldi	r24, 0x03	; 3
     a32:	80 93 ff 06 	sts	0x06FF, r24
     a36:	83 e0       	ldi	r24, 0x03	; 3
     a38:	80 93 fa 05 	sts	0x05FA, r24
     a3c:	80 91 fd 05 	lds	r24, 0x05FD
     a40:	88 2f       	mov	r24, r24
     a42:	90 e0       	ldi	r25, 0x00	; 0
     a44:	23 e0       	ldi	r18, 0x03	; 3
     a46:	31 e0       	ldi	r19, 0x01	; 1
     a48:	f9 01       	movw	r30, r18
     a4a:	20 81       	ld	r18, Z
     a4c:	80 50       	subi	r24, 0x00	; 0
     a4e:	9a 4f       	sbci	r25, 0xFA	; 250
     a50:	fc 01       	movw	r30, r24
     a52:	20 83       	st	Z, r18
     a54:	83 e0       	ldi	r24, 0x03	; 3
     a56:	91 e0       	ldi	r25, 0x01	; 1
     a58:	fc 01       	movw	r30, r24
     a5a:	90 81       	ld	r25, Z
     a5c:	80 91 ff 06 	lds	r24, 0x06FF
     a60:	89 0f       	add	r24, r25
     a62:	80 93 ff 06 	sts	0x06FF, r24
     a66:	90 91 fa 05 	lds	r25, 0x05FA
     a6a:	80 91 ff 06 	lds	r24, 0x06FF
     a6e:	89 0f       	add	r24, r25
     a70:	80 93 fa 05 	sts	0x05FA, r24
     a74:	80 91 fd 05 	lds	r24, 0x05FD
     a78:	8f 5f       	subi	r24, 0xFF	; 255
     a7a:	80 93 fd 05 	sts	0x05FD, r24
     a7e:	80 91 fd 05 	lds	r24, 0x05FD
     a82:	8f 3f       	cpi	r24, 0xFF	; 255
     a84:	11 f4       	brne	.+4      	; 0xa8a <ground_calibrate+0x94c>
/home/becker/async/wcet-benchmarks/benchmarks/PapaBench-0.2m/sw/airborne/autopilot_preprocessed/pp_main.c:334 (discriminator 1)
     a86:	10 92 fd 05 	sts	0x05FD, r1
/home/becker/async/wcet-benchmarks/benchmarks/PapaBench-0.2m/sw/airborne/autopilot_preprocessed/pp_main.c:334 (discriminator 2)
     a8a:	80 91 fd 05 	lds	r24, 0x05FD
     a8e:	88 2f       	mov	r24, r24
     a90:	90 e0       	ldi	r25, 0x00	; 0
     a92:	20 91 04 01 	lds	r18, 0x0104
     a96:	80 50       	subi	r24, 0x00	; 0
     a98:	9a 4f       	sbci	r25, 0xFA	; 250
     a9a:	fc 01       	movw	r30, r24
     a9c:	20 83       	st	Z, r18
     a9e:	84 e0       	ldi	r24, 0x04	; 4
     aa0:	91 e0       	ldi	r25, 0x01	; 1
     aa2:	fc 01       	movw	r30, r24
     aa4:	90 81       	ld	r25, Z
     aa6:	80 91 ff 06 	lds	r24, 0x06FF
     aaa:	89 0f       	add	r24, r25
     aac:	80 93 ff 06 	sts	0x06FF, r24
     ab0:	90 91 fa 05 	lds	r25, 0x05FA
     ab4:	80 91 ff 06 	lds	r24, 0x06FF
     ab8:	89 0f       	add	r24, r25
     aba:	80 93 fa 05 	sts	0x05FA, r24
     abe:	80 91 fd 05 	lds	r24, 0x05FD
     ac2:	8f 5f       	subi	r24, 0xFF	; 255
     ac4:	80 93 fd 05 	sts	0x05FD, r24
     ac8:	80 91 fd 05 	lds	r24, 0x05FD
     acc:	8f 3f       	cpi	r24, 0xFF	; 255
     ace:	11 f4       	brne	.+4      	; 0xad4 <ground_calibrate+0x996>
/home/becker/async/wcet-benchmarks/benchmarks/PapaBench-0.2m/sw/airborne/autopilot_preprocessed/pp_main.c:334 (discriminator 1)
     ad0:	10 92 fd 05 	sts	0x05FD, r1
/home/becker/async/wcet-benchmarks/benchmarks/PapaBench-0.2m/sw/airborne/autopilot_preprocessed/pp_main.c:334 (discriminator 2)
     ad4:	80 91 fd 05 	lds	r24, 0x05FD
     ad8:	88 2f       	mov	r24, r24
     ada:	90 e0       	ldi	r25, 0x00	; 0
     adc:	20 91 ff 06 	lds	r18, 0x06FF
     ae0:	80 50       	subi	r24, 0x00	; 0
     ae2:	9a 4f       	sbci	r25, 0xFA	; 250
     ae4:	fc 01       	movw	r30, r24
     ae6:	20 83       	st	Z, r18
     ae8:	80 91 fd 05 	lds	r24, 0x05FD
     aec:	8f 5f       	subi	r24, 0xFF	; 255
     aee:	80 93 fd 05 	sts	0x05FD, r24
     af2:	80 91 fd 05 	lds	r24, 0x05FD
     af6:	8f 3f       	cpi	r24, 0xFF	; 255
     af8:	11 f4       	brne	.+4      	; 0xafe <ground_calibrate+0x9c0>
/home/becker/async/wcet-benchmarks/benchmarks/PapaBench-0.2m/sw/airborne/autopilot_preprocessed/pp_main.c:334 (discriminator 1)
     afa:	10 92 fd 05 	sts	0x05FD, r1
/home/becker/async/wcet-benchmarks/benchmarks/PapaBench-0.2m/sw/airborne/autopilot_preprocessed/pp_main.c:334 (discriminator 2)
     afe:	80 91 fd 05 	lds	r24, 0x05FD
     b02:	88 2f       	mov	r24, r24
     b04:	90 e0       	ldi	r25, 0x00	; 0
     b06:	20 91 fa 05 	lds	r18, 0x05FA
     b0a:	80 50       	subi	r24, 0x00	; 0
     b0c:	9a 4f       	sbci	r25, 0xFA	; 250
     b0e:	fc 01       	movw	r30, r24
     b10:	20 83       	st	Z, r18
     b12:	80 91 fd 05 	lds	r24, 0x05FD
     b16:	8f 5f       	subi	r24, 0xFF	; 255
     b18:	80 93 fd 05 	sts	0x05FD, r24
     b1c:	80 91 fd 05 	lds	r24, 0x05FD
     b20:	8f 3f       	cpi	r24, 0xFF	; 255
     b22:	11 f4       	brne	.+4      	; 0xb28 <ground_calibrate+0x9ea>
/home/becker/async/wcet-benchmarks/benchmarks/PapaBench-0.2m/sw/airborne/autopilot_preprocessed/pp_main.c:334 (discriminator 1)
     b24:	10 92 fd 05 	sts	0x05FD, r1
/home/becker/async/wcet-benchmarks/benchmarks/PapaBench-0.2m/sw/airborne/autopilot_preprocessed/pp_main.c:334 (discriminator 2)
     b28:	89 e5       	ldi	r24, 0x59	; 89
     b2a:	90 e0       	ldi	r25, 0x00	; 0
     b2c:	fc 01       	movw	r30, r24
     b2e:	80 81       	ld	r24, Z
     b30:	88 2f       	mov	r24, r24
     b32:	90 e0       	ldi	r25, 0x00	; 0
     b34:	80 71       	andi	r24, 0x10	; 16
     b36:	99 27       	eor	r25, r25
     b38:	00 97       	sbiw	r24, 0x00	; 0
     b3a:	81 f5       	brne	.+96     	; 0xb9c <ground_calibrate+0xa5e>
/home/becker/async/wcet-benchmarks/benchmarks/PapaBench-0.2m/sw/airborne/autopilot_preprocessed/pp_main.c:334 (discriminator 1)
     b3c:	80 91 fe 05 	lds	r24, 0x05FE
     b40:	88 2f       	mov	r24, r24
     b42:	90 e0       	ldi	r25, 0x00	; 0
     b44:	80 50       	subi	r24, 0x00	; 0
     b46:	9a 4f       	sbci	r25, 0xFA	; 250
     b48:	fc 01       	movw	r30, r24
     b4a:	80 81       	ld	r24, Z
     b4c:	80 93 fc 05 	sts	0x05FC, r24
     b50:	10 92 ff 05 	sts	0x05FF, r1
     b54:	80 91 fe 05 	lds	r24, 0x05FE
     b58:	8f 5f       	subi	r24, 0xFF	; 255
     b5a:	80 93 fe 05 	sts	0x05FE, r24
     b5e:	80 91 fe 05 	lds	r24, 0x05FE
     b62:	8f 3f       	cpi	r24, 0xFF	; 255
     b64:	11 f4       	brne	.+4      	; 0xb6a <ground_calibrate+0xa2c>
     b66:	10 92 fe 05 	sts	0x05FE, r1
/home/becker/async/wcet-benchmarks/benchmarks/PapaBench-0.2m/sw/airborne/autopilot_preprocessed/pp_main.c:334 (discriminator 2)
     b6a:	88 e5       	ldi	r24, 0x58	; 88
     b6c:	90 e0       	ldi	r25, 0x00	; 0
     b6e:	28 e5       	ldi	r18, 0x58	; 88
     b70:	30 e0       	ldi	r19, 0x00	; 0
     b72:	f9 01       	movw	r30, r18
     b74:	20 81       	ld	r18, Z
     b76:	21 60       	ori	r18, 0x01	; 1
     b78:	fc 01       	movw	r30, r24
     b7a:	20 83       	st	Z, r18
     b7c:	89 e5       	ldi	r24, 0x59	; 89
     b7e:	90 e0       	ldi	r25, 0x00	; 0
     b80:	29 e5       	ldi	r18, 0x59	; 89
     b82:	30 e0       	ldi	r19, 0x00	; 0
     b84:	f9 01       	movw	r30, r18
     b86:	20 81       	ld	r18, Z
     b88:	20 61       	ori	r18, 0x10	; 16
     b8a:	fc 01       	movw	r30, r24
     b8c:	20 83       	st	Z, r18
/home/becker/async/wcet-benchmarks/benchmarks/PapaBench-0.2m/sw/airborne/autopilot_preprocessed/pp_main.c:336 (discriminator 2)
     b8e:	08 c0       	rjmp	.+16     	; 0xba0 <ground_calibrate+0xa62>
/home/becker/async/wcet-benchmarks/benchmarks/PapaBench-0.2m/sw/airborne/autopilot_preprocessed/pp_main.c:334 (discriminator 2)
     b90:	80 91 fb 05 	lds	r24, 0x05FB
     b94:	8f 5f       	subi	r24, 0xFF	; 255
     b96:	80 93 fb 05 	sts	0x05FB, r24
/home/becker/async/wcet-benchmarks/benchmarks/PapaBench-0.2m/sw/airborne/autopilot_preprocessed/pp_main.c:336 (discriminator 2)
     b9a:	02 c0       	rjmp	.+4      	; 0xba0 <ground_calibrate+0xa62>
/home/becker/async/wcet-benchmarks/benchmarks/PapaBench-0.2m/sw/airborne/autopilot_preprocessed/pp_main.c:336
     b9c:	01 c0       	rjmp	.+2      	; 0xba0 <ground_calibrate+0xa62>
/home/becker/async/wcet-benchmarks/benchmarks/PapaBench-0.2m/sw/airborne/autopilot_preprocessed/pp_main.c:338
     b9e:	00 00       	nop
/home/becker/async/wcet-benchmarks/benchmarks/PapaBench-0.2m/sw/airborne/autopilot_preprocessed/pp_main.c:340
     ba0:	df 91       	pop	r29
     ba2:	cf 91       	pop	r28
     ba4:	08 95       	ret

00000ba6 <pprz_mode_update>:
pprz_mode_update():
/home/becker/async/wcet-benchmarks/benchmarks/PapaBench-0.2m/sw/airborne/autopilot_preprocessed/pp_main.c:341
     ba6:	cf 93       	push	r28
     ba8:	df 93       	push	r29
     baa:	1f 92       	push	r1
     bac:	cd b7       	in	r28, 0x3d	; 61
     bae:	de b7       	in	r29, 0x3e	; 62
/home/becker/async/wcet-benchmarks/benchmarks/PapaBench-0.2m/sw/airborne/autopilot_preprocessed/pp_main.c:342
     bb0:	80 91 c9 01 	lds	r24, 0x01C9
     bb4:	83 30       	cpi	r24, 0x03	; 3
     bb6:	31 f4       	brne	.+12     	; 0xbc4 <pprz_mode_update+0x1e>
/home/becker/async/wcet-benchmarks/benchmarks/PapaBench-0.2m/sw/airborne/autopilot_preprocessed/pp_main.c:342 (discriminator 1)
     bb8:	80 91 ef 05 	lds	r24, 0x05EF
     bbc:	88 23       	and	r24, r24
     bbe:	21 f1       	breq	.+72     	; 0xc08 <pprz_mode_update+0x62>
/home/becker/async/wcet-benchmarks/benchmarks/PapaBench-0.2m/sw/airborne/autopilot_preprocessed/pp_main.c:342 (discriminator 2)
     bc0:	10 92 ef 05 	sts	0x05EF, r1
/home/becker/async/wcet-benchmarks/benchmarks/PapaBench-0.2m/sw/airborne/autopilot_preprocessed/pp_main.c:343
     bc4:	80 91 1e 07 	lds	r24, 0x071E
     bc8:	90 91 1f 07 	lds	r25, 0x071F
     bcc:	81 38       	cpi	r24, 0x81	; 129
     bce:	2c e0       	ldi	r18, 0x0C	; 12
     bd0:	92 07       	cpc	r25, r18
     bd2:	64 f4       	brge	.+24     	; 0xbec <pprz_mode_update+0x46>
/home/becker/async/wcet-benchmarks/benchmarks/PapaBench-0.2m/sw/airborne/autopilot_preprocessed/pp_main.c:343 (discriminator 1)
     bd4:	80 91 1e 07 	lds	r24, 0x071E
     bd8:	90 91 1f 07 	lds	r25, 0x071F
     bdc:	21 e0       	ldi	r18, 0x01	; 1
     bde:	81 34       	cpi	r24, 0x41	; 65
     be0:	3d ee       	ldi	r19, 0xED	; 237
     be2:	93 07       	cpc	r25, r19
     be4:	0c f4       	brge	.+2      	; 0xbe8 <pprz_mode_update+0x42>
     be6:	20 e0       	ldi	r18, 0x00	; 0
     be8:	82 2f       	mov	r24, r18
     bea:	01 c0       	rjmp	.+2      	; 0xbee <pprz_mode_update+0x48>
/home/becker/async/wcet-benchmarks/benchmarks/PapaBench-0.2m/sw/airborne/autopilot_preprocessed/pp_main.c:343 (discriminator 2)
     bec:	82 e0       	ldi	r24, 0x02	; 2
/home/becker/async/wcet-benchmarks/benchmarks/PapaBench-0.2m/sw/airborne/autopilot_preprocessed/pp_main.c:343 (discriminator 3)
     bee:	89 83       	std	Y+1, r24	; 0x01
     bf0:	90 91 c9 01 	lds	r25, 0x01C9
     bf4:	89 81       	ldd	r24, Y+1	; 0x01
     bf6:	98 17       	cp	r25, r24
     bf8:	29 f0       	breq	.+10     	; 0xc04 <pprz_mode_update+0x5e>
/home/becker/async/wcet-benchmarks/benchmarks/PapaBench-0.2m/sw/airborne/autopilot_preprocessed/pp_main.c:343 (discriminator 1)
     bfa:	89 81       	ldd	r24, Y+1	; 0x01
     bfc:	80 93 c9 01 	sts	0x01C9, r24
     c00:	81 e0       	ldi	r24, 0x01	; 1
     c02:	03 c0       	rjmp	.+6      	; 0xc0a <pprz_mode_update+0x64>
/home/becker/async/wcet-benchmarks/benchmarks/PapaBench-0.2m/sw/airborne/autopilot_preprocessed/pp_main.c:343 (discriminator 2)
     c04:	80 e0       	ldi	r24, 0x00	; 0
     c06:	01 c0       	rjmp	.+2      	; 0xc0a <pprz_mode_update+0x64>
/home/becker/async/wcet-benchmarks/benchmarks/PapaBench-0.2m/sw/airborne/autopilot_preprocessed/pp_main.c:345
     c08:	80 e0       	ldi	r24, 0x00	; 0
/home/becker/async/wcet-benchmarks/benchmarks/PapaBench-0.2m/sw/airborne/autopilot_preprocessed/pp_main.c:346
     c0a:	0f 90       	pop	r0
     c0c:	df 91       	pop	r29
     c0e:	cf 91       	pop	r28
     c10:	08 95       	ret

00000c12 <ir_estim_mode_update>:
ir_estim_mode_update():
/home/becker/async/wcet-benchmarks/benchmarks/PapaBench-0.2m/sw/airborne/autopilot_preprocessed/pp_main.c:347
     c12:	cf 93       	push	r28
     c14:	df 93       	push	r29
     c16:	1f 92       	push	r1
     c18:	cd b7       	in	r28, 0x3d	; 61
     c1a:	de b7       	in	r29, 0x3e	; 62
/home/becker/async/wcet-benchmarks/benchmarks/PapaBench-0.2m/sw/airborne/autopilot_preprocessed/pp_main.c:348
     c1c:	80 91 24 07 	lds	r24, 0x0724
     c20:	90 91 25 07 	lds	r25, 0x0725
     c24:	21 e0       	ldi	r18, 0x01	; 1
     c26:	80 38       	cpi	r24, 0x80	; 128
     c28:	3c e0       	ldi	r19, 0x0C	; 12
     c2a:	93 07       	cpc	r25, r19
     c2c:	0c f4       	brge	.+2      	; 0xc30 <ir_estim_mode_update+0x1e>
     c2e:	20 e0       	ldi	r18, 0x00	; 0
     c30:	29 83       	std	Y+1, r18	; 0x01
     c32:	90 91 00 01 	lds	r25, 0x0100
     c36:	89 81       	ldd	r24, Y+1	; 0x01
     c38:	98 17       	cp	r25, r24
     c3a:	29 f0       	breq	.+10     	; 0xc46 <ir_estim_mode_update+0x34>
/home/becker/async/wcet-benchmarks/benchmarks/PapaBench-0.2m/sw/airborne/autopilot_preprocessed/pp_main.c:348 (discriminator 1)
     c3c:	89 81       	ldd	r24, Y+1	; 0x01
     c3e:	80 93 00 01 	sts	0x0100, r24
     c42:	81 e0       	ldi	r24, 0x01	; 1
     c44:	01 c0       	rjmp	.+2      	; 0xc48 <ir_estim_mode_update+0x36>
/home/becker/async/wcet-benchmarks/benchmarks/PapaBench-0.2m/sw/airborne/autopilot_preprocessed/pp_main.c:348 (discriminator 2)
     c46:	80 e0       	ldi	r24, 0x00	; 0
/home/becker/async/wcet-benchmarks/benchmarks/PapaBench-0.2m/sw/airborne/autopilot_preprocessed/pp_main.c:349
     c48:	0f 90       	pop	r0
     c4a:	df 91       	pop	r29
     c4c:	cf 91       	pop	r28
     c4e:	08 95       	ret

00000c50 <mcu1_status_update>:
mcu1_status_update():
/home/becker/async/wcet-benchmarks/benchmarks/PapaBench-0.2m/sw/airborne/autopilot_preprocessed/pp_main.c:350
     c50:	cf 93       	push	r28
     c52:	df 93       	push	r29
     c54:	00 d0       	rcall	.+0      	; 0xc56 <mcu1_status_update+0x6>
     c56:	cd b7       	in	r28, 0x3d	; 61
     c58:	de b7       	in	r29, 0x3e	; 62
/home/becker/async/wcet-benchmarks/benchmarks/PapaBench-0.2m/sw/airborne/autopilot_preprocessed/pp_main.c:351
     c5a:	80 91 29 07 	lds	r24, 0x0729
     c5e:	89 83       	std	Y+1, r24	; 0x01
/home/becker/async/wcet-benchmarks/benchmarks/PapaBench-0.2m/sw/airborne/autopilot_preprocessed/pp_main.c:352
     c60:	90 91 d0 01 	lds	r25, 0x01D0
     c64:	89 81       	ldd	r24, Y+1	; 0x01
     c66:	98 17       	cp	r25, r24
     c68:	a9 f0       	breq	.+42     	; 0xc94 <mcu1_status_update+0x44>
/home/becker/async/wcet-benchmarks/benchmarks/PapaBench-0.2m/sw/airborne/autopilot_preprocessed/pp_main.c:353
     c6a:	80 91 d0 01 	lds	r24, 0x01D0
     c6e:	28 2f       	mov	r18, r24
     c70:	30 e0       	ldi	r19, 0x00	; 0
     c72:	89 81       	ldd	r24, Y+1	; 0x01
     c74:	88 2f       	mov	r24, r24
     c76:	90 e0       	ldi	r25, 0x00	; 0
     c78:	82 27       	eor	r24, r18
     c7a:	93 27       	eor	r25, r19
     c7c:	83 70       	andi	r24, 0x03	; 3
     c7e:	99 27       	eor	r25, r25
     c80:	21 e0       	ldi	r18, 0x01	; 1
     c82:	00 97       	sbiw	r24, 0x00	; 0
     c84:	09 f4       	brne	.+2      	; 0xc88 <mcu1_status_update+0x38>
     c86:	20 e0       	ldi	r18, 0x00	; 0
     c88:	2a 83       	std	Y+2, r18	; 0x02
/home/becker/async/wcet-benchmarks/benchmarks/PapaBench-0.2m/sw/airborne/autopilot_preprocessed/pp_main.c:354
     c8a:	89 81       	ldd	r24, Y+1	; 0x01
     c8c:	80 93 d0 01 	sts	0x01D0, r24
/home/becker/async/wcet-benchmarks/benchmarks/PapaBench-0.2m/sw/airborne/autopilot_preprocessed/pp_main.c:355
     c90:	8a 81       	ldd	r24, Y+2	; 0x02
     c92:	01 c0       	rjmp	.+2      	; 0xc96 <mcu1_status_update+0x46>
/home/becker/async/wcet-benchmarks/benchmarks/PapaBench-0.2m/sw/airborne/autopilot_preprocessed/pp_main.c:357
     c94:	80 e0       	ldi	r24, 0x00	; 0
/home/becker/async/wcet-benchmarks/benchmarks/PapaBench-0.2m/sw/airborne/autopilot_preprocessed/pp_main.c:358
     c96:	0f 90       	pop	r0
     c98:	0f 90       	pop	r0
     c9a:	df 91       	pop	r29
     c9c:	cf 91       	pop	r28
     c9e:	08 95       	ret

00000ca0 <events_update>:
events_update():
/home/becker/async/wcet-benchmarks/benchmarks/PapaBench-0.2m/sw/airborne/autopilot_preprocessed/pp_main.c:359
     ca0:	cf 93       	push	r28
     ca2:	df 93       	push	r29
     ca4:	cd b7       	in	r28, 0x3d	; 61
     ca6:	de b7       	in	r29, 0x3e	; 62
/home/becker/async/wcet-benchmarks/benchmarks/PapaBench-0.2m/sw/airborne/autopilot_preprocessed/pp_main.c:362
     ca8:	80 91 de 05 	lds	r24, 0x05DE
     cac:	88 23       	and	r24, r24
     cae:	21 f5       	brne	.+72     	; 0xcf8 <events_update+0x58>
/home/becker/async/wcet-benchmarks/benchmarks/PapaBench-0.2m/sw/airborne/autopilot_preprocessed/pp_main.c:362 (discriminator 1)
     cb0:	80 91 20 07 	lds	r24, 0x0720
     cb4:	90 91 21 07 	lds	r25, 0x0721
     cb8:	81 32       	cpi	r24, 0x21	; 33
     cba:	2c e1       	ldi	r18, 0x1C	; 28
     cbc:	92 07       	cpc	r25, r18
     cbe:	e4 f0       	brlt	.+56     	; 0xcf8 <events_update+0x58>
     cc0:	80 91 d5 01 	lds	r24, 0x01D5
     cc4:	90 91 d6 01 	lds	r25, 0x01D6
     cc8:	84 31       	cpi	r24, 0x14	; 20
     cca:	91 05       	cpc	r25, r1
     ccc:	a0 f4       	brcc	.+40     	; 0xcf6 <events_update+0x56>
     cce:	80 91 d5 01 	lds	r24, 0x01D5
     cd2:	90 91 d6 01 	lds	r25, 0x01D6
     cd6:	01 96       	adiw	r24, 0x01	; 1
     cd8:	90 93 d6 01 	sts	0x01D6, r25
     cdc:	80 93 d5 01 	sts	0x01D5, r24
     ce0:	80 91 d5 01 	lds	r24, 0x01D5
     ce4:	90 91 d6 01 	lds	r25, 0x01D6
     ce8:	84 31       	cpi	r24, 0x14	; 20
     cea:	91 05       	cpc	r25, r1
     cec:	21 f4       	brne	.+8      	; 0xcf6 <events_update+0x56>
     cee:	81 e0       	ldi	r24, 0x01	; 1
     cf0:	80 93 ef 05 	sts	0x05EF, r24
     cf4:	07 c0       	rjmp	.+14     	; 0xd04 <events_update+0x64>
/home/becker/async/wcet-benchmarks/benchmarks/PapaBench-0.2m/sw/airborne/autopilot_preprocessed/pp_main.c:362 (discriminator 2)
     cf6:	06 c0       	rjmp	.+12     	; 0xd04 <events_update+0x64>
     cf8:	10 92 d6 01 	sts	0x01D6, r1
     cfc:	10 92 d5 01 	sts	0x01D5, r1
     d00:	10 92 ef 05 	sts	0x05EF, r1
/home/becker/async/wcet-benchmarks/benchmarks/PapaBench-0.2m/sw/airborne/autopilot_preprocessed/pp_main.c:363
     d04:	80 91 de 05 	lds	r24, 0x05DE
     d08:	88 23       	and	r24, r24
     d0a:	21 f5       	brne	.+72     	; 0xd54 <events_update+0xb4>
/home/becker/async/wcet-benchmarks/benchmarks/PapaBench-0.2m/sw/airborne/autopilot_preprocessed/pp_main.c:363 (discriminator 1)
     d0c:	80 91 20 07 	lds	r24, 0x0720
     d10:	90 91 21 07 	lds	r25, 0x0721
     d14:	80 3e       	cpi	r24, 0xE0	; 224
     d16:	23 ee       	ldi	r18, 0xE3	; 227
     d18:	92 07       	cpc	r25, r18
     d1a:	e4 f4       	brge	.+56     	; 0xd54 <events_update+0xb4>
     d1c:	80 91 d7 01 	lds	r24, 0x01D7
     d20:	90 91 d8 01 	lds	r25, 0x01D8
     d24:	84 31       	cpi	r24, 0x14	; 20
     d26:	91 05       	cpc	r25, r1
     d28:	a0 f4       	brcc	.+40     	; 0xd52 <events_update+0xb2>
     d2a:	80 91 d7 01 	lds	r24, 0x01D7
     d2e:	90 91 d8 01 	lds	r25, 0x01D8
     d32:	01 96       	adiw	r24, 0x01	; 1
     d34:	90 93 d8 01 	sts	0x01D8, r25
     d38:	80 93 d7 01 	sts	0x01D7, r24
     d3c:	80 91 d7 01 	lds	r24, 0x01D7
     d40:	90 91 d8 01 	lds	r25, 0x01D8
     d44:	84 31       	cpi	r24, 0x14	; 20
     d46:	91 05       	cpc	r25, r1
     d48:	21 f4       	brne	.+8      	; 0xd52 <events_update+0xb2>
     d4a:	81 e0       	ldi	r24, 0x01	; 1
     d4c:	80 93 f8 05 	sts	0x05F8, r24
     d50:	07 c0       	rjmp	.+14     	; 0xd60 <events_update+0xc0>
/home/becker/async/wcet-benchmarks/benchmarks/PapaBench-0.2m/sw/airborne/autopilot_preprocessed/pp_main.c:363 (discriminator 2)
     d52:	06 c0       	rjmp	.+12     	; 0xd60 <events_update+0xc0>
     d54:	10 92 d8 01 	sts	0x01D8, r1
     d58:	10 92 d7 01 	sts	0x01D7, r1
     d5c:	10 92 f8 05 	sts	0x05F8, r1
/home/becker/async/wcet-benchmarks/benchmarks/PapaBench-0.2m/sw/airborne/autopilot_preprocessed/pp_main.c:364
     d60:	df 91       	pop	r29
     d62:	cf 91       	pop	r28
     d64:	08 95       	ret

00000d66 <copy_from_to_fbw>:
copy_from_to_fbw():
/home/becker/async/wcet-benchmarks/benchmarks/PapaBench-0.2m/sw/airborne/autopilot_preprocessed/pp_main.c:365
     d66:	cf 93       	push	r28
     d68:	df 93       	push	r29
     d6a:	cd b7       	in	r28, 0x3d	; 61
     d6c:	de b7       	in	r29, 0x3e	; 62
/home/becker/async/wcet-benchmarks/benchmarks/PapaBench-0.2m/sw/airborne/autopilot_preprocessed/pp_main.c:366
     d6e:	80 91 1c 07 	lds	r24, 0x071C
     d72:	90 91 1d 07 	lds	r25, 0x071D
     d76:	90 93 07 07 	sts	0x0707, r25
     d7a:	80 93 06 07 	sts	0x0706, r24
/home/becker/async/wcet-benchmarks/benchmarks/PapaBench-0.2m/sw/airborne/autopilot_preprocessed/pp_main.c:367
     d7e:	10 92 13 07 	sts	0x0713, r1
/home/becker/async/wcet-benchmarks/benchmarks/PapaBench-0.2m/sw/airborne/autopilot_preprocessed/pp_main.c:368
     d82:	df 91       	pop	r29
     d84:	cf 91       	pop	r28
     d86:	08 95       	ret

00000d88 <reporting_task>:
reporting_task():
/home/becker/async/wcet-benchmarks/benchmarks/PapaBench-0.2m/sw/airborne/autopilot_preprocessed/pp_main.c:369
     d88:	cf 93       	push	r28
     d8a:	df 93       	push	r29
     d8c:	cd b7       	in	r28, 0x3d	; 61
     d8e:	de b7       	in	r29, 0x3e	; 62
/home/becker/async/wcet-benchmarks/benchmarks/PapaBench-0.2m/sw/airborne/autopilot_preprocessed/pp_main.c:371
     d90:	80 91 01 01 	lds	r24, 0x0101
     d94:	88 23       	and	r24, r24
     d96:	09 f4       	brne	.+2      	; 0xd9a <reporting_task+0x12>
     d98:	28 c4       	rjmp	.+2128   	; 0x15ea <__stack+0x4eb>
/home/becker/async/wcet-benchmarks/benchmarks/PapaBench-0.2m/sw/airborne/autopilot_preprocessed/pp_main.c:372
     d9a:	90 91 fd 05 	lds	r25, 0x05FD
     d9e:	80 91 fe 05 	lds	r24, 0x05FE
     da2:	98 17       	cp	r25, r24
     da4:	a0 f0       	brcs	.+40     	; 0xdce <reporting_task+0x46>
/home/becker/async/wcet-benchmarks/benchmarks/PapaBench-0.2m/sw/airborne/autopilot_preprocessed/pp_main.c:372 (discriminator 1)
     da6:	80 91 fe 05 	lds	r24, 0x05FE
     daa:	28 2f       	mov	r18, r24
     dac:	30 e0       	ldi	r19, 0x00	; 0
     dae:	80 91 fd 05 	lds	r24, 0x05FD
     db2:	88 2f       	mov	r24, r24
     db4:	90 e0       	ldi	r25, 0x00	; 0
     db6:	a9 01       	movw	r20, r18
     db8:	48 1b       	sub	r20, r24
     dba:	59 0b       	sbc	r21, r25
     dbc:	ca 01       	movw	r24, r20
     dbe:	81 50       	subi	r24, 0x01	; 1
     dc0:	9f 4f       	sbci	r25, 0xFF	; 255
     dc2:	21 e0       	ldi	r18, 0x01	; 1
     dc4:	87 30       	cpi	r24, 0x07	; 7
     dc6:	91 05       	cpc	r25, r1
     dc8:	9c f4       	brge	.+38     	; 0xdf0 <reporting_task+0x68>
     dca:	20 e0       	ldi	r18, 0x00	; 0
     dcc:	11 c0       	rjmp	.+34     	; 0xdf0 <reporting_task+0x68>
/home/becker/async/wcet-benchmarks/benchmarks/PapaBench-0.2m/sw/airborne/autopilot_preprocessed/pp_main.c:372 (discriminator 2)
     dce:	80 91 fe 05 	lds	r24, 0x05FE
     dd2:	28 2f       	mov	r18, r24
     dd4:	30 e0       	ldi	r19, 0x00	; 0
     dd6:	80 91 fd 05 	lds	r24, 0x05FD
     dda:	88 2f       	mov	r24, r24
     ddc:	90 e0       	ldi	r25, 0x00	; 0
     dde:	f9 01       	movw	r30, r18
     de0:	e8 1b       	sub	r30, r24
     de2:	f9 0b       	sbc	r31, r25
     de4:	cf 01       	movw	r24, r30
     de6:	21 e0       	ldi	r18, 0x01	; 1
     de8:	87 30       	cpi	r24, 0x07	; 7
     dea:	91 05       	cpc	r25, r1
     dec:	0c f4       	brge	.+2      	; 0xdf0 <reporting_task+0x68>
     dee:	20 e0       	ldi	r18, 0x00	; 0
/home/becker/async/wcet-benchmarks/benchmarks/PapaBench-0.2m/sw/airborne/autopilot_preprocessed/pp_main.c:372 (discriminator 3)
     df0:	22 23       	and	r18, r18
     df2:	09 f4       	brne	.+2      	; 0xdf6 <reporting_task+0x6e>
     df4:	d8 c0       	rjmp	.+432    	; 0xfa6 <reporting_task+0x21e>
/home/becker/async/wcet-benchmarks/benchmarks/PapaBench-0.2m/sw/airborne/autopilot_preprocessed/pp_main.c:372 (discriminator 1)
     df6:	80 91 fd 05 	lds	r24, 0x05FD
     dfa:	88 2f       	mov	r24, r24
     dfc:	90 e0       	ldi	r25, 0x00	; 0
     dfe:	80 50       	subi	r24, 0x00	; 0
     e00:	9a 4f       	sbci	r25, 0xFA	; 250
     e02:	25 e0       	ldi	r18, 0x05	; 5
     e04:	fc 01       	movw	r30, r24
     e06:	20 83       	st	Z, r18
     e08:	80 91 fd 05 	lds	r24, 0x05FD
     e0c:	8f 5f       	subi	r24, 0xFF	; 255
     e0e:	80 93 fd 05 	sts	0x05FD, r24
     e12:	80 91 fd 05 	lds	r24, 0x05FD
     e16:	8f 3f       	cpi	r24, 0xFF	; 255
     e18:	11 f4       	brne	.+4      	; 0xe1e <reporting_task+0x96>
     e1a:	10 92 fd 05 	sts	0x05FD, r1
/home/becker/async/wcet-benchmarks/benchmarks/PapaBench-0.2m/sw/airborne/autopilot_preprocessed/pp_main.c:372 (discriminator 2)
     e1e:	80 91 fd 05 	lds	r24, 0x05FD
     e22:	88 2f       	mov	r24, r24
     e24:	90 e0       	ldi	r25, 0x00	; 0
     e26:	80 50       	subi	r24, 0x00	; 0
     e28:	9a 4f       	sbci	r25, 0xFA	; 250
     e2a:	21 e0       	ldi	r18, 0x01	; 1
     e2c:	fc 01       	movw	r30, r24
     e2e:	20 83       	st	Z, r18
     e30:	80 91 fd 05 	lds	r24, 0x05FD
     e34:	8f 5f       	subi	r24, 0xFF	; 255
     e36:	80 93 fd 05 	sts	0x05FD, r24
     e3a:	80 91 fd 05 	lds	r24, 0x05FD
     e3e:	8f 3f       	cpi	r24, 0xFF	; 255
     e40:	11 f4       	brne	.+4      	; 0xe46 <reporting_task+0xbe>
/home/becker/async/wcet-benchmarks/benchmarks/PapaBench-0.2m/sw/airborne/autopilot_preprocessed/pp_main.c:372 (discriminator 1)
     e42:	10 92 fd 05 	sts	0x05FD, r1
/home/becker/async/wcet-benchmarks/benchmarks/PapaBench-0.2m/sw/airborne/autopilot_preprocessed/pp_main.c:372 (discriminator 2)
     e46:	81 e0       	ldi	r24, 0x01	; 1
     e48:	80 93 ff 06 	sts	0x06FF, r24
     e4c:	81 e0       	ldi	r24, 0x01	; 1
     e4e:	80 93 fa 05 	sts	0x05FA, r24
     e52:	80 91 fd 05 	lds	r24, 0x05FD
     e56:	88 2f       	mov	r24, r24
     e58:	90 e0       	ldi	r25, 0x00	; 0
     e5a:	29 e9       	ldi	r18, 0x99	; 153
     e5c:	31 e0       	ldi	r19, 0x01	; 1
     e5e:	f9 01       	movw	r30, r18
     e60:	20 81       	ld	r18, Z
     e62:	80 50       	subi	r24, 0x00	; 0
     e64:	9a 4f       	sbci	r25, 0xFA	; 250
     e66:	fc 01       	movw	r30, r24
     e68:	20 83       	st	Z, r18
     e6a:	89 e9       	ldi	r24, 0x99	; 153
     e6c:	91 e0       	ldi	r25, 0x01	; 1
     e6e:	fc 01       	movw	r30, r24
     e70:	90 81       	ld	r25, Z
     e72:	80 91 ff 06 	lds	r24, 0x06FF
     e76:	89 0f       	add	r24, r25
     e78:	80 93 ff 06 	sts	0x06FF, r24
     e7c:	90 91 fa 05 	lds	r25, 0x05FA
     e80:	80 91 ff 06 	lds	r24, 0x06FF
     e84:	89 0f       	add	r24, r25
     e86:	80 93 fa 05 	sts	0x05FA, r24
     e8a:	80 91 fd 05 	lds	r24, 0x05FD
     e8e:	8f 5f       	subi	r24, 0xFF	; 255
     e90:	80 93 fd 05 	sts	0x05FD, r24
     e94:	80 91 fd 05 	lds	r24, 0x05FD
     e98:	8f 3f       	cpi	r24, 0xFF	; 255
     e9a:	11 f4       	brne	.+4      	; 0xea0 <reporting_task+0x118>
/home/becker/async/wcet-benchmarks/benchmarks/PapaBench-0.2m/sw/airborne/autopilot_preprocessed/pp_main.c:372 (discriminator 1)
     e9c:	10 92 fd 05 	sts	0x05FD, r1
/home/becker/async/wcet-benchmarks/benchmarks/PapaBench-0.2m/sw/airborne/autopilot_preprocessed/pp_main.c:372 (discriminator 2)
     ea0:	80 91 fd 05 	lds	r24, 0x05FD
     ea4:	88 2f       	mov	r24, r24
     ea6:	90 e0       	ldi	r25, 0x00	; 0
     ea8:	20 91 9a 01 	lds	r18, 0x019A
     eac:	80 50       	subi	r24, 0x00	; 0
     eae:	9a 4f       	sbci	r25, 0xFA	; 250
     eb0:	fc 01       	movw	r30, r24
     eb2:	20 83       	st	Z, r18
     eb4:	8a e9       	ldi	r24, 0x9A	; 154
     eb6:	91 e0       	ldi	r25, 0x01	; 1
     eb8:	fc 01       	movw	r30, r24
     eba:	90 81       	ld	r25, Z
     ebc:	80 91 ff 06 	lds	r24, 0x06FF
     ec0:	89 0f       	add	r24, r25
     ec2:	80 93 ff 06 	sts	0x06FF, r24
     ec6:	90 91 fa 05 	lds	r25, 0x05FA
     eca:	80 91 ff 06 	lds	r24, 0x06FF
     ece:	89 0f       	add	r24, r25
     ed0:	80 93 fa 05 	sts	0x05FA, r24
     ed4:	80 91 fd 05 	lds	r24, 0x05FD
     ed8:	8f 5f       	subi	r24, 0xFF	; 255
     eda:	80 93 fd 05 	sts	0x05FD, r24
     ede:	80 91 fd 05 	lds	r24, 0x05FD
     ee2:	8f 3f       	cpi	r24, 0xFF	; 255
     ee4:	11 f4       	brne	.+4      	; 0xeea <reporting_task+0x162>
/home/becker/async/wcet-benchmarks/benchmarks/PapaBench-0.2m/sw/airborne/autopilot_preprocessed/pp_main.c:372 (discriminator 1)
     ee6:	10 92 fd 05 	sts	0x05FD, r1
/home/becker/async/wcet-benchmarks/benchmarks/PapaBench-0.2m/sw/airborne/autopilot_preprocessed/pp_main.c:372 (discriminator 2)
     eea:	80 91 fd 05 	lds	r24, 0x05FD
     eee:	88 2f       	mov	r24, r24
     ef0:	90 e0       	ldi	r25, 0x00	; 0
     ef2:	20 91 ff 06 	lds	r18, 0x06FF
     ef6:	80 50       	subi	r24, 0x00	; 0
     ef8:	9a 4f       	sbci	r25, 0xFA	; 250
     efa:	fc 01       	movw	r30, r24
     efc:	20 83       	st	Z, r18
     efe:	80 91 fd 05 	lds	r24, 0x05FD
     f02:	8f 5f       	subi	r24, 0xFF	; 255
     f04:	80 93 fd 05 	sts	0x05FD, r24
     f08:	80 91 fd 05 	lds	r24, 0x05FD
     f0c:	8f 3f       	cpi	r24, 0xFF	; 255
     f0e:	11 f4       	brne	.+4      	; 0xf14 <reporting_task+0x18c>
/home/becker/async/wcet-benchmarks/benchmarks/PapaBench-0.2m/sw/airborne/autopilot_preprocessed/pp_main.c:372 (discriminator 1)
     f10:	10 92 fd 05 	sts	0x05FD, r1
/home/becker/async/wcet-benchmarks/benchmarks/PapaBench-0.2m/sw/airborne/autopilot_preprocessed/pp_main.c:372 (discriminator 2)
     f14:	80 91 fd 05 	lds	r24, 0x05FD
     f18:	88 2f       	mov	r24, r24
     f1a:	90 e0       	ldi	r25, 0x00	; 0
     f1c:	20 91 fa 05 	lds	r18, 0x05FA
     f20:	80 50       	subi	r24, 0x00	; 0
     f22:	9a 4f       	sbci	r25, 0xFA	; 250
     f24:	fc 01       	movw	r30, r24
     f26:	20 83       	st	Z, r18
     f28:	80 91 fd 05 	lds	r24, 0x05FD
     f2c:	8f 5f       	subi	r24, 0xFF	; 255
     f2e:	80 93 fd 05 	sts	0x05FD, r24
     f32:	80 91 fd 05 	lds	r24, 0x05FD
     f36:	8f 3f       	cpi	r24, 0xFF	; 255
     f38:	11 f4       	brne	.+4      	; 0xf3e <reporting_task+0x1b6>
/home/becker/async/wcet-benchmarks/benchmarks/PapaBench-0.2m/sw/airborne/autopilot_preprocessed/pp_main.c:372 (discriminator 1)
     f3a:	10 92 fd 05 	sts	0x05FD, r1
/home/becker/async/wcet-benchmarks/benchmarks/PapaBench-0.2m/sw/airborne/autopilot_preprocessed/pp_main.c:372 (discriminator 2)
     f3e:	89 e5       	ldi	r24, 0x59	; 89
     f40:	90 e0       	ldi	r25, 0x00	; 0
     f42:	fc 01       	movw	r30, r24
     f44:	80 81       	ld	r24, Z
     f46:	88 2f       	mov	r24, r24
     f48:	90 e0       	ldi	r25, 0x00	; 0
     f4a:	80 71       	andi	r24, 0x10	; 16
     f4c:	99 27       	eor	r25, r25
     f4e:	00 97       	sbiw	r24, 0x00	; 0
     f50:	79 f5       	brne	.+94     	; 0xfb0 <reporting_task+0x228>
/home/becker/async/wcet-benchmarks/benchmarks/PapaBench-0.2m/sw/airborne/autopilot_preprocessed/pp_main.c:372 (discriminator 1)
     f52:	80 91 fe 05 	lds	r24, 0x05FE
     f56:	88 2f       	mov	r24, r24
     f58:	90 e0       	ldi	r25, 0x00	; 0
     f5a:	80 50       	subi	r24, 0x00	; 0
     f5c:	9a 4f       	sbci	r25, 0xFA	; 250
     f5e:	fc 01       	movw	r30, r24
     f60:	80 81       	ld	r24, Z
     f62:	80 93 fc 05 	sts	0x05FC, r24
     f66:	10 92 ff 05 	sts	0x05FF, r1
     f6a:	80 91 fe 05 	lds	r24, 0x05FE
     f6e:	8f 5f       	subi	r24, 0xFF	; 255
     f70:	80 93 fe 05 	sts	0x05FE, r24
     f74:	80 91 fe 05 	lds	r24, 0x05FE
     f78:	8f 3f       	cpi	r24, 0xFF	; 255
     f7a:	11 f4       	brne	.+4      	; 0xf80 <reporting_task+0x1f8>
     f7c:	10 92 fe 05 	sts	0x05FE, r1
/home/becker/async/wcet-benchmarks/benchmarks/PapaBench-0.2m/sw/airborne/autopilot_preprocessed/pp_main.c:372 (discriminator 2)
     f80:	88 e5       	ldi	r24, 0x58	; 88
     f82:	90 e0       	ldi	r25, 0x00	; 0
     f84:	28 e5       	ldi	r18, 0x58	; 88
     f86:	30 e0       	ldi	r19, 0x00	; 0
     f88:	f9 01       	movw	r30, r18
     f8a:	20 81       	ld	r18, Z
     f8c:	21 60       	ori	r18, 0x01	; 1
     f8e:	fc 01       	movw	r30, r24
     f90:	20 83       	st	Z, r18
     f92:	89 e5       	ldi	r24, 0x59	; 89
     f94:	90 e0       	ldi	r25, 0x00	; 0
     f96:	29 e5       	ldi	r18, 0x59	; 89
     f98:	30 e0       	ldi	r19, 0x00	; 0
     f9a:	f9 01       	movw	r30, r18
     f9c:	20 81       	ld	r18, Z
     f9e:	20 61       	ori	r18, 0x10	; 16
     fa0:	fc 01       	movw	r30, r24
     fa2:	20 83       	st	Z, r18
     fa4:	05 c0       	rjmp	.+10     	; 0xfb0 <reporting_task+0x228>
     fa6:	80 91 fb 05 	lds	r24, 0x05FB
     faa:	8f 5f       	subi	r24, 0xFF	; 255
     fac:	80 93 fb 05 	sts	0x05FB, r24
/home/becker/async/wcet-benchmarks/benchmarks/PapaBench-0.2m/sw/airborne/autopilot_preprocessed/pp_main.c:373
     fb0:	90 91 fd 05 	lds	r25, 0x05FD
     fb4:	80 91 fe 05 	lds	r24, 0x05FE
     fb8:	98 17       	cp	r25, r24
     fba:	a0 f0       	brcs	.+40     	; 0xfe4 <reporting_task+0x25c>
/home/becker/async/wcet-benchmarks/benchmarks/PapaBench-0.2m/sw/airborne/autopilot_preprocessed/pp_main.c:373 (discriminator 1)
     fbc:	80 91 fe 05 	lds	r24, 0x05FE
     fc0:	28 2f       	mov	r18, r24
     fc2:	30 e0       	ldi	r19, 0x00	; 0
     fc4:	80 91 fd 05 	lds	r24, 0x05FD
     fc8:	88 2f       	mov	r24, r24
     fca:	90 e0       	ldi	r25, 0x00	; 0
     fcc:	a9 01       	movw	r20, r18
     fce:	48 1b       	sub	r20, r24
     fd0:	59 0b       	sbc	r21, r25
     fd2:	ca 01       	movw	r24, r20
     fd4:	81 50       	subi	r24, 0x01	; 1
     fd6:	9f 4f       	sbci	r25, 0xFF	; 255
     fd8:	21 e0       	ldi	r18, 0x01	; 1
     fda:	85 31       	cpi	r24, 0x15	; 21
     fdc:	91 05       	cpc	r25, r1
     fde:	9c f4       	brge	.+38     	; 0x1006 <reporting_task+0x27e>
     fe0:	20 e0       	ldi	r18, 0x00	; 0
     fe2:	11 c0       	rjmp	.+34     	; 0x1006 <reporting_task+0x27e>
/home/becker/async/wcet-benchmarks/benchmarks/PapaBench-0.2m/sw/airborne/autopilot_preprocessed/pp_main.c:373 (discriminator 2)
     fe4:	80 91 fe 05 	lds	r24, 0x05FE
     fe8:	28 2f       	mov	r18, r24
     fea:	30 e0       	ldi	r19, 0x00	; 0
     fec:	80 91 fd 05 	lds	r24, 0x05FD
     ff0:	88 2f       	mov	r24, r24
     ff2:	90 e0       	ldi	r25, 0x00	; 0
     ff4:	f9 01       	movw	r30, r18
     ff6:	e8 1b       	sub	r30, r24
     ff8:	f9 0b       	sbc	r31, r25
     ffa:	cf 01       	movw	r24, r30
     ffc:	21 e0       	ldi	r18, 0x01	; 1
     ffe:	85 31       	cpi	r24, 0x15	; 21
    1000:	91 05       	cpc	r25, r1
    1002:	0c f4       	brge	.+2      	; 0x1006 <reporting_task+0x27e>
    1004:	20 e0       	ldi	r18, 0x00	; 0
/home/becker/async/wcet-benchmarks/benchmarks/PapaBench-0.2m/sw/airborne/autopilot_preprocessed/pp_main.c:373 (discriminator 3)
    1006:	22 23       	and	r18, r18
    1008:	09 f4       	brne	.+2      	; 0x100c <reporting_task+0x284>
    100a:	e6 c2       	rjmp	.+1484   	; 0x15d8 <__stack+0x4d9>
/home/becker/async/wcet-benchmarks/benchmarks/PapaBench-0.2m/sw/airborne/autopilot_preprocessed/pp_main.c:373 (discriminator 1)
    100c:	80 91 fd 05 	lds	r24, 0x05FD
    1010:	88 2f       	mov	r24, r24
    1012:	90 e0       	ldi	r25, 0x00	; 0
    1014:	80 50       	subi	r24, 0x00	; 0
    1016:	9a 4f       	sbci	r25, 0xFA	; 250
    1018:	25 e0       	ldi	r18, 0x05	; 5
    101a:	fc 01       	movw	r30, r24
    101c:	20 83       	st	Z, r18
    101e:	80 91 fd 05 	lds	r24, 0x05FD
    1022:	8f 5f       	subi	r24, 0xFF	; 255
    1024:	80 93 fd 05 	sts	0x05FD, r24
    1028:	80 91 fd 05 	lds	r24, 0x05FD
    102c:	8f 3f       	cpi	r24, 0xFF	; 255
    102e:	11 f4       	brne	.+4      	; 0x1034 <reporting_task+0x2ac>
    1030:	10 92 fd 05 	sts	0x05FD, r1
/home/becker/async/wcet-benchmarks/benchmarks/PapaBench-0.2m/sw/airborne/autopilot_preprocessed/pp_main.c:373 (discriminator 2)
    1034:	80 91 fd 05 	lds	r24, 0x05FD
    1038:	88 2f       	mov	r24, r24
    103a:	90 e0       	ldi	r25, 0x00	; 0
    103c:	80 50       	subi	r24, 0x00	; 0
    103e:	9a 4f       	sbci	r25, 0xFA	; 250
    1040:	25 e0       	ldi	r18, 0x05	; 5
    1042:	fc 01       	movw	r30, r24
    1044:	20 83       	st	Z, r18
    1046:	80 91 fd 05 	lds	r24, 0x05FD
    104a:	8f 5f       	subi	r24, 0xFF	; 255
    104c:	80 93 fd 05 	sts	0x05FD, r24
    1050:	80 91 fd 05 	lds	r24, 0x05FD
    1054:	8f 3f       	cpi	r24, 0xFF	; 255
    1056:	11 f4       	brne	.+4      	; 0x105c <reporting_task+0x2d4>
/home/becker/async/wcet-benchmarks/benchmarks/PapaBench-0.2m/sw/airborne/autopilot_preprocessed/pp_main.c:373 (discriminator 1)
    1058:	10 92 fd 05 	sts	0x05FD, r1
/home/becker/async/wcet-benchmarks/benchmarks/PapaBench-0.2m/sw/airborne/autopilot_preprocessed/pp_main.c:373 (discriminator 2)
    105c:	85 e0       	ldi	r24, 0x05	; 5
    105e:	80 93 ff 06 	sts	0x06FF, r24
    1062:	85 e0       	ldi	r24, 0x05	; 5
    1064:	80 93 fa 05 	sts	0x05FA, r24
    1068:	80 91 fd 05 	lds	r24, 0x05FD
    106c:	88 2f       	mov	r24, r24
    106e:	90 e0       	ldi	r25, 0x00	; 0
    1070:	26 eb       	ldi	r18, 0xB6	; 182
    1072:	37 e0       	ldi	r19, 0x07	; 7
    1074:	f9 01       	movw	r30, r18
    1076:	20 81       	ld	r18, Z
    1078:	80 50       	subi	r24, 0x00	; 0
    107a:	9a 4f       	sbci	r25, 0xFA	; 250
    107c:	fc 01       	movw	r30, r24
    107e:	20 83       	st	Z, r18
    1080:	86 eb       	ldi	r24, 0xB6	; 182
    1082:	97 e0       	ldi	r25, 0x07	; 7
    1084:	fc 01       	movw	r30, r24
    1086:	90 81       	ld	r25, Z
    1088:	80 91 ff 06 	lds	r24, 0x06FF
    108c:	89 0f       	add	r24, r25
    108e:	80 93 ff 06 	sts	0x06FF, r24
    1092:	90 91 fa 05 	lds	r25, 0x05FA
    1096:	80 91 ff 06 	lds	r24, 0x06FF
    109a:	89 0f       	add	r24, r25
    109c:	80 93 fa 05 	sts	0x05FA, r24
    10a0:	80 91 fd 05 	lds	r24, 0x05FD
    10a4:	8f 5f       	subi	r24, 0xFF	; 255
    10a6:	80 93 fd 05 	sts	0x05FD, r24
    10aa:	80 91 fd 05 	lds	r24, 0x05FD
    10ae:	8f 3f       	cpi	r24, 0xFF	; 255
    10b0:	11 f4       	brne	.+4      	; 0x10b6 <reporting_task+0x32e>
/home/becker/async/wcet-benchmarks/benchmarks/PapaBench-0.2m/sw/airborne/autopilot_preprocessed/pp_main.c:373 (discriminator 1)
    10b2:	10 92 fd 05 	sts	0x05FD, r1
/home/becker/async/wcet-benchmarks/benchmarks/PapaBench-0.2m/sw/airborne/autopilot_preprocessed/pp_main.c:373 (discriminator 2)
    10b6:	80 91 fd 05 	lds	r24, 0x05FD
    10ba:	88 2f       	mov	r24, r24
    10bc:	90 e0       	ldi	r25, 0x00	; 0
    10be:	20 91 b7 07 	lds	r18, 0x07B7
    10c2:	80 50       	subi	r24, 0x00	; 0
    10c4:	9a 4f       	sbci	r25, 0xFA	; 250
    10c6:	fc 01       	movw	r30, r24
    10c8:	20 83       	st	Z, r18
    10ca:	87 eb       	ldi	r24, 0xB7	; 183
    10cc:	97 e0       	ldi	r25, 0x07	; 7
    10ce:	fc 01       	movw	r30, r24
    10d0:	90 81       	ld	r25, Z
    10d2:	80 91 ff 06 	lds	r24, 0x06FF
    10d6:	89 0f       	add	r24, r25
    10d8:	80 93 ff 06 	sts	0x06FF, r24
    10dc:	90 91 fa 05 	lds	r25, 0x05FA
    10e0:	80 91 ff 06 	lds	r24, 0x06FF
    10e4:	89 0f       	add	r24, r25
    10e6:	80 93 fa 05 	sts	0x05FA, r24
    10ea:	80 91 fd 05 	lds	r24, 0x05FD
    10ee:	8f 5f       	subi	r24, 0xFF	; 255
    10f0:	80 93 fd 05 	sts	0x05FD, r24
    10f4:	80 91 fd 05 	lds	r24, 0x05FD
    10f8:	8f 3f       	cpi	r24, 0xFF	; 255
    10fa:	11 f4       	brne	.+4      	; 0x1100 <__stack+0x1>
/home/becker/async/wcet-benchmarks/benchmarks/PapaBench-0.2m/sw/airborne/autopilot_preprocessed/pp_main.c:373 (discriminator 1)
    10fc:	10 92 fd 05 	sts	0x05FD, r1
/home/becker/async/wcet-benchmarks/benchmarks/PapaBench-0.2m/sw/airborne/autopilot_preprocessed/pp_main.c:373 (discriminator 2)
    1100:	80 91 fd 05 	lds	r24, 0x05FD
    1104:	88 2f       	mov	r24, r24
    1106:	90 e0       	ldi	r25, 0x00	; 0
    1108:	20 91 b8 07 	lds	r18, 0x07B8
    110c:	80 50       	subi	r24, 0x00	; 0
    110e:	9a 4f       	sbci	r25, 0xFA	; 250
    1110:	fc 01       	movw	r30, r24
    1112:	20 83       	st	Z, r18
    1114:	88 eb       	ldi	r24, 0xB8	; 184
    1116:	97 e0       	ldi	r25, 0x07	; 7
    1118:	fc 01       	movw	r30, r24
    111a:	90 81       	ld	r25, Z
    111c:	80 91 ff 06 	lds	r24, 0x06FF
    1120:	89 0f       	add	r24, r25
    1122:	80 93 ff 06 	sts	0x06FF, r24
    1126:	90 91 fa 05 	lds	r25, 0x05FA
    112a:	80 91 ff 06 	lds	r24, 0x06FF
    112e:	89 0f       	add	r24, r25
    1130:	80 93 fa 05 	sts	0x05FA, r24
    1134:	80 91 fd 05 	lds	r24, 0x05FD
    1138:	8f 5f       	subi	r24, 0xFF	; 255
    113a:	80 93 fd 05 	sts	0x05FD, r24
    113e:	80 91 fd 05 	lds	r24, 0x05FD
    1142:	8f 3f       	cpi	r24, 0xFF	; 255
    1144:	11 f4       	brne	.+4      	; 0x114a <__stack+0x4b>
/home/becker/async/wcet-benchmarks/benchmarks/PapaBench-0.2m/sw/airborne/autopilot_preprocessed/pp_main.c:373 (discriminator 1)
    1146:	10 92 fd 05 	sts	0x05FD, r1
/home/becker/async/wcet-benchmarks/benchmarks/PapaBench-0.2m/sw/airborne/autopilot_preprocessed/pp_main.c:373 (discriminator 2)
    114a:	80 91 fd 05 	lds	r24, 0x05FD
    114e:	88 2f       	mov	r24, r24
    1150:	90 e0       	ldi	r25, 0x00	; 0
    1152:	20 91 b9 07 	lds	r18, 0x07B9
    1156:	80 50       	subi	r24, 0x00	; 0
    1158:	9a 4f       	sbci	r25, 0xFA	; 250
    115a:	fc 01       	movw	r30, r24
    115c:	20 83       	st	Z, r18
    115e:	89 eb       	ldi	r24, 0xB9	; 185
    1160:	97 e0       	ldi	r25, 0x07	; 7
    1162:	fc 01       	movw	r30, r24
    1164:	90 81       	ld	r25, Z
    1166:	80 91 ff 06 	lds	r24, 0x06FF
    116a:	89 0f       	add	r24, r25
    116c:	80 93 ff 06 	sts	0x06FF, r24
    1170:	90 91 fa 05 	lds	r25, 0x05FA
    1174:	80 91 ff 06 	lds	r24, 0x06FF
    1178:	89 0f       	add	r24, r25
    117a:	80 93 fa 05 	sts	0x05FA, r24
    117e:	80 91 fd 05 	lds	r24, 0x05FD
    1182:	8f 5f       	subi	r24, 0xFF	; 255
    1184:	80 93 fd 05 	sts	0x05FD, r24
    1188:	80 91 fd 05 	lds	r24, 0x05FD
    118c:	8f 3f       	cpi	r24, 0xFF	; 255
    118e:	11 f4       	brne	.+4      	; 0x1194 <__stack+0x95>
/home/becker/async/wcet-benchmarks/benchmarks/PapaBench-0.2m/sw/airborne/autopilot_preprocessed/pp_main.c:373 (discriminator 1)
    1190:	10 92 fd 05 	sts	0x05FD, r1
/home/becker/async/wcet-benchmarks/benchmarks/PapaBench-0.2m/sw/airborne/autopilot_preprocessed/pp_main.c:373 (discriminator 2)
    1194:	80 91 fd 05 	lds	r24, 0x05FD
    1198:	88 2f       	mov	r24, r24
    119a:	90 e0       	ldi	r25, 0x00	; 0
    119c:	2e ec       	ldi	r18, 0xCE	; 206
    119e:	37 e0       	ldi	r19, 0x07	; 7
    11a0:	f9 01       	movw	r30, r18
    11a2:	20 81       	ld	r18, Z
    11a4:	80 50       	subi	r24, 0x00	; 0
    11a6:	9a 4f       	sbci	r25, 0xFA	; 250
    11a8:	fc 01       	movw	r30, r24
    11aa:	20 83       	st	Z, r18
    11ac:	8e ec       	ldi	r24, 0xCE	; 206
    11ae:	97 e0       	ldi	r25, 0x07	; 7
    11b0:	fc 01       	movw	r30, r24
    11b2:	90 81       	ld	r25, Z
    11b4:	80 91 ff 06 	lds	r24, 0x06FF
    11b8:	89 0f       	add	r24, r25
    11ba:	80 93 ff 06 	sts	0x06FF, r24
    11be:	90 91 fa 05 	lds	r25, 0x05FA
    11c2:	80 91 ff 06 	lds	r24, 0x06FF
    11c6:	89 0f       	add	r24, r25
    11c8:	80 93 fa 05 	sts	0x05FA, r24
    11cc:	80 91 fd 05 	lds	r24, 0x05FD
    11d0:	8f 5f       	subi	r24, 0xFF	; 255
    11d2:	80 93 fd 05 	sts	0x05FD, r24
    11d6:	80 91 fd 05 	lds	r24, 0x05FD
    11da:	8f 3f       	cpi	r24, 0xFF	; 255
    11dc:	11 f4       	brne	.+4      	; 0x11e2 <__stack+0xe3>
/home/becker/async/wcet-benchmarks/benchmarks/PapaBench-0.2m/sw/airborne/autopilot_preprocessed/pp_main.c:373 (discriminator 1)
    11de:	10 92 fd 05 	sts	0x05FD, r1
/home/becker/async/wcet-benchmarks/benchmarks/PapaBench-0.2m/sw/airborne/autopilot_preprocessed/pp_main.c:373 (discriminator 2)
    11e2:	80 91 fd 05 	lds	r24, 0x05FD
    11e6:	88 2f       	mov	r24, r24
    11e8:	90 e0       	ldi	r25, 0x00	; 0
    11ea:	20 91 cf 07 	lds	r18, 0x07CF
    11ee:	80 50       	subi	r24, 0x00	; 0
    11f0:	9a 4f       	sbci	r25, 0xFA	; 250
    11f2:	fc 01       	movw	r30, r24
    11f4:	20 83       	st	Z, r18
    11f6:	8f ec       	ldi	r24, 0xCF	; 207
    11f8:	97 e0       	ldi	r25, 0x07	; 7
    11fa:	fc 01       	movw	r30, r24
    11fc:	90 81       	ld	r25, Z
    11fe:	80 91 ff 06 	lds	r24, 0x06FF
    1202:	89 0f       	add	r24, r25
    1204:	80 93 ff 06 	sts	0x06FF, r24
    1208:	90 91 fa 05 	lds	r25, 0x05FA
    120c:	80 91 ff 06 	lds	r24, 0x06FF
    1210:	89 0f       	add	r24, r25
    1212:	80 93 fa 05 	sts	0x05FA, r24
    1216:	80 91 fd 05 	lds	r24, 0x05FD
    121a:	8f 5f       	subi	r24, 0xFF	; 255
    121c:	80 93 fd 05 	sts	0x05FD, r24
    1220:	80 91 fd 05 	lds	r24, 0x05FD
    1224:	8f 3f       	cpi	r24, 0xFF	; 255
    1226:	11 f4       	brne	.+4      	; 0x122c <__stack+0x12d>
/home/becker/async/wcet-benchmarks/benchmarks/PapaBench-0.2m/sw/airborne/autopilot_preprocessed/pp_main.c:373 (discriminator 1)
    1228:	10 92 fd 05 	sts	0x05FD, r1
/home/becker/async/wcet-benchmarks/benchmarks/PapaBench-0.2m/sw/airborne/autopilot_preprocessed/pp_main.c:373 (discriminator 2)
    122c:	80 91 fd 05 	lds	r24, 0x05FD
    1230:	88 2f       	mov	r24, r24
    1232:	90 e0       	ldi	r25, 0x00	; 0
    1234:	20 91 d0 07 	lds	r18, 0x07D0
    1238:	80 50       	subi	r24, 0x00	; 0
    123a:	9a 4f       	sbci	r25, 0xFA	; 250
    123c:	fc 01       	movw	r30, r24
    123e:	20 83       	st	Z, r18
    1240:	80 ed       	ldi	r24, 0xD0	; 208
    1242:	97 e0       	ldi	r25, 0x07	; 7
    1244:	fc 01       	movw	r30, r24
    1246:	90 81       	ld	r25, Z
    1248:	80 91 ff 06 	lds	r24, 0x06FF
    124c:	89 0f       	add	r24, r25
    124e:	80 93 ff 06 	sts	0x06FF, r24
    1252:	90 91 fa 05 	lds	r25, 0x05FA
    1256:	80 91 ff 06 	lds	r24, 0x06FF
    125a:	89 0f       	add	r24, r25
    125c:	80 93 fa 05 	sts	0x05FA, r24
    1260:	80 91 fd 05 	lds	r24, 0x05FD
    1264:	8f 5f       	subi	r24, 0xFF	; 255
    1266:	80 93 fd 05 	sts	0x05FD, r24
    126a:	80 91 fd 05 	lds	r24, 0x05FD
    126e:	8f 3f       	cpi	r24, 0xFF	; 255
    1270:	11 f4       	brne	.+4      	; 0x1276 <__stack+0x177>
/home/becker/async/wcet-benchmarks/benchmarks/PapaBench-0.2m/sw/airborne/autopilot_preprocessed/pp_main.c:373 (discriminator 1)
    1272:	10 92 fd 05 	sts	0x05FD, r1
/home/becker/async/wcet-benchmarks/benchmarks/PapaBench-0.2m/sw/airborne/autopilot_preprocessed/pp_main.c:373 (discriminator 2)
    1276:	80 91 fd 05 	lds	r24, 0x05FD
    127a:	88 2f       	mov	r24, r24
    127c:	90 e0       	ldi	r25, 0x00	; 0
    127e:	20 91 d1 07 	lds	r18, 0x07D1
    1282:	80 50       	subi	r24, 0x00	; 0
    1284:	9a 4f       	sbci	r25, 0xFA	; 250
    1286:	fc 01       	movw	r30, r24
    1288:	20 83       	st	Z, r18
    128a:	81 ed       	ldi	r24, 0xD1	; 209
    128c:	97 e0       	ldi	r25, 0x07	; 7
    128e:	fc 01       	movw	r30, r24
    1290:	90 81       	ld	r25, Z
    1292:	80 91 ff 06 	lds	r24, 0x06FF
    1296:	89 0f       	add	r24, r25
    1298:	80 93 ff 06 	sts	0x06FF, r24
    129c:	90 91 fa 05 	lds	r25, 0x05FA
    12a0:	80 91 ff 06 	lds	r24, 0x06FF
    12a4:	89 0f       	add	r24, r25
    12a6:	80 93 fa 05 	sts	0x05FA, r24
    12aa:	80 91 fd 05 	lds	r24, 0x05FD
    12ae:	8f 5f       	subi	r24, 0xFF	; 255
    12b0:	80 93 fd 05 	sts	0x05FD, r24
    12b4:	80 91 fd 05 	lds	r24, 0x05FD
    12b8:	8f 3f       	cpi	r24, 0xFF	; 255
    12ba:	11 f4       	brne	.+4      	; 0x12c0 <__stack+0x1c1>
/home/becker/async/wcet-benchmarks/benchmarks/PapaBench-0.2m/sw/airborne/autopilot_preprocessed/pp_main.c:373 (discriminator 1)
    12bc:	10 92 fd 05 	sts	0x05FD, r1
/home/becker/async/wcet-benchmarks/benchmarks/PapaBench-0.2m/sw/airborne/autopilot_preprocessed/pp_main.c:373 (discriminator 2)
    12c0:	80 91 fd 05 	lds	r24, 0x05FD
    12c4:	88 2f       	mov	r24, r24
    12c6:	90 e0       	ldi	r25, 0x00	; 0
    12c8:	2e ea       	ldi	r18, 0xAE	; 174
    12ca:	37 e0       	ldi	r19, 0x07	; 7
    12cc:	f9 01       	movw	r30, r18
    12ce:	20 81       	ld	r18, Z
    12d0:	80 50       	subi	r24, 0x00	; 0
    12d2:	9a 4f       	sbci	r25, 0xFA	; 250
    12d4:	fc 01       	movw	r30, r24
    12d6:	20 83       	st	Z, r18
    12d8:	8e ea       	ldi	r24, 0xAE	; 174
    12da:	97 e0       	ldi	r25, 0x07	; 7
    12dc:	fc 01       	movw	r30, r24
    12de:	90 81       	ld	r25, Z
    12e0:	80 91 ff 06 	lds	r24, 0x06FF
    12e4:	89 0f       	add	r24, r25
    12e6:	80 93 ff 06 	sts	0x06FF, r24
    12ea:	90 91 fa 05 	lds	r25, 0x05FA
    12ee:	80 91 ff 06 	lds	r24, 0x06FF
    12f2:	89 0f       	add	r24, r25
    12f4:	80 93 fa 05 	sts	0x05FA, r24
    12f8:	80 91 fd 05 	lds	r24, 0x05FD
    12fc:	8f 5f       	subi	r24, 0xFF	; 255
    12fe:	80 93 fd 05 	sts	0x05FD, r24
    1302:	80 91 fd 05 	lds	r24, 0x05FD
    1306:	8f 3f       	cpi	r24, 0xFF	; 255
    1308:	11 f4       	brne	.+4      	; 0x130e <__stack+0x20f>
/home/becker/async/wcet-benchmarks/benchmarks/PapaBench-0.2m/sw/airborne/autopilot_preprocessed/pp_main.c:373 (discriminator 1)
    130a:	10 92 fd 05 	sts	0x05FD, r1
/home/becker/async/wcet-benchmarks/benchmarks/PapaBench-0.2m/sw/airborne/autopilot_preprocessed/pp_main.c:373 (discriminator 2)
    130e:	80 91 fd 05 	lds	r24, 0x05FD
    1312:	88 2f       	mov	r24, r24
    1314:	90 e0       	ldi	r25, 0x00	; 0
    1316:	20 91 af 07 	lds	r18, 0x07AF
    131a:	80 50       	subi	r24, 0x00	; 0
    131c:	9a 4f       	sbci	r25, 0xFA	; 250
    131e:	fc 01       	movw	r30, r24
    1320:	20 83       	st	Z, r18
    1322:	8f ea       	ldi	r24, 0xAF	; 175
    1324:	97 e0       	ldi	r25, 0x07	; 7
    1326:	fc 01       	movw	r30, r24
    1328:	90 81       	ld	r25, Z
    132a:	80 91 ff 06 	lds	r24, 0x06FF
    132e:	89 0f       	add	r24, r25
    1330:	80 93 ff 06 	sts	0x06FF, r24
    1334:	90 91 fa 05 	lds	r25, 0x05FA
    1338:	80 91 ff 06 	lds	r24, 0x06FF
    133c:	89 0f       	add	r24, r25
    133e:	80 93 fa 05 	sts	0x05FA, r24
    1342:	80 91 fd 05 	lds	r24, 0x05FD
    1346:	8f 5f       	subi	r24, 0xFF	; 255
    1348:	80 93 fd 05 	sts	0x05FD, r24
    134c:	80 91 fd 05 	lds	r24, 0x05FD
    1350:	8f 3f       	cpi	r24, 0xFF	; 255
    1352:	11 f4       	brne	.+4      	; 0x1358 <__stack+0x259>
/home/becker/async/wcet-benchmarks/benchmarks/PapaBench-0.2m/sw/airborne/autopilot_preprocessed/pp_main.c:373 (discriminator 1)
    1354:	10 92 fd 05 	sts	0x05FD, r1
/home/becker/async/wcet-benchmarks/benchmarks/PapaBench-0.2m/sw/airborne/autopilot_preprocessed/pp_main.c:373 (discriminator 2)
    1358:	80 91 fd 05 	lds	r24, 0x05FD
    135c:	88 2f       	mov	r24, r24
    135e:	90 e0       	ldi	r25, 0x00	; 0
    1360:	20 91 b0 07 	lds	r18, 0x07B0
    1364:	80 50       	subi	r24, 0x00	; 0
    1366:	9a 4f       	sbci	r25, 0xFA	; 250
    1368:	fc 01       	movw	r30, r24
    136a:	20 83       	st	Z, r18
    136c:	80 eb       	ldi	r24, 0xB0	; 176
    136e:	97 e0       	ldi	r25, 0x07	; 7
    1370:	fc 01       	movw	r30, r24
    1372:	90 81       	ld	r25, Z
    1374:	80 91 ff 06 	lds	r24, 0x06FF
    1378:	89 0f       	add	r24, r25
    137a:	80 93 ff 06 	sts	0x06FF, r24
    137e:	90 91 fa 05 	lds	r25, 0x05FA
    1382:	80 91 ff 06 	lds	r24, 0x06FF
    1386:	89 0f       	add	r24, r25
    1388:	80 93 fa 05 	sts	0x05FA, r24
    138c:	80 91 fd 05 	lds	r24, 0x05FD
    1390:	8f 5f       	subi	r24, 0xFF	; 255
    1392:	80 93 fd 05 	sts	0x05FD, r24
    1396:	80 91 fd 05 	lds	r24, 0x05FD
    139a:	8f 3f       	cpi	r24, 0xFF	; 255
    139c:	11 f4       	brne	.+4      	; 0x13a2 <__stack+0x2a3>
/home/becker/async/wcet-benchmarks/benchmarks/PapaBench-0.2m/sw/airborne/autopilot_preprocessed/pp_main.c:373 (discriminator 1)
    139e:	10 92 fd 05 	sts	0x05FD, r1
/home/becker/async/wcet-benchmarks/benchmarks/PapaBench-0.2m/sw/airborne/autopilot_preprocessed/pp_main.c:373 (discriminator 2)
    13a2:	80 91 fd 05 	lds	r24, 0x05FD
    13a6:	88 2f       	mov	r24, r24
    13a8:	90 e0       	ldi	r25, 0x00	; 0
    13aa:	20 91 b1 07 	lds	r18, 0x07B1
    13ae:	80 50       	subi	r24, 0x00	; 0
    13b0:	9a 4f       	sbci	r25, 0xFA	; 250
    13b2:	fc 01       	movw	r30, r24
    13b4:	20 83       	st	Z, r18
    13b6:	81 eb       	ldi	r24, 0xB1	; 177
    13b8:	97 e0       	ldi	r25, 0x07	; 7
    13ba:	fc 01       	movw	r30, r24
    13bc:	90 81       	ld	r25, Z
    13be:	80 91 ff 06 	lds	r24, 0x06FF
    13c2:	89 0f       	add	r24, r25
    13c4:	80 93 ff 06 	sts	0x06FF, r24
    13c8:	90 91 fa 05 	lds	r25, 0x05FA
    13cc:	80 91 ff 06 	lds	r24, 0x06FF
    13d0:	89 0f       	add	r24, r25
    13d2:	80 93 fa 05 	sts	0x05FA, r24
    13d6:	80 91 fd 05 	lds	r24, 0x05FD
    13da:	8f 5f       	subi	r24, 0xFF	; 255
    13dc:	80 93 fd 05 	sts	0x05FD, r24
    13e0:	80 91 fd 05 	lds	r24, 0x05FD
    13e4:	8f 3f       	cpi	r24, 0xFF	; 255
    13e6:	11 f4       	brne	.+4      	; 0x13ec <__stack+0x2ed>
/home/becker/async/wcet-benchmarks/benchmarks/PapaBench-0.2m/sw/airborne/autopilot_preprocessed/pp_main.c:373 (discriminator 1)
    13e8:	10 92 fd 05 	sts	0x05FD, r1
/home/becker/async/wcet-benchmarks/benchmarks/PapaBench-0.2m/sw/airborne/autopilot_preprocessed/pp_main.c:373 (discriminator 2)
    13ec:	80 91 fd 05 	lds	r24, 0x05FD
    13f0:	88 2f       	mov	r24, r24
    13f2:	90 e0       	ldi	r25, 0x00	; 0
    13f4:	25 e0       	ldi	r18, 0x05	; 5
    13f6:	31 e0       	ldi	r19, 0x01	; 1
    13f8:	f9 01       	movw	r30, r18
    13fa:	20 81       	ld	r18, Z
    13fc:	80 50       	subi	r24, 0x00	; 0
    13fe:	9a 4f       	sbci	r25, 0xFA	; 250
    1400:	fc 01       	movw	r30, r24
    1402:	20 83       	st	Z, r18
    1404:	85 e0       	ldi	r24, 0x05	; 5
    1406:	91 e0       	ldi	r25, 0x01	; 1
    1408:	fc 01       	movw	r30, r24
    140a:	90 81       	ld	r25, Z
    140c:	80 91 ff 06 	lds	r24, 0x06FF
    1410:	89 0f       	add	r24, r25
    1412:	80 93 ff 06 	sts	0x06FF, r24
    1416:	90 91 fa 05 	lds	r25, 0x05FA
    141a:	80 91 ff 06 	lds	r24, 0x06FF
    141e:	89 0f       	add	r24, r25
    1420:	80 93 fa 05 	sts	0x05FA, r24
    1424:	80 91 fd 05 	lds	r24, 0x05FD
    1428:	8f 5f       	subi	r24, 0xFF	; 255
    142a:	80 93 fd 05 	sts	0x05FD, r24
    142e:	80 91 fd 05 	lds	r24, 0x05FD
    1432:	8f 3f       	cpi	r24, 0xFF	; 255
    1434:	11 f4       	brne	.+4      	; 0x143a <__stack+0x33b>
/home/becker/async/wcet-benchmarks/benchmarks/PapaBench-0.2m/sw/airborne/autopilot_preprocessed/pp_main.c:373 (discriminator 1)
    1436:	10 92 fd 05 	sts	0x05FD, r1
/home/becker/async/wcet-benchmarks/benchmarks/PapaBench-0.2m/sw/airborne/autopilot_preprocessed/pp_main.c:373 (discriminator 2)
    143a:	80 91 fd 05 	lds	r24, 0x05FD
    143e:	88 2f       	mov	r24, r24
    1440:	90 e0       	ldi	r25, 0x00	; 0
    1442:	20 91 06 01 	lds	r18, 0x0106
    1446:	80 50       	subi	r24, 0x00	; 0
    1448:	9a 4f       	sbci	r25, 0xFA	; 250
    144a:	fc 01       	movw	r30, r24
    144c:	20 83       	st	Z, r18
    144e:	86 e0       	ldi	r24, 0x06	; 6
    1450:	91 e0       	ldi	r25, 0x01	; 1
    1452:	fc 01       	movw	r30, r24
    1454:	90 81       	ld	r25, Z
    1456:	80 91 ff 06 	lds	r24, 0x06FF
    145a:	89 0f       	add	r24, r25
    145c:	80 93 ff 06 	sts	0x06FF, r24
    1460:	90 91 fa 05 	lds	r25, 0x05FA
    1464:	80 91 ff 06 	lds	r24, 0x06FF
    1468:	89 0f       	add	r24, r25
    146a:	80 93 fa 05 	sts	0x05FA, r24
    146e:	80 91 fd 05 	lds	r24, 0x05FD
    1472:	8f 5f       	subi	r24, 0xFF	; 255
    1474:	80 93 fd 05 	sts	0x05FD, r24
    1478:	80 91 fd 05 	lds	r24, 0x05FD
    147c:	8f 3f       	cpi	r24, 0xFF	; 255
    147e:	11 f4       	brne	.+4      	; 0x1484 <__stack+0x385>
/home/becker/async/wcet-benchmarks/benchmarks/PapaBench-0.2m/sw/airborne/autopilot_preprocessed/pp_main.c:373 (discriminator 1)
    1480:	10 92 fd 05 	sts	0x05FD, r1
/home/becker/async/wcet-benchmarks/benchmarks/PapaBench-0.2m/sw/airborne/autopilot_preprocessed/pp_main.c:373 (discriminator 2)
    1484:	80 91 fd 05 	lds	r24, 0x05FD
    1488:	88 2f       	mov	r24, r24
    148a:	90 e0       	ldi	r25, 0x00	; 0
    148c:	27 e0       	ldi	r18, 0x07	; 7
    148e:	31 e0       	ldi	r19, 0x01	; 1
    1490:	f9 01       	movw	r30, r18
    1492:	20 81       	ld	r18, Z
    1494:	80 50       	subi	r24, 0x00	; 0
    1496:	9a 4f       	sbci	r25, 0xFA	; 250
    1498:	fc 01       	movw	r30, r24
    149a:	20 83       	st	Z, r18
    149c:	87 e0       	ldi	r24, 0x07	; 7
    149e:	91 e0       	ldi	r25, 0x01	; 1
    14a0:	fc 01       	movw	r30, r24
    14a2:	90 81       	ld	r25, Z
    14a4:	80 91 ff 06 	lds	r24, 0x06FF
    14a8:	89 0f       	add	r24, r25
    14aa:	80 93 ff 06 	sts	0x06FF, r24
    14ae:	90 91 fa 05 	lds	r25, 0x05FA
    14b2:	80 91 ff 06 	lds	r24, 0x06FF
    14b6:	89 0f       	add	r24, r25
    14b8:	80 93 fa 05 	sts	0x05FA, r24
    14bc:	80 91 fd 05 	lds	r24, 0x05FD
    14c0:	8f 5f       	subi	r24, 0xFF	; 255
    14c2:	80 93 fd 05 	sts	0x05FD, r24
    14c6:	80 91 fd 05 	lds	r24, 0x05FD
    14ca:	8f 3f       	cpi	r24, 0xFF	; 255
    14cc:	11 f4       	brne	.+4      	; 0x14d2 <__stack+0x3d3>
/home/becker/async/wcet-benchmarks/benchmarks/PapaBench-0.2m/sw/airborne/autopilot_preprocessed/pp_main.c:373 (discriminator 1)
    14ce:	10 92 fd 05 	sts	0x05FD, r1
/home/becker/async/wcet-benchmarks/benchmarks/PapaBench-0.2m/sw/airborne/autopilot_preprocessed/pp_main.c:373 (discriminator 2)
    14d2:	80 91 fd 05 	lds	r24, 0x05FD
    14d6:	88 2f       	mov	r24, r24
    14d8:	90 e0       	ldi	r25, 0x00	; 0
    14da:	20 91 08 01 	lds	r18, 0x0108
    14de:	80 50       	subi	r24, 0x00	; 0
    14e0:	9a 4f       	sbci	r25, 0xFA	; 250
    14e2:	fc 01       	movw	r30, r24
    14e4:	20 83       	st	Z, r18
    14e6:	88 e0       	ldi	r24, 0x08	; 8
    14e8:	91 e0       	ldi	r25, 0x01	; 1
    14ea:	fc 01       	movw	r30, r24
    14ec:	90 81       	ld	r25, Z
    14ee:	80 91 ff 06 	lds	r24, 0x06FF
    14f2:	89 0f       	add	r24, r25
    14f4:	80 93 ff 06 	sts	0x06FF, r24
    14f8:	90 91 fa 05 	lds	r25, 0x05FA
    14fc:	80 91 ff 06 	lds	r24, 0x06FF
    1500:	89 0f       	add	r24, r25
    1502:	80 93 fa 05 	sts	0x05FA, r24
    1506:	80 91 fd 05 	lds	r24, 0x05FD
    150a:	8f 5f       	subi	r24, 0xFF	; 255
    150c:	80 93 fd 05 	sts	0x05FD, r24
    1510:	80 91 fd 05 	lds	r24, 0x05FD
    1514:	8f 3f       	cpi	r24, 0xFF	; 255
    1516:	11 f4       	brne	.+4      	; 0x151c <__stack+0x41d>
/home/becker/async/wcet-benchmarks/benchmarks/PapaBench-0.2m/sw/airborne/autopilot_preprocessed/pp_main.c:373 (discriminator 1)
    1518:	10 92 fd 05 	sts	0x05FD, r1
/home/becker/async/wcet-benchmarks/benchmarks/PapaBench-0.2m/sw/airborne/autopilot_preprocessed/pp_main.c:373 (discriminator 2)
    151c:	80 91 fd 05 	lds	r24, 0x05FD
    1520:	88 2f       	mov	r24, r24
    1522:	90 e0       	ldi	r25, 0x00	; 0
    1524:	20 91 ff 06 	lds	r18, 0x06FF
    1528:	80 50       	subi	r24, 0x00	; 0
    152a:	9a 4f       	sbci	r25, 0xFA	; 250
    152c:	fc 01       	movw	r30, r24
    152e:	20 83       	st	Z, r18
    1530:	80 91 fd 05 	lds	r24, 0x05FD
    1534:	8f 5f       	subi	r24, 0xFF	; 255
    1536:	80 93 fd 05 	sts	0x05FD, r24
    153a:	80 91 fd 05 	lds	r24, 0x05FD
    153e:	8f 3f       	cpi	r24, 0xFF	; 255
    1540:	11 f4       	brne	.+4      	; 0x1546 <__stack+0x447>
/home/becker/async/wcet-benchmarks/benchmarks/PapaBench-0.2m/sw/airborne/autopilot_preprocessed/pp_main.c:373 (discriminator 1)
    1542:	10 92 fd 05 	sts	0x05FD, r1
/home/becker/async/wcet-benchmarks/benchmarks/PapaBench-0.2m/sw/airborne/autopilot_preprocessed/pp_main.c:373 (discriminator 2)
    1546:	80 91 fd 05 	lds	r24, 0x05FD
    154a:	88 2f       	mov	r24, r24
    154c:	90 e0       	ldi	r25, 0x00	; 0
    154e:	20 91 fa 05 	lds	r18, 0x05FA
    1552:	80 50       	subi	r24, 0x00	; 0
    1554:	9a 4f       	sbci	r25, 0xFA	; 250
    1556:	fc 01       	movw	r30, r24
    1558:	20 83       	st	Z, r18
    155a:	80 91 fd 05 	lds	r24, 0x05FD
    155e:	8f 5f       	subi	r24, 0xFF	; 255
    1560:	80 93 fd 05 	sts	0x05FD, r24
    1564:	80 91 fd 05 	lds	r24, 0x05FD
    1568:	8f 3f       	cpi	r24, 0xFF	; 255
    156a:	11 f4       	brne	.+4      	; 0x1570 <__stack+0x471>
/home/becker/async/wcet-benchmarks/benchmarks/PapaBench-0.2m/sw/airborne/autopilot_preprocessed/pp_main.c:373 (discriminator 1)
    156c:	10 92 fd 05 	sts	0x05FD, r1
/home/becker/async/wcet-benchmarks/benchmarks/PapaBench-0.2m/sw/airborne/autopilot_preprocessed/pp_main.c:373 (discriminator 2)
    1570:	89 e5       	ldi	r24, 0x59	; 89
    1572:	90 e0       	ldi	r25, 0x00	; 0
    1574:	fc 01       	movw	r30, r24
    1576:	80 81       	ld	r24, Z
    1578:	88 2f       	mov	r24, r24
    157a:	90 e0       	ldi	r25, 0x00	; 0
    157c:	80 71       	andi	r24, 0x10	; 16
    157e:	99 27       	eor	r25, r25
    1580:	00 97       	sbiw	r24, 0x00	; 0
    1582:	79 f5       	brne	.+94     	; 0x15e2 <__stack+0x4e3>
/home/becker/async/wcet-benchmarks/benchmarks/PapaBench-0.2m/sw/airborne/autopilot_preprocessed/pp_main.c:373 (discriminator 1)
    1584:	80 91 fe 05 	lds	r24, 0x05FE
    1588:	88 2f       	mov	r24, r24
    158a:	90 e0       	ldi	r25, 0x00	; 0
    158c:	80 50       	subi	r24, 0x00	; 0
    158e:	9a 4f       	sbci	r25, 0xFA	; 250
    1590:	fc 01       	movw	r30, r24
    1592:	80 81       	ld	r24, Z
    1594:	80 93 fc 05 	sts	0x05FC, r24
    1598:	10 92 ff 05 	sts	0x05FF, r1
    159c:	80 91 fe 05 	lds	r24, 0x05FE
    15a0:	8f 5f       	subi	r24, 0xFF	; 255
    15a2:	80 93 fe 05 	sts	0x05FE, r24
    15a6:	80 91 fe 05 	lds	r24, 0x05FE
    15aa:	8f 3f       	cpi	r24, 0xFF	; 255
    15ac:	11 f4       	brne	.+4      	; 0x15b2 <__stack+0x4b3>
    15ae:	10 92 fe 05 	sts	0x05FE, r1
/home/becker/async/wcet-benchmarks/benchmarks/PapaBench-0.2m/sw/airborne/autopilot_preprocessed/pp_main.c:373 (discriminator 2)
    15b2:	88 e5       	ldi	r24, 0x58	; 88
    15b4:	90 e0       	ldi	r25, 0x00	; 0
    15b6:	28 e5       	ldi	r18, 0x58	; 88
    15b8:	30 e0       	ldi	r19, 0x00	; 0
    15ba:	f9 01       	movw	r30, r18
    15bc:	20 81       	ld	r18, Z
    15be:	21 60       	ori	r18, 0x01	; 1
    15c0:	fc 01       	movw	r30, r24
    15c2:	20 83       	st	Z, r18
    15c4:	89 e5       	ldi	r24, 0x59	; 89
    15c6:	90 e0       	ldi	r25, 0x00	; 0
    15c8:	29 e5       	ldi	r18, 0x59	; 89
    15ca:	30 e0       	ldi	r19, 0x00	; 0
    15cc:	f9 01       	movw	r30, r18
    15ce:	20 81       	ld	r18, Z
    15d0:	20 61       	ori	r18, 0x10	; 16
    15d2:	fc 01       	movw	r30, r24
    15d4:	20 83       	st	Z, r18
    15d6:	05 c0       	rjmp	.+10     	; 0x15e2 <__stack+0x4e3>
    15d8:	80 91 fb 05 	lds	r24, 0x05FB
    15dc:	8f 5f       	subi	r24, 0xFF	; 255
    15de:	80 93 fb 05 	sts	0x05FB, r24
/home/becker/async/wcet-benchmarks/benchmarks/PapaBench-0.2m/sw/airborne/autopilot_preprocessed/pp_main.c:374 (discriminator 1)
    15e2:	10 92 01 01 	sts	0x0101, r1
    15e6:	0c 94 c3 1e 	jmp	0x3d86	; 0x3d86 <__stack+0x2c87>
/home/becker/async/wcet-benchmarks/benchmarks/PapaBench-0.2m/sw/airborne/autopilot_preprocessed/pp_main.c:377
    15ea:	80 91 d4 01 	lds	r24, 0x01D4
    15ee:	8f 5f       	subi	r24, 0xFF	; 255
    15f0:	80 93 d4 01 	sts	0x01D4, r24
    15f4:	80 91 d4 01 	lds	r24, 0x01D4
    15f8:	8a 3f       	cpi	r24, 0xFA	; 250
    15fa:	11 f4       	brne	.+4      	; 0x1600 <__stack+0x501>
/home/becker/async/wcet-benchmarks/benchmarks/PapaBench-0.2m/sw/airborne/autopilot_preprocessed/pp_main.c:377 (discriminator 1)
    15fc:	10 92 d4 01 	sts	0x01D4, r1
/home/becker/async/wcet-benchmarks/benchmarks/PapaBench-0.2m/sw/airborne/autopilot_preprocessed/pp_main.c:377 (discriminator 2)
    1600:	20 91 d4 01 	lds	r18, 0x01D4
    1604:	8d ec       	ldi	r24, 0xCD	; 205
    1606:	28 9f       	mul	r18, r24
    1608:	81 2d       	mov	r24, r1
    160a:	11 24       	eor	r1, r1
    160c:	98 2f       	mov	r25, r24
    160e:	96 95       	lsr	r25
    1610:	96 95       	lsr	r25
    1612:	89 2f       	mov	r24, r25
    1614:	88 0f       	add	r24, r24
    1616:	88 0f       	add	r24, r24
    1618:	89 0f       	add	r24, r25
    161a:	92 2f       	mov	r25, r18
    161c:	98 1b       	sub	r25, r24
    161e:	99 23       	and	r25, r25
    1620:	09 f0       	breq	.+2      	; 0x1624 <__stack+0x525>
    1622:	81 c2       	rjmp	.+1282   	; 0x1b26 <__stack+0xa27>
/home/becker/async/wcet-benchmarks/benchmarks/PapaBench-0.2m/sw/airborne/autopilot_preprocessed/pp_main.c:377 (discriminator 1)
    1624:	90 91 fd 05 	lds	r25, 0x05FD
    1628:	80 91 fe 05 	lds	r24, 0x05FE
    162c:	98 17       	cp	r25, r24
    162e:	a0 f0       	brcs	.+40     	; 0x1658 <__stack+0x559>
    1630:	80 91 fe 05 	lds	r24, 0x05FE
    1634:	28 2f       	mov	r18, r24
    1636:	30 e0       	ldi	r19, 0x00	; 0
    1638:	80 91 fd 05 	lds	r24, 0x05FD
    163c:	88 2f       	mov	r24, r24
    163e:	90 e0       	ldi	r25, 0x00	; 0
    1640:	a9 01       	movw	r20, r18
    1642:	48 1b       	sub	r20, r24
    1644:	59 0b       	sbc	r21, r25
    1646:	ca 01       	movw	r24, r20
    1648:	81 50       	subi	r24, 0x01	; 1
    164a:	9f 4f       	sbci	r25, 0xFF	; 255
    164c:	21 e0       	ldi	r18, 0x01	; 1
    164e:	81 31       	cpi	r24, 0x11	; 17
    1650:	91 05       	cpc	r25, r1
    1652:	9c f4       	brge	.+38     	; 0x167a <__stack+0x57b>
    1654:	20 e0       	ldi	r18, 0x00	; 0
    1656:	11 c0       	rjmp	.+34     	; 0x167a <__stack+0x57b>
/home/becker/async/wcet-benchmarks/benchmarks/PapaBench-0.2m/sw/airborne/autopilot_preprocessed/pp_main.c:377 (discriminator 2)
    1658:	80 91 fe 05 	lds	r24, 0x05FE
    165c:	28 2f       	mov	r18, r24
    165e:	30 e0       	ldi	r19, 0x00	; 0
    1660:	80 91 fd 05 	lds	r24, 0x05FD
    1664:	88 2f       	mov	r24, r24
    1666:	90 e0       	ldi	r25, 0x00	; 0
    1668:	f9 01       	movw	r30, r18
    166a:	e8 1b       	sub	r30, r24
    166c:	f9 0b       	sbc	r31, r25
    166e:	cf 01       	movw	r24, r30
    1670:	21 e0       	ldi	r18, 0x01	; 1
    1672:	81 31       	cpi	r24, 0x11	; 17
    1674:	91 05       	cpc	r25, r1
    1676:	0c f4       	brge	.+2      	; 0x167a <__stack+0x57b>
    1678:	20 e0       	ldi	r18, 0x00	; 0
/home/becker/async/wcet-benchmarks/benchmarks/PapaBench-0.2m/sw/airborne/autopilot_preprocessed/pp_main.c:377 (discriminator 3)
    167a:	22 23       	and	r18, r18
    167c:	09 f4       	brne	.+2      	; 0x1680 <__stack+0x581>
    167e:	4e c2       	rjmp	.+1180   	; 0x1b1c <__stack+0xa1d>
/home/becker/async/wcet-benchmarks/benchmarks/PapaBench-0.2m/sw/airborne/autopilot_preprocessed/pp_main.c:377 (discriminator 1)
    1680:	80 91 fd 05 	lds	r24, 0x05FD
    1684:	88 2f       	mov	r24, r24
    1686:	90 e0       	ldi	r25, 0x00	; 0
    1688:	80 50       	subi	r24, 0x00	; 0
    168a:	9a 4f       	sbci	r25, 0xFA	; 250
    168c:	25 e0       	ldi	r18, 0x05	; 5
    168e:	fc 01       	movw	r30, r24
    1690:	20 83       	st	Z, r18
    1692:	80 91 fd 05 	lds	r24, 0x05FD
    1696:	8f 5f       	subi	r24, 0xFF	; 255
    1698:	80 93 fd 05 	sts	0x05FD, r24
    169c:	80 91 fd 05 	lds	r24, 0x05FD
    16a0:	8f 3f       	cpi	r24, 0xFF	; 255
    16a2:	11 f4       	brne	.+4      	; 0x16a8 <__stack+0x5a9>
    16a4:	10 92 fd 05 	sts	0x05FD, r1
/home/becker/async/wcet-benchmarks/benchmarks/PapaBench-0.2m/sw/airborne/autopilot_preprocessed/pp_main.c:377 (discriminator 2)
    16a8:	80 91 fd 05 	lds	r24, 0x05FD
    16ac:	88 2f       	mov	r24, r24
    16ae:	90 e0       	ldi	r25, 0x00	; 0
    16b0:	80 50       	subi	r24, 0x00	; 0
    16b2:	9a 4f       	sbci	r25, 0xFA	; 250
    16b4:	26 e0       	ldi	r18, 0x06	; 6
    16b6:	fc 01       	movw	r30, r24
    16b8:	20 83       	st	Z, r18
    16ba:	80 91 fd 05 	lds	r24, 0x05FD
    16be:	8f 5f       	subi	r24, 0xFF	; 255
    16c0:	80 93 fd 05 	sts	0x05FD, r24
    16c4:	80 91 fd 05 	lds	r24, 0x05FD
    16c8:	8f 3f       	cpi	r24, 0xFF	; 255
    16ca:	11 f4       	brne	.+4      	; 0x16d0 <__stack+0x5d1>
/home/becker/async/wcet-benchmarks/benchmarks/PapaBench-0.2m/sw/airborne/autopilot_preprocessed/pp_main.c:377 (discriminator 1)
    16cc:	10 92 fd 05 	sts	0x05FD, r1
/home/becker/async/wcet-benchmarks/benchmarks/PapaBench-0.2m/sw/airborne/autopilot_preprocessed/pp_main.c:377 (discriminator 2)
    16d0:	86 e0       	ldi	r24, 0x06	; 6
    16d2:	80 93 ff 06 	sts	0x06FF, r24
    16d6:	86 e0       	ldi	r24, 0x06	; 6
    16d8:	80 93 fa 05 	sts	0x05FA, r24
    16dc:	80 91 fd 05 	lds	r24, 0x05FD
    16e0:	88 2f       	mov	r24, r24
    16e2:	90 e0       	ldi	r25, 0x00	; 0
    16e4:	2e eb       	ldi	r18, 0xBE	; 190
    16e6:	37 e0       	ldi	r19, 0x07	; 7
    16e8:	f9 01       	movw	r30, r18
    16ea:	20 81       	ld	r18, Z
    16ec:	80 50       	subi	r24, 0x00	; 0
    16ee:	9a 4f       	sbci	r25, 0xFA	; 250
    16f0:	fc 01       	movw	r30, r24
    16f2:	20 83       	st	Z, r18
    16f4:	8e eb       	ldi	r24, 0xBE	; 190
    16f6:	97 e0       	ldi	r25, 0x07	; 7
    16f8:	fc 01       	movw	r30, r24
    16fa:	90 81       	ld	r25, Z
    16fc:	80 91 ff 06 	lds	r24, 0x06FF
    1700:	89 0f       	add	r24, r25
    1702:	80 93 ff 06 	sts	0x06FF, r24
    1706:	90 91 fa 05 	lds	r25, 0x05FA
    170a:	80 91 ff 06 	lds	r24, 0x06FF
    170e:	89 0f       	add	r24, r25
    1710:	80 93 fa 05 	sts	0x05FA, r24
    1714:	80 91 fd 05 	lds	r24, 0x05FD
    1718:	8f 5f       	subi	r24, 0xFF	; 255
    171a:	80 93 fd 05 	sts	0x05FD, r24
    171e:	80 91 fd 05 	lds	r24, 0x05FD
    1722:	8f 3f       	cpi	r24, 0xFF	; 255
    1724:	11 f4       	brne	.+4      	; 0x172a <__stack+0x62b>
/home/becker/async/wcet-benchmarks/benchmarks/PapaBench-0.2m/sw/airborne/autopilot_preprocessed/pp_main.c:377 (discriminator 1)
    1726:	10 92 fd 05 	sts	0x05FD, r1
/home/becker/async/wcet-benchmarks/benchmarks/PapaBench-0.2m/sw/airborne/autopilot_preprocessed/pp_main.c:377 (discriminator 2)
    172a:	80 91 fd 05 	lds	r24, 0x05FD
    172e:	88 2f       	mov	r24, r24
    1730:	90 e0       	ldi	r25, 0x00	; 0
    1732:	20 91 bf 07 	lds	r18, 0x07BF
    1736:	80 50       	subi	r24, 0x00	; 0
    1738:	9a 4f       	sbci	r25, 0xFA	; 250
    173a:	fc 01       	movw	r30, r24
    173c:	20 83       	st	Z, r18
    173e:	8f eb       	ldi	r24, 0xBF	; 191
    1740:	97 e0       	ldi	r25, 0x07	; 7
    1742:	fc 01       	movw	r30, r24
    1744:	90 81       	ld	r25, Z
    1746:	80 91 ff 06 	lds	r24, 0x06FF
    174a:	89 0f       	add	r24, r25
    174c:	80 93 ff 06 	sts	0x06FF, r24
    1750:	90 91 fa 05 	lds	r25, 0x05FA
    1754:	80 91 ff 06 	lds	r24, 0x06FF
    1758:	89 0f       	add	r24, r25
    175a:	80 93 fa 05 	sts	0x05FA, r24
    175e:	80 91 fd 05 	lds	r24, 0x05FD
    1762:	8f 5f       	subi	r24, 0xFF	; 255
    1764:	80 93 fd 05 	sts	0x05FD, r24
    1768:	80 91 fd 05 	lds	r24, 0x05FD
    176c:	8f 3f       	cpi	r24, 0xFF	; 255
    176e:	11 f4       	brne	.+4      	; 0x1774 <__stack+0x675>
/home/becker/async/wcet-benchmarks/benchmarks/PapaBench-0.2m/sw/airborne/autopilot_preprocessed/pp_main.c:377 (discriminator 1)
    1770:	10 92 fd 05 	sts	0x05FD, r1
/home/becker/async/wcet-benchmarks/benchmarks/PapaBench-0.2m/sw/airborne/autopilot_preprocessed/pp_main.c:377 (discriminator 2)
    1774:	80 91 fd 05 	lds	r24, 0x05FD
    1778:	88 2f       	mov	r24, r24
    177a:	90 e0       	ldi	r25, 0x00	; 0
    177c:	20 91 c0 07 	lds	r18, 0x07C0
    1780:	80 50       	subi	r24, 0x00	; 0
    1782:	9a 4f       	sbci	r25, 0xFA	; 250
    1784:	fc 01       	movw	r30, r24
    1786:	20 83       	st	Z, r18
    1788:	80 ec       	ldi	r24, 0xC0	; 192
    178a:	97 e0       	ldi	r25, 0x07	; 7
    178c:	fc 01       	movw	r30, r24
    178e:	90 81       	ld	r25, Z
    1790:	80 91 ff 06 	lds	r24, 0x06FF
    1794:	89 0f       	add	r24, r25
    1796:	80 93 ff 06 	sts	0x06FF, r24
    179a:	90 91 fa 05 	lds	r25, 0x05FA
    179e:	80 91 ff 06 	lds	r24, 0x06FF
    17a2:	89 0f       	add	r24, r25
    17a4:	80 93 fa 05 	sts	0x05FA, r24
    17a8:	80 91 fd 05 	lds	r24, 0x05FD
    17ac:	8f 5f       	subi	r24, 0xFF	; 255
    17ae:	80 93 fd 05 	sts	0x05FD, r24
    17b2:	80 91 fd 05 	lds	r24, 0x05FD
    17b6:	8f 3f       	cpi	r24, 0xFF	; 255
    17b8:	11 f4       	brne	.+4      	; 0x17be <__stack+0x6bf>
/home/becker/async/wcet-benchmarks/benchmarks/PapaBench-0.2m/sw/airborne/autopilot_preprocessed/pp_main.c:377 (discriminator 1)
    17ba:	10 92 fd 05 	sts	0x05FD, r1
/home/becker/async/wcet-benchmarks/benchmarks/PapaBench-0.2m/sw/airborne/autopilot_preprocessed/pp_main.c:377 (discriminator 2)
    17be:	80 91 fd 05 	lds	r24, 0x05FD
    17c2:	88 2f       	mov	r24, r24
    17c4:	90 e0       	ldi	r25, 0x00	; 0
    17c6:	20 91 c1 07 	lds	r18, 0x07C1
    17ca:	80 50       	subi	r24, 0x00	; 0
    17cc:	9a 4f       	sbci	r25, 0xFA	; 250
    17ce:	fc 01       	movw	r30, r24
    17d0:	20 83       	st	Z, r18
    17d2:	81 ec       	ldi	r24, 0xC1	; 193
    17d4:	97 e0       	ldi	r25, 0x07	; 7
    17d6:	fc 01       	movw	r30, r24
    17d8:	90 81       	ld	r25, Z
    17da:	80 91 ff 06 	lds	r24, 0x06FF
    17de:	89 0f       	add	r24, r25
    17e0:	80 93 ff 06 	sts	0x06FF, r24
    17e4:	90 91 fa 05 	lds	r25, 0x05FA
    17e8:	80 91 ff 06 	lds	r24, 0x06FF
    17ec:	89 0f       	add	r24, r25
    17ee:	80 93 fa 05 	sts	0x05FA, r24
    17f2:	80 91 fd 05 	lds	r24, 0x05FD
    17f6:	8f 5f       	subi	r24, 0xFF	; 255
    17f8:	80 93 fd 05 	sts	0x05FD, r24
    17fc:	80 91 fd 05 	lds	r24, 0x05FD
    1800:	8f 3f       	cpi	r24, 0xFF	; 255
    1802:	11 f4       	brne	.+4      	; 0x1808 <__stack+0x709>
/home/becker/async/wcet-benchmarks/benchmarks/PapaBench-0.2m/sw/airborne/autopilot_preprocessed/pp_main.c:377 (discriminator 1)
    1804:	10 92 fd 05 	sts	0x05FD, r1
/home/becker/async/wcet-benchmarks/benchmarks/PapaBench-0.2m/sw/airborne/autopilot_preprocessed/pp_main.c:377 (discriminator 2)
    1808:	80 91 fd 05 	lds	r24, 0x05FD
    180c:	88 2f       	mov	r24, r24
    180e:	90 e0       	ldi	r25, 0x00	; 0
    1810:	22 ea       	ldi	r18, 0xA2	; 162
    1812:	37 e0       	ldi	r19, 0x07	; 7
    1814:	f9 01       	movw	r30, r18
    1816:	20 81       	ld	r18, Z
    1818:	80 50       	subi	r24, 0x00	; 0
    181a:	9a 4f       	sbci	r25, 0xFA	; 250
    181c:	fc 01       	movw	r30, r24
    181e:	20 83       	st	Z, r18
    1820:	82 ea       	ldi	r24, 0xA2	; 162
    1822:	97 e0       	ldi	r25, 0x07	; 7
    1824:	fc 01       	movw	r30, r24
    1826:	90 81       	ld	r25, Z
    1828:	80 91 ff 06 	lds	r24, 0x06FF
    182c:	89 0f       	add	r24, r25
    182e:	80 93 ff 06 	sts	0x06FF, r24
    1832:	90 91 fa 05 	lds	r25, 0x05FA
    1836:	80 91 ff 06 	lds	r24, 0x06FF
    183a:	89 0f       	add	r24, r25
    183c:	80 93 fa 05 	sts	0x05FA, r24
    1840:	80 91 fd 05 	lds	r24, 0x05FD
    1844:	8f 5f       	subi	r24, 0xFF	; 255
    1846:	80 93 fd 05 	sts	0x05FD, r24
    184a:	80 91 fd 05 	lds	r24, 0x05FD
    184e:	8f 3f       	cpi	r24, 0xFF	; 255
    1850:	11 f4       	brne	.+4      	; 0x1856 <__stack+0x757>
/home/becker/async/wcet-benchmarks/benchmarks/PapaBench-0.2m/sw/airborne/autopilot_preprocessed/pp_main.c:377 (discriminator 1)
    1852:	10 92 fd 05 	sts	0x05FD, r1
/home/becker/async/wcet-benchmarks/benchmarks/PapaBench-0.2m/sw/airborne/autopilot_preprocessed/pp_main.c:377 (discriminator 2)
    1856:	80 91 fd 05 	lds	r24, 0x05FD
    185a:	88 2f       	mov	r24, r24
    185c:	90 e0       	ldi	r25, 0x00	; 0
    185e:	20 91 a3 07 	lds	r18, 0x07A3
    1862:	80 50       	subi	r24, 0x00	; 0
    1864:	9a 4f       	sbci	r25, 0xFA	; 250
    1866:	fc 01       	movw	r30, r24
    1868:	20 83       	st	Z, r18
    186a:	83 ea       	ldi	r24, 0xA3	; 163
    186c:	97 e0       	ldi	r25, 0x07	; 7
    186e:	fc 01       	movw	r30, r24
    1870:	90 81       	ld	r25, Z
    1872:	80 91 ff 06 	lds	r24, 0x06FF
    1876:	89 0f       	add	r24, r25
    1878:	80 93 ff 06 	sts	0x06FF, r24
    187c:	90 91 fa 05 	lds	r25, 0x05FA
    1880:	80 91 ff 06 	lds	r24, 0x06FF
    1884:	89 0f       	add	r24, r25
    1886:	80 93 fa 05 	sts	0x05FA, r24
    188a:	80 91 fd 05 	lds	r24, 0x05FD
    188e:	8f 5f       	subi	r24, 0xFF	; 255
    1890:	80 93 fd 05 	sts	0x05FD, r24
    1894:	80 91 fd 05 	lds	r24, 0x05FD
    1898:	8f 3f       	cpi	r24, 0xFF	; 255
    189a:	11 f4       	brne	.+4      	; 0x18a0 <__stack+0x7a1>
/home/becker/async/wcet-benchmarks/benchmarks/PapaBench-0.2m/sw/airborne/autopilot_preprocessed/pp_main.c:377 (discriminator 1)
    189c:	10 92 fd 05 	sts	0x05FD, r1
/home/becker/async/wcet-benchmarks/benchmarks/PapaBench-0.2m/sw/airborne/autopilot_preprocessed/pp_main.c:377 (discriminator 2)
    18a0:	80 91 fd 05 	lds	r24, 0x05FD
    18a4:	88 2f       	mov	r24, r24
    18a6:	90 e0       	ldi	r25, 0x00	; 0
    18a8:	20 91 a4 07 	lds	r18, 0x07A4
    18ac:	80 50       	subi	r24, 0x00	; 0
    18ae:	9a 4f       	sbci	r25, 0xFA	; 250
    18b0:	fc 01       	movw	r30, r24
    18b2:	20 83       	st	Z, r18
    18b4:	84 ea       	ldi	r24, 0xA4	; 164
    18b6:	97 e0       	ldi	r25, 0x07	; 7
    18b8:	fc 01       	movw	r30, r24
    18ba:	90 81       	ld	r25, Z
    18bc:	80 91 ff 06 	lds	r24, 0x06FF
    18c0:	89 0f       	add	r24, r25
    18c2:	80 93 ff 06 	sts	0x06FF, r24
    18c6:	90 91 fa 05 	lds	r25, 0x05FA
    18ca:	80 91 ff 06 	lds	r24, 0x06FF
    18ce:	89 0f       	add	r24, r25
    18d0:	80 93 fa 05 	sts	0x05FA, r24
    18d4:	80 91 fd 05 	lds	r24, 0x05FD
    18d8:	8f 5f       	subi	r24, 0xFF	; 255
    18da:	80 93 fd 05 	sts	0x05FD, r24
    18de:	80 91 fd 05 	lds	r24, 0x05FD
    18e2:	8f 3f       	cpi	r24, 0xFF	; 255
    18e4:	11 f4       	brne	.+4      	; 0x18ea <__stack+0x7eb>
/home/becker/async/wcet-benchmarks/benchmarks/PapaBench-0.2m/sw/airborne/autopilot_preprocessed/pp_main.c:377 (discriminator 1)
    18e6:	10 92 fd 05 	sts	0x05FD, r1
/home/becker/async/wcet-benchmarks/benchmarks/PapaBench-0.2m/sw/airborne/autopilot_preprocessed/pp_main.c:377 (discriminator 2)
    18ea:	80 91 fd 05 	lds	r24, 0x05FD
    18ee:	88 2f       	mov	r24, r24
    18f0:	90 e0       	ldi	r25, 0x00	; 0
    18f2:	20 91 a5 07 	lds	r18, 0x07A5
    18f6:	80 50       	subi	r24, 0x00	; 0
    18f8:	9a 4f       	sbci	r25, 0xFA	; 250
    18fa:	fc 01       	movw	r30, r24
    18fc:	20 83       	st	Z, r18
    18fe:	85 ea       	ldi	r24, 0xA5	; 165
    1900:	97 e0       	ldi	r25, 0x07	; 7
    1902:	fc 01       	movw	r30, r24
    1904:	90 81       	ld	r25, Z
    1906:	80 91 ff 06 	lds	r24, 0x06FF
    190a:	89 0f       	add	r24, r25
    190c:	80 93 ff 06 	sts	0x06FF, r24
    1910:	90 91 fa 05 	lds	r25, 0x05FA
    1914:	80 91 ff 06 	lds	r24, 0x06FF
    1918:	89 0f       	add	r24, r25
    191a:	80 93 fa 05 	sts	0x05FA, r24
    191e:	80 91 fd 05 	lds	r24, 0x05FD
    1922:	8f 5f       	subi	r24, 0xFF	; 255
    1924:	80 93 fd 05 	sts	0x05FD, r24
    1928:	80 91 fd 05 	lds	r24, 0x05FD
    192c:	8f 3f       	cpi	r24, 0xFF	; 255
    192e:	11 f4       	brne	.+4      	; 0x1934 <__stack+0x835>
/home/becker/async/wcet-benchmarks/benchmarks/PapaBench-0.2m/sw/airborne/autopilot_preprocessed/pp_main.c:377 (discriminator 1)
    1930:	10 92 fd 05 	sts	0x05FD, r1
/home/becker/async/wcet-benchmarks/benchmarks/PapaBench-0.2m/sw/airborne/autopilot_preprocessed/pp_main.c:377 (discriminator 2)
    1934:	80 91 fd 05 	lds	r24, 0x05FD
    1938:	88 2f       	mov	r24, r24
    193a:	90 e0       	ldi	r25, 0x00	; 0
    193c:	22 eb       	ldi	r18, 0xB2	; 178
    193e:	37 e0       	ldi	r19, 0x07	; 7
    1940:	f9 01       	movw	r30, r18
    1942:	20 81       	ld	r18, Z
    1944:	80 50       	subi	r24, 0x00	; 0
    1946:	9a 4f       	sbci	r25, 0xFA	; 250
    1948:	fc 01       	movw	r30, r24
    194a:	20 83       	st	Z, r18
    194c:	82 eb       	ldi	r24, 0xB2	; 178
    194e:	97 e0       	ldi	r25, 0x07	; 7
    1950:	fc 01       	movw	r30, r24
    1952:	90 81       	ld	r25, Z
    1954:	80 91 ff 06 	lds	r24, 0x06FF
    1958:	89 0f       	add	r24, r25
    195a:	80 93 ff 06 	sts	0x06FF, r24
    195e:	90 91 fa 05 	lds	r25, 0x05FA
    1962:	80 91 ff 06 	lds	r24, 0x06FF
    1966:	89 0f       	add	r24, r25
    1968:	80 93 fa 05 	sts	0x05FA, r24
    196c:	80 91 fd 05 	lds	r24, 0x05FD
    1970:	8f 5f       	subi	r24, 0xFF	; 255
    1972:	80 93 fd 05 	sts	0x05FD, r24
    1976:	80 91 fd 05 	lds	r24, 0x05FD
    197a:	8f 3f       	cpi	r24, 0xFF	; 255
    197c:	11 f4       	brne	.+4      	; 0x1982 <__stack+0x883>
/home/becker/async/wcet-benchmarks/benchmarks/PapaBench-0.2m/sw/airborne/autopilot_preprocessed/pp_main.c:377 (discriminator 1)
    197e:	10 92 fd 05 	sts	0x05FD, r1
/home/becker/async/wcet-benchmarks/benchmarks/PapaBench-0.2m/sw/airborne/autopilot_preprocessed/pp_main.c:377 (discriminator 2)
    1982:	80 91 fd 05 	lds	r24, 0x05FD
    1986:	88 2f       	mov	r24, r24
    1988:	90 e0       	ldi	r25, 0x00	; 0
    198a:	20 91 b3 07 	lds	r18, 0x07B3
    198e:	80 50       	subi	r24, 0x00	; 0
    1990:	9a 4f       	sbci	r25, 0xFA	; 250
    1992:	fc 01       	movw	r30, r24
    1994:	20 83       	st	Z, r18
    1996:	83 eb       	ldi	r24, 0xB3	; 179
    1998:	97 e0       	ldi	r25, 0x07	; 7
    199a:	fc 01       	movw	r30, r24
    199c:	90 81       	ld	r25, Z
    199e:	80 91 ff 06 	lds	r24, 0x06FF
    19a2:	89 0f       	add	r24, r25
    19a4:	80 93 ff 06 	sts	0x06FF, r24
    19a8:	90 91 fa 05 	lds	r25, 0x05FA
    19ac:	80 91 ff 06 	lds	r24, 0x06FF
    19b0:	89 0f       	add	r24, r25
    19b2:	80 93 fa 05 	sts	0x05FA, r24
    19b6:	80 91 fd 05 	lds	r24, 0x05FD
    19ba:	8f 5f       	subi	r24, 0xFF	; 255
    19bc:	80 93 fd 05 	sts	0x05FD, r24
    19c0:	80 91 fd 05 	lds	r24, 0x05FD
    19c4:	8f 3f       	cpi	r24, 0xFF	; 255
    19c6:	11 f4       	brne	.+4      	; 0x19cc <__stack+0x8cd>
/home/becker/async/wcet-benchmarks/benchmarks/PapaBench-0.2m/sw/airborne/autopilot_preprocessed/pp_main.c:377 (discriminator 1)
    19c8:	10 92 fd 05 	sts	0x05FD, r1
/home/becker/async/wcet-benchmarks/benchmarks/PapaBench-0.2m/sw/airborne/autopilot_preprocessed/pp_main.c:377 (discriminator 2)
    19cc:	80 91 fd 05 	lds	r24, 0x05FD
    19d0:	88 2f       	mov	r24, r24
    19d2:	90 e0       	ldi	r25, 0x00	; 0
    19d4:	20 91 b4 07 	lds	r18, 0x07B4
    19d8:	80 50       	subi	r24, 0x00	; 0
    19da:	9a 4f       	sbci	r25, 0xFA	; 250
    19dc:	fc 01       	movw	r30, r24
    19de:	20 83       	st	Z, r18
    19e0:	84 eb       	ldi	r24, 0xB4	; 180
    19e2:	97 e0       	ldi	r25, 0x07	; 7
    19e4:	fc 01       	movw	r30, r24
    19e6:	90 81       	ld	r25, Z
    19e8:	80 91 ff 06 	lds	r24, 0x06FF
    19ec:	89 0f       	add	r24, r25
    19ee:	80 93 ff 06 	sts	0x06FF, r24
    19f2:	90 91 fa 05 	lds	r25, 0x05FA
    19f6:	80 91 ff 06 	lds	r24, 0x06FF
    19fa:	89 0f       	add	r24, r25
    19fc:	80 93 fa 05 	sts	0x05FA, r24
    1a00:	80 91 fd 05 	lds	r24, 0x05FD
    1a04:	8f 5f       	subi	r24, 0xFF	; 255
    1a06:	80 93 fd 05 	sts	0x05FD, r24
    1a0a:	80 91 fd 05 	lds	r24, 0x05FD
    1a0e:	8f 3f       	cpi	r24, 0xFF	; 255
    1a10:	11 f4       	brne	.+4      	; 0x1a16 <__stack+0x917>
/home/becker/async/wcet-benchmarks/benchmarks/PapaBench-0.2m/sw/airborne/autopilot_preprocessed/pp_main.c:377 (discriminator 1)
    1a12:	10 92 fd 05 	sts	0x05FD, r1
/home/becker/async/wcet-benchmarks/benchmarks/PapaBench-0.2m/sw/airborne/autopilot_preprocessed/pp_main.c:377 (discriminator 2)
    1a16:	80 91 fd 05 	lds	r24, 0x05FD
    1a1a:	88 2f       	mov	r24, r24
    1a1c:	90 e0       	ldi	r25, 0x00	; 0
    1a1e:	20 91 b5 07 	lds	r18, 0x07B5
    1a22:	80 50       	subi	r24, 0x00	; 0
    1a24:	9a 4f       	sbci	r25, 0xFA	; 250
    1a26:	fc 01       	movw	r30, r24
    1a28:	20 83       	st	Z, r18
    1a2a:	85 eb       	ldi	r24, 0xB5	; 181
    1a2c:	97 e0       	ldi	r25, 0x07	; 7
    1a2e:	fc 01       	movw	r30, r24
    1a30:	90 81       	ld	r25, Z
    1a32:	80 91 ff 06 	lds	r24, 0x06FF
    1a36:	89 0f       	add	r24, r25
    1a38:	80 93 ff 06 	sts	0x06FF, r24
    1a3c:	90 91 fa 05 	lds	r25, 0x05FA
    1a40:	80 91 ff 06 	lds	r24, 0x06FF
    1a44:	89 0f       	add	r24, r25
    1a46:	80 93 fa 05 	sts	0x05FA, r24
    1a4a:	80 91 fd 05 	lds	r24, 0x05FD
    1a4e:	8f 5f       	subi	r24, 0xFF	; 255
    1a50:	80 93 fd 05 	sts	0x05FD, r24
    1a54:	80 91 fd 05 	lds	r24, 0x05FD
    1a58:	8f 3f       	cpi	r24, 0xFF	; 255
    1a5a:	11 f4       	brne	.+4      	; 0x1a60 <__stack+0x961>
/home/becker/async/wcet-benchmarks/benchmarks/PapaBench-0.2m/sw/airborne/autopilot_preprocessed/pp_main.c:377 (discriminator 1)
    1a5c:	10 92 fd 05 	sts	0x05FD, r1
/home/becker/async/wcet-benchmarks/benchmarks/PapaBench-0.2m/sw/airborne/autopilot_preprocessed/pp_main.c:377 (discriminator 2)
    1a60:	80 91 fd 05 	lds	r24, 0x05FD
    1a64:	88 2f       	mov	r24, r24
    1a66:	90 e0       	ldi	r25, 0x00	; 0
    1a68:	20 91 ff 06 	lds	r18, 0x06FF
    1a6c:	80 50       	subi	r24, 0x00	; 0
    1a6e:	9a 4f       	sbci	r25, 0xFA	; 250
    1a70:	fc 01       	movw	r30, r24
    1a72:	20 83       	st	Z, r18
    1a74:	80 91 fd 05 	lds	r24, 0x05FD
    1a78:	8f 5f       	subi	r24, 0xFF	; 255
    1a7a:	80 93 fd 05 	sts	0x05FD, r24
    1a7e:	80 91 fd 05 	lds	r24, 0x05FD
    1a82:	8f 3f       	cpi	r24, 0xFF	; 255
    1a84:	11 f4       	brne	.+4      	; 0x1a8a <__stack+0x98b>
/home/becker/async/wcet-benchmarks/benchmarks/PapaBench-0.2m/sw/airborne/autopilot_preprocessed/pp_main.c:377 (discriminator 1)
    1a86:	10 92 fd 05 	sts	0x05FD, r1
/home/becker/async/wcet-benchmarks/benchmarks/PapaBench-0.2m/sw/airborne/autopilot_preprocessed/pp_main.c:377 (discriminator 2)
    1a8a:	80 91 fd 05 	lds	r24, 0x05FD
    1a8e:	88 2f       	mov	r24, r24
    1a90:	90 e0       	ldi	r25, 0x00	; 0
    1a92:	20 91 fa 05 	lds	r18, 0x05FA
    1a96:	80 50       	subi	r24, 0x00	; 0
    1a98:	9a 4f       	sbci	r25, 0xFA	; 250
    1a9a:	fc 01       	movw	r30, r24
    1a9c:	20 83       	st	Z, r18
    1a9e:	80 91 fd 05 	lds	r24, 0x05FD
    1aa2:	8f 5f       	subi	r24, 0xFF	; 255
    1aa4:	80 93 fd 05 	sts	0x05FD, r24
    1aa8:	80 91 fd 05 	lds	r24, 0x05FD
    1aac:	8f 3f       	cpi	r24, 0xFF	; 255
    1aae:	11 f4       	brne	.+4      	; 0x1ab4 <__stack+0x9b5>
/home/becker/async/wcet-benchmarks/benchmarks/PapaBench-0.2m/sw/airborne/autopilot_preprocessed/pp_main.c:377 (discriminator 1)
    1ab0:	10 92 fd 05 	sts	0x05FD, r1
/home/becker/async/wcet-benchmarks/benchmarks/PapaBench-0.2m/sw/airborne/autopilot_preprocessed/pp_main.c:377 (discriminator 2)
    1ab4:	89 e5       	ldi	r24, 0x59	; 89
    1ab6:	90 e0       	ldi	r25, 0x00	; 0
    1ab8:	fc 01       	movw	r30, r24
    1aba:	80 81       	ld	r24, Z
    1abc:	88 2f       	mov	r24, r24
    1abe:	90 e0       	ldi	r25, 0x00	; 0
    1ac0:	80 71       	andi	r24, 0x10	; 16
    1ac2:	99 27       	eor	r25, r25
    1ac4:	00 97       	sbiw	r24, 0x00	; 0
    1ac6:	79 f5       	brne	.+94     	; 0x1b26 <__stack+0xa27>
/home/becker/async/wcet-benchmarks/benchmarks/PapaBench-0.2m/sw/airborne/autopilot_preprocessed/pp_main.c:377 (discriminator 1)
    1ac8:	80 91 fe 05 	lds	r24, 0x05FE
    1acc:	88 2f       	mov	r24, r24
    1ace:	90 e0       	ldi	r25, 0x00	; 0
    1ad0:	80 50       	subi	r24, 0x00	; 0
    1ad2:	9a 4f       	sbci	r25, 0xFA	; 250
    1ad4:	fc 01       	movw	r30, r24
    1ad6:	80 81       	ld	r24, Z
    1ad8:	80 93 fc 05 	sts	0x05FC, r24
    1adc:	10 92 ff 05 	sts	0x05FF, r1
    1ae0:	80 91 fe 05 	lds	r24, 0x05FE
    1ae4:	8f 5f       	subi	r24, 0xFF	; 255
    1ae6:	80 93 fe 05 	sts	0x05FE, r24
    1aea:	80 91 fe 05 	lds	r24, 0x05FE
    1aee:	8f 3f       	cpi	r24, 0xFF	; 255
    1af0:	11 f4       	brne	.+4      	; 0x1af6 <__stack+0x9f7>
    1af2:	10 92 fe 05 	sts	0x05FE, r1
/home/becker/async/wcet-benchmarks/benchmarks/PapaBench-0.2m/sw/airborne/autopilot_preprocessed/pp_main.c:377 (discriminator 2)
    1af6:	88 e5       	ldi	r24, 0x58	; 88
    1af8:	90 e0       	ldi	r25, 0x00	; 0
    1afa:	28 e5       	ldi	r18, 0x58	; 88
    1afc:	30 e0       	ldi	r19, 0x00	; 0
    1afe:	f9 01       	movw	r30, r18
    1b00:	20 81       	ld	r18, Z
    1b02:	21 60       	ori	r18, 0x01	; 1
    1b04:	fc 01       	movw	r30, r24
    1b06:	20 83       	st	Z, r18
    1b08:	89 e5       	ldi	r24, 0x59	; 89
    1b0a:	90 e0       	ldi	r25, 0x00	; 0
    1b0c:	29 e5       	ldi	r18, 0x59	; 89
    1b0e:	30 e0       	ldi	r19, 0x00	; 0
    1b10:	f9 01       	movw	r30, r18
    1b12:	20 81       	ld	r18, Z
    1b14:	20 61       	ori	r18, 0x10	; 16
    1b16:	fc 01       	movw	r30, r24
    1b18:	20 83       	st	Z, r18
    1b1a:	05 c0       	rjmp	.+10     	; 0x1b26 <__stack+0xa27>
    1b1c:	80 91 fb 05 	lds	r24, 0x05FB
    1b20:	8f 5f       	subi	r24, 0xFF	; 255
    1b22:	80 93 fb 05 	sts	0x05FB, r24
    1b26:	20 91 d4 01 	lds	r18, 0x01D4
    1b2a:	8d ec       	ldi	r24, 0xCD	; 205
    1b2c:	28 9f       	mul	r18, r24
    1b2e:	81 2d       	mov	r24, r1
    1b30:	11 24       	eor	r1, r1
    1b32:	98 2f       	mov	r25, r24
    1b34:	96 95       	lsr	r25
    1b36:	96 95       	lsr	r25
    1b38:	89 2f       	mov	r24, r25
    1b3a:	88 0f       	add	r24, r24
    1b3c:	88 0f       	add	r24, r24
    1b3e:	89 0f       	add	r24, r25
    1b40:	92 2f       	mov	r25, r18
    1b42:	98 1b       	sub	r25, r24
    1b44:	91 30       	cpi	r25, 0x01	; 1
    1b46:	09 f0       	breq	.+2      	; 0x1b4a <__stack+0xa4b>
    1b48:	57 c1       	rjmp	.+686    	; 0x1df8 <__stack+0xcf9>
/home/becker/async/wcet-benchmarks/benchmarks/PapaBench-0.2m/sw/airborne/autopilot_preprocessed/pp_main.c:377 (discriminator 1)
    1b4a:	90 91 fd 05 	lds	r25, 0x05FD
    1b4e:	80 91 fe 05 	lds	r24, 0x05FE
    1b52:	98 17       	cp	r25, r24
    1b54:	a0 f0       	brcs	.+40     	; 0x1b7e <__stack+0xa7f>
    1b56:	80 91 fe 05 	lds	r24, 0x05FE
    1b5a:	28 2f       	mov	r18, r24
    1b5c:	30 e0       	ldi	r19, 0x00	; 0
    1b5e:	80 91 fd 05 	lds	r24, 0x05FD
    1b62:	88 2f       	mov	r24, r24
    1b64:	90 e0       	ldi	r25, 0x00	; 0
    1b66:	a9 01       	movw	r20, r18
    1b68:	48 1b       	sub	r20, r24
    1b6a:	59 0b       	sbc	r21, r25
    1b6c:	ca 01       	movw	r24, r20
    1b6e:	81 50       	subi	r24, 0x01	; 1
    1b70:	9f 4f       	sbci	r25, 0xFF	; 255
    1b72:	21 e0       	ldi	r18, 0x01	; 1
    1b74:	89 30       	cpi	r24, 0x09	; 9
    1b76:	91 05       	cpc	r25, r1
    1b78:	9c f4       	brge	.+38     	; 0x1ba0 <__stack+0xaa1>
    1b7a:	20 e0       	ldi	r18, 0x00	; 0
    1b7c:	11 c0       	rjmp	.+34     	; 0x1ba0 <__stack+0xaa1>
/home/becker/async/wcet-benchmarks/benchmarks/PapaBench-0.2m/sw/airborne/autopilot_preprocessed/pp_main.c:377 (discriminator 2)
    1b7e:	80 91 fe 05 	lds	r24, 0x05FE
    1b82:	28 2f       	mov	r18, r24
    1b84:	30 e0       	ldi	r19, 0x00	; 0
    1b86:	80 91 fd 05 	lds	r24, 0x05FD
    1b8a:	88 2f       	mov	r24, r24
    1b8c:	90 e0       	ldi	r25, 0x00	; 0
    1b8e:	f9 01       	movw	r30, r18
    1b90:	e8 1b       	sub	r30, r24
    1b92:	f9 0b       	sbc	r31, r25
    1b94:	cf 01       	movw	r24, r30
    1b96:	21 e0       	ldi	r18, 0x01	; 1
    1b98:	89 30       	cpi	r24, 0x09	; 9
    1b9a:	91 05       	cpc	r25, r1
    1b9c:	0c f4       	brge	.+2      	; 0x1ba0 <__stack+0xaa1>
    1b9e:	20 e0       	ldi	r18, 0x00	; 0
/home/becker/async/wcet-benchmarks/benchmarks/PapaBench-0.2m/sw/airborne/autopilot_preprocessed/pp_main.c:377 (discriminator 3)
    1ba0:	22 23       	and	r18, r18
    1ba2:	09 f4       	brne	.+2      	; 0x1ba6 <__stack+0xaa7>
    1ba4:	24 c1       	rjmp	.+584    	; 0x1dee <__stack+0xcef>
/home/becker/async/wcet-benchmarks/benchmarks/PapaBench-0.2m/sw/airborne/autopilot_preprocessed/pp_main.c:377 (discriminator 1)
    1ba6:	80 91 fd 05 	lds	r24, 0x05FD
    1baa:	88 2f       	mov	r24, r24
    1bac:	90 e0       	ldi	r25, 0x00	; 0
    1bae:	80 50       	subi	r24, 0x00	; 0
    1bb0:	9a 4f       	sbci	r25, 0xFA	; 250
    1bb2:	25 e0       	ldi	r18, 0x05	; 5
    1bb4:	fc 01       	movw	r30, r24
    1bb6:	20 83       	st	Z, r18
    1bb8:	80 91 fd 05 	lds	r24, 0x05FD
    1bbc:	8f 5f       	subi	r24, 0xFF	; 255
    1bbe:	80 93 fd 05 	sts	0x05FD, r24
    1bc2:	80 91 fd 05 	lds	r24, 0x05FD
    1bc6:	8f 3f       	cpi	r24, 0xFF	; 255
    1bc8:	11 f4       	brne	.+4      	; 0x1bce <__stack+0xacf>
    1bca:	10 92 fd 05 	sts	0x05FD, r1
/home/becker/async/wcet-benchmarks/benchmarks/PapaBench-0.2m/sw/airborne/autopilot_preprocessed/pp_main.c:377 (discriminator 2)
    1bce:	80 91 fd 05 	lds	r24, 0x05FD
    1bd2:	88 2f       	mov	r24, r24
    1bd4:	90 e0       	ldi	r25, 0x00	; 0
    1bd6:	80 50       	subi	r24, 0x00	; 0
    1bd8:	9a 4f       	sbci	r25, 0xFA	; 250
    1bda:	27 e0       	ldi	r18, 0x07	; 7
    1bdc:	fc 01       	movw	r30, r24
    1bde:	20 83       	st	Z, r18
    1be0:	80 91 fd 05 	lds	r24, 0x05FD
    1be4:	8f 5f       	subi	r24, 0xFF	; 255
    1be6:	80 93 fd 05 	sts	0x05FD, r24
    1bea:	80 91 fd 05 	lds	r24, 0x05FD
    1bee:	8f 3f       	cpi	r24, 0xFF	; 255
    1bf0:	11 f4       	brne	.+4      	; 0x1bf6 <__stack+0xaf7>
/home/becker/async/wcet-benchmarks/benchmarks/PapaBench-0.2m/sw/airborne/autopilot_preprocessed/pp_main.c:377 (discriminator 1)
    1bf2:	10 92 fd 05 	sts	0x05FD, r1
/home/becker/async/wcet-benchmarks/benchmarks/PapaBench-0.2m/sw/airborne/autopilot_preprocessed/pp_main.c:377 (discriminator 2)
    1bf6:	87 e0       	ldi	r24, 0x07	; 7
    1bf8:	80 93 ff 06 	sts	0x06FF, r24
    1bfc:	87 e0       	ldi	r24, 0x07	; 7
    1bfe:	80 93 fa 05 	sts	0x05FA, r24
    1c02:	80 91 fd 05 	lds	r24, 0x05FD
    1c06:	88 2f       	mov	r24, r24
    1c08:	90 e0       	ldi	r25, 0x00	; 0
    1c0a:	2a e6       	ldi	r18, 0x6A	; 106
    1c0c:	37 e0       	ldi	r19, 0x07	; 7
    1c0e:	f9 01       	movw	r30, r18
    1c10:	20 81       	ld	r18, Z
    1c12:	80 50       	subi	r24, 0x00	; 0
    1c14:	9a 4f       	sbci	r25, 0xFA	; 250
    1c16:	fc 01       	movw	r30, r24
    1c18:	20 83       	st	Z, r18
    1c1a:	8a e6       	ldi	r24, 0x6A	; 106
    1c1c:	97 e0       	ldi	r25, 0x07	; 7
    1c1e:	fc 01       	movw	r30, r24
    1c20:	90 81       	ld	r25, Z
    1c22:	80 91 ff 06 	lds	r24, 0x06FF
    1c26:	89 0f       	add	r24, r25
    1c28:	80 93 ff 06 	sts	0x06FF, r24
    1c2c:	90 91 fa 05 	lds	r25, 0x05FA
    1c30:	80 91 ff 06 	lds	r24, 0x06FF
    1c34:	89 0f       	add	r24, r25
    1c36:	80 93 fa 05 	sts	0x05FA, r24
    1c3a:	80 91 fd 05 	lds	r24, 0x05FD
    1c3e:	8f 5f       	subi	r24, 0xFF	; 255
    1c40:	80 93 fd 05 	sts	0x05FD, r24
    1c44:	80 91 fd 05 	lds	r24, 0x05FD
    1c48:	8f 3f       	cpi	r24, 0xFF	; 255
    1c4a:	11 f4       	brne	.+4      	; 0x1c50 <__stack+0xb51>
/home/becker/async/wcet-benchmarks/benchmarks/PapaBench-0.2m/sw/airborne/autopilot_preprocessed/pp_main.c:377 (discriminator 1)
    1c4c:	10 92 fd 05 	sts	0x05FD, r1
/home/becker/async/wcet-benchmarks/benchmarks/PapaBench-0.2m/sw/airborne/autopilot_preprocessed/pp_main.c:377 (discriminator 2)
    1c50:	80 91 fd 05 	lds	r24, 0x05FD
    1c54:	88 2f       	mov	r24, r24
    1c56:	90 e0       	ldi	r25, 0x00	; 0
    1c58:	20 91 6b 07 	lds	r18, 0x076B
    1c5c:	80 50       	subi	r24, 0x00	; 0
    1c5e:	9a 4f       	sbci	r25, 0xFA	; 250
    1c60:	fc 01       	movw	r30, r24
    1c62:	20 83       	st	Z, r18
    1c64:	8b e6       	ldi	r24, 0x6B	; 107
    1c66:	97 e0       	ldi	r25, 0x07	; 7
    1c68:	fc 01       	movw	r30, r24
    1c6a:	90 81       	ld	r25, Z
    1c6c:	80 91 ff 06 	lds	r24, 0x06FF
    1c70:	89 0f       	add	r24, r25
    1c72:	80 93 ff 06 	sts	0x06FF, r24
    1c76:	90 91 fa 05 	lds	r25, 0x05FA
    1c7a:	80 91 ff 06 	lds	r24, 0x06FF
    1c7e:	89 0f       	add	r24, r25
    1c80:	80 93 fa 05 	sts	0x05FA, r24
    1c84:	80 91 fd 05 	lds	r24, 0x05FD
    1c88:	8f 5f       	subi	r24, 0xFF	; 255
    1c8a:	80 93 fd 05 	sts	0x05FD, r24
    1c8e:	80 91 fd 05 	lds	r24, 0x05FD
    1c92:	8f 3f       	cpi	r24, 0xFF	; 255
    1c94:	11 f4       	brne	.+4      	; 0x1c9a <__stack+0xb9b>
/home/becker/async/wcet-benchmarks/benchmarks/PapaBench-0.2m/sw/airborne/autopilot_preprocessed/pp_main.c:377 (discriminator 1)
    1c96:	10 92 fd 05 	sts	0x05FD, r1
/home/becker/async/wcet-benchmarks/benchmarks/PapaBench-0.2m/sw/airborne/autopilot_preprocessed/pp_main.c:377 (discriminator 2)
    1c9a:	80 91 fd 05 	lds	r24, 0x05FD
    1c9e:	88 2f       	mov	r24, r24
    1ca0:	90 e0       	ldi	r25, 0x00	; 0
    1ca2:	28 e6       	ldi	r18, 0x68	; 104
    1ca4:	37 e0       	ldi	r19, 0x07	; 7
    1ca6:	f9 01       	movw	r30, r18
    1ca8:	20 81       	ld	r18, Z
    1caa:	80 50       	subi	r24, 0x00	; 0
    1cac:	9a 4f       	sbci	r25, 0xFA	; 250
    1cae:	fc 01       	movw	r30, r24
    1cb0:	20 83       	st	Z, r18
    1cb2:	88 e6       	ldi	r24, 0x68	; 104
    1cb4:	97 e0       	ldi	r25, 0x07	; 7
    1cb6:	fc 01       	movw	r30, r24
    1cb8:	90 81       	ld	r25, Z
    1cba:	80 91 ff 06 	lds	r24, 0x06FF
    1cbe:	89 0f       	add	r24, r25
    1cc0:	80 93 ff 06 	sts	0x06FF, r24
    1cc4:	90 91 fa 05 	lds	r25, 0x05FA
    1cc8:	80 91 ff 06 	lds	r24, 0x06FF
    1ccc:	89 0f       	add	r24, r25
    1cce:	80 93 fa 05 	sts	0x05FA, r24
    1cd2:	80 91 fd 05 	lds	r24, 0x05FD
    1cd6:	8f 5f       	subi	r24, 0xFF	; 255
    1cd8:	80 93 fd 05 	sts	0x05FD, r24
    1cdc:	80 91 fd 05 	lds	r24, 0x05FD
    1ce0:	8f 3f       	cpi	r24, 0xFF	; 255
    1ce2:	11 f4       	brne	.+4      	; 0x1ce8 <__stack+0xbe9>
/home/becker/async/wcet-benchmarks/benchmarks/PapaBench-0.2m/sw/airborne/autopilot_preprocessed/pp_main.c:377 (discriminator 1)
    1ce4:	10 92 fd 05 	sts	0x05FD, r1
/home/becker/async/wcet-benchmarks/benchmarks/PapaBench-0.2m/sw/airborne/autopilot_preprocessed/pp_main.c:377 (discriminator 2)
    1ce8:	80 91 fd 05 	lds	r24, 0x05FD
    1cec:	88 2f       	mov	r24, r24
    1cee:	90 e0       	ldi	r25, 0x00	; 0
    1cf0:	20 91 69 07 	lds	r18, 0x0769
    1cf4:	80 50       	subi	r24, 0x00	; 0
    1cf6:	9a 4f       	sbci	r25, 0xFA	; 250
    1cf8:	fc 01       	movw	r30, r24
    1cfa:	20 83       	st	Z, r18
    1cfc:	89 e6       	ldi	r24, 0x69	; 105
    1cfe:	97 e0       	ldi	r25, 0x07	; 7
    1d00:	fc 01       	movw	r30, r24
    1d02:	90 81       	ld	r25, Z
    1d04:	80 91 ff 06 	lds	r24, 0x06FF
    1d08:	89 0f       	add	r24, r25
    1d0a:	80 93 ff 06 	sts	0x06FF, r24
    1d0e:	90 91 fa 05 	lds	r25, 0x05FA
    1d12:	80 91 ff 06 	lds	r24, 0x06FF
    1d16:	89 0f       	add	r24, r25
    1d18:	80 93 fa 05 	sts	0x05FA, r24
    1d1c:	80 91 fd 05 	lds	r24, 0x05FD
    1d20:	8f 5f       	subi	r24, 0xFF	; 255
    1d22:	80 93 fd 05 	sts	0x05FD, r24
    1d26:	80 91 fd 05 	lds	r24, 0x05FD
    1d2a:	8f 3f       	cpi	r24, 0xFF	; 255
    1d2c:	11 f4       	brne	.+4      	; 0x1d32 <__stack+0xc33>
/home/becker/async/wcet-benchmarks/benchmarks/PapaBench-0.2m/sw/airborne/autopilot_preprocessed/pp_main.c:377 (discriminator 1)
    1d2e:	10 92 fd 05 	sts	0x05FD, r1
/home/becker/async/wcet-benchmarks/benchmarks/PapaBench-0.2m/sw/airborne/autopilot_preprocessed/pp_main.c:377 (discriminator 2)
    1d32:	80 91 fd 05 	lds	r24, 0x05FD
    1d36:	88 2f       	mov	r24, r24
    1d38:	90 e0       	ldi	r25, 0x00	; 0
    1d3a:	20 91 ff 06 	lds	r18, 0x06FF
    1d3e:	80 50       	subi	r24, 0x00	; 0
    1d40:	9a 4f       	sbci	r25, 0xFA	; 250
    1d42:	fc 01       	movw	r30, r24
    1d44:	20 83       	st	Z, r18
    1d46:	80 91 fd 05 	lds	r24, 0x05FD
    1d4a:	8f 5f       	subi	r24, 0xFF	; 255
    1d4c:	80 93 fd 05 	sts	0x05FD, r24
    1d50:	80 91 fd 05 	lds	r24, 0x05FD
    1d54:	8f 3f       	cpi	r24, 0xFF	; 255
    1d56:	11 f4       	brne	.+4      	; 0x1d5c <__stack+0xc5d>
/home/becker/async/wcet-benchmarks/benchmarks/PapaBench-0.2m/sw/airborne/autopilot_preprocessed/pp_main.c:377 (discriminator 1)
    1d58:	10 92 fd 05 	sts	0x05FD, r1
/home/becker/async/wcet-benchmarks/benchmarks/PapaBench-0.2m/sw/airborne/autopilot_preprocessed/pp_main.c:377 (discriminator 2)
    1d5c:	80 91 fd 05 	lds	r24, 0x05FD
    1d60:	88 2f       	mov	r24, r24
    1d62:	90 e0       	ldi	r25, 0x00	; 0
    1d64:	20 91 fa 05 	lds	r18, 0x05FA
    1d68:	80 50       	subi	r24, 0x00	; 0
    1d6a:	9a 4f       	sbci	r25, 0xFA	; 250
    1d6c:	fc 01       	movw	r30, r24
    1d6e:	20 83       	st	Z, r18
    1d70:	80 91 fd 05 	lds	r24, 0x05FD
    1d74:	8f 5f       	subi	r24, 0xFF	; 255
    1d76:	80 93 fd 05 	sts	0x05FD, r24
    1d7a:	80 91 fd 05 	lds	r24, 0x05FD
    1d7e:	8f 3f       	cpi	r24, 0xFF	; 255
    1d80:	11 f4       	brne	.+4      	; 0x1d86 <__stack+0xc87>
/home/becker/async/wcet-benchmarks/benchmarks/PapaBench-0.2m/sw/airborne/autopilot_preprocessed/pp_main.c:377 (discriminator 1)
    1d82:	10 92 fd 05 	sts	0x05FD, r1
/home/becker/async/wcet-benchmarks/benchmarks/PapaBench-0.2m/sw/airborne/autopilot_preprocessed/pp_main.c:377 (discriminator 2)
    1d86:	89 e5       	ldi	r24, 0x59	; 89
    1d88:	90 e0       	ldi	r25, 0x00	; 0
    1d8a:	fc 01       	movw	r30, r24
    1d8c:	80 81       	ld	r24, Z
    1d8e:	88 2f       	mov	r24, r24
    1d90:	90 e0       	ldi	r25, 0x00	; 0
    1d92:	80 71       	andi	r24, 0x10	; 16
    1d94:	99 27       	eor	r25, r25
    1d96:	00 97       	sbiw	r24, 0x00	; 0
    1d98:	79 f5       	brne	.+94     	; 0x1df8 <__stack+0xcf9>
/home/becker/async/wcet-benchmarks/benchmarks/PapaBench-0.2m/sw/airborne/autopilot_preprocessed/pp_main.c:377 (discriminator 1)
    1d9a:	80 91 fe 05 	lds	r24, 0x05FE
    1d9e:	88 2f       	mov	r24, r24
    1da0:	90 e0       	ldi	r25, 0x00	; 0
    1da2:	80 50       	subi	r24, 0x00	; 0
    1da4:	9a 4f       	sbci	r25, 0xFA	; 250
    1da6:	fc 01       	movw	r30, r24
    1da8:	80 81       	ld	r24, Z
    1daa:	80 93 fc 05 	sts	0x05FC, r24
    1dae:	10 92 ff 05 	sts	0x05FF, r1
    1db2:	80 91 fe 05 	lds	r24, 0x05FE
    1db6:	8f 5f       	subi	r24, 0xFF	; 255
    1db8:	80 93 fe 05 	sts	0x05FE, r24
    1dbc:	80 91 fe 05 	lds	r24, 0x05FE
    1dc0:	8f 3f       	cpi	r24, 0xFF	; 255
    1dc2:	11 f4       	brne	.+4      	; 0x1dc8 <__stack+0xcc9>
    1dc4:	10 92 fe 05 	sts	0x05FE, r1
/home/becker/async/wcet-benchmarks/benchmarks/PapaBench-0.2m/sw/airborne/autopilot_preprocessed/pp_main.c:377 (discriminator 2)
    1dc8:	88 e5       	ldi	r24, 0x58	; 88
    1dca:	90 e0       	ldi	r25, 0x00	; 0
    1dcc:	28 e5       	ldi	r18, 0x58	; 88
    1dce:	30 e0       	ldi	r19, 0x00	; 0
    1dd0:	f9 01       	movw	r30, r18
    1dd2:	20 81       	ld	r18, Z
    1dd4:	21 60       	ori	r18, 0x01	; 1
    1dd6:	fc 01       	movw	r30, r24
    1dd8:	20 83       	st	Z, r18
    1dda:	89 e5       	ldi	r24, 0x59	; 89
    1ddc:	90 e0       	ldi	r25, 0x00	; 0
    1dde:	29 e5       	ldi	r18, 0x59	; 89
    1de0:	30 e0       	ldi	r19, 0x00	; 0
    1de2:	f9 01       	movw	r30, r18
    1de4:	20 81       	ld	r18, Z
    1de6:	20 61       	ori	r18, 0x10	; 16
    1de8:	fc 01       	movw	r30, r24
    1dea:	20 83       	st	Z, r18
    1dec:	05 c0       	rjmp	.+10     	; 0x1df8 <__stack+0xcf9>
    1dee:	80 91 fb 05 	lds	r24, 0x05FB
    1df2:	8f 5f       	subi	r24, 0xFF	; 255
    1df4:	80 93 fb 05 	sts	0x05FB, r24
    1df8:	20 91 d4 01 	lds	r18, 0x01D4
    1dfc:	8d ec       	ldi	r24, 0xCD	; 205
    1dfe:	28 9f       	mul	r18, r24
    1e00:	81 2d       	mov	r24, r1
    1e02:	11 24       	eor	r1, r1
    1e04:	98 2f       	mov	r25, r24
    1e06:	96 95       	lsr	r25
    1e08:	96 95       	lsr	r25
    1e0a:	89 2f       	mov	r24, r25
    1e0c:	88 0f       	add	r24, r24
    1e0e:	88 0f       	add	r24, r24
    1e10:	89 0f       	add	r24, r25
    1e12:	92 2f       	mov	r25, r18
    1e14:	98 1b       	sub	r25, r24
    1e16:	92 30       	cpi	r25, 0x02	; 2
    1e18:	09 f0       	breq	.+2      	; 0x1e1c <__stack+0xd1d>
    1e1a:	13 c2       	rjmp	.+1062   	; 0x2242 <__stack+0x1143>
/home/becker/async/wcet-benchmarks/benchmarks/PapaBench-0.2m/sw/airborne/autopilot_preprocessed/pp_main.c:377 (discriminator 1)
    1e1c:	80 91 de 05 	lds	r24, 0x05DE
    1e20:	88 23       	and	r24, r24
    1e22:	09 f4       	brne	.+2      	; 0x1e26 <__stack+0xd27>
    1e24:	0e c2       	rjmp	.+1052   	; 0x2242 <__stack+0x1143>
    1e26:	90 91 fd 05 	lds	r25, 0x05FD
    1e2a:	80 91 fe 05 	lds	r24, 0x05FE
    1e2e:	98 17       	cp	r25, r24
    1e30:	a0 f0       	brcs	.+40     	; 0x1e5a <__stack+0xd5b>
    1e32:	80 91 fe 05 	lds	r24, 0x05FE
    1e36:	28 2f       	mov	r18, r24
    1e38:	30 e0       	ldi	r19, 0x00	; 0
    1e3a:	80 91 fd 05 	lds	r24, 0x05FD
    1e3e:	88 2f       	mov	r24, r24
    1e40:	90 e0       	ldi	r25, 0x00	; 0
    1e42:	a9 01       	movw	r20, r18
    1e44:	48 1b       	sub	r20, r24
    1e46:	59 0b       	sbc	r21, r25
    1e48:	ca 01       	movw	r24, r20
    1e4a:	81 50       	subi	r24, 0x01	; 1
    1e4c:	9f 4f       	sbci	r25, 0xFF	; 255
    1e4e:	21 e0       	ldi	r18, 0x01	; 1
    1e50:	8e 30       	cpi	r24, 0x0E	; 14
    1e52:	91 05       	cpc	r25, r1
    1e54:	9c f4       	brge	.+38     	; 0x1e7c <__stack+0xd7d>
    1e56:	20 e0       	ldi	r18, 0x00	; 0
    1e58:	11 c0       	rjmp	.+34     	; 0x1e7c <__stack+0xd7d>
/home/becker/async/wcet-benchmarks/benchmarks/PapaBench-0.2m/sw/airborne/autopilot_preprocessed/pp_main.c:377 (discriminator 2)
    1e5a:	80 91 fe 05 	lds	r24, 0x05FE
    1e5e:	28 2f       	mov	r18, r24
    1e60:	30 e0       	ldi	r19, 0x00	; 0
    1e62:	80 91 fd 05 	lds	r24, 0x05FD
    1e66:	88 2f       	mov	r24, r24
    1e68:	90 e0       	ldi	r25, 0x00	; 0
    1e6a:	f9 01       	movw	r30, r18
    1e6c:	e8 1b       	sub	r30, r24
    1e6e:	f9 0b       	sbc	r31, r25
    1e70:	cf 01       	movw	r24, r30
    1e72:	21 e0       	ldi	r18, 0x01	; 1
    1e74:	8e 30       	cpi	r24, 0x0E	; 14
    1e76:	91 05       	cpc	r25, r1
    1e78:	0c f4       	brge	.+2      	; 0x1e7c <__stack+0xd7d>
    1e7a:	20 e0       	ldi	r18, 0x00	; 0
/home/becker/async/wcet-benchmarks/benchmarks/PapaBench-0.2m/sw/airborne/autopilot_preprocessed/pp_main.c:377 (discriminator 3)
    1e7c:	22 23       	and	r18, r18
    1e7e:	09 f4       	brne	.+2      	; 0x1e82 <__stack+0xd83>
    1e80:	db c1       	rjmp	.+950    	; 0x2238 <__stack+0x1139>
/home/becker/async/wcet-benchmarks/benchmarks/PapaBench-0.2m/sw/airborne/autopilot_preprocessed/pp_main.c:377 (discriminator 1)
    1e82:	80 91 fd 05 	lds	r24, 0x05FD
    1e86:	88 2f       	mov	r24, r24
    1e88:	90 e0       	ldi	r25, 0x00	; 0
    1e8a:	80 50       	subi	r24, 0x00	; 0
    1e8c:	9a 4f       	sbci	r25, 0xFA	; 250
    1e8e:	25 e0       	ldi	r18, 0x05	; 5
    1e90:	fc 01       	movw	r30, r24
    1e92:	20 83       	st	Z, r18
    1e94:	80 91 fd 05 	lds	r24, 0x05FD
    1e98:	8f 5f       	subi	r24, 0xFF	; 255
    1e9a:	80 93 fd 05 	sts	0x05FD, r24
    1e9e:	80 91 fd 05 	lds	r24, 0x05FD
    1ea2:	8f 3f       	cpi	r24, 0xFF	; 255
    1ea4:	11 f4       	brne	.+4      	; 0x1eaa <__stack+0xdab>
    1ea6:	10 92 fd 05 	sts	0x05FD, r1
/home/becker/async/wcet-benchmarks/benchmarks/PapaBench-0.2m/sw/airborne/autopilot_preprocessed/pp_main.c:377 (discriminator 2)
    1eaa:	80 91 fd 05 	lds	r24, 0x05FD
    1eae:	88 2f       	mov	r24, r24
    1eb0:	90 e0       	ldi	r25, 0x00	; 0
    1eb2:	80 50       	subi	r24, 0x00	; 0
    1eb4:	9a 4f       	sbci	r25, 0xFA	; 250
    1eb6:	21 e1       	ldi	r18, 0x11	; 17
    1eb8:	fc 01       	movw	r30, r24
    1eba:	20 83       	st	Z, r18
    1ebc:	80 91 fd 05 	lds	r24, 0x05FD
    1ec0:	8f 5f       	subi	r24, 0xFF	; 255
    1ec2:	80 93 fd 05 	sts	0x05FD, r24
    1ec6:	80 91 fd 05 	lds	r24, 0x05FD
    1eca:	8f 3f       	cpi	r24, 0xFF	; 255
    1ecc:	11 f4       	brne	.+4      	; 0x1ed2 <__stack+0xdd3>
/home/becker/async/wcet-benchmarks/benchmarks/PapaBench-0.2m/sw/airborne/autopilot_preprocessed/pp_main.c:377 (discriminator 1)
    1ece:	10 92 fd 05 	sts	0x05FD, r1
/home/becker/async/wcet-benchmarks/benchmarks/PapaBench-0.2m/sw/airborne/autopilot_preprocessed/pp_main.c:377 (discriminator 2)
    1ed2:	81 e1       	ldi	r24, 0x11	; 17
    1ed4:	80 93 ff 06 	sts	0x06FF, r24
    1ed8:	81 e1       	ldi	r24, 0x11	; 17
    1eda:	80 93 fa 05 	sts	0x05FA, r24
    1ede:	80 91 fd 05 	lds	r24, 0x05FD
    1ee2:	88 2f       	mov	r24, r24
    1ee4:	90 e0       	ldi	r25, 0x00	; 0
    1ee6:	20 91 de 05 	lds	r18, 0x05DE
    1eea:	80 50       	subi	r24, 0x00	; 0
    1eec:	9a 4f       	sbci	r25, 0xFA	; 250
    1eee:	fc 01       	movw	r30, r24
    1ef0:	20 83       	st	Z, r18
    1ef2:	90 91 ff 06 	lds	r25, 0x06FF
    1ef6:	80 91 de 05 	lds	r24, 0x05DE
    1efa:	89 0f       	add	r24, r25
    1efc:	80 93 ff 06 	sts	0x06FF, r24
    1f00:	90 91 fa 05 	lds	r25, 0x05FA
    1f04:	80 91 ff 06 	lds	r24, 0x06FF
    1f08:	89 0f       	add	r24, r25
    1f0a:	80 93 fa 05 	sts	0x05FA, r24
    1f0e:	80 91 fd 05 	lds	r24, 0x05FD
    1f12:	8f 5f       	subi	r24, 0xFF	; 255
    1f14:	80 93 fd 05 	sts	0x05FD, r24
    1f18:	80 91 fd 05 	lds	r24, 0x05FD
    1f1c:	8f 3f       	cpi	r24, 0xFF	; 255
    1f1e:	11 f4       	brne	.+4      	; 0x1f24 <__stack+0xe25>
/home/becker/async/wcet-benchmarks/benchmarks/PapaBench-0.2m/sw/airborne/autopilot_preprocessed/pp_main.c:377 (discriminator 1)
    1f20:	10 92 fd 05 	sts	0x05FD, r1
/home/becker/async/wcet-benchmarks/benchmarks/PapaBench-0.2m/sw/airborne/autopilot_preprocessed/pp_main.c:377 (discriminator 2)
    1f24:	80 91 fd 05 	lds	r24, 0x05FD
    1f28:	88 2f       	mov	r24, r24
    1f2a:	90 e0       	ldi	r25, 0x00	; 0
    1f2c:	24 ef       	ldi	r18, 0xF4	; 244
    1f2e:	35 e0       	ldi	r19, 0x05	; 5
    1f30:	f9 01       	movw	r30, r18
    1f32:	20 81       	ld	r18, Z
    1f34:	80 50       	subi	r24, 0x00	; 0
    1f36:	9a 4f       	sbci	r25, 0xFA	; 250
    1f38:	fc 01       	movw	r30, r24
    1f3a:	20 83       	st	Z, r18
    1f3c:	84 ef       	ldi	r24, 0xF4	; 244
    1f3e:	95 e0       	ldi	r25, 0x05	; 5
    1f40:	fc 01       	movw	r30, r24
    1f42:	90 81       	ld	r25, Z
    1f44:	80 91 ff 06 	lds	r24, 0x06FF
    1f48:	89 0f       	add	r24, r25
    1f4a:	80 93 ff 06 	sts	0x06FF, r24
    1f4e:	90 91 fa 05 	lds	r25, 0x05FA
    1f52:	80 91 ff 06 	lds	r24, 0x06FF
    1f56:	89 0f       	add	r24, r25
    1f58:	80 93 fa 05 	sts	0x05FA, r24
    1f5c:	80 91 fd 05 	lds	r24, 0x05FD
    1f60:	8f 5f       	subi	r24, 0xFF	; 255
    1f62:	80 93 fd 05 	sts	0x05FD, r24
    1f66:	80 91 fd 05 	lds	r24, 0x05FD
    1f6a:	8f 3f       	cpi	r24, 0xFF	; 255
    1f6c:	11 f4       	brne	.+4      	; 0x1f72 <__stack+0xe73>
/home/becker/async/wcet-benchmarks/benchmarks/PapaBench-0.2m/sw/airborne/autopilot_preprocessed/pp_main.c:377 (discriminator 1)
    1f6e:	10 92 fd 05 	sts	0x05FD, r1
/home/becker/async/wcet-benchmarks/benchmarks/PapaBench-0.2m/sw/airborne/autopilot_preprocessed/pp_main.c:377 (discriminator 2)
    1f72:	80 91 fd 05 	lds	r24, 0x05FD
    1f76:	88 2f       	mov	r24, r24
    1f78:	90 e0       	ldi	r25, 0x00	; 0
    1f7a:	20 91 f5 05 	lds	r18, 0x05F5
    1f7e:	80 50       	subi	r24, 0x00	; 0
    1f80:	9a 4f       	sbci	r25, 0xFA	; 250
    1f82:	fc 01       	movw	r30, r24
    1f84:	20 83       	st	Z, r18
    1f86:	85 ef       	ldi	r24, 0xF5	; 245
    1f88:	95 e0       	ldi	r25, 0x05	; 5
    1f8a:	fc 01       	movw	r30, r24
    1f8c:	90 81       	ld	r25, Z
    1f8e:	80 91 ff 06 	lds	r24, 0x06FF
    1f92:	89 0f       	add	r24, r25
    1f94:	80 93 ff 06 	sts	0x06FF, r24
    1f98:	90 91 fa 05 	lds	r25, 0x05FA
    1f9c:	80 91 ff 06 	lds	r24, 0x06FF
    1fa0:	89 0f       	add	r24, r25
    1fa2:	80 93 fa 05 	sts	0x05FA, r24
    1fa6:	80 91 fd 05 	lds	r24, 0x05FD
    1faa:	8f 5f       	subi	r24, 0xFF	; 255
    1fac:	80 93 fd 05 	sts	0x05FD, r24
    1fb0:	80 91 fd 05 	lds	r24, 0x05FD
    1fb4:	8f 3f       	cpi	r24, 0xFF	; 255
    1fb6:	11 f4       	brne	.+4      	; 0x1fbc <__stack+0xebd>
/home/becker/async/wcet-benchmarks/benchmarks/PapaBench-0.2m/sw/airborne/autopilot_preprocessed/pp_main.c:377 (discriminator 1)
    1fb8:	10 92 fd 05 	sts	0x05FD, r1
/home/becker/async/wcet-benchmarks/benchmarks/PapaBench-0.2m/sw/airborne/autopilot_preprocessed/pp_main.c:377 (discriminator 2)
    1fbc:	80 91 fd 05 	lds	r24, 0x05FD
    1fc0:	88 2f       	mov	r24, r24
    1fc2:	90 e0       	ldi	r25, 0x00	; 0
    1fc4:	20 91 f6 05 	lds	r18, 0x05F6
    1fc8:	80 50       	subi	r24, 0x00	; 0
    1fca:	9a 4f       	sbci	r25, 0xFA	; 250
    1fcc:	fc 01       	movw	r30, r24
    1fce:	20 83       	st	Z, r18
    1fd0:	86 ef       	ldi	r24, 0xF6	; 246
    1fd2:	95 e0       	ldi	r25, 0x05	; 5
    1fd4:	fc 01       	movw	r30, r24
    1fd6:	90 81       	ld	r25, Z
    1fd8:	80 91 ff 06 	lds	r24, 0x06FF
    1fdc:	89 0f       	add	r24, r25
    1fde:	80 93 ff 06 	sts	0x06FF, r24
    1fe2:	90 91 fa 05 	lds	r25, 0x05FA
    1fe6:	80 91 ff 06 	lds	r24, 0x06FF
    1fea:	89 0f       	add	r24, r25
    1fec:	80 93 fa 05 	sts	0x05FA, r24
    1ff0:	80 91 fd 05 	lds	r24, 0x05FD
    1ff4:	8f 5f       	subi	r24, 0xFF	; 255
    1ff6:	80 93 fd 05 	sts	0x05FD, r24
    1ffa:	80 91 fd 05 	lds	r24, 0x05FD
    1ffe:	8f 3f       	cpi	r24, 0xFF	; 255
    2000:	11 f4       	brne	.+4      	; 0x2006 <__stack+0xf07>
/home/becker/async/wcet-benchmarks/benchmarks/PapaBench-0.2m/sw/airborne/autopilot_preprocessed/pp_main.c:377 (discriminator 1)
    2002:	10 92 fd 05 	sts	0x05FD, r1
/home/becker/async/wcet-benchmarks/benchmarks/PapaBench-0.2m/sw/airborne/autopilot_preprocessed/pp_main.c:377 (discriminator 2)
    2006:	80 91 fd 05 	lds	r24, 0x05FD
    200a:	88 2f       	mov	r24, r24
    200c:	90 e0       	ldi	r25, 0x00	; 0
    200e:	20 91 f7 05 	lds	r18, 0x05F7
    2012:	80 50       	subi	r24, 0x00	; 0
    2014:	9a 4f       	sbci	r25, 0xFA	; 250
    2016:	fc 01       	movw	r30, r24
    2018:	20 83       	st	Z, r18
    201a:	87 ef       	ldi	r24, 0xF7	; 247
    201c:	95 e0       	ldi	r25, 0x05	; 5
    201e:	fc 01       	movw	r30, r24
    2020:	90 81       	ld	r25, Z
    2022:	80 91 ff 06 	lds	r24, 0x06FF
    2026:	89 0f       	add	r24, r25
    2028:	80 93 ff 06 	sts	0x06FF, r24
    202c:	90 91 fa 05 	lds	r25, 0x05FA
    2030:	80 91 ff 06 	lds	r24, 0x06FF
    2034:	89 0f       	add	r24, r25
    2036:	80 93 fa 05 	sts	0x05FA, r24
    203a:	80 91 fd 05 	lds	r24, 0x05FD
    203e:	8f 5f       	subi	r24, 0xFF	; 255
    2040:	80 93 fd 05 	sts	0x05FD, r24
    2044:	80 91 fd 05 	lds	r24, 0x05FD
    2048:	8f 3f       	cpi	r24, 0xFF	; 255
    204a:	11 f4       	brne	.+4      	; 0x2050 <__stack+0xf51>
/home/becker/async/wcet-benchmarks/benchmarks/PapaBench-0.2m/sw/airborne/autopilot_preprocessed/pp_main.c:377 (discriminator 1)
    204c:	10 92 fd 05 	sts	0x05FD, r1
/home/becker/async/wcet-benchmarks/benchmarks/PapaBench-0.2m/sw/airborne/autopilot_preprocessed/pp_main.c:377 (discriminator 2)
    2050:	80 91 fd 05 	lds	r24, 0x05FD
    2054:	88 2f       	mov	r24, r24
    2056:	90 e0       	ldi	r25, 0x00	; 0
    2058:	20 ef       	ldi	r18, 0xF0	; 240
    205a:	35 e0       	ldi	r19, 0x05	; 5
    205c:	f9 01       	movw	r30, r18
    205e:	20 81       	ld	r18, Z
    2060:	80 50       	subi	r24, 0x00	; 0
    2062:	9a 4f       	sbci	r25, 0xFA	; 250
    2064:	fc 01       	movw	r30, r24
    2066:	20 83       	st	Z, r18
    2068:	80 ef       	ldi	r24, 0xF0	; 240
    206a:	95 e0       	ldi	r25, 0x05	; 5
    206c:	fc 01       	movw	r30, r24
    206e:	90 81       	ld	r25, Z
    2070:	80 91 ff 06 	lds	r24, 0x06FF
    2074:	89 0f       	add	r24, r25
    2076:	80 93 ff 06 	sts	0x06FF, r24
    207a:	90 91 fa 05 	lds	r25, 0x05FA
    207e:	80 91 ff 06 	lds	r24, 0x06FF
    2082:	89 0f       	add	r24, r25
    2084:	80 93 fa 05 	sts	0x05FA, r24
    2088:	80 91 fd 05 	lds	r24, 0x05FD
    208c:	8f 5f       	subi	r24, 0xFF	; 255
    208e:	80 93 fd 05 	sts	0x05FD, r24
    2092:	80 91 fd 05 	lds	r24, 0x05FD
    2096:	8f 3f       	cpi	r24, 0xFF	; 255
    2098:	11 f4       	brne	.+4      	; 0x209e <__stack+0xf9f>
/home/becker/async/wcet-benchmarks/benchmarks/PapaBench-0.2m/sw/airborne/autopilot_preprocessed/pp_main.c:377 (discriminator 1)
    209a:	10 92 fd 05 	sts	0x05FD, r1
/home/becker/async/wcet-benchmarks/benchmarks/PapaBench-0.2m/sw/airborne/autopilot_preprocessed/pp_main.c:377 (discriminator 2)
    209e:	80 91 fd 05 	lds	r24, 0x05FD
    20a2:	88 2f       	mov	r24, r24
    20a4:	90 e0       	ldi	r25, 0x00	; 0
    20a6:	20 91 f1 05 	lds	r18, 0x05F1
    20aa:	80 50       	subi	r24, 0x00	; 0
    20ac:	9a 4f       	sbci	r25, 0xFA	; 250
    20ae:	fc 01       	movw	r30, r24
    20b0:	20 83       	st	Z, r18
    20b2:	81 ef       	ldi	r24, 0xF1	; 241
    20b4:	95 e0       	ldi	r25, 0x05	; 5
    20b6:	fc 01       	movw	r30, r24
    20b8:	90 81       	ld	r25, Z
    20ba:	80 91 ff 06 	lds	r24, 0x06FF
    20be:	89 0f       	add	r24, r25
    20c0:	80 93 ff 06 	sts	0x06FF, r24
    20c4:	90 91 fa 05 	lds	r25, 0x05FA
    20c8:	80 91 ff 06 	lds	r24, 0x06FF
    20cc:	89 0f       	add	r24, r25
    20ce:	80 93 fa 05 	sts	0x05FA, r24
    20d2:	80 91 fd 05 	lds	r24, 0x05FD
    20d6:	8f 5f       	subi	r24, 0xFF	; 255
    20d8:	80 93 fd 05 	sts	0x05FD, r24
    20dc:	80 91 fd 05 	lds	r24, 0x05FD
    20e0:	8f 3f       	cpi	r24, 0xFF	; 255
    20e2:	11 f4       	brne	.+4      	; 0x20e8 <__stack+0xfe9>
/home/becker/async/wcet-benchmarks/benchmarks/PapaBench-0.2m/sw/airborne/autopilot_preprocessed/pp_main.c:377 (discriminator 1)
    20e4:	10 92 fd 05 	sts	0x05FD, r1
/home/becker/async/wcet-benchmarks/benchmarks/PapaBench-0.2m/sw/airborne/autopilot_preprocessed/pp_main.c:377 (discriminator 2)
    20e8:	80 91 fd 05 	lds	r24, 0x05FD
    20ec:	88 2f       	mov	r24, r24
    20ee:	90 e0       	ldi	r25, 0x00	; 0
    20f0:	20 91 f2 05 	lds	r18, 0x05F2
    20f4:	80 50       	subi	r24, 0x00	; 0
    20f6:	9a 4f       	sbci	r25, 0xFA	; 250
    20f8:	fc 01       	movw	r30, r24
    20fa:	20 83       	st	Z, r18
    20fc:	82 ef       	ldi	r24, 0xF2	; 242
    20fe:	95 e0       	ldi	r25, 0x05	; 5
    2100:	fc 01       	movw	r30, r24
    2102:	90 81       	ld	r25, Z
    2104:	80 91 ff 06 	lds	r24, 0x06FF
    2108:	89 0f       	add	r24, r25
    210a:	80 93 ff 06 	sts	0x06FF, r24
    210e:	90 91 fa 05 	lds	r25, 0x05FA
    2112:	80 91 ff 06 	lds	r24, 0x06FF
    2116:	89 0f       	add	r24, r25
    2118:	80 93 fa 05 	sts	0x05FA, r24
    211c:	80 91 fd 05 	lds	r24, 0x05FD
    2120:	8f 5f       	subi	r24, 0xFF	; 255
    2122:	80 93 fd 05 	sts	0x05FD, r24
    2126:	80 91 fd 05 	lds	r24, 0x05FD
    212a:	8f 3f       	cpi	r24, 0xFF	; 255
    212c:	11 f4       	brne	.+4      	; 0x2132 <__stack+0x1033>
/home/becker/async/wcet-benchmarks/benchmarks/PapaBench-0.2m/sw/airborne/autopilot_preprocessed/pp_main.c:377 (discriminator 1)
    212e:	10 92 fd 05 	sts	0x05FD, r1
/home/becker/async/wcet-benchmarks/benchmarks/PapaBench-0.2m/sw/airborne/autopilot_preprocessed/pp_main.c:377 (discriminator 2)
    2132:	80 91 fd 05 	lds	r24, 0x05FD
    2136:	88 2f       	mov	r24, r24
    2138:	90 e0       	ldi	r25, 0x00	; 0
    213a:	20 91 f3 05 	lds	r18, 0x05F3
    213e:	80 50       	subi	r24, 0x00	; 0
    2140:	9a 4f       	sbci	r25, 0xFA	; 250
    2142:	fc 01       	movw	r30, r24
    2144:	20 83       	st	Z, r18
    2146:	83 ef       	ldi	r24, 0xF3	; 243
    2148:	95 e0       	ldi	r25, 0x05	; 5
    214a:	fc 01       	movw	r30, r24
    214c:	90 81       	ld	r25, Z
    214e:	80 91 ff 06 	lds	r24, 0x06FF
    2152:	89 0f       	add	r24, r25
    2154:	80 93 ff 06 	sts	0x06FF, r24
    2158:	90 91 fa 05 	lds	r25, 0x05FA
    215c:	80 91 ff 06 	lds	r24, 0x06FF
    2160:	89 0f       	add	r24, r25
    2162:	80 93 fa 05 	sts	0x05FA, r24
    2166:	80 91 fd 05 	lds	r24, 0x05FD
    216a:	8f 5f       	subi	r24, 0xFF	; 255
    216c:	80 93 fd 05 	sts	0x05FD, r24
    2170:	80 91 fd 05 	lds	r24, 0x05FD
    2174:	8f 3f       	cpi	r24, 0xFF	; 255
    2176:	11 f4       	brne	.+4      	; 0x217c <__stack+0x107d>
/home/becker/async/wcet-benchmarks/benchmarks/PapaBench-0.2m/sw/airborne/autopilot_preprocessed/pp_main.c:377 (discriminator 1)
    2178:	10 92 fd 05 	sts	0x05FD, r1
/home/becker/async/wcet-benchmarks/benchmarks/PapaBench-0.2m/sw/airborne/autopilot_preprocessed/pp_main.c:377 (discriminator 2)
    217c:	80 91 fd 05 	lds	r24, 0x05FD
    2180:	88 2f       	mov	r24, r24
    2182:	90 e0       	ldi	r25, 0x00	; 0
    2184:	20 91 ff 06 	lds	r18, 0x06FF
    2188:	80 50       	subi	r24, 0x00	; 0
    218a:	9a 4f       	sbci	r25, 0xFA	; 250
    218c:	fc 01       	movw	r30, r24
    218e:	20 83       	st	Z, r18
    2190:	80 91 fd 05 	lds	r24, 0x05FD
    2194:	8f 5f       	subi	r24, 0xFF	; 255
    2196:	80 93 fd 05 	sts	0x05FD, r24
    219a:	80 91 fd 05 	lds	r24, 0x05FD
    219e:	8f 3f       	cpi	r24, 0xFF	; 255
    21a0:	11 f4       	brne	.+4      	; 0x21a6 <__stack+0x10a7>
/home/becker/async/wcet-benchmarks/benchmarks/PapaBench-0.2m/sw/airborne/autopilot_preprocessed/pp_main.c:377 (discriminator 1)
    21a2:	10 92 fd 05 	sts	0x05FD, r1
/home/becker/async/wcet-benchmarks/benchmarks/PapaBench-0.2m/sw/airborne/autopilot_preprocessed/pp_main.c:377 (discriminator 2)
    21a6:	80 91 fd 05 	lds	r24, 0x05FD
    21aa:	88 2f       	mov	r24, r24
    21ac:	90 e0       	ldi	r25, 0x00	; 0
    21ae:	20 91 fa 05 	lds	r18, 0x05FA
    21b2:	80 50       	subi	r24, 0x00	; 0
    21b4:	9a 4f       	sbci	r25, 0xFA	; 250
    21b6:	fc 01       	movw	r30, r24
    21b8:	20 83       	st	Z, r18
    21ba:	80 91 fd 05 	lds	r24, 0x05FD
    21be:	8f 5f       	subi	r24, 0xFF	; 255
    21c0:	80 93 fd 05 	sts	0x05FD, r24
    21c4:	80 91 fd 05 	lds	r24, 0x05FD
    21c8:	8f 3f       	cpi	r24, 0xFF	; 255
    21ca:	11 f4       	brne	.+4      	; 0x21d0 <__stack+0x10d1>
/home/becker/async/wcet-benchmarks/benchmarks/PapaBench-0.2m/sw/airborne/autopilot_preprocessed/pp_main.c:377 (discriminator 1)
    21cc:	10 92 fd 05 	sts	0x05FD, r1
/home/becker/async/wcet-benchmarks/benchmarks/PapaBench-0.2m/sw/airborne/autopilot_preprocessed/pp_main.c:377 (discriminator 2)
    21d0:	89 e5       	ldi	r24, 0x59	; 89
    21d2:	90 e0       	ldi	r25, 0x00	; 0
    21d4:	fc 01       	movw	r30, r24
    21d6:	80 81       	ld	r24, Z
    21d8:	88 2f       	mov	r24, r24
    21da:	90 e0       	ldi	r25, 0x00	; 0
    21dc:	80 71       	andi	r24, 0x10	; 16
    21de:	99 27       	eor	r25, r25
    21e0:	00 97       	sbiw	r24, 0x00	; 0
    21e2:	79 f5       	brne	.+94     	; 0x2242 <__stack+0x1143>
/home/becker/async/wcet-benchmarks/benchmarks/PapaBench-0.2m/sw/airborne/autopilot_preprocessed/pp_main.c:377 (discriminator 1)
    21e4:	80 91 fe 05 	lds	r24, 0x05FE
    21e8:	88 2f       	mov	r24, r24
    21ea:	90 e0       	ldi	r25, 0x00	; 0
    21ec:	80 50       	subi	r24, 0x00	; 0
    21ee:	9a 4f       	sbci	r25, 0xFA	; 250
    21f0:	fc 01       	movw	r30, r24
    21f2:	80 81       	ld	r24, Z
    21f4:	80 93 fc 05 	sts	0x05FC, r24
    21f8:	10 92 ff 05 	sts	0x05FF, r1
    21fc:	80 91 fe 05 	lds	r24, 0x05FE
    2200:	8f 5f       	subi	r24, 0xFF	; 255
    2202:	80 93 fe 05 	sts	0x05FE, r24
    2206:	80 91 fe 05 	lds	r24, 0x05FE
    220a:	8f 3f       	cpi	r24, 0xFF	; 255
    220c:	11 f4       	brne	.+4      	; 0x2212 <__stack+0x1113>
    220e:	10 92 fe 05 	sts	0x05FE, r1
/home/becker/async/wcet-benchmarks/benchmarks/PapaBench-0.2m/sw/airborne/autopilot_preprocessed/pp_main.c:377 (discriminator 2)
    2212:	88 e5       	ldi	r24, 0x58	; 88
    2214:	90 e0       	ldi	r25, 0x00	; 0
    2216:	28 e5       	ldi	r18, 0x58	; 88
    2218:	30 e0       	ldi	r19, 0x00	; 0
    221a:	f9 01       	movw	r30, r18
    221c:	20 81       	ld	r18, Z
    221e:	21 60       	ori	r18, 0x01	; 1
    2220:	fc 01       	movw	r30, r24
    2222:	20 83       	st	Z, r18
    2224:	89 e5       	ldi	r24, 0x59	; 89
    2226:	90 e0       	ldi	r25, 0x00	; 0
    2228:	29 e5       	ldi	r18, 0x59	; 89
    222a:	30 e0       	ldi	r19, 0x00	; 0
    222c:	f9 01       	movw	r30, r18
    222e:	20 81       	ld	r18, Z
    2230:	20 61       	ori	r18, 0x10	; 16
    2232:	fc 01       	movw	r30, r24
    2234:	20 83       	st	Z, r18
    2236:	05 c0       	rjmp	.+10     	; 0x2242 <__stack+0x1143>
    2238:	80 91 fb 05 	lds	r24, 0x05FB
    223c:	8f 5f       	subi	r24, 0xFF	; 255
    223e:	80 93 fb 05 	sts	0x05FB, r24
    2242:	90 91 d4 01 	lds	r25, 0x01D4
    2246:	8d ec       	ldi	r24, 0xCD	; 205
    2248:	98 9f       	mul	r25, r24
    224a:	81 2d       	mov	r24, r1
    224c:	11 24       	eor	r1, r1
    224e:	86 95       	lsr	r24
    2250:	86 95       	lsr	r24
    2252:	86 95       	lsr	r24
    2254:	88 0f       	add	r24, r24
    2256:	28 2f       	mov	r18, r24
    2258:	22 0f       	add	r18, r18
    225a:	22 0f       	add	r18, r18
    225c:	82 0f       	add	r24, r18
    225e:	f9 2f       	mov	r31, r25
    2260:	f8 1b       	sub	r31, r24
    2262:	8f 2f       	mov	r24, r31
    2264:	83 30       	cpi	r24, 0x03	; 3
    2266:	09 f0       	breq	.+2      	; 0x226a <__stack+0x116b>
    2268:	ad c3       	rjmp	.+1882   	; 0x29c4 <__stack+0x18c5>
/home/becker/async/wcet-benchmarks/benchmarks/PapaBench-0.2m/sw/airborne/autopilot_preprocessed/pp_main.c:377 (discriminator 1)
    226a:	90 91 fd 05 	lds	r25, 0x05FD
    226e:	80 91 fe 05 	lds	r24, 0x05FE
    2272:	98 17       	cp	r25, r24
    2274:	a0 f0       	brcs	.+40     	; 0x229e <__stack+0x119f>
    2276:	80 91 fe 05 	lds	r24, 0x05FE
    227a:	28 2f       	mov	r18, r24
    227c:	30 e0       	ldi	r19, 0x00	; 0
    227e:	80 91 fd 05 	lds	r24, 0x05FD
    2282:	88 2f       	mov	r24, r24
    2284:	90 e0       	ldi	r25, 0x00	; 0
    2286:	a9 01       	movw	r20, r18
    2288:	48 1b       	sub	r20, r24
    228a:	59 0b       	sbc	r21, r25
    228c:	ca 01       	movw	r24, r20
    228e:	81 50       	subi	r24, 0x01	; 1
    2290:	9f 4f       	sbci	r25, 0xFF	; 255
    2292:	21 e0       	ldi	r18, 0x01	; 1
    2294:	89 31       	cpi	r24, 0x19	; 25
    2296:	91 05       	cpc	r25, r1
    2298:	9c f4       	brge	.+38     	; 0x22c0 <__stack+0x11c1>
    229a:	20 e0       	ldi	r18, 0x00	; 0
    229c:	11 c0       	rjmp	.+34     	; 0x22c0 <__stack+0x11c1>
/home/becker/async/wcet-benchmarks/benchmarks/PapaBench-0.2m/sw/airborne/autopilot_preprocessed/pp_main.c:377 (discriminator 2)
    229e:	80 91 fe 05 	lds	r24, 0x05FE
    22a2:	28 2f       	mov	r18, r24
    22a4:	30 e0       	ldi	r19, 0x00	; 0
    22a6:	80 91 fd 05 	lds	r24, 0x05FD
    22aa:	88 2f       	mov	r24, r24
    22ac:	90 e0       	ldi	r25, 0x00	; 0
    22ae:	f9 01       	movw	r30, r18
    22b0:	e8 1b       	sub	r30, r24
    22b2:	f9 0b       	sbc	r31, r25
    22b4:	cf 01       	movw	r24, r30
    22b6:	21 e0       	ldi	r18, 0x01	; 1
    22b8:	89 31       	cpi	r24, 0x19	; 25
    22ba:	91 05       	cpc	r25, r1
    22bc:	0c f4       	brge	.+2      	; 0x22c0 <__stack+0x11c1>
    22be:	20 e0       	ldi	r18, 0x00	; 0
/home/becker/async/wcet-benchmarks/benchmarks/PapaBench-0.2m/sw/airborne/autopilot_preprocessed/pp_main.c:377 (discriminator 3)
    22c0:	22 23       	and	r18, r18
    22c2:	09 f4       	brne	.+2      	; 0x22c6 <__stack+0x11c7>
    22c4:	7a c3       	rjmp	.+1780   	; 0x29ba <__stack+0x18bb>
/home/becker/async/wcet-benchmarks/benchmarks/PapaBench-0.2m/sw/airborne/autopilot_preprocessed/pp_main.c:377 (discriminator 1)
    22c6:	80 91 fd 05 	lds	r24, 0x05FD
    22ca:	88 2f       	mov	r24, r24
    22cc:	90 e0       	ldi	r25, 0x00	; 0
    22ce:	80 50       	subi	r24, 0x00	; 0
    22d0:	9a 4f       	sbci	r25, 0xFA	; 250
    22d2:	25 e0       	ldi	r18, 0x05	; 5
    22d4:	fc 01       	movw	r30, r24
    22d6:	20 83       	st	Z, r18
    22d8:	80 91 fd 05 	lds	r24, 0x05FD
    22dc:	8f 5f       	subi	r24, 0xFF	; 255
    22de:	80 93 fd 05 	sts	0x05FD, r24
    22e2:	80 91 fd 05 	lds	r24, 0x05FD
    22e6:	8f 3f       	cpi	r24, 0xFF	; 255
    22e8:	11 f4       	brne	.+4      	; 0x22ee <__stack+0x11ef>
    22ea:	10 92 fd 05 	sts	0x05FD, r1
/home/becker/async/wcet-benchmarks/benchmarks/PapaBench-0.2m/sw/airborne/autopilot_preprocessed/pp_main.c:377 (discriminator 2)
    22ee:	80 91 fd 05 	lds	r24, 0x05FD
    22f2:	88 2f       	mov	r24, r24
    22f4:	90 e0       	ldi	r25, 0x00	; 0
    22f6:	80 50       	subi	r24, 0x00	; 0
    22f8:	9a 4f       	sbci	r25, 0xFA	; 250
    22fa:	22 e1       	ldi	r18, 0x12	; 18
    22fc:	fc 01       	movw	r30, r24
    22fe:	20 83       	st	Z, r18
    2300:	80 91 fd 05 	lds	r24, 0x05FD
    2304:	8f 5f       	subi	r24, 0xFF	; 255
    2306:	80 93 fd 05 	sts	0x05FD, r24
    230a:	80 91 fd 05 	lds	r24, 0x05FD
    230e:	8f 3f       	cpi	r24, 0xFF	; 255
    2310:	11 f4       	brne	.+4      	; 0x2316 <__stack+0x1217>
/home/becker/async/wcet-benchmarks/benchmarks/PapaBench-0.2m/sw/airborne/autopilot_preprocessed/pp_main.c:377 (discriminator 1)
    2312:	10 92 fd 05 	sts	0x05FD, r1
/home/becker/async/wcet-benchmarks/benchmarks/PapaBench-0.2m/sw/airborne/autopilot_preprocessed/pp_main.c:377 (discriminator 2)
    2316:	82 e1       	ldi	r24, 0x12	; 18
    2318:	80 93 ff 06 	sts	0x06FF, r24
    231c:	82 e1       	ldi	r24, 0x12	; 18
    231e:	80 93 fa 05 	sts	0x05FA, r24
    2322:	80 91 fd 05 	lds	r24, 0x05FD
    2326:	88 2f       	mov	r24, r24
    2328:	90 e0       	ldi	r25, 0x00	; 0
    232a:	20 e8       	ldi	r18, 0x80	; 128
    232c:	33 e0       	ldi	r19, 0x03	; 3
    232e:	f9 01       	movw	r30, r18
    2330:	20 81       	ld	r18, Z
    2332:	80 50       	subi	r24, 0x00	; 0
    2334:	9a 4f       	sbci	r25, 0xFA	; 250
    2336:	fc 01       	movw	r30, r24
    2338:	20 83       	st	Z, r18
    233a:	80 e8       	ldi	r24, 0x80	; 128
    233c:	93 e0       	ldi	r25, 0x03	; 3
    233e:	fc 01       	movw	r30, r24
    2340:	90 81       	ld	r25, Z
    2342:	80 91 ff 06 	lds	r24, 0x06FF
    2346:	89 0f       	add	r24, r25
    2348:	80 93 ff 06 	sts	0x06FF, r24
    234c:	90 91 fa 05 	lds	r25, 0x05FA
    2350:	80 91 ff 06 	lds	r24, 0x06FF
    2354:	89 0f       	add	r24, r25
    2356:	80 93 fa 05 	sts	0x05FA, r24
    235a:	80 91 fd 05 	lds	r24, 0x05FD
    235e:	8f 5f       	subi	r24, 0xFF	; 255
    2360:	80 93 fd 05 	sts	0x05FD, r24
    2364:	80 91 fd 05 	lds	r24, 0x05FD
    2368:	8f 3f       	cpi	r24, 0xFF	; 255
    236a:	11 f4       	brne	.+4      	; 0x2370 <__stack+0x1271>
/home/becker/async/wcet-benchmarks/benchmarks/PapaBench-0.2m/sw/airborne/autopilot_preprocessed/pp_main.c:377 (discriminator 1)
    236c:	10 92 fd 05 	sts	0x05FD, r1
/home/becker/async/wcet-benchmarks/benchmarks/PapaBench-0.2m/sw/airborne/autopilot_preprocessed/pp_main.c:377 (discriminator 2)
    2370:	80 91 fd 05 	lds	r24, 0x05FD
    2374:	88 2f       	mov	r24, r24
    2376:	90 e0       	ldi	r25, 0x00	; 0
    2378:	20 91 81 03 	lds	r18, 0x0381
    237c:	80 50       	subi	r24, 0x00	; 0
    237e:	9a 4f       	sbci	r25, 0xFA	; 250
    2380:	fc 01       	movw	r30, r24
    2382:	20 83       	st	Z, r18
    2384:	81 e8       	ldi	r24, 0x81	; 129
    2386:	93 e0       	ldi	r25, 0x03	; 3
    2388:	fc 01       	movw	r30, r24
    238a:	90 81       	ld	r25, Z
    238c:	80 91 ff 06 	lds	r24, 0x06FF
    2390:	89 0f       	add	r24, r25
    2392:	80 93 ff 06 	sts	0x06FF, r24
    2396:	90 91 fa 05 	lds	r25, 0x05FA
    239a:	80 91 ff 06 	lds	r24, 0x06FF
    239e:	89 0f       	add	r24, r25
    23a0:	80 93 fa 05 	sts	0x05FA, r24
    23a4:	80 91 fd 05 	lds	r24, 0x05FD
    23a8:	8f 5f       	subi	r24, 0xFF	; 255
    23aa:	80 93 fd 05 	sts	0x05FD, r24
    23ae:	80 91 fd 05 	lds	r24, 0x05FD
    23b2:	8f 3f       	cpi	r24, 0xFF	; 255
    23b4:	11 f4       	brne	.+4      	; 0x23ba <__stack+0x12bb>
/home/becker/async/wcet-benchmarks/benchmarks/PapaBench-0.2m/sw/airborne/autopilot_preprocessed/pp_main.c:377 (discriminator 1)
    23b6:	10 92 fd 05 	sts	0x05FD, r1
/home/becker/async/wcet-benchmarks/benchmarks/PapaBench-0.2m/sw/airborne/autopilot_preprocessed/pp_main.c:377 (discriminator 2)
    23ba:	80 91 fd 05 	lds	r24, 0x05FD
    23be:	88 2f       	mov	r24, r24
    23c0:	90 e0       	ldi	r25, 0x00	; 0
    23c2:	20 91 82 03 	lds	r18, 0x0382
    23c6:	80 50       	subi	r24, 0x00	; 0
    23c8:	9a 4f       	sbci	r25, 0xFA	; 250
    23ca:	fc 01       	movw	r30, r24
    23cc:	20 83       	st	Z, r18
    23ce:	82 e8       	ldi	r24, 0x82	; 130
    23d0:	93 e0       	ldi	r25, 0x03	; 3
    23d2:	fc 01       	movw	r30, r24
    23d4:	90 81       	ld	r25, Z
    23d6:	80 91 ff 06 	lds	r24, 0x06FF
    23da:	89 0f       	add	r24, r25
    23dc:	80 93 ff 06 	sts	0x06FF, r24
    23e0:	90 91 fa 05 	lds	r25, 0x05FA
    23e4:	80 91 ff 06 	lds	r24, 0x06FF
    23e8:	89 0f       	add	r24, r25
    23ea:	80 93 fa 05 	sts	0x05FA, r24
    23ee:	80 91 fd 05 	lds	r24, 0x05FD
    23f2:	8f 5f       	subi	r24, 0xFF	; 255
    23f4:	80 93 fd 05 	sts	0x05FD, r24
    23f8:	80 91 fd 05 	lds	r24, 0x05FD
    23fc:	8f 3f       	cpi	r24, 0xFF	; 255
    23fe:	11 f4       	brne	.+4      	; 0x2404 <__stack+0x1305>
/home/becker/async/wcet-benchmarks/benchmarks/PapaBench-0.2m/sw/airborne/autopilot_preprocessed/pp_main.c:377 (discriminator 1)
    2400:	10 92 fd 05 	sts	0x05FD, r1
/home/becker/async/wcet-benchmarks/benchmarks/PapaBench-0.2m/sw/airborne/autopilot_preprocessed/pp_main.c:377 (discriminator 2)
    2404:	80 91 fd 05 	lds	r24, 0x05FD
    2408:	88 2f       	mov	r24, r24
    240a:	90 e0       	ldi	r25, 0x00	; 0
    240c:	20 91 83 03 	lds	r18, 0x0383
    2410:	80 50       	subi	r24, 0x00	; 0
    2412:	9a 4f       	sbci	r25, 0xFA	; 250
    2414:	fc 01       	movw	r30, r24
    2416:	20 83       	st	Z, r18
    2418:	83 e8       	ldi	r24, 0x83	; 131
    241a:	93 e0       	ldi	r25, 0x03	; 3
    241c:	fc 01       	movw	r30, r24
    241e:	90 81       	ld	r25, Z
    2420:	80 91 ff 06 	lds	r24, 0x06FF
    2424:	89 0f       	add	r24, r25
    2426:	80 93 ff 06 	sts	0x06FF, r24
    242a:	90 91 fa 05 	lds	r25, 0x05FA
    242e:	80 91 ff 06 	lds	r24, 0x06FF
    2432:	89 0f       	add	r24, r25
    2434:	80 93 fa 05 	sts	0x05FA, r24
    2438:	80 91 fd 05 	lds	r24, 0x05FD
    243c:	8f 5f       	subi	r24, 0xFF	; 255
    243e:	80 93 fd 05 	sts	0x05FD, r24
    2442:	80 91 fd 05 	lds	r24, 0x05FD
    2446:	8f 3f       	cpi	r24, 0xFF	; 255
    2448:	11 f4       	brne	.+4      	; 0x244e <__stack+0x134f>
/home/becker/async/wcet-benchmarks/benchmarks/PapaBench-0.2m/sw/airborne/autopilot_preprocessed/pp_main.c:377 (discriminator 1)
    244a:	10 92 fd 05 	sts	0x05FD, r1
/home/becker/async/wcet-benchmarks/benchmarks/PapaBench-0.2m/sw/airborne/autopilot_preprocessed/pp_main.c:377 (discriminator 2)
    244e:	80 91 fd 05 	lds	r24, 0x05FD
    2452:	88 2f       	mov	r24, r24
    2454:	90 e0       	ldi	r25, 0x00	; 0
    2456:	24 e8       	ldi	r18, 0x84	; 132
    2458:	33 e0       	ldi	r19, 0x03	; 3
    245a:	f9 01       	movw	r30, r18
    245c:	20 81       	ld	r18, Z
    245e:	80 50       	subi	r24, 0x00	; 0
    2460:	9a 4f       	sbci	r25, 0xFA	; 250
    2462:	fc 01       	movw	r30, r24
    2464:	20 83       	st	Z, r18
    2466:	84 e8       	ldi	r24, 0x84	; 132
    2468:	93 e0       	ldi	r25, 0x03	; 3
    246a:	fc 01       	movw	r30, r24
    246c:	90 81       	ld	r25, Z
    246e:	80 91 ff 06 	lds	r24, 0x06FF
    2472:	89 0f       	add	r24, r25
    2474:	80 93 ff 06 	sts	0x06FF, r24
    2478:	90 91 fa 05 	lds	r25, 0x05FA
    247c:	80 91 ff 06 	lds	r24, 0x06FF
    2480:	89 0f       	add	r24, r25
    2482:	80 93 fa 05 	sts	0x05FA, r24
    2486:	80 91 fd 05 	lds	r24, 0x05FD
    248a:	8f 5f       	subi	r24, 0xFF	; 255
    248c:	80 93 fd 05 	sts	0x05FD, r24
    2490:	80 91 fd 05 	lds	r24, 0x05FD
    2494:	8f 3f       	cpi	r24, 0xFF	; 255
    2496:	11 f4       	brne	.+4      	; 0x249c <__stack+0x139d>
/home/becker/async/wcet-benchmarks/benchmarks/PapaBench-0.2m/sw/airborne/autopilot_preprocessed/pp_main.c:377 (discriminator 1)
    2498:	10 92 fd 05 	sts	0x05FD, r1
/home/becker/async/wcet-benchmarks/benchmarks/PapaBench-0.2m/sw/airborne/autopilot_preprocessed/pp_main.c:377 (discriminator 2)
    249c:	80 91 fd 05 	lds	r24, 0x05FD
    24a0:	88 2f       	mov	r24, r24
    24a2:	90 e0       	ldi	r25, 0x00	; 0
    24a4:	20 91 85 03 	lds	r18, 0x0385
    24a8:	80 50       	subi	r24, 0x00	; 0
    24aa:	9a 4f       	sbci	r25, 0xFA	; 250
    24ac:	fc 01       	movw	r30, r24
    24ae:	20 83       	st	Z, r18
    24b0:	85 e8       	ldi	r24, 0x85	; 133
    24b2:	93 e0       	ldi	r25, 0x03	; 3
    24b4:	fc 01       	movw	r30, r24
    24b6:	90 81       	ld	r25, Z
    24b8:	80 91 ff 06 	lds	r24, 0x06FF
    24bc:	89 0f       	add	r24, r25
    24be:	80 93 ff 06 	sts	0x06FF, r24
    24c2:	90 91 fa 05 	lds	r25, 0x05FA
    24c6:	80 91 ff 06 	lds	r24, 0x06FF
    24ca:	89 0f       	add	r24, r25
    24cc:	80 93 fa 05 	sts	0x05FA, r24
    24d0:	80 91 fd 05 	lds	r24, 0x05FD
    24d4:	8f 5f       	subi	r24, 0xFF	; 255
    24d6:	80 93 fd 05 	sts	0x05FD, r24
    24da:	80 91 fd 05 	lds	r24, 0x05FD
    24de:	8f 3f       	cpi	r24, 0xFF	; 255
    24e0:	11 f4       	brne	.+4      	; 0x24e6 <__stack+0x13e7>
/home/becker/async/wcet-benchmarks/benchmarks/PapaBench-0.2m/sw/airborne/autopilot_preprocessed/pp_main.c:377 (discriminator 1)
    24e2:	10 92 fd 05 	sts	0x05FD, r1
/home/becker/async/wcet-benchmarks/benchmarks/PapaBench-0.2m/sw/airborne/autopilot_preprocessed/pp_main.c:377 (discriminator 2)
    24e6:	80 91 fd 05 	lds	r24, 0x05FD
    24ea:	88 2f       	mov	r24, r24
    24ec:	90 e0       	ldi	r25, 0x00	; 0
    24ee:	20 91 86 03 	lds	r18, 0x0386
    24f2:	80 50       	subi	r24, 0x00	; 0
    24f4:	9a 4f       	sbci	r25, 0xFA	; 250
    24f6:	fc 01       	movw	r30, r24
    24f8:	20 83       	st	Z, r18
    24fa:	86 e8       	ldi	r24, 0x86	; 134
    24fc:	93 e0       	ldi	r25, 0x03	; 3
    24fe:	fc 01       	movw	r30, r24
    2500:	90 81       	ld	r25, Z
    2502:	80 91 ff 06 	lds	r24, 0x06FF
    2506:	89 0f       	add	r24, r25
    2508:	80 93 ff 06 	sts	0x06FF, r24
    250c:	90 91 fa 05 	lds	r25, 0x05FA
    2510:	80 91 ff 06 	lds	r24, 0x06FF
    2514:	89 0f       	add	r24, r25
    2516:	80 93 fa 05 	sts	0x05FA, r24
    251a:	80 91 fd 05 	lds	r24, 0x05FD
    251e:	8f 5f       	subi	r24, 0xFF	; 255
    2520:	80 93 fd 05 	sts	0x05FD, r24
    2524:	80 91 fd 05 	lds	r24, 0x05FD
    2528:	8f 3f       	cpi	r24, 0xFF	; 255
    252a:	11 f4       	brne	.+4      	; 0x2530 <__stack+0x1431>
/home/becker/async/wcet-benchmarks/benchmarks/PapaBench-0.2m/sw/airborne/autopilot_preprocessed/pp_main.c:377 (discriminator 1)
    252c:	10 92 fd 05 	sts	0x05FD, r1
/home/becker/async/wcet-benchmarks/benchmarks/PapaBench-0.2m/sw/airborne/autopilot_preprocessed/pp_main.c:377 (discriminator 2)
    2530:	80 91 fd 05 	lds	r24, 0x05FD
    2534:	88 2f       	mov	r24, r24
    2536:	90 e0       	ldi	r25, 0x00	; 0
    2538:	20 91 87 03 	lds	r18, 0x0387
    253c:	80 50       	subi	r24, 0x00	; 0
    253e:	9a 4f       	sbci	r25, 0xFA	; 250
    2540:	fc 01       	movw	r30, r24
    2542:	20 83       	st	Z, r18
    2544:	87 e8       	ldi	r24, 0x87	; 135
    2546:	93 e0       	ldi	r25, 0x03	; 3
    2548:	fc 01       	movw	r30, r24
    254a:	90 81       	ld	r25, Z
    254c:	80 91 ff 06 	lds	r24, 0x06FF
    2550:	89 0f       	add	r24, r25
    2552:	80 93 ff 06 	sts	0x06FF, r24
    2556:	90 91 fa 05 	lds	r25, 0x05FA
    255a:	80 91 ff 06 	lds	r24, 0x06FF
    255e:	89 0f       	add	r24, r25
    2560:	80 93 fa 05 	sts	0x05FA, r24
    2564:	80 91 fd 05 	lds	r24, 0x05FD
    2568:	8f 5f       	subi	r24, 0xFF	; 255
    256a:	80 93 fd 05 	sts	0x05FD, r24
    256e:	80 91 fd 05 	lds	r24, 0x05FD
    2572:	8f 3f       	cpi	r24, 0xFF	; 255
    2574:	11 f4       	brne	.+4      	; 0x257a <__stack+0x147b>
/home/becker/async/wcet-benchmarks/benchmarks/PapaBench-0.2m/sw/airborne/autopilot_preprocessed/pp_main.c:377 (discriminator 1)
    2576:	10 92 fd 05 	sts	0x05FD, r1
/home/becker/async/wcet-benchmarks/benchmarks/PapaBench-0.2m/sw/airborne/autopilot_preprocessed/pp_main.c:377 (discriminator 2)
    257a:	80 91 fd 05 	lds	r24, 0x05FD
    257e:	88 2f       	mov	r24, r24
    2580:	90 e0       	ldi	r25, 0x00	; 0
    2582:	26 e7       	ldi	r18, 0x76	; 118
    2584:	37 e0       	ldi	r19, 0x07	; 7
    2586:	f9 01       	movw	r30, r18
    2588:	20 81       	ld	r18, Z
    258a:	80 50       	subi	r24, 0x00	; 0
    258c:	9a 4f       	sbci	r25, 0xFA	; 250
    258e:	fc 01       	movw	r30, r24
    2590:	20 83       	st	Z, r18
    2592:	86 e7       	ldi	r24, 0x76	; 118
    2594:	97 e0       	ldi	r25, 0x07	; 7
    2596:	fc 01       	movw	r30, r24
    2598:	90 81       	ld	r25, Z
    259a:	80 91 ff 06 	lds	r24, 0x06FF
    259e:	89 0f       	add	r24, r25
    25a0:	80 93 ff 06 	sts	0x06FF, r24
    25a4:	90 91 fa 05 	lds	r25, 0x05FA
    25a8:	80 91 ff 06 	lds	r24, 0x06FF
    25ac:	89 0f       	add	r24, r25
    25ae:	80 93 fa 05 	sts	0x05FA, r24
    25b2:	80 91 fd 05 	lds	r24, 0x05FD
    25b6:	8f 5f       	subi	r24, 0xFF	; 255
    25b8:	80 93 fd 05 	sts	0x05FD, r24
    25bc:	80 91 fd 05 	lds	r24, 0x05FD
    25c0:	8f 3f       	cpi	r24, 0xFF	; 255
    25c2:	11 f4       	brne	.+4      	; 0x25c8 <__stack+0x14c9>
/home/becker/async/wcet-benchmarks/benchmarks/PapaBench-0.2m/sw/airborne/autopilot_preprocessed/pp_main.c:377 (discriminator 1)
    25c4:	10 92 fd 05 	sts	0x05FD, r1
/home/becker/async/wcet-benchmarks/benchmarks/PapaBench-0.2m/sw/airborne/autopilot_preprocessed/pp_main.c:377 (discriminator 2)
    25c8:	80 91 fd 05 	lds	r24, 0x05FD
    25cc:	88 2f       	mov	r24, r24
    25ce:	90 e0       	ldi	r25, 0x00	; 0
    25d0:	20 91 77 07 	lds	r18, 0x0777
    25d4:	80 50       	subi	r24, 0x00	; 0
    25d6:	9a 4f       	sbci	r25, 0xFA	; 250
    25d8:	fc 01       	movw	r30, r24
    25da:	20 83       	st	Z, r18
    25dc:	87 e7       	ldi	r24, 0x77	; 119
    25de:	97 e0       	ldi	r25, 0x07	; 7
    25e0:	fc 01       	movw	r30, r24
    25e2:	90 81       	ld	r25, Z
    25e4:	80 91 ff 06 	lds	r24, 0x06FF
    25e8:	89 0f       	add	r24, r25
    25ea:	80 93 ff 06 	sts	0x06FF, r24
    25ee:	90 91 fa 05 	lds	r25, 0x05FA
    25f2:	80 91 ff 06 	lds	r24, 0x06FF
    25f6:	89 0f       	add	r24, r25
    25f8:	80 93 fa 05 	sts	0x05FA, r24
    25fc:	80 91 fd 05 	lds	r24, 0x05FD
    2600:	8f 5f       	subi	r24, 0xFF	; 255
    2602:	80 93 fd 05 	sts	0x05FD, r24
    2606:	80 91 fd 05 	lds	r24, 0x05FD
    260a:	8f 3f       	cpi	r24, 0xFF	; 255
    260c:	11 f4       	brne	.+4      	; 0x2612 <__stack+0x1513>
/home/becker/async/wcet-benchmarks/benchmarks/PapaBench-0.2m/sw/airborne/autopilot_preprocessed/pp_main.c:377 (discriminator 1)
    260e:	10 92 fd 05 	sts	0x05FD, r1
/home/becker/async/wcet-benchmarks/benchmarks/PapaBench-0.2m/sw/airborne/autopilot_preprocessed/pp_main.c:377 (discriminator 2)
    2612:	80 91 fd 05 	lds	r24, 0x05FD
    2616:	88 2f       	mov	r24, r24
    2618:	90 e0       	ldi	r25, 0x00	; 0
    261a:	20 91 78 07 	lds	r18, 0x0778
    261e:	80 50       	subi	r24, 0x00	; 0
    2620:	9a 4f       	sbci	r25, 0xFA	; 250
    2622:	fc 01       	movw	r30, r24
    2624:	20 83       	st	Z, r18
    2626:	88 e7       	ldi	r24, 0x78	; 120
    2628:	97 e0       	ldi	r25, 0x07	; 7
    262a:	fc 01       	movw	r30, r24
    262c:	90 81       	ld	r25, Z
    262e:	80 91 ff 06 	lds	r24, 0x06FF
    2632:	89 0f       	add	r24, r25
    2634:	80 93 ff 06 	sts	0x06FF, r24
    2638:	90 91 fa 05 	lds	r25, 0x05FA
    263c:	80 91 ff 06 	lds	r24, 0x06FF
    2640:	89 0f       	add	r24, r25
    2642:	80 93 fa 05 	sts	0x05FA, r24
    2646:	80 91 fd 05 	lds	r24, 0x05FD
    264a:	8f 5f       	subi	r24, 0xFF	; 255
    264c:	80 93 fd 05 	sts	0x05FD, r24
    2650:	80 91 fd 05 	lds	r24, 0x05FD
    2654:	8f 3f       	cpi	r24, 0xFF	; 255
    2656:	11 f4       	brne	.+4      	; 0x265c <__stack+0x155d>
/home/becker/async/wcet-benchmarks/benchmarks/PapaBench-0.2m/sw/airborne/autopilot_preprocessed/pp_main.c:377 (discriminator 1)
    2658:	10 92 fd 05 	sts	0x05FD, r1
/home/becker/async/wcet-benchmarks/benchmarks/PapaBench-0.2m/sw/airborne/autopilot_preprocessed/pp_main.c:377 (discriminator 2)
    265c:	80 91 fd 05 	lds	r24, 0x05FD
    2660:	88 2f       	mov	r24, r24
    2662:	90 e0       	ldi	r25, 0x00	; 0
    2664:	20 91 79 07 	lds	r18, 0x0779
    2668:	80 50       	subi	r24, 0x00	; 0
    266a:	9a 4f       	sbci	r25, 0xFA	; 250
    266c:	fc 01       	movw	r30, r24
    266e:	20 83       	st	Z, r18
    2670:	89 e7       	ldi	r24, 0x79	; 121
    2672:	97 e0       	ldi	r25, 0x07	; 7
    2674:	fc 01       	movw	r30, r24
    2676:	90 81       	ld	r25, Z
    2678:	80 91 ff 06 	lds	r24, 0x06FF
    267c:	89 0f       	add	r24, r25
    267e:	80 93 ff 06 	sts	0x06FF, r24
    2682:	90 91 fa 05 	lds	r25, 0x05FA
    2686:	80 91 ff 06 	lds	r24, 0x06FF
    268a:	89 0f       	add	r24, r25
    268c:	80 93 fa 05 	sts	0x05FA, r24
    2690:	80 91 fd 05 	lds	r24, 0x05FD
    2694:	8f 5f       	subi	r24, 0xFF	; 255
    2696:	80 93 fd 05 	sts	0x05FD, r24
    269a:	80 91 fd 05 	lds	r24, 0x05FD
    269e:	8f 3f       	cpi	r24, 0xFF	; 255
    26a0:	11 f4       	brne	.+4      	; 0x26a6 <__stack+0x15a7>
/home/becker/async/wcet-benchmarks/benchmarks/PapaBench-0.2m/sw/airborne/autopilot_preprocessed/pp_main.c:377 (discriminator 1)
    26a2:	10 92 fd 05 	sts	0x05FD, r1
/home/becker/async/wcet-benchmarks/benchmarks/PapaBench-0.2m/sw/airborne/autopilot_preprocessed/pp_main.c:377 (discriminator 2)
    26a6:	80 91 fd 05 	lds	r24, 0x05FD
    26aa:	88 2f       	mov	r24, r24
    26ac:	90 e0       	ldi	r25, 0x00	; 0
    26ae:	2e e7       	ldi	r18, 0x7E	; 126
    26b0:	37 e0       	ldi	r19, 0x07	; 7
    26b2:	f9 01       	movw	r30, r18
    26b4:	20 81       	ld	r18, Z
    26b6:	80 50       	subi	r24, 0x00	; 0
    26b8:	9a 4f       	sbci	r25, 0xFA	; 250
    26ba:	fc 01       	movw	r30, r24
    26bc:	20 83       	st	Z, r18
    26be:	8e e7       	ldi	r24, 0x7E	; 126
    26c0:	97 e0       	ldi	r25, 0x07	; 7
    26c2:	fc 01       	movw	r30, r24
    26c4:	90 81       	ld	r25, Z
    26c6:	80 91 ff 06 	lds	r24, 0x06FF
    26ca:	89 0f       	add	r24, r25
    26cc:	80 93 ff 06 	sts	0x06FF, r24
    26d0:	90 91 fa 05 	lds	r25, 0x05FA
    26d4:	80 91 ff 06 	lds	r24, 0x06FF
    26d8:	89 0f       	add	r24, r25
    26da:	80 93 fa 05 	sts	0x05FA, r24
    26de:	80 91 fd 05 	lds	r24, 0x05FD
    26e2:	8f 5f       	subi	r24, 0xFF	; 255
    26e4:	80 93 fd 05 	sts	0x05FD, r24
    26e8:	80 91 fd 05 	lds	r24, 0x05FD
    26ec:	8f 3f       	cpi	r24, 0xFF	; 255
    26ee:	11 f4       	brne	.+4      	; 0x26f4 <__stack+0x15f5>
/home/becker/async/wcet-benchmarks/benchmarks/PapaBench-0.2m/sw/airborne/autopilot_preprocessed/pp_main.c:377 (discriminator 1)
    26f0:	10 92 fd 05 	sts	0x05FD, r1
/home/becker/async/wcet-benchmarks/benchmarks/PapaBench-0.2m/sw/airborne/autopilot_preprocessed/pp_main.c:377 (discriminator 2)
    26f4:	80 91 fd 05 	lds	r24, 0x05FD
    26f8:	88 2f       	mov	r24, r24
    26fa:	90 e0       	ldi	r25, 0x00	; 0
    26fc:	20 91 7f 07 	lds	r18, 0x077F
    2700:	80 50       	subi	r24, 0x00	; 0
    2702:	9a 4f       	sbci	r25, 0xFA	; 250
    2704:	fc 01       	movw	r30, r24
    2706:	20 83       	st	Z, r18
    2708:	8f e7       	ldi	r24, 0x7F	; 127
    270a:	97 e0       	ldi	r25, 0x07	; 7
    270c:	fc 01       	movw	r30, r24
    270e:	90 81       	ld	r25, Z
    2710:	80 91 ff 06 	lds	r24, 0x06FF
    2714:	89 0f       	add	r24, r25
    2716:	80 93 ff 06 	sts	0x06FF, r24
    271a:	90 91 fa 05 	lds	r25, 0x05FA
    271e:	80 91 ff 06 	lds	r24, 0x06FF
    2722:	89 0f       	add	r24, r25
    2724:	80 93 fa 05 	sts	0x05FA, r24
    2728:	80 91 fd 05 	lds	r24, 0x05FD
    272c:	8f 5f       	subi	r24, 0xFF	; 255
    272e:	80 93 fd 05 	sts	0x05FD, r24
    2732:	80 91 fd 05 	lds	r24, 0x05FD
    2736:	8f 3f       	cpi	r24, 0xFF	; 255
    2738:	11 f4       	brne	.+4      	; 0x273e <__stack+0x163f>
/home/becker/async/wcet-benchmarks/benchmarks/PapaBench-0.2m/sw/airborne/autopilot_preprocessed/pp_main.c:377 (discriminator 1)
    273a:	10 92 fd 05 	sts	0x05FD, r1
/home/becker/async/wcet-benchmarks/benchmarks/PapaBench-0.2m/sw/airborne/autopilot_preprocessed/pp_main.c:377 (discriminator 2)
    273e:	80 91 fd 05 	lds	r24, 0x05FD
    2742:	88 2f       	mov	r24, r24
    2744:	90 e0       	ldi	r25, 0x00	; 0
    2746:	20 91 80 07 	lds	r18, 0x0780
    274a:	80 50       	subi	r24, 0x00	; 0
    274c:	9a 4f       	sbci	r25, 0xFA	; 250
    274e:	fc 01       	movw	r30, r24
    2750:	20 83       	st	Z, r18
    2752:	80 e8       	ldi	r24, 0x80	; 128
    2754:	97 e0       	ldi	r25, 0x07	; 7
    2756:	fc 01       	movw	r30, r24
    2758:	90 81       	ld	r25, Z
    275a:	80 91 ff 06 	lds	r24, 0x06FF
    275e:	89 0f       	add	r24, r25
    2760:	80 93 ff 06 	sts	0x06FF, r24
    2764:	90 91 fa 05 	lds	r25, 0x05FA
    2768:	80 91 ff 06 	lds	r24, 0x06FF
    276c:	89 0f       	add	r24, r25
    276e:	80 93 fa 05 	sts	0x05FA, r24
    2772:	80 91 fd 05 	lds	r24, 0x05FD
    2776:	8f 5f       	subi	r24, 0xFF	; 255
    2778:	80 93 fd 05 	sts	0x05FD, r24
    277c:	80 91 fd 05 	lds	r24, 0x05FD
    2780:	8f 3f       	cpi	r24, 0xFF	; 255
    2782:	11 f4       	brne	.+4      	; 0x2788 <__stack+0x1689>
/home/becker/async/wcet-benchmarks/benchmarks/PapaBench-0.2m/sw/airborne/autopilot_preprocessed/pp_main.c:377 (discriminator 1)
    2784:	10 92 fd 05 	sts	0x05FD, r1
/home/becker/async/wcet-benchmarks/benchmarks/PapaBench-0.2m/sw/airborne/autopilot_preprocessed/pp_main.c:377 (discriminator 2)
    2788:	80 91 fd 05 	lds	r24, 0x05FD
    278c:	88 2f       	mov	r24, r24
    278e:	90 e0       	ldi	r25, 0x00	; 0
    2790:	20 91 81 07 	lds	r18, 0x0781
    2794:	80 50       	subi	r24, 0x00	; 0
    2796:	9a 4f       	sbci	r25, 0xFA	; 250
    2798:	fc 01       	movw	r30, r24
    279a:	20 83       	st	Z, r18
    279c:	81 e8       	ldi	r24, 0x81	; 129
    279e:	97 e0       	ldi	r25, 0x07	; 7
    27a0:	fc 01       	movw	r30, r24
    27a2:	90 81       	ld	r25, Z
    27a4:	80 91 ff 06 	lds	r24, 0x06FF
    27a8:	89 0f       	add	r24, r25
    27aa:	80 93 ff 06 	sts	0x06FF, r24
    27ae:	90 91 fa 05 	lds	r25, 0x05FA
    27b2:	80 91 ff 06 	lds	r24, 0x06FF
    27b6:	89 0f       	add	r24, r25
    27b8:	80 93 fa 05 	sts	0x05FA, r24
    27bc:	80 91 fd 05 	lds	r24, 0x05FD
    27c0:	8f 5f       	subi	r24, 0xFF	; 255
    27c2:	80 93 fd 05 	sts	0x05FD, r24
    27c6:	80 91 fd 05 	lds	r24, 0x05FD
    27ca:	8f 3f       	cpi	r24, 0xFF	; 255
    27cc:	11 f4       	brne	.+4      	; 0x27d2 <__stack+0x16d3>
/home/becker/async/wcet-benchmarks/benchmarks/PapaBench-0.2m/sw/airborne/autopilot_preprocessed/pp_main.c:377 (discriminator 1)
    27ce:	10 92 fd 05 	sts	0x05FD, r1
/home/becker/async/wcet-benchmarks/benchmarks/PapaBench-0.2m/sw/airborne/autopilot_preprocessed/pp_main.c:377 (discriminator 2)
    27d2:	80 91 fd 05 	lds	r24, 0x05FD
    27d6:	88 2f       	mov	r24, r24
    27d8:	90 e0       	ldi	r25, 0x00	; 0
    27da:	25 e3       	ldi	r18, 0x35	; 53
    27dc:	31 e0       	ldi	r19, 0x01	; 1
    27de:	f9 01       	movw	r30, r18
    27e0:	20 81       	ld	r18, Z
    27e2:	80 50       	subi	r24, 0x00	; 0
    27e4:	9a 4f       	sbci	r25, 0xFA	; 250
    27e6:	fc 01       	movw	r30, r24
    27e8:	20 83       	st	Z, r18
    27ea:	85 e3       	ldi	r24, 0x35	; 53
    27ec:	91 e0       	ldi	r25, 0x01	; 1
    27ee:	fc 01       	movw	r30, r24
    27f0:	90 81       	ld	r25, Z
    27f2:	80 91 ff 06 	lds	r24, 0x06FF
    27f6:	89 0f       	add	r24, r25
    27f8:	80 93 ff 06 	sts	0x06FF, r24
    27fc:	90 91 fa 05 	lds	r25, 0x05FA
    2800:	80 91 ff 06 	lds	r24, 0x06FF
    2804:	89 0f       	add	r24, r25
    2806:	80 93 fa 05 	sts	0x05FA, r24
    280a:	80 91 fd 05 	lds	r24, 0x05FD
    280e:	8f 5f       	subi	r24, 0xFF	; 255
    2810:	80 93 fd 05 	sts	0x05FD, r24
    2814:	80 91 fd 05 	lds	r24, 0x05FD
    2818:	8f 3f       	cpi	r24, 0xFF	; 255
    281a:	11 f4       	brne	.+4      	; 0x2820 <__stack+0x1721>
/home/becker/async/wcet-benchmarks/benchmarks/PapaBench-0.2m/sw/airborne/autopilot_preprocessed/pp_main.c:377 (discriminator 1)
    281c:	10 92 fd 05 	sts	0x05FD, r1
/home/becker/async/wcet-benchmarks/benchmarks/PapaBench-0.2m/sw/airborne/autopilot_preprocessed/pp_main.c:377 (discriminator 2)
    2820:	80 91 fd 05 	lds	r24, 0x05FD
    2824:	88 2f       	mov	r24, r24
    2826:	90 e0       	ldi	r25, 0x00	; 0
    2828:	20 91 36 01 	lds	r18, 0x0136
    282c:	80 50       	subi	r24, 0x00	; 0
    282e:	9a 4f       	sbci	r25, 0xFA	; 250
    2830:	fc 01       	movw	r30, r24
    2832:	20 83       	st	Z, r18
    2834:	86 e3       	ldi	r24, 0x36	; 54
    2836:	91 e0       	ldi	r25, 0x01	; 1
    2838:	fc 01       	movw	r30, r24
    283a:	90 81       	ld	r25, Z
    283c:	80 91 ff 06 	lds	r24, 0x06FF
    2840:	89 0f       	add	r24, r25
    2842:	80 93 ff 06 	sts	0x06FF, r24
    2846:	90 91 fa 05 	lds	r25, 0x05FA
    284a:	80 91 ff 06 	lds	r24, 0x06FF
    284e:	89 0f       	add	r24, r25
    2850:	80 93 fa 05 	sts	0x05FA, r24
    2854:	80 91 fd 05 	lds	r24, 0x05FD
    2858:	8f 5f       	subi	r24, 0xFF	; 255
    285a:	80 93 fd 05 	sts	0x05FD, r24
    285e:	80 91 fd 05 	lds	r24, 0x05FD
    2862:	8f 3f       	cpi	r24, 0xFF	; 255
    2864:	11 f4       	brne	.+4      	; 0x286a <__stack+0x176b>
/home/becker/async/wcet-benchmarks/benchmarks/PapaBench-0.2m/sw/airborne/autopilot_preprocessed/pp_main.c:377 (discriminator 1)
    2866:	10 92 fd 05 	sts	0x05FD, r1
/home/becker/async/wcet-benchmarks/benchmarks/PapaBench-0.2m/sw/airborne/autopilot_preprocessed/pp_main.c:377 (discriminator 2)
    286a:	80 91 fd 05 	lds	r24, 0x05FD
    286e:	88 2f       	mov	r24, r24
    2870:	90 e0       	ldi	r25, 0x00	; 0
    2872:	20 91 37 01 	lds	r18, 0x0137
    2876:	80 50       	subi	r24, 0x00	; 0
    2878:	9a 4f       	sbci	r25, 0xFA	; 250
    287a:	fc 01       	movw	r30, r24
    287c:	20 83       	st	Z, r18
    287e:	87 e3       	ldi	r24, 0x37	; 55
    2880:	91 e0       	ldi	r25, 0x01	; 1
    2882:	fc 01       	movw	r30, r24
    2884:	90 81       	ld	r25, Z
    2886:	80 91 ff 06 	lds	r24, 0x06FF
    288a:	89 0f       	add	r24, r25
    288c:	80 93 ff 06 	sts	0x06FF, r24
    2890:	90 91 fa 05 	lds	r25, 0x05FA
    2894:	80 91 ff 06 	lds	r24, 0x06FF
    2898:	89 0f       	add	r24, r25
    289a:	80 93 fa 05 	sts	0x05FA, r24
    289e:	80 91 fd 05 	lds	r24, 0x05FD
    28a2:	8f 5f       	subi	r24, 0xFF	; 255
    28a4:	80 93 fd 05 	sts	0x05FD, r24
    28a8:	80 91 fd 05 	lds	r24, 0x05FD
    28ac:	8f 3f       	cpi	r24, 0xFF	; 255
    28ae:	11 f4       	brne	.+4      	; 0x28b4 <__stack+0x17b5>
/home/becker/async/wcet-benchmarks/benchmarks/PapaBench-0.2m/sw/airborne/autopilot_preprocessed/pp_main.c:377 (discriminator 1)
    28b0:	10 92 fd 05 	sts	0x05FD, r1
/home/becker/async/wcet-benchmarks/benchmarks/PapaBench-0.2m/sw/airborne/autopilot_preprocessed/pp_main.c:377 (discriminator 2)
    28b4:	80 91 fd 05 	lds	r24, 0x05FD
    28b8:	88 2f       	mov	r24, r24
    28ba:	90 e0       	ldi	r25, 0x00	; 0
    28bc:	20 91 38 01 	lds	r18, 0x0138
    28c0:	80 50       	subi	r24, 0x00	; 0
    28c2:	9a 4f       	sbci	r25, 0xFA	; 250
    28c4:	fc 01       	movw	r30, r24
    28c6:	20 83       	st	Z, r18
    28c8:	88 e3       	ldi	r24, 0x38	; 56
    28ca:	91 e0       	ldi	r25, 0x01	; 1
    28cc:	fc 01       	movw	r30, r24
    28ce:	90 81       	ld	r25, Z
    28d0:	80 91 ff 06 	lds	r24, 0x06FF
    28d4:	89 0f       	add	r24, r25
    28d6:	80 93 ff 06 	sts	0x06FF, r24
    28da:	90 91 fa 05 	lds	r25, 0x05FA
    28de:	80 91 ff 06 	lds	r24, 0x06FF
    28e2:	89 0f       	add	r24, r25
    28e4:	80 93 fa 05 	sts	0x05FA, r24
    28e8:	80 91 fd 05 	lds	r24, 0x05FD
    28ec:	8f 5f       	subi	r24, 0xFF	; 255
    28ee:	80 93 fd 05 	sts	0x05FD, r24
    28f2:	80 91 fd 05 	lds	r24, 0x05FD
    28f6:	8f 3f       	cpi	r24, 0xFF	; 255
    28f8:	11 f4       	brne	.+4      	; 0x28fe <__stack+0x17ff>
/home/becker/async/wcet-benchmarks/benchmarks/PapaBench-0.2m/sw/airborne/autopilot_preprocessed/pp_main.c:377 (discriminator 1)
    28fa:	10 92 fd 05 	sts	0x05FD, r1
/home/becker/async/wcet-benchmarks/benchmarks/PapaBench-0.2m/sw/airborne/autopilot_preprocessed/pp_main.c:377 (discriminator 2)
    28fe:	80 91 fd 05 	lds	r24, 0x05FD
    2902:	88 2f       	mov	r24, r24
    2904:	90 e0       	ldi	r25, 0x00	; 0
    2906:	20 91 ff 06 	lds	r18, 0x06FF
    290a:	80 50       	subi	r24, 0x00	; 0
    290c:	9a 4f       	sbci	r25, 0xFA	; 250
    290e:	fc 01       	movw	r30, r24
    2910:	20 83       	st	Z, r18
    2912:	80 91 fd 05 	lds	r24, 0x05FD
    2916:	8f 5f       	subi	r24, 0xFF	; 255
    2918:	80 93 fd 05 	sts	0x05FD, r24
    291c:	80 91 fd 05 	lds	r24, 0x05FD
    2920:	8f 3f       	cpi	r24, 0xFF	; 255
    2922:	11 f4       	brne	.+4      	; 0x2928 <__stack+0x1829>
/home/becker/async/wcet-benchmarks/benchmarks/PapaBench-0.2m/sw/airborne/autopilot_preprocessed/pp_main.c:377 (discriminator 1)
    2924:	10 92 fd 05 	sts	0x05FD, r1
/home/becker/async/wcet-benchmarks/benchmarks/PapaBench-0.2m/sw/airborne/autopilot_preprocessed/pp_main.c:377 (discriminator 2)
    2928:	80 91 fd 05 	lds	r24, 0x05FD
    292c:	88 2f       	mov	r24, r24
    292e:	90 e0       	ldi	r25, 0x00	; 0
    2930:	20 91 fa 05 	lds	r18, 0x05FA
    2934:	80 50       	subi	r24, 0x00	; 0
    2936:	9a 4f       	sbci	r25, 0xFA	; 250
    2938:	fc 01       	movw	r30, r24
    293a:	20 83       	st	Z, r18
    293c:	80 91 fd 05 	lds	r24, 0x05FD
    2940:	8f 5f       	subi	r24, 0xFF	; 255
    2942:	80 93 fd 05 	sts	0x05FD, r24
    2946:	80 91 fd 05 	lds	r24, 0x05FD
    294a:	8f 3f       	cpi	r24, 0xFF	; 255
    294c:	11 f4       	brne	.+4      	; 0x2952 <__stack+0x1853>
/home/becker/async/wcet-benchmarks/benchmarks/PapaBench-0.2m/sw/airborne/autopilot_preprocessed/pp_main.c:377 (discriminator 1)
    294e:	10 92 fd 05 	sts	0x05FD, r1
/home/becker/async/wcet-benchmarks/benchmarks/PapaBench-0.2m/sw/airborne/autopilot_preprocessed/pp_main.c:377 (discriminator 2)
    2952:	89 e5       	ldi	r24, 0x59	; 89
    2954:	90 e0       	ldi	r25, 0x00	; 0
    2956:	fc 01       	movw	r30, r24
    2958:	80 81       	ld	r24, Z
    295a:	88 2f       	mov	r24, r24
    295c:	90 e0       	ldi	r25, 0x00	; 0
    295e:	80 71       	andi	r24, 0x10	; 16
    2960:	99 27       	eor	r25, r25
    2962:	00 97       	sbiw	r24, 0x00	; 0
    2964:	79 f5       	brne	.+94     	; 0x29c4 <__stack+0x18c5>
/home/becker/async/wcet-benchmarks/benchmarks/PapaBench-0.2m/sw/airborne/autopilot_preprocessed/pp_main.c:377 (discriminator 1)
    2966:	80 91 fe 05 	lds	r24, 0x05FE
    296a:	88 2f       	mov	r24, r24
    296c:	90 e0       	ldi	r25, 0x00	; 0
    296e:	80 50       	subi	r24, 0x00	; 0
    2970:	9a 4f       	sbci	r25, 0xFA	; 250
    2972:	fc 01       	movw	r30, r24
    2974:	80 81       	ld	r24, Z
    2976:	80 93 fc 05 	sts	0x05FC, r24
    297a:	10 92 ff 05 	sts	0x05FF, r1
    297e:	80 91 fe 05 	lds	r24, 0x05FE
    2982:	8f 5f       	subi	r24, 0xFF	; 255
    2984:	80 93 fe 05 	sts	0x05FE, r24
    2988:	80 91 fe 05 	lds	r24, 0x05FE
    298c:	8f 3f       	cpi	r24, 0xFF	; 255
    298e:	11 f4       	brne	.+4      	; 0x2994 <__stack+0x1895>
    2990:	10 92 fe 05 	sts	0x05FE, r1
/home/becker/async/wcet-benchmarks/benchmarks/PapaBench-0.2m/sw/airborne/autopilot_preprocessed/pp_main.c:377 (discriminator 2)
    2994:	88 e5       	ldi	r24, 0x58	; 88
    2996:	90 e0       	ldi	r25, 0x00	; 0
    2998:	28 e5       	ldi	r18, 0x58	; 88
    299a:	30 e0       	ldi	r19, 0x00	; 0
    299c:	f9 01       	movw	r30, r18
    299e:	20 81       	ld	r18, Z
    29a0:	21 60       	ori	r18, 0x01	; 1
    29a2:	fc 01       	movw	r30, r24
    29a4:	20 83       	st	Z, r18
    29a6:	89 e5       	ldi	r24, 0x59	; 89
    29a8:	90 e0       	ldi	r25, 0x00	; 0
    29aa:	29 e5       	ldi	r18, 0x59	; 89
    29ac:	30 e0       	ldi	r19, 0x00	; 0
    29ae:	f9 01       	movw	r30, r18
    29b0:	20 81       	ld	r18, Z
    29b2:	20 61       	ori	r18, 0x10	; 16
    29b4:	fc 01       	movw	r30, r24
    29b6:	20 83       	st	Z, r18
    29b8:	05 c0       	rjmp	.+10     	; 0x29c4 <__stack+0x18c5>
    29ba:	80 91 fb 05 	lds	r24, 0x05FB
    29be:	8f 5f       	subi	r24, 0xFF	; 255
    29c0:	80 93 fb 05 	sts	0x05FB, r24
    29c4:	90 91 d4 01 	lds	r25, 0x01D4
    29c8:	8d ec       	ldi	r24, 0xCD	; 205
    29ca:	98 9f       	mul	r25, r24
    29cc:	81 2d       	mov	r24, r1
    29ce:	11 24       	eor	r1, r1
    29d0:	82 95       	swap	r24
    29d2:	8f 70       	andi	r24, 0x0F	; 15
    29d4:	88 0f       	add	r24, r24
    29d6:	88 0f       	add	r24, r24
    29d8:	28 2f       	mov	r18, r24
    29da:	22 0f       	add	r18, r18
    29dc:	22 0f       	add	r18, r18
    29de:	82 0f       	add	r24, r18
    29e0:	f9 2f       	mov	r31, r25
    29e2:	f8 1b       	sub	r31, r24
    29e4:	8f 2f       	mov	r24, r31
    29e6:	88 30       	cpi	r24, 0x08	; 8
    29e8:	09 f0       	breq	.+2      	; 0x29ec <__stack+0x18ed>
    29ea:	eb c1       	rjmp	.+982    	; 0x2dc2 <__stack+0x1cc3>
/home/becker/async/wcet-benchmarks/benchmarks/PapaBench-0.2m/sw/airborne/autopilot_preprocessed/pp_main.c:377 (discriminator 1)
    29ec:	90 91 fd 05 	lds	r25, 0x05FD
    29f0:	80 91 fe 05 	lds	r24, 0x05FE
    29f4:	98 17       	cp	r25, r24
    29f6:	a0 f0       	brcs	.+40     	; 0x2a20 <__stack+0x1921>
    29f8:	80 91 fe 05 	lds	r24, 0x05FE
    29fc:	28 2f       	mov	r18, r24
    29fe:	30 e0       	ldi	r19, 0x00	; 0
    2a00:	80 91 fd 05 	lds	r24, 0x05FD
    2a04:	88 2f       	mov	r24, r24
    2a06:	90 e0       	ldi	r25, 0x00	; 0
    2a08:	a9 01       	movw	r20, r18
    2a0a:	48 1b       	sub	r20, r24
    2a0c:	59 0b       	sbc	r21, r25
    2a0e:	ca 01       	movw	r24, r20
    2a10:	81 50       	subi	r24, 0x01	; 1
    2a12:	9f 4f       	sbci	r25, 0xFF	; 255
    2a14:	21 e0       	ldi	r18, 0x01	; 1
    2a16:	8d 30       	cpi	r24, 0x0D	; 13
    2a18:	91 05       	cpc	r25, r1
    2a1a:	9c f4       	brge	.+38     	; 0x2a42 <__stack+0x1943>
    2a1c:	20 e0       	ldi	r18, 0x00	; 0
    2a1e:	11 c0       	rjmp	.+34     	; 0x2a42 <__stack+0x1943>
/home/becker/async/wcet-benchmarks/benchmarks/PapaBench-0.2m/sw/airborne/autopilot_preprocessed/pp_main.c:377 (discriminator 2)
    2a20:	80 91 fe 05 	lds	r24, 0x05FE
    2a24:	28 2f       	mov	r18, r24
    2a26:	30 e0       	ldi	r19, 0x00	; 0
    2a28:	80 91 fd 05 	lds	r24, 0x05FD
    2a2c:	88 2f       	mov	r24, r24
    2a2e:	90 e0       	ldi	r25, 0x00	; 0
    2a30:	f9 01       	movw	r30, r18
    2a32:	e8 1b       	sub	r30, r24
    2a34:	f9 0b       	sbc	r31, r25
    2a36:	cf 01       	movw	r24, r30
    2a38:	21 e0       	ldi	r18, 0x01	; 1
    2a3a:	8d 30       	cpi	r24, 0x0D	; 13
    2a3c:	91 05       	cpc	r25, r1
    2a3e:	0c f4       	brge	.+2      	; 0x2a42 <__stack+0x1943>
    2a40:	20 e0       	ldi	r18, 0x00	; 0
/home/becker/async/wcet-benchmarks/benchmarks/PapaBench-0.2m/sw/airborne/autopilot_preprocessed/pp_main.c:377 (discriminator 3)
    2a42:	22 23       	and	r18, r18
    2a44:	09 f4       	brne	.+2      	; 0x2a48 <__stack+0x1949>
    2a46:	b8 c1       	rjmp	.+880    	; 0x2db8 <__stack+0x1cb9>
/home/becker/async/wcet-benchmarks/benchmarks/PapaBench-0.2m/sw/airborne/autopilot_preprocessed/pp_main.c:377 (discriminator 1)
    2a48:	80 91 fd 05 	lds	r24, 0x05FD
    2a4c:	88 2f       	mov	r24, r24
    2a4e:	90 e0       	ldi	r25, 0x00	; 0
    2a50:	80 50       	subi	r24, 0x00	; 0
    2a52:	9a 4f       	sbci	r25, 0xFA	; 250
    2a54:	25 e0       	ldi	r18, 0x05	; 5
    2a56:	fc 01       	movw	r30, r24
    2a58:	20 83       	st	Z, r18
    2a5a:	80 91 fd 05 	lds	r24, 0x05FD
    2a5e:	8f 5f       	subi	r24, 0xFF	; 255
    2a60:	80 93 fd 05 	sts	0x05FD, r24
    2a64:	80 91 fd 05 	lds	r24, 0x05FD
    2a68:	8f 3f       	cpi	r24, 0xFF	; 255
    2a6a:	11 f4       	brne	.+4      	; 0x2a70 <__stack+0x1971>
    2a6c:	10 92 fd 05 	sts	0x05FD, r1
/home/becker/async/wcet-benchmarks/benchmarks/PapaBench-0.2m/sw/airborne/autopilot_preprocessed/pp_main.c:377 (discriminator 2)
    2a70:	80 91 fd 05 	lds	r24, 0x05FD
    2a74:	88 2f       	mov	r24, r24
    2a76:	90 e0       	ldi	r25, 0x00	; 0
    2a78:	80 50       	subi	r24, 0x00	; 0
    2a7a:	9a 4f       	sbci	r25, 0xFA	; 250
    2a7c:	2c e0       	ldi	r18, 0x0C	; 12
    2a7e:	fc 01       	movw	r30, r24
    2a80:	20 83       	st	Z, r18
    2a82:	80 91 fd 05 	lds	r24, 0x05FD
    2a86:	8f 5f       	subi	r24, 0xFF	; 255
    2a88:	80 93 fd 05 	sts	0x05FD, r24
    2a8c:	80 91 fd 05 	lds	r24, 0x05FD
    2a90:	8f 3f       	cpi	r24, 0xFF	; 255
    2a92:	11 f4       	brne	.+4      	; 0x2a98 <__stack+0x1999>
/home/becker/async/wcet-benchmarks/benchmarks/PapaBench-0.2m/sw/airborne/autopilot_preprocessed/pp_main.c:377 (discriminator 1)
    2a94:	10 92 fd 05 	sts	0x05FD, r1
/home/becker/async/wcet-benchmarks/benchmarks/PapaBench-0.2m/sw/airborne/autopilot_preprocessed/pp_main.c:377 (discriminator 2)
    2a98:	8c e0       	ldi	r24, 0x0C	; 12
    2a9a:	80 93 ff 06 	sts	0x06FF, r24
    2a9e:	8c e0       	ldi	r24, 0x0C	; 12
    2aa0:	80 93 fa 05 	sts	0x05FA, r24
    2aa4:	80 91 fd 05 	lds	r24, 0x05FD
    2aa8:	88 2f       	mov	r24, r24
    2aaa:	90 e0       	ldi	r25, 0x00	; 0
    2aac:	20 91 f9 05 	lds	r18, 0x05F9
    2ab0:	80 50       	subi	r24, 0x00	; 0
    2ab2:	9a 4f       	sbci	r25, 0xFA	; 250
    2ab4:	fc 01       	movw	r30, r24
    2ab6:	20 83       	st	Z, r18
    2ab8:	90 91 ff 06 	lds	r25, 0x06FF
    2abc:	80 91 f9 05 	lds	r24, 0x05F9
    2ac0:	89 0f       	add	r24, r25
    2ac2:	80 93 ff 06 	sts	0x06FF, r24
    2ac6:	90 91 fa 05 	lds	r25, 0x05FA
    2aca:	80 91 ff 06 	lds	r24, 0x06FF
    2ace:	89 0f       	add	r24, r25
    2ad0:	80 93 fa 05 	sts	0x05FA, r24
    2ad4:	80 91 fd 05 	lds	r24, 0x05FD
    2ad8:	8f 5f       	subi	r24, 0xFF	; 255
    2ada:	80 93 fd 05 	sts	0x05FD, r24
    2ade:	80 91 fd 05 	lds	r24, 0x05FD
    2ae2:	8f 3f       	cpi	r24, 0xFF	; 255
    2ae4:	11 f4       	brne	.+4      	; 0x2aea <__stack+0x19eb>
/home/becker/async/wcet-benchmarks/benchmarks/PapaBench-0.2m/sw/airborne/autopilot_preprocessed/pp_main.c:377 (discriminator 1)
    2ae6:	10 92 fd 05 	sts	0x05FD, r1
/home/becker/async/wcet-benchmarks/benchmarks/PapaBench-0.2m/sw/airborne/autopilot_preprocessed/pp_main.c:377 (discriminator 2)
    2aea:	80 91 fd 05 	lds	r24, 0x05FD
    2aee:	88 2f       	mov	r24, r24
    2af0:	90 e0       	ldi	r25, 0x00	; 0
    2af2:	2c e9       	ldi	r18, 0x9C	; 156
    2af4:	37 e0       	ldi	r19, 0x07	; 7
    2af6:	f9 01       	movw	r30, r18
    2af8:	20 81       	ld	r18, Z
    2afa:	80 50       	subi	r24, 0x00	; 0
    2afc:	9a 4f       	sbci	r25, 0xFA	; 250
    2afe:	fc 01       	movw	r30, r24
    2b00:	20 83       	st	Z, r18
    2b02:	8c e9       	ldi	r24, 0x9C	; 156
    2b04:	97 e0       	ldi	r25, 0x07	; 7
    2b06:	fc 01       	movw	r30, r24
    2b08:	90 81       	ld	r25, Z
    2b0a:	80 91 ff 06 	lds	r24, 0x06FF
    2b0e:	89 0f       	add	r24, r25
    2b10:	80 93 ff 06 	sts	0x06FF, r24
    2b14:	90 91 fa 05 	lds	r25, 0x05FA
    2b18:	80 91 ff 06 	lds	r24, 0x06FF
    2b1c:	89 0f       	add	r24, r25
    2b1e:	80 93 fa 05 	sts	0x05FA, r24
    2b22:	80 91 fd 05 	lds	r24, 0x05FD
    2b26:	8f 5f       	subi	r24, 0xFF	; 255
    2b28:	80 93 fd 05 	sts	0x05FD, r24
    2b2c:	80 91 fd 05 	lds	r24, 0x05FD
    2b30:	8f 3f       	cpi	r24, 0xFF	; 255
    2b32:	11 f4       	brne	.+4      	; 0x2b38 <__stack+0x1a39>
/home/becker/async/wcet-benchmarks/benchmarks/PapaBench-0.2m/sw/airborne/autopilot_preprocessed/pp_main.c:377 (discriminator 1)
    2b34:	10 92 fd 05 	sts	0x05FD, r1
/home/becker/async/wcet-benchmarks/benchmarks/PapaBench-0.2m/sw/airborne/autopilot_preprocessed/pp_main.c:377 (discriminator 2)
    2b38:	80 91 fd 05 	lds	r24, 0x05FD
    2b3c:	88 2f       	mov	r24, r24
    2b3e:	90 e0       	ldi	r25, 0x00	; 0
    2b40:	20 91 9d 07 	lds	r18, 0x079D
    2b44:	80 50       	subi	r24, 0x00	; 0
    2b46:	9a 4f       	sbci	r25, 0xFA	; 250
    2b48:	fc 01       	movw	r30, r24
    2b4a:	20 83       	st	Z, r18
    2b4c:	8d e9       	ldi	r24, 0x9D	; 157
    2b4e:	97 e0       	ldi	r25, 0x07	; 7
    2b50:	fc 01       	movw	r30, r24
    2b52:	90 81       	ld	r25, Z
    2b54:	80 91 ff 06 	lds	r24, 0x06FF
    2b58:	89 0f       	add	r24, r25
    2b5a:	80 93 ff 06 	sts	0x06FF, r24
    2b5e:	90 91 fa 05 	lds	r25, 0x05FA
    2b62:	80 91 ff 06 	lds	r24, 0x06FF
    2b66:	89 0f       	add	r24, r25
    2b68:	80 93 fa 05 	sts	0x05FA, r24
    2b6c:	80 91 fd 05 	lds	r24, 0x05FD
    2b70:	8f 5f       	subi	r24, 0xFF	; 255
    2b72:	80 93 fd 05 	sts	0x05FD, r24
    2b76:	80 91 fd 05 	lds	r24, 0x05FD
    2b7a:	8f 3f       	cpi	r24, 0xFF	; 255
    2b7c:	11 f4       	brne	.+4      	; 0x2b82 <__stack+0x1a83>
/home/becker/async/wcet-benchmarks/benchmarks/PapaBench-0.2m/sw/airborne/autopilot_preprocessed/pp_main.c:377 (discriminator 1)
    2b7e:	10 92 fd 05 	sts	0x05FD, r1
/home/becker/async/wcet-benchmarks/benchmarks/PapaBench-0.2m/sw/airborne/autopilot_preprocessed/pp_main.c:377 (discriminator 2)
    2b82:	80 91 fd 05 	lds	r24, 0x05FD
    2b86:	88 2f       	mov	r24, r24
    2b88:	90 e0       	ldi	r25, 0x00	; 0
    2b8a:	20 91 d2 01 	lds	r18, 0x01D2
    2b8e:	80 50       	subi	r24, 0x00	; 0
    2b90:	9a 4f       	sbci	r25, 0xFA	; 250
    2b92:	fc 01       	movw	r30, r24
    2b94:	20 83       	st	Z, r18
    2b96:	82 ed       	ldi	r24, 0xD2	; 210
    2b98:	91 e0       	ldi	r25, 0x01	; 1
    2b9a:	fc 01       	movw	r30, r24
    2b9c:	90 81       	ld	r25, Z
    2b9e:	80 91 ff 06 	lds	r24, 0x06FF
    2ba2:	89 0f       	add	r24, r25
    2ba4:	80 93 ff 06 	sts	0x06FF, r24
    2ba8:	90 91 fa 05 	lds	r25, 0x05FA
    2bac:	80 91 ff 06 	lds	r24, 0x06FF
    2bb0:	89 0f       	add	r24, r25
    2bb2:	80 93 fa 05 	sts	0x05FA, r24
    2bb6:	80 91 fd 05 	lds	r24, 0x05FD
    2bba:	8f 5f       	subi	r24, 0xFF	; 255
    2bbc:	80 93 fd 05 	sts	0x05FD, r24
    2bc0:	80 91 fd 05 	lds	r24, 0x05FD
    2bc4:	8f 3f       	cpi	r24, 0xFF	; 255
    2bc6:	11 f4       	brne	.+4      	; 0x2bcc <__stack+0x1acd>
/home/becker/async/wcet-benchmarks/benchmarks/PapaBench-0.2m/sw/airborne/autopilot_preprocessed/pp_main.c:377 (discriminator 1)
    2bc8:	10 92 fd 05 	sts	0x05FD, r1
/home/becker/async/wcet-benchmarks/benchmarks/PapaBench-0.2m/sw/airborne/autopilot_preprocessed/pp_main.c:377 (discriminator 2)
    2bcc:	80 91 fd 05 	lds	r24, 0x05FD
    2bd0:	88 2f       	mov	r24, r24
    2bd2:	90 e0       	ldi	r25, 0x00	; 0
    2bd4:	26 e9       	ldi	r18, 0x96	; 150
    2bd6:	37 e0       	ldi	r19, 0x07	; 7
    2bd8:	f9 01       	movw	r30, r18
    2bda:	20 81       	ld	r18, Z
    2bdc:	80 50       	subi	r24, 0x00	; 0
    2bde:	9a 4f       	sbci	r25, 0xFA	; 250
    2be0:	fc 01       	movw	r30, r24
    2be2:	20 83       	st	Z, r18
    2be4:	86 e9       	ldi	r24, 0x96	; 150
    2be6:	97 e0       	ldi	r25, 0x07	; 7
    2be8:	fc 01       	movw	r30, r24
    2bea:	90 81       	ld	r25, Z
    2bec:	80 91 ff 06 	lds	r24, 0x06FF
    2bf0:	89 0f       	add	r24, r25
    2bf2:	80 93 ff 06 	sts	0x06FF, r24
    2bf6:	90 91 fa 05 	lds	r25, 0x05FA
    2bfa:	80 91 ff 06 	lds	r24, 0x06FF
    2bfe:	89 0f       	add	r24, r25
    2c00:	80 93 fa 05 	sts	0x05FA, r24
    2c04:	80 91 fd 05 	lds	r24, 0x05FD
    2c08:	8f 5f       	subi	r24, 0xFF	; 255
    2c0a:	80 93 fd 05 	sts	0x05FD, r24
    2c0e:	80 91 fd 05 	lds	r24, 0x05FD
    2c12:	8f 3f       	cpi	r24, 0xFF	; 255
    2c14:	11 f4       	brne	.+4      	; 0x2c1a <__stack+0x1b1b>
/home/becker/async/wcet-benchmarks/benchmarks/PapaBench-0.2m/sw/airborne/autopilot_preprocessed/pp_main.c:377 (discriminator 1)
    2c16:	10 92 fd 05 	sts	0x05FD, r1
/home/becker/async/wcet-benchmarks/benchmarks/PapaBench-0.2m/sw/airborne/autopilot_preprocessed/pp_main.c:377 (discriminator 2)
    2c1a:	80 91 fd 05 	lds	r24, 0x05FD
    2c1e:	88 2f       	mov	r24, r24
    2c20:	90 e0       	ldi	r25, 0x00	; 0
    2c22:	20 91 97 07 	lds	r18, 0x0797
    2c26:	80 50       	subi	r24, 0x00	; 0
    2c28:	9a 4f       	sbci	r25, 0xFA	; 250
    2c2a:	fc 01       	movw	r30, r24
    2c2c:	20 83       	st	Z, r18
    2c2e:	87 e9       	ldi	r24, 0x97	; 151
    2c30:	97 e0       	ldi	r25, 0x07	; 7
    2c32:	fc 01       	movw	r30, r24
    2c34:	90 81       	ld	r25, Z
    2c36:	80 91 ff 06 	lds	r24, 0x06FF
    2c3a:	89 0f       	add	r24, r25
    2c3c:	80 93 ff 06 	sts	0x06FF, r24
    2c40:	90 91 fa 05 	lds	r25, 0x05FA
    2c44:	80 91 ff 06 	lds	r24, 0x06FF
    2c48:	89 0f       	add	r24, r25
    2c4a:	80 93 fa 05 	sts	0x05FA, r24
    2c4e:	80 91 fd 05 	lds	r24, 0x05FD
    2c52:	8f 5f       	subi	r24, 0xFF	; 255
    2c54:	80 93 fd 05 	sts	0x05FD, r24
    2c58:	80 91 fd 05 	lds	r24, 0x05FD
    2c5c:	8f 3f       	cpi	r24, 0xFF	; 255
    2c5e:	11 f4       	brne	.+4      	; 0x2c64 <__stack+0x1b65>
/home/becker/async/wcet-benchmarks/benchmarks/PapaBench-0.2m/sw/airborne/autopilot_preprocessed/pp_main.c:377 (discriminator 1)
    2c60:	10 92 fd 05 	sts	0x05FD, r1
/home/becker/async/wcet-benchmarks/benchmarks/PapaBench-0.2m/sw/airborne/autopilot_preprocessed/pp_main.c:377 (discriminator 2)
    2c64:	80 91 fd 05 	lds	r24, 0x05FD
    2c68:	88 2f       	mov	r24, r24
    2c6a:	90 e0       	ldi	r25, 0x00	; 0
    2c6c:	24 e9       	ldi	r18, 0x94	; 148
    2c6e:	37 e0       	ldi	r19, 0x07	; 7
    2c70:	f9 01       	movw	r30, r18
    2c72:	20 81       	ld	r18, Z
    2c74:	80 50       	subi	r24, 0x00	; 0
    2c76:	9a 4f       	sbci	r25, 0xFA	; 250
    2c78:	fc 01       	movw	r30, r24
    2c7a:	20 83       	st	Z, r18
    2c7c:	84 e9       	ldi	r24, 0x94	; 148
    2c7e:	97 e0       	ldi	r25, 0x07	; 7
    2c80:	fc 01       	movw	r30, r24
    2c82:	90 81       	ld	r25, Z
    2c84:	80 91 ff 06 	lds	r24, 0x06FF
    2c88:	89 0f       	add	r24, r25
    2c8a:	80 93 ff 06 	sts	0x06FF, r24
    2c8e:	90 91 fa 05 	lds	r25, 0x05FA
    2c92:	80 91 ff 06 	lds	r24, 0x06FF
    2c96:	89 0f       	add	r24, r25
    2c98:	80 93 fa 05 	sts	0x05FA, r24
    2c9c:	80 91 fd 05 	lds	r24, 0x05FD
    2ca0:	8f 5f       	subi	r24, 0xFF	; 255
    2ca2:	80 93 fd 05 	sts	0x05FD, r24
    2ca6:	80 91 fd 05 	lds	r24, 0x05FD
    2caa:	8f 3f       	cpi	r24, 0xFF	; 255
    2cac:	11 f4       	brne	.+4      	; 0x2cb2 <__stack+0x1bb3>
/home/becker/async/wcet-benchmarks/benchmarks/PapaBench-0.2m/sw/airborne/autopilot_preprocessed/pp_main.c:377 (discriminator 1)
    2cae:	10 92 fd 05 	sts	0x05FD, r1
/home/becker/async/wcet-benchmarks/benchmarks/PapaBench-0.2m/sw/airborne/autopilot_preprocessed/pp_main.c:377 (discriminator 2)
    2cb2:	80 91 fd 05 	lds	r24, 0x05FD
    2cb6:	88 2f       	mov	r24, r24
    2cb8:	90 e0       	ldi	r25, 0x00	; 0
    2cba:	20 91 95 07 	lds	r18, 0x0795
    2cbe:	80 50       	subi	r24, 0x00	; 0
    2cc0:	9a 4f       	sbci	r25, 0xFA	; 250
    2cc2:	fc 01       	movw	r30, r24
    2cc4:	20 83       	st	Z, r18
    2cc6:	85 e9       	ldi	r24, 0x95	; 149
    2cc8:	97 e0       	ldi	r25, 0x07	; 7
    2cca:	fc 01       	movw	r30, r24
    2ccc:	90 81       	ld	r25, Z
    2cce:	80 91 ff 06 	lds	r24, 0x06FF
    2cd2:	89 0f       	add	r24, r25
    2cd4:	80 93 ff 06 	sts	0x06FF, r24
    2cd8:	90 91 fa 05 	lds	r25, 0x05FA
    2cdc:	80 91 ff 06 	lds	r24, 0x06FF
    2ce0:	89 0f       	add	r24, r25
    2ce2:	80 93 fa 05 	sts	0x05FA, r24
    2ce6:	80 91 fd 05 	lds	r24, 0x05FD
    2cea:	8f 5f       	subi	r24, 0xFF	; 255
    2cec:	80 93 fd 05 	sts	0x05FD, r24
    2cf0:	80 91 fd 05 	lds	r24, 0x05FD
    2cf4:	8f 3f       	cpi	r24, 0xFF	; 255
    2cf6:	11 f4       	brne	.+4      	; 0x2cfc <__stack+0x1bfd>
/home/becker/async/wcet-benchmarks/benchmarks/PapaBench-0.2m/sw/airborne/autopilot_preprocessed/pp_main.c:377 (discriminator 1)
    2cf8:	10 92 fd 05 	sts	0x05FD, r1
/home/becker/async/wcet-benchmarks/benchmarks/PapaBench-0.2m/sw/airborne/autopilot_preprocessed/pp_main.c:377 (discriminator 2)
    2cfc:	80 91 fd 05 	lds	r24, 0x05FD
    2d00:	88 2f       	mov	r24, r24
    2d02:	90 e0       	ldi	r25, 0x00	; 0
    2d04:	20 91 ff 06 	lds	r18, 0x06FF
    2d08:	80 50       	subi	r24, 0x00	; 0
    2d0a:	9a 4f       	sbci	r25, 0xFA	; 250
    2d0c:	fc 01       	movw	r30, r24
    2d0e:	20 83       	st	Z, r18
    2d10:	80 91 fd 05 	lds	r24, 0x05FD
    2d14:	8f 5f       	subi	r24, 0xFF	; 255
    2d16:	80 93 fd 05 	sts	0x05FD, r24
    2d1a:	80 91 fd 05 	lds	r24, 0x05FD
    2d1e:	8f 3f       	cpi	r24, 0xFF	; 255
    2d20:	11 f4       	brne	.+4      	; 0x2d26 <__stack+0x1c27>
/home/becker/async/wcet-benchmarks/benchmarks/PapaBench-0.2m/sw/airborne/autopilot_preprocessed/pp_main.c:377 (discriminator 1)
    2d22:	10 92 fd 05 	sts	0x05FD, r1
/home/becker/async/wcet-benchmarks/benchmarks/PapaBench-0.2m/sw/airborne/autopilot_preprocessed/pp_main.c:377 (discriminator 2)
    2d26:	80 91 fd 05 	lds	r24, 0x05FD
    2d2a:	88 2f       	mov	r24, r24
    2d2c:	90 e0       	ldi	r25, 0x00	; 0
    2d2e:	20 91 fa 05 	lds	r18, 0x05FA
    2d32:	80 50       	subi	r24, 0x00	; 0
    2d34:	9a 4f       	sbci	r25, 0xFA	; 250
    2d36:	fc 01       	movw	r30, r24
    2d38:	20 83       	st	Z, r18
    2d3a:	80 91 fd 05 	lds	r24, 0x05FD
    2d3e:	8f 5f       	subi	r24, 0xFF	; 255
    2d40:	80 93 fd 05 	sts	0x05FD, r24
    2d44:	80 91 fd 05 	lds	r24, 0x05FD
    2d48:	8f 3f       	cpi	r24, 0xFF	; 255
    2d4a:	11 f4       	brne	.+4      	; 0x2d50 <__stack+0x1c51>
/home/becker/async/wcet-benchmarks/benchmarks/PapaBench-0.2m/sw/airborne/autopilot_preprocessed/pp_main.c:377 (discriminator 1)
    2d4c:	10 92 fd 05 	sts	0x05FD, r1
/home/becker/async/wcet-benchmarks/benchmarks/PapaBench-0.2m/sw/airborne/autopilot_preprocessed/pp_main.c:377 (discriminator 2)
    2d50:	89 e5       	ldi	r24, 0x59	; 89
    2d52:	90 e0       	ldi	r25, 0x00	; 0
    2d54:	fc 01       	movw	r30, r24
    2d56:	80 81       	ld	r24, Z
    2d58:	88 2f       	mov	r24, r24
    2d5a:	90 e0       	ldi	r25, 0x00	; 0
    2d5c:	80 71       	andi	r24, 0x10	; 16
    2d5e:	99 27       	eor	r25, r25
    2d60:	00 97       	sbiw	r24, 0x00	; 0
    2d62:	79 f5       	brne	.+94     	; 0x2dc2 <__stack+0x1cc3>
/home/becker/async/wcet-benchmarks/benchmarks/PapaBench-0.2m/sw/airborne/autopilot_preprocessed/pp_main.c:377 (discriminator 1)
    2d64:	80 91 fe 05 	lds	r24, 0x05FE
    2d68:	88 2f       	mov	r24, r24
    2d6a:	90 e0       	ldi	r25, 0x00	; 0
    2d6c:	80 50       	subi	r24, 0x00	; 0
    2d6e:	9a 4f       	sbci	r25, 0xFA	; 250
    2d70:	fc 01       	movw	r30, r24
    2d72:	80 81       	ld	r24, Z
    2d74:	80 93 fc 05 	sts	0x05FC, r24
    2d78:	10 92 ff 05 	sts	0x05FF, r1
    2d7c:	80 91 fe 05 	lds	r24, 0x05FE
    2d80:	8f 5f       	subi	r24, 0xFF	; 255
    2d82:	80 93 fe 05 	sts	0x05FE, r24
    2d86:	80 91 fe 05 	lds	r24, 0x05FE
    2d8a:	8f 3f       	cpi	r24, 0xFF	; 255
    2d8c:	11 f4       	brne	.+4      	; 0x2d92 <__stack+0x1c93>
    2d8e:	10 92 fe 05 	sts	0x05FE, r1
/home/becker/async/wcet-benchmarks/benchmarks/PapaBench-0.2m/sw/airborne/autopilot_preprocessed/pp_main.c:377 (discriminator 2)
    2d92:	88 e5       	ldi	r24, 0x58	; 88
    2d94:	90 e0       	ldi	r25, 0x00	; 0
    2d96:	28 e5       	ldi	r18, 0x58	; 88
    2d98:	30 e0       	ldi	r19, 0x00	; 0
    2d9a:	f9 01       	movw	r30, r18
    2d9c:	20 81       	ld	r18, Z
    2d9e:	21 60       	ori	r18, 0x01	; 1
    2da0:	fc 01       	movw	r30, r24
    2da2:	20 83       	st	Z, r18
    2da4:	89 e5       	ldi	r24, 0x59	; 89
    2da6:	90 e0       	ldi	r25, 0x00	; 0
    2da8:	29 e5       	ldi	r18, 0x59	; 89
    2daa:	30 e0       	ldi	r19, 0x00	; 0
    2dac:	f9 01       	movw	r30, r18
    2dae:	20 81       	ld	r18, Z
    2db0:	20 61       	ori	r18, 0x10	; 16
    2db2:	fc 01       	movw	r30, r24
    2db4:	20 83       	st	Z, r18
    2db6:	05 c0       	rjmp	.+10     	; 0x2dc2 <__stack+0x1cc3>
    2db8:	80 91 fb 05 	lds	r24, 0x05FB
    2dbc:	8f 5f       	subi	r24, 0xFF	; 255
    2dbe:	80 93 fb 05 	sts	0x05FB, r24
    2dc2:	90 91 d4 01 	lds	r25, 0x01D4
    2dc6:	8d ec       	ldi	r24, 0xCD	; 205
    2dc8:	98 9f       	mul	r25, r24
    2dca:	81 2d       	mov	r24, r1
    2dcc:	11 24       	eor	r1, r1
    2dce:	82 95       	swap	r24
    2dd0:	8f 70       	andi	r24, 0x0F	; 15
    2dd2:	88 0f       	add	r24, r24
    2dd4:	88 0f       	add	r24, r24
    2dd6:	28 2f       	mov	r18, r24
    2dd8:	22 0f       	add	r18, r18
    2dda:	22 0f       	add	r18, r18
    2ddc:	82 0f       	add	r24, r18
    2dde:	f9 2f       	mov	r31, r25
    2de0:	f8 1b       	sub	r31, r24
    2de2:	8f 2f       	mov	r24, r31
    2de4:	82 31       	cpi	r24, 0x12	; 18
    2de6:	09 f0       	breq	.+2      	; 0x2dea <__stack+0x1ceb>
    2de8:	cd c2       	rjmp	.+1434   	; 0x3384 <__stack+0x2285>
/home/becker/async/wcet-benchmarks/benchmarks/PapaBench-0.2m/sw/airborne/autopilot_preprocessed/pp_main.c:377 (discriminator 1)
    2dea:	90 91 fd 05 	lds	r25, 0x05FD
    2dee:	80 91 fe 05 	lds	r24, 0x05FE
    2df2:	98 17       	cp	r25, r24
    2df4:	a0 f0       	brcs	.+40     	; 0x2e1e <__stack+0x1d1f>
    2df6:	80 91 fe 05 	lds	r24, 0x05FE
    2dfa:	28 2f       	mov	r18, r24
    2dfc:	30 e0       	ldi	r19, 0x00	; 0
    2dfe:	80 91 fd 05 	lds	r24, 0x05FD
    2e02:	88 2f       	mov	r24, r24
    2e04:	90 e0       	ldi	r25, 0x00	; 0
    2e06:	a9 01       	movw	r20, r18
    2e08:	48 1b       	sub	r20, r24
    2e0a:	59 0b       	sbc	r21, r25
    2e0c:	ca 01       	movw	r24, r20
    2e0e:	81 50       	subi	r24, 0x01	; 1
    2e10:	9f 4f       	sbci	r25, 0xFF	; 255
    2e12:	21 e0       	ldi	r18, 0x01	; 1
    2e14:	83 31       	cpi	r24, 0x13	; 19
    2e16:	91 05       	cpc	r25, r1
    2e18:	9c f4       	brge	.+38     	; 0x2e40 <__stack+0x1d41>
    2e1a:	20 e0       	ldi	r18, 0x00	; 0
    2e1c:	11 c0       	rjmp	.+34     	; 0x2e40 <__stack+0x1d41>
/home/becker/async/wcet-benchmarks/benchmarks/PapaBench-0.2m/sw/airborne/autopilot_preprocessed/pp_main.c:377 (discriminator 2)
    2e1e:	80 91 fe 05 	lds	r24, 0x05FE
    2e22:	28 2f       	mov	r18, r24
    2e24:	30 e0       	ldi	r19, 0x00	; 0
    2e26:	80 91 fd 05 	lds	r24, 0x05FD
    2e2a:	88 2f       	mov	r24, r24
    2e2c:	90 e0       	ldi	r25, 0x00	; 0
    2e2e:	f9 01       	movw	r30, r18
    2e30:	e8 1b       	sub	r30, r24
    2e32:	f9 0b       	sbc	r31, r25
    2e34:	cf 01       	movw	r24, r30
    2e36:	21 e0       	ldi	r18, 0x01	; 1
    2e38:	83 31       	cpi	r24, 0x13	; 19
    2e3a:	91 05       	cpc	r25, r1
    2e3c:	0c f4       	brge	.+2      	; 0x2e40 <__stack+0x1d41>
    2e3e:	20 e0       	ldi	r18, 0x00	; 0
/home/becker/async/wcet-benchmarks/benchmarks/PapaBench-0.2m/sw/airborne/autopilot_preprocessed/pp_main.c:377 (discriminator 3)
    2e40:	22 23       	and	r18, r18
    2e42:	09 f4       	brne	.+2      	; 0x2e46 <__stack+0x1d47>
    2e44:	9a c2       	rjmp	.+1332   	; 0x337a <__stack+0x227b>
/home/becker/async/wcet-benchmarks/benchmarks/PapaBench-0.2m/sw/airborne/autopilot_preprocessed/pp_main.c:377 (discriminator 1)
    2e46:	80 91 fd 05 	lds	r24, 0x05FD
    2e4a:	88 2f       	mov	r24, r24
    2e4c:	90 e0       	ldi	r25, 0x00	; 0
    2e4e:	80 50       	subi	r24, 0x00	; 0
    2e50:	9a 4f       	sbci	r25, 0xFA	; 250
    2e52:	25 e0       	ldi	r18, 0x05	; 5
    2e54:	fc 01       	movw	r30, r24
    2e56:	20 83       	st	Z, r18
    2e58:	80 91 fd 05 	lds	r24, 0x05FD
    2e5c:	8f 5f       	subi	r24, 0xFF	; 255
    2e5e:	80 93 fd 05 	sts	0x05FD, r24
    2e62:	80 91 fd 05 	lds	r24, 0x05FD
    2e66:	8f 3f       	cpi	r24, 0xFF	; 255
    2e68:	11 f4       	brne	.+4      	; 0x2e6e <__stack+0x1d6f>
    2e6a:	10 92 fd 05 	sts	0x05FD, r1
/home/becker/async/wcet-benchmarks/benchmarks/PapaBench-0.2m/sw/airborne/autopilot_preprocessed/pp_main.c:377 (discriminator 2)
    2e6e:	80 91 fd 05 	lds	r24, 0x05FD
    2e72:	88 2f       	mov	r24, r24
    2e74:	90 e0       	ldi	r25, 0x00	; 0
    2e76:	80 50       	subi	r24, 0x00	; 0
    2e78:	9a 4f       	sbci	r25, 0xFA	; 250
    2e7a:	2e e0       	ldi	r18, 0x0E	; 14
    2e7c:	fc 01       	movw	r30, r24
    2e7e:	20 83       	st	Z, r18
    2e80:	80 91 fd 05 	lds	r24, 0x05FD
    2e84:	8f 5f       	subi	r24, 0xFF	; 255
    2e86:	80 93 fd 05 	sts	0x05FD, r24
    2e8a:	80 91 fd 05 	lds	r24, 0x05FD
    2e8e:	8f 3f       	cpi	r24, 0xFF	; 255
    2e90:	11 f4       	brne	.+4      	; 0x2e96 <__stack+0x1d97>
/home/becker/async/wcet-benchmarks/benchmarks/PapaBench-0.2m/sw/airborne/autopilot_preprocessed/pp_main.c:377 (discriminator 1)
    2e92:	10 92 fd 05 	sts	0x05FD, r1
/home/becker/async/wcet-benchmarks/benchmarks/PapaBench-0.2m/sw/airborne/autopilot_preprocessed/pp_main.c:377 (discriminator 2)
    2e96:	8e e0       	ldi	r24, 0x0E	; 14
    2e98:	80 93 ff 06 	sts	0x06FF, r24
    2e9c:	8e e0       	ldi	r24, 0x0E	; 14
    2e9e:	80 93 fa 05 	sts	0x05FA, r24
    2ea2:	80 91 fd 05 	lds	r24, 0x05FD
    2ea6:	88 2f       	mov	r24, r24
    2ea8:	90 e0       	ldi	r25, 0x00	; 0
    2eaa:	2c e6       	ldi	r18, 0x6C	; 108
    2eac:	37 e0       	ldi	r19, 0x07	; 7
    2eae:	f9 01       	movw	r30, r18
    2eb0:	20 81       	ld	r18, Z
    2eb2:	80 50       	subi	r24, 0x00	; 0
    2eb4:	9a 4f       	sbci	r25, 0xFA	; 250
    2eb6:	fc 01       	movw	r30, r24
    2eb8:	20 83       	st	Z, r18
    2eba:	8c e6       	ldi	r24, 0x6C	; 108
    2ebc:	97 e0       	ldi	r25, 0x07	; 7
    2ebe:	fc 01       	movw	r30, r24
    2ec0:	90 81       	ld	r25, Z
    2ec2:	80 91 ff 06 	lds	r24, 0x06FF
    2ec6:	89 0f       	add	r24, r25
    2ec8:	80 93 ff 06 	sts	0x06FF, r24
    2ecc:	90 91 fa 05 	lds	r25, 0x05FA
    2ed0:	80 91 ff 06 	lds	r24, 0x06FF
    2ed4:	89 0f       	add	r24, r25
    2ed6:	80 93 fa 05 	sts	0x05FA, r24
    2eda:	80 91 fd 05 	lds	r24, 0x05FD
    2ede:	8f 5f       	subi	r24, 0xFF	; 255
    2ee0:	80 93 fd 05 	sts	0x05FD, r24
    2ee4:	80 91 fd 05 	lds	r24, 0x05FD
    2ee8:	8f 3f       	cpi	r24, 0xFF	; 255
    2eea:	11 f4       	brne	.+4      	; 0x2ef0 <__stack+0x1df1>
/home/becker/async/wcet-benchmarks/benchmarks/PapaBench-0.2m/sw/airborne/autopilot_preprocessed/pp_main.c:377 (discriminator 1)
    2eec:	10 92 fd 05 	sts	0x05FD, r1
/home/becker/async/wcet-benchmarks/benchmarks/PapaBench-0.2m/sw/airborne/autopilot_preprocessed/pp_main.c:377 (discriminator 2)
    2ef0:	80 91 fd 05 	lds	r24, 0x05FD
    2ef4:	88 2f       	mov	r24, r24
    2ef6:	90 e0       	ldi	r25, 0x00	; 0
    2ef8:	20 91 6d 07 	lds	r18, 0x076D
    2efc:	80 50       	subi	r24, 0x00	; 0
    2efe:	9a 4f       	sbci	r25, 0xFA	; 250
    2f00:	fc 01       	movw	r30, r24
    2f02:	20 83       	st	Z, r18
    2f04:	8d e6       	ldi	r24, 0x6D	; 109
    2f06:	97 e0       	ldi	r25, 0x07	; 7
    2f08:	fc 01       	movw	r30, r24
    2f0a:	90 81       	ld	r25, Z
    2f0c:	80 91 ff 06 	lds	r24, 0x06FF
    2f10:	89 0f       	add	r24, r25
    2f12:	80 93 ff 06 	sts	0x06FF, r24
    2f16:	90 91 fa 05 	lds	r25, 0x05FA
    2f1a:	80 91 ff 06 	lds	r24, 0x06FF
    2f1e:	89 0f       	add	r24, r25
    2f20:	80 93 fa 05 	sts	0x05FA, r24
    2f24:	80 91 fd 05 	lds	r24, 0x05FD
    2f28:	8f 5f       	subi	r24, 0xFF	; 255
    2f2a:	80 93 fd 05 	sts	0x05FD, r24
    2f2e:	80 91 fd 05 	lds	r24, 0x05FD
    2f32:	8f 3f       	cpi	r24, 0xFF	; 255
    2f34:	11 f4       	brne	.+4      	; 0x2f3a <__stack+0x1e3b>
/home/becker/async/wcet-benchmarks/benchmarks/PapaBench-0.2m/sw/airborne/autopilot_preprocessed/pp_main.c:377 (discriminator 1)
    2f36:	10 92 fd 05 	sts	0x05FD, r1
/home/becker/async/wcet-benchmarks/benchmarks/PapaBench-0.2m/sw/airborne/autopilot_preprocessed/pp_main.c:377 (discriminator 2)
    2f3a:	80 91 fd 05 	lds	r24, 0x05FD
    2f3e:	88 2f       	mov	r24, r24
    2f40:	90 e0       	ldi	r25, 0x00	; 0
    2f42:	24 e9       	ldi	r18, 0x94	; 148
    2f44:	33 e0       	ldi	r19, 0x03	; 3
    2f46:	f9 01       	movw	r30, r18
    2f48:	20 81       	ld	r18, Z
    2f4a:	80 50       	subi	r24, 0x00	; 0
    2f4c:	9a 4f       	sbci	r25, 0xFA	; 250
    2f4e:	fc 01       	movw	r30, r24
    2f50:	20 83       	st	Z, r18
    2f52:	84 e9       	ldi	r24, 0x94	; 148
    2f54:	93 e0       	ldi	r25, 0x03	; 3
    2f56:	fc 01       	movw	r30, r24
    2f58:	90 81       	ld	r25, Z
    2f5a:	80 91 ff 06 	lds	r24, 0x06FF
    2f5e:	89 0f       	add	r24, r25
    2f60:	80 93 ff 06 	sts	0x06FF, r24
    2f64:	90 91 fa 05 	lds	r25, 0x05FA
    2f68:	80 91 ff 06 	lds	r24, 0x06FF
    2f6c:	89 0f       	add	r24, r25
    2f6e:	80 93 fa 05 	sts	0x05FA, r24
    2f72:	80 91 fd 05 	lds	r24, 0x05FD
    2f76:	8f 5f       	subi	r24, 0xFF	; 255
    2f78:	80 93 fd 05 	sts	0x05FD, r24
    2f7c:	80 91 fd 05 	lds	r24, 0x05FD
    2f80:	8f 3f       	cpi	r24, 0xFF	; 255
    2f82:	11 f4       	brne	.+4      	; 0x2f88 <__stack+0x1e89>
/home/becker/async/wcet-benchmarks/benchmarks/PapaBench-0.2m/sw/airborne/autopilot_preprocessed/pp_main.c:377 (discriminator 1)
    2f84:	10 92 fd 05 	sts	0x05FD, r1
/home/becker/async/wcet-benchmarks/benchmarks/PapaBench-0.2m/sw/airborne/autopilot_preprocessed/pp_main.c:377 (discriminator 2)
    2f88:	80 91 fd 05 	lds	r24, 0x05FD
    2f8c:	88 2f       	mov	r24, r24
    2f8e:	90 e0       	ldi	r25, 0x00	; 0
    2f90:	20 91 95 03 	lds	r18, 0x0395
    2f94:	80 50       	subi	r24, 0x00	; 0
    2f96:	9a 4f       	sbci	r25, 0xFA	; 250
    2f98:	fc 01       	movw	r30, r24
    2f9a:	20 83       	st	Z, r18
    2f9c:	85 e9       	ldi	r24, 0x95	; 149
    2f9e:	93 e0       	ldi	r25, 0x03	; 3
    2fa0:	fc 01       	movw	r30, r24
    2fa2:	90 81       	ld	r25, Z
    2fa4:	80 91 ff 06 	lds	r24, 0x06FF
    2fa8:	89 0f       	add	r24, r25
    2faa:	80 93 ff 06 	sts	0x06FF, r24
    2fae:	90 91 fa 05 	lds	r25, 0x05FA
    2fb2:	80 91 ff 06 	lds	r24, 0x06FF
    2fb6:	89 0f       	add	r24, r25
    2fb8:	80 93 fa 05 	sts	0x05FA, r24
    2fbc:	80 91 fd 05 	lds	r24, 0x05FD
    2fc0:	8f 5f       	subi	r24, 0xFF	; 255
    2fc2:	80 93 fd 05 	sts	0x05FD, r24
    2fc6:	80 91 fd 05 	lds	r24, 0x05FD
    2fca:	8f 3f       	cpi	r24, 0xFF	; 255
    2fcc:	11 f4       	brne	.+4      	; 0x2fd2 <__stack+0x1ed3>
/home/becker/async/wcet-benchmarks/benchmarks/PapaBench-0.2m/sw/airborne/autopilot_preprocessed/pp_main.c:377 (discriminator 1)
    2fce:	10 92 fd 05 	sts	0x05FD, r1
/home/becker/async/wcet-benchmarks/benchmarks/PapaBench-0.2m/sw/airborne/autopilot_preprocessed/pp_main.c:377 (discriminator 2)
    2fd2:	80 91 fd 05 	lds	r24, 0x05FD
    2fd6:	88 2f       	mov	r24, r24
    2fd8:	90 e0       	ldi	r25, 0x00	; 0
    2fda:	20 91 96 03 	lds	r18, 0x0396
    2fde:	80 50       	subi	r24, 0x00	; 0
    2fe0:	9a 4f       	sbci	r25, 0xFA	; 250
    2fe2:	fc 01       	movw	r30, r24
    2fe4:	20 83       	st	Z, r18
    2fe6:	86 e9       	ldi	r24, 0x96	; 150
    2fe8:	93 e0       	ldi	r25, 0x03	; 3
    2fea:	fc 01       	movw	r30, r24
    2fec:	90 81       	ld	r25, Z
    2fee:	80 91 ff 06 	lds	r24, 0x06FF
    2ff2:	89 0f       	add	r24, r25
    2ff4:	80 93 ff 06 	sts	0x06FF, r24
    2ff8:	90 91 fa 05 	lds	r25, 0x05FA
    2ffc:	80 91 ff 06 	lds	r24, 0x06FF
    3000:	89 0f       	add	r24, r25
    3002:	80 93 fa 05 	sts	0x05FA, r24
    3006:	80 91 fd 05 	lds	r24, 0x05FD
    300a:	8f 5f       	subi	r24, 0xFF	; 255
    300c:	80 93 fd 05 	sts	0x05FD, r24
    3010:	80 91 fd 05 	lds	r24, 0x05FD
    3014:	8f 3f       	cpi	r24, 0xFF	; 255
    3016:	11 f4       	brne	.+4      	; 0x301c <__stack+0x1f1d>
/home/becker/async/wcet-benchmarks/benchmarks/PapaBench-0.2m/sw/airborne/autopilot_preprocessed/pp_main.c:377 (discriminator 1)
    3018:	10 92 fd 05 	sts	0x05FD, r1
/home/becker/async/wcet-benchmarks/benchmarks/PapaBench-0.2m/sw/airborne/autopilot_preprocessed/pp_main.c:377 (discriminator 2)
    301c:	80 91 fd 05 	lds	r24, 0x05FD
    3020:	88 2f       	mov	r24, r24
    3022:	90 e0       	ldi	r25, 0x00	; 0
    3024:	20 91 97 03 	lds	r18, 0x0397
    3028:	80 50       	subi	r24, 0x00	; 0
    302a:	9a 4f       	sbci	r25, 0xFA	; 250
    302c:	fc 01       	movw	r30, r24
    302e:	20 83       	st	Z, r18
    3030:	87 e9       	ldi	r24, 0x97	; 151
    3032:	93 e0       	ldi	r25, 0x03	; 3
    3034:	fc 01       	movw	r30, r24
    3036:	90 81       	ld	r25, Z
    3038:	80 91 ff 06 	lds	r24, 0x06FF
    303c:	89 0f       	add	r24, r25
    303e:	80 93 ff 06 	sts	0x06FF, r24
    3042:	90 91 fa 05 	lds	r25, 0x05FA
    3046:	80 91 ff 06 	lds	r24, 0x06FF
    304a:	89 0f       	add	r24, r25
    304c:	80 93 fa 05 	sts	0x05FA, r24
    3050:	80 91 fd 05 	lds	r24, 0x05FD
    3054:	8f 5f       	subi	r24, 0xFF	; 255
    3056:	80 93 fd 05 	sts	0x05FD, r24
    305a:	80 91 fd 05 	lds	r24, 0x05FD
    305e:	8f 3f       	cpi	r24, 0xFF	; 255
    3060:	11 f4       	brne	.+4      	; 0x3066 <__stack+0x1f67>
/home/becker/async/wcet-benchmarks/benchmarks/PapaBench-0.2m/sw/airborne/autopilot_preprocessed/pp_main.c:377 (discriminator 1)
    3062:	10 92 fd 05 	sts	0x05FD, r1
/home/becker/async/wcet-benchmarks/benchmarks/PapaBench-0.2m/sw/airborne/autopilot_preprocessed/pp_main.c:377 (discriminator 2)
    3066:	80 91 fd 05 	lds	r24, 0x05FD
    306a:	88 2f       	mov	r24, r24
    306c:	90 e0       	ldi	r25, 0x00	; 0
    306e:	2c e9       	ldi	r18, 0x9C	; 156
    3070:	33 e0       	ldi	r19, 0x03	; 3
    3072:	f9 01       	movw	r30, r18
    3074:	20 81       	ld	r18, Z
    3076:	80 50       	subi	r24, 0x00	; 0
    3078:	9a 4f       	sbci	r25, 0xFA	; 250
    307a:	fc 01       	movw	r30, r24
    307c:	20 83       	st	Z, r18
    307e:	8c e9       	ldi	r24, 0x9C	; 156
    3080:	93 e0       	ldi	r25, 0x03	; 3
    3082:	fc 01       	movw	r30, r24
    3084:	90 81       	ld	r25, Z
    3086:	80 91 ff 06 	lds	r24, 0x06FF
    308a:	89 0f       	add	r24, r25
    308c:	80 93 ff 06 	sts	0x06FF, r24
    3090:	90 91 fa 05 	lds	r25, 0x05FA
    3094:	80 91 ff 06 	lds	r24, 0x06FF
    3098:	89 0f       	add	r24, r25
    309a:	80 93 fa 05 	sts	0x05FA, r24
    309e:	80 91 fd 05 	lds	r24, 0x05FD
    30a2:	8f 5f       	subi	r24, 0xFF	; 255
    30a4:	80 93 fd 05 	sts	0x05FD, r24
    30a8:	80 91 fd 05 	lds	r24, 0x05FD
    30ac:	8f 3f       	cpi	r24, 0xFF	; 255
    30ae:	11 f4       	brne	.+4      	; 0x30b4 <__stack+0x1fb5>
/home/becker/async/wcet-benchmarks/benchmarks/PapaBench-0.2m/sw/airborne/autopilot_preprocessed/pp_main.c:377 (discriminator 1)
    30b0:	10 92 fd 05 	sts	0x05FD, r1
/home/becker/async/wcet-benchmarks/benchmarks/PapaBench-0.2m/sw/airborne/autopilot_preprocessed/pp_main.c:377 (discriminator 2)
    30b4:	80 91 fd 05 	lds	r24, 0x05FD
    30b8:	88 2f       	mov	r24, r24
    30ba:	90 e0       	ldi	r25, 0x00	; 0
    30bc:	20 91 9d 03 	lds	r18, 0x039D
    30c0:	80 50       	subi	r24, 0x00	; 0
    30c2:	9a 4f       	sbci	r25, 0xFA	; 250
    30c4:	fc 01       	movw	r30, r24
    30c6:	20 83       	st	Z, r18
    30c8:	8d e9       	ldi	r24, 0x9D	; 157
    30ca:	93 e0       	ldi	r25, 0x03	; 3
    30cc:	fc 01       	movw	r30, r24
    30ce:	90 81       	ld	r25, Z
    30d0:	80 91 ff 06 	lds	r24, 0x06FF
    30d4:	89 0f       	add	r24, r25
    30d6:	80 93 ff 06 	sts	0x06FF, r24
    30da:	90 91 fa 05 	lds	r25, 0x05FA
    30de:	80 91 ff 06 	lds	r24, 0x06FF
    30e2:	89 0f       	add	r24, r25
    30e4:	80 93 fa 05 	sts	0x05FA, r24
    30e8:	80 91 fd 05 	lds	r24, 0x05FD
    30ec:	8f 5f       	subi	r24, 0xFF	; 255
    30ee:	80 93 fd 05 	sts	0x05FD, r24
    30f2:	80 91 fd 05 	lds	r24, 0x05FD
    30f6:	8f 3f       	cpi	r24, 0xFF	; 255
    30f8:	11 f4       	brne	.+4      	; 0x30fe <__stack+0x1fff>
/home/becker/async/wcet-benchmarks/benchmarks/PapaBench-0.2m/sw/airborne/autopilot_preprocessed/pp_main.c:377 (discriminator 1)
    30fa:	10 92 fd 05 	sts	0x05FD, r1
/home/becker/async/wcet-benchmarks/benchmarks/PapaBench-0.2m/sw/airborne/autopilot_preprocessed/pp_main.c:377 (discriminator 2)
    30fe:	80 91 fd 05 	lds	r24, 0x05FD
    3102:	88 2f       	mov	r24, r24
    3104:	90 e0       	ldi	r25, 0x00	; 0
    3106:	20 91 9e 03 	lds	r18, 0x039E
    310a:	80 50       	subi	r24, 0x00	; 0
    310c:	9a 4f       	sbci	r25, 0xFA	; 250
    310e:	fc 01       	movw	r30, r24
    3110:	20 83       	st	Z, r18
    3112:	8e e9       	ldi	r24, 0x9E	; 158
    3114:	93 e0       	ldi	r25, 0x03	; 3
    3116:	fc 01       	movw	r30, r24
    3118:	90 81       	ld	r25, Z
    311a:	80 91 ff 06 	lds	r24, 0x06FF
    311e:	89 0f       	add	r24, r25
    3120:	80 93 ff 06 	sts	0x06FF, r24
    3124:	90 91 fa 05 	lds	r25, 0x05FA
    3128:	80 91 ff 06 	lds	r24, 0x06FF
    312c:	89 0f       	add	r24, r25
    312e:	80 93 fa 05 	sts	0x05FA, r24
    3132:	80 91 fd 05 	lds	r24, 0x05FD
    3136:	8f 5f       	subi	r24, 0xFF	; 255
    3138:	80 93 fd 05 	sts	0x05FD, r24
    313c:	80 91 fd 05 	lds	r24, 0x05FD
    3140:	8f 3f       	cpi	r24, 0xFF	; 255
    3142:	11 f4       	brne	.+4      	; 0x3148 <__stack+0x2049>
/home/becker/async/wcet-benchmarks/benchmarks/PapaBench-0.2m/sw/airborne/autopilot_preprocessed/pp_main.c:377 (discriminator 1)
    3144:	10 92 fd 05 	sts	0x05FD, r1
/home/becker/async/wcet-benchmarks/benchmarks/PapaBench-0.2m/sw/airborne/autopilot_preprocessed/pp_main.c:377 (discriminator 2)
    3148:	80 91 fd 05 	lds	r24, 0x05FD
    314c:	88 2f       	mov	r24, r24
    314e:	90 e0       	ldi	r25, 0x00	; 0
    3150:	20 91 9f 03 	lds	r18, 0x039F
    3154:	80 50       	subi	r24, 0x00	; 0
    3156:	9a 4f       	sbci	r25, 0xFA	; 250
    3158:	fc 01       	movw	r30, r24
    315a:	20 83       	st	Z, r18
    315c:	8f e9       	ldi	r24, 0x9F	; 159
    315e:	93 e0       	ldi	r25, 0x03	; 3
    3160:	fc 01       	movw	r30, r24
    3162:	90 81       	ld	r25, Z
    3164:	80 91 ff 06 	lds	r24, 0x06FF
    3168:	89 0f       	add	r24, r25
    316a:	80 93 ff 06 	sts	0x06FF, r24
    316e:	90 91 fa 05 	lds	r25, 0x05FA
    3172:	80 91 ff 06 	lds	r24, 0x06FF
    3176:	89 0f       	add	r24, r25
    3178:	80 93 fa 05 	sts	0x05FA, r24
    317c:	80 91 fd 05 	lds	r24, 0x05FD
    3180:	8f 5f       	subi	r24, 0xFF	; 255
    3182:	80 93 fd 05 	sts	0x05FD, r24
    3186:	80 91 fd 05 	lds	r24, 0x05FD
    318a:	8f 3f       	cpi	r24, 0xFF	; 255
    318c:	11 f4       	brne	.+4      	; 0x3192 <__stack+0x2093>
/home/becker/async/wcet-benchmarks/benchmarks/PapaBench-0.2m/sw/airborne/autopilot_preprocessed/pp_main.c:377 (discriminator 1)
    318e:	10 92 fd 05 	sts	0x05FD, r1
/home/becker/async/wcet-benchmarks/benchmarks/PapaBench-0.2m/sw/airborne/autopilot_preprocessed/pp_main.c:377 (discriminator 2)
    3192:	80 91 fd 05 	lds	r24, 0x05FD
    3196:	88 2f       	mov	r24, r24
    3198:	90 e0       	ldi	r25, 0x00	; 0
    319a:	23 ea       	ldi	r18, 0xA3	; 163
    319c:	31 e0       	ldi	r19, 0x01	; 1
    319e:	f9 01       	movw	r30, r18
    31a0:	20 81       	ld	r18, Z
    31a2:	80 50       	subi	r24, 0x00	; 0
    31a4:	9a 4f       	sbci	r25, 0xFA	; 250
    31a6:	fc 01       	movw	r30, r24
    31a8:	20 83       	st	Z, r18
    31aa:	83 ea       	ldi	r24, 0xA3	; 163
    31ac:	91 e0       	ldi	r25, 0x01	; 1
    31ae:	fc 01       	movw	r30, r24
    31b0:	90 81       	ld	r25, Z
    31b2:	80 91 ff 06 	lds	r24, 0x06FF
    31b6:	89 0f       	add	r24, r25
    31b8:	80 93 ff 06 	sts	0x06FF, r24
    31bc:	90 91 fa 05 	lds	r25, 0x05FA
    31c0:	80 91 ff 06 	lds	r24, 0x06FF
    31c4:	89 0f       	add	r24, r25
    31c6:	80 93 fa 05 	sts	0x05FA, r24
    31ca:	80 91 fd 05 	lds	r24, 0x05FD
    31ce:	8f 5f       	subi	r24, 0xFF	; 255
    31d0:	80 93 fd 05 	sts	0x05FD, r24
    31d4:	80 91 fd 05 	lds	r24, 0x05FD
    31d8:	8f 3f       	cpi	r24, 0xFF	; 255
    31da:	11 f4       	brne	.+4      	; 0x31e0 <__stack+0x20e1>
/home/becker/async/wcet-benchmarks/benchmarks/PapaBench-0.2m/sw/airborne/autopilot_preprocessed/pp_main.c:377 (discriminator 1)
    31dc:	10 92 fd 05 	sts	0x05FD, r1
/home/becker/async/wcet-benchmarks/benchmarks/PapaBench-0.2m/sw/airborne/autopilot_preprocessed/pp_main.c:377 (discriminator 2)
    31e0:	80 91 fd 05 	lds	r24, 0x05FD
    31e4:	88 2f       	mov	r24, r24
    31e6:	90 e0       	ldi	r25, 0x00	; 0
    31e8:	20 91 a4 01 	lds	r18, 0x01A4
    31ec:	80 50       	subi	r24, 0x00	; 0
    31ee:	9a 4f       	sbci	r25, 0xFA	; 250
    31f0:	fc 01       	movw	r30, r24
    31f2:	20 83       	st	Z, r18
    31f4:	84 ea       	ldi	r24, 0xA4	; 164
    31f6:	91 e0       	ldi	r25, 0x01	; 1
    31f8:	fc 01       	movw	r30, r24
    31fa:	90 81       	ld	r25, Z
    31fc:	80 91 ff 06 	lds	r24, 0x06FF
    3200:	89 0f       	add	r24, r25
    3202:	80 93 ff 06 	sts	0x06FF, r24
    3206:	90 91 fa 05 	lds	r25, 0x05FA
    320a:	80 91 ff 06 	lds	r24, 0x06FF
    320e:	89 0f       	add	r24, r25
    3210:	80 93 fa 05 	sts	0x05FA, r24
    3214:	80 91 fd 05 	lds	r24, 0x05FD
    3218:	8f 5f       	subi	r24, 0xFF	; 255
    321a:	80 93 fd 05 	sts	0x05FD, r24
    321e:	80 91 fd 05 	lds	r24, 0x05FD
    3222:	8f 3f       	cpi	r24, 0xFF	; 255
    3224:	11 f4       	brne	.+4      	; 0x322a <__stack+0x212b>
/home/becker/async/wcet-benchmarks/benchmarks/PapaBench-0.2m/sw/airborne/autopilot_preprocessed/pp_main.c:377 (discriminator 1)
    3226:	10 92 fd 05 	sts	0x05FD, r1
/home/becker/async/wcet-benchmarks/benchmarks/PapaBench-0.2m/sw/airborne/autopilot_preprocessed/pp_main.c:377 (discriminator 2)
    322a:	80 91 fd 05 	lds	r24, 0x05FD
    322e:	88 2f       	mov	r24, r24
    3230:	90 e0       	ldi	r25, 0x00	; 0
    3232:	20 91 a5 01 	lds	r18, 0x01A5
    3236:	80 50       	subi	r24, 0x00	; 0
    3238:	9a 4f       	sbci	r25, 0xFA	; 250
    323a:	fc 01       	movw	r30, r24
    323c:	20 83       	st	Z, r18
    323e:	85 ea       	ldi	r24, 0xA5	; 165
    3240:	91 e0       	ldi	r25, 0x01	; 1
    3242:	fc 01       	movw	r30, r24
    3244:	90 81       	ld	r25, Z
    3246:	80 91 ff 06 	lds	r24, 0x06FF
    324a:	89 0f       	add	r24, r25
    324c:	80 93 ff 06 	sts	0x06FF, r24
    3250:	90 91 fa 05 	lds	r25, 0x05FA
    3254:	80 91 ff 06 	lds	r24, 0x06FF
    3258:	89 0f       	add	r24, r25
    325a:	80 93 fa 05 	sts	0x05FA, r24
    325e:	80 91 fd 05 	lds	r24, 0x05FD
    3262:	8f 5f       	subi	r24, 0xFF	; 255
    3264:	80 93 fd 05 	sts	0x05FD, r24
    3268:	80 91 fd 05 	lds	r24, 0x05FD
    326c:	8f 3f       	cpi	r24, 0xFF	; 255
    326e:	11 f4       	brne	.+4      	; 0x3274 <__stack+0x2175>
/home/becker/async/wcet-benchmarks/benchmarks/PapaBench-0.2m/sw/airborne/autopilot_preprocessed/pp_main.c:377 (discriminator 1)
    3270:	10 92 fd 05 	sts	0x05FD, r1
/home/becker/async/wcet-benchmarks/benchmarks/PapaBench-0.2m/sw/airborne/autopilot_preprocessed/pp_main.c:377 (discriminator 2)
    3274:	80 91 fd 05 	lds	r24, 0x05FD
    3278:	88 2f       	mov	r24, r24
    327a:	90 e0       	ldi	r25, 0x00	; 0
    327c:	20 91 a6 01 	lds	r18, 0x01A6
    3280:	80 50       	subi	r24, 0x00	; 0
    3282:	9a 4f       	sbci	r25, 0xFA	; 250
    3284:	fc 01       	movw	r30, r24
    3286:	20 83       	st	Z, r18
